(dp0
S'ACOAD6f'
p1
cnumpy.core.multiarray
scalar
p2
(cnumpy
dtype
p3
(S'f8'
p4
I0
I1
tp5
Rp6
(I3
S'<'
p7
NNNI-1
I-1
I0
tp8
bS'\xd1*4\x19\x1a.\x93?'
p9
tp10
Rp11
sS'ACOAD8f'
p12
g2
(g6
S'\xd1*4\x19\x1a.\x93?'
p13
tp14
Rp15
sS'NO3R2bpp'
p16
g2
(g6
S'\xfd\x8c\xf0\xc7+&\xf0?'
p17
tp18
Rp19
sS'ACACT2r'
p20
g2
(g6
S'{(\xad?Y\x175@'
p21
tp22
Rp23
sS'MDDCP1pp'
p24
g2
(g6
S'\xc9\x1bk\x00\xa3\xe7\xc2?'
p25
tp26
Rp27
sS'ACACT6r'
p28
g2
(g6
S'{(\xad?Y\x175@'
p29
tp30
Rp31
sS'ACACT4r'
p32
g2
(g6
S'{(\xad?Y\x175@'
p33
tp34
Rp35
sS'PPM'
p36
g2
(g6
S'\x9am\xdb\xda\xbeK\xc0?'
p37
tp38
Rp39
sS'ACOAD2f'
p40
g2
(g6
S'\xd1*4\x19\x1a.\x93?'
p41
tp42
Rp43
sS'ACACT8r'
p44
g2
(g6
S'{(\xad?Y\x175@'
p45
tp46
Rp47
sS'NO3R1pp'
p48
g2
(g6
S'\x16C\x05i\xd8\n\xd9?'
p49
tp50
Rp51
sS'ACOAD4f'
p52
g2
(g6
S'\xd1*4\x19\x1a.\x93?'
p53
tp54
Rp55
sS'MDDCP5pp'
p56
g2
(g6
S'\xc9\x1bk\x00\xa3\xe7\xc2?'
p57
tp58
Rp59
sS'ACOAD7f'
p60
g2
(g6
S'\xd1*4\x19\x1a.\x93?'
p61
tp62
Rp63
sS'MDDCP4pp'
p64
g2
(g6
S'\xc9\x1bk\x00\xa3\xe7\xc2?'
p65
tp66
Rp67
sS'NO3R1bpp'
p68
g2
(g6
S'\xfd\x8c\xf0\xc7+&\xf0?'
p69
tp70
Rp71
sS'ACACT1r'
p72
g2
(g6
S'@c\xd0\xe0\x0f_\xee?'
p73
tp74
Rp75
sS'ACACT7r'
p76
g2
(g6
S'{(\xad?Y\x175@'
p77
tp78
Rp79
sS'ACACT3r'
p80
g2
(g6
S'{(\xad?Y\x175@'
p81
tp82
Rp83
sS'TREH'
p84
g2
(g6
S'84\xff\xfa\xeaD\xce?'
p85
tp86
Rp87
sS'ACACT5r'
p88
g2
(g6
S'{(\xad?Y\x175@'
p89
tp90
Rp91
sS'ACOAD1f'
p92
g2
(g6
S'\x1a]X\xb2\x92\xfc$@'
p93
tp94
Rp95
sS'ACOAD5f'
p96
g2
(g6
S'\xd1*4\x19\x1a.\x93?'
p97
tp98
Rp99
sS'MDDCP3pp'
p100
g2
(g6
S'\xc9\x1bk\x00\xa3\xe7\xc2?'
p101
tp102
Rp103
sS'ACOAD3f'
p104
g2
(g6
S'\xd1*4\x19\x1a.\x93?'
p105
tp106
Rp107
sS'SERD_L'
p108
g2
(g6
S'v/1mv\xce\xd7?'
p109
tp110
Rp111
sS'MDDCP2pp'
p112
g2
(g6
S'\xc9\x1bk\x00\xa3\xe7\xc2?'
p113
tp114
Rp115
sS'XAND'
p116
g2
(g6
S'\x9b\xc4\x95GE\xd2\x12@'
p117
tp118
Rp119
s.