(dp1
S'GHMT2r'
p2
F9.2731401928510806
sS'G6PDH2r'
p3
F711.73400191652047
sS'GTPDPDP'
p4
F0.0045033575783053259
sS'LPLIPAL1E160pp'
p5
F155.91561740675482
sS'LPLIPAL1E161pp'
p6
F155.91561740675482
sS'CYSSADS'
p7
F1.3220509928981443
sS'PSERT'
p8
F1404.1717463683426
sS'LPLIPAL1A181pp'
p9
F155.91561740675482
sS'PLIPA2G141pp'
p10
F0.1619213638223021
sS'UPPDC1'
p11
F0.0068390316178076867
sS'PGI'
p12
F114.02111030872733
sS'NAMNPP'
p13
F252.42303707956393
sS'NTP12'
p14
F11.343682887176541
sS'PLIPA1A161pp'
p15
F0.0041134757553009781
sS'DHDPRy'
p16
F0.4017662802559222
sS'P5CD'
p17
F0.029499220096871535
sS'EAR181y'
p18
F9.1695125486469422
sS'LPADSS'
p19
F97.928601937838778
sS'EAR161y'
p20
F9.1695125486469422
sS'EAR161x'
p21
F4.0805205238734006
sS'LPLIPAL1A120pp'
p22
F155.91561740675482
sS'PLIPA1E180pp'
p23
F0.0041134757553009781
sS'ACOAD2f'
p24
F0.20406790695376711
sS'PLIPA1E181pp'
p25
F0.0041134757553009781
sS'HSTPT'
p26
F0.15801897040622659
sS'GTHOr'
p27
F16.163384730294609
sS'PLIPA2E141pp'
p28
F0.1619213638223021
sS'APH140'
p29
F22.203333112500573
sS'PLIPA1G140pp'
p30
F0.0041134757553009781
sS'PLIPA1G161pp'
p31
F0.0041134757553009781
sS'PLIPA1E161pp'
p32
F0.0041134757553009781
sS'G1PACT'
p33
F0.40778498008505154
sS'EPMEACPR'
p34
F9.1695125486469422
sS'GALM2pp'
p35
F419.39909796854221
sS'TPI'
p36
F12905.308900270295
sS'EAR40x'
p37
F4.0805205238734006
sS'EAR40y'
p38
F9.1695125486469422
sS'PUNP1'
p39
F631.45407809329481
sS'LPLIPAL1E120pp'
p40
F155.91561740675482
sS'GMPR'
p41
F293.06533003289582
sS'PANTS'
p42
F0.14942612504578942
sS'NADS1'
p43
F0.024621112162956971
sS'TREH'
p44
F0.15063175816759958
sS'FMETTRS'
p45
F0.99097490854710746
sS'PRFGS'
p46
F0.15844117406665836
sS'PLIPA2A180pp'
p47
F0.1619213638223021
sS'DAPDC'
p48
F0.37133245049258462
sS'GLCATr'
p49
F35.761925873822641
sS'TREHpp'
p50
F0.52386157322665161
sS'SERTRS2'
p51
F0.29616310490759601
sS'3OAS141'
p52
F33.443244567398303
sS'PLIPA2G140pp'
p53
F0.1619213638223021
sS'DHBS'
p54
F0.1859465579187522
sS'PSSA161'
p55
F201.86870487992638
sS'PSSA160'
p56
F201.86870487992638
sS'ACOAD1f'
p57
F114.32375739706843
sS'EGMEACPR'
p58
F9.1695125486469422
sS'GLYOX'
p59
F65.9980143813072
sS'PLIPA1A141pp'
p60
F0.0041134757553009781
sS'LPLIPAL1A161pp'
p61
F155.91561740675482
sS'ACODA'
p62
F201.48115292599371
sS'DHQS'
p63
F0.4572431808423173
sS'CYTK1'
p64
F4.4459771221487481
sS'CYTK2'
p65
F4.4459771221487481
sS'KDOCT2'
p66
F371.94526486903368
sS'LEUTRS'
p67
F3.8529213837006853
sS'TRPTRS'
p68
F20.588680910906429
sS'NTP3'
p69
F74.264450199951298
sS'PROD2'
p70
F0.088497660290614594
sS'GLUR'
p71
F2713.2759946849224
sS'MAN6PI'
p72
F1292.6967700352275
sS'NTP5'
p73
F74.264450199951298
sS'PLIPA1E140pp'
p74
F0.0041134757553009781
sS'ACOAD7f'
p75
F0.20406790695376711
sS'PLIPA1E141pp'
p76
F0.0041134757553009781
sS'PLIPA1A120pp'
p77
F0.0041134757553009781
sS'LPLIPAL1E181pp'
p78
F155.91561740675482
sS'EAR141x'
p79
F4.0805205238734006
sS'LCADi'
p80
F170.94856484818354
sS'KDOPS'
p81
F888.5799251964205
sS'PPNCL2'
p82
F0.04455697753409666
sS'GK1'
p83
F16.176427182544039
sS'PGK'
p84
F366.34068043344286
sS'APH161'
p85
F22.203333112500573
sS'EAR120x'
p86
F4.0805205238734006
sS'EAR120y'
p87
F9.1695125486469422
sS'DCTPD'
p88
F0.8740809633694967
sS'FMNAT'
p89
F0.00080634639482222872
sS'ACOAD4f'
p90
F0.20406790695376711
sS'PLIPA2A160pp'
p91
F0.1619213638223021
sS'GDPTPDP'
p92
F0.015983688443469715
sS'PLIPA1G160pp'
p93
F0.0041134757553009781
sS'PPND'
p94
F9.1922292157868384
sS'ADSL2r'
p95
F0.22713805490461361
sS'LPLIPAL1G120pp'
p96
F155.91561740675482
sS'ENO'
p97
F49.660223310877193
sS'ALDD2y'
p98
F29.707753555920405
sS'GRTT'
p99
F0.01049229935758858
sS'3OAS161'
p100
F33.443244567398303
sS'ASPTA'
p101
F37.428292666772109
sS'LPLIPAL1E141pp'
p102
F155.91561740675482
sS'GLNTRS'
p103
F0.17181348537745611
sS'ADNK1'
p104
F1.1437248623180347
sS'PLIPA1A181pp'
p105
F0.0041134757553009781
sS'LPLIPAL1A141pp'
p106
F155.91561740675482
sS'GCALDD'
p107
F170.94856484818354
sS'NADH5'
p108
F19.482284611725007
sS'NADH9'
p109
F19.482284611725007
sS'EAR160x'
p110
F4.0805205238734006
sS'EAR160y'
p111
F9.1695125486469422
sS'AMALT3'
p112
F11.280091303694098
sS'PSSA181'
p113
F201.86870487992638
sS'PPK2r'
p114
F0.2275845062871811
sS'EAR121y'
p115
F9.1695125486469422
sS'PLIPA1E120pp'
p116
F0.0041134757553009781
sS'MICITDr'
p117
F908.66096926104819
sS'EAR80x'
p118
F4.0805205238734006
sS'ACOAD3f'
p119
F0.20406790695376711
sS'METAT'
p120
F0.9444165416540764
sS'G6PP'
p121
F3.4894062115002855
sS'ACOAD6f'
p122
F0.20406790695376711
sS'ARGDCpp'
p123
F0.21302832188856829
sS'ADSS'
p124
F0.34367412379798234
sS'PSSA180'
p125
F201.86870487992638
sS'GMPS2'
p126
F0.012836104885862879
sS'PLIPA2E181pp'
p127
F0.1619213638223021
sS'UAGCVT'
p128
F0.24791770443955458
sS'SHSL1'
p129
F333.39176264325084
sS'DAPE'
p130
F1.0009614315576207
sS'ME2'
p131
F85.825098326458217
sS'G5SD'
p132
F479.53320741277048
sS'EAR141y'
p133
F9.1695125486469422
sS'NNDPR'
p134
F0.013938547672052654
sS'VALTRS'
p135
F1.7991215843847275
sS'EAR180y'
p136
F9.1695125486469422
sS'ASPT'
p137
F1.4622143853606662
sS'GLUCYS'
p138
F311.97802886441087
sS'APH141'
p139
F22.203333112500573
sS'DMATT'
p140
F0.029977998164538801
sS'PLIPA2A141pp'
p141
F0.1619213638223021
sS'LPLIPAL1G140pp'
p142
F155.91561740675482
sS'FCLK'
p143
F6.2933217446034044
sS'ALCD19'
p144
F32.677766210909994
sS'PLIPA2A140pp'
p145
F0.1619213638223021
sS'RBK_L1'
p146
F0.088574018068454691
sS'LPLIPAL1G141pp'
p147
F155.91561740675482
sS'SERTRS'
p148
F0.29616310490759601
sS'PPM2'
p149
F2.1985626482102467
sS'CYSTRS'
p150
F4.0590754942988649
sS'ARGSS'
p151
F1024.2083265970975
sS'DDGLK'
p152
F0.34861131536480067
sS'HISTRS'
p153
F5.2215173111796078
sS'EAR60x'
p154
F4.0805205238734006
sS'PLIPA2G160pp'
p155
F0.1619213638223021
sS'LPLIPAL1A140pp'
p156
F155.91561740675482
sS'PLIPA1G141pp'
p157
F0.0041134757553009781
sS'PLIPA2G120pp'
p158
F0.1619213638223021
sS'DHDPS'
p159
F10.079622499645696
sS'TMDS'
p160
F0.38314579440193086
sS'PLIPA1G180pp'
p161
F0.0041134757553009781
sS'TDPDRR'
p162
F0.44222660141596365
sS'APH120'
p163
F22.203333112500573
sS'NTP11'
p164
F11.343682887176541
sS'UGMDDS'
p165
F307.74522794667922
sS'LPLIPAL1G180pp'
p166
F155.91561740675482
sS'PLIPA1G181pp'
p167
F0.0041134757553009781
sS'PLIPA2A181pp'
p168
F0.1619213638223021
sS'EAR60y'
p169
F9.1695125486469422
sS'DHFS'
p170
F245.81220329282007
sS'LPLIPAL1A160pp'
p171
F155.91561740675482
sS'PLIPA1A160pp'
p172
F0.0041134757553009781
sS'PSSA120'
p173
F201.86870487992638
sS'EDD'
p174
F46.014926050761865
sS'PLIPA1G120pp'
p175
F0.0041134757553009781
sS'LPLIPAL1E180pp'
p176
F155.91561740675482
sS'PLIPA2E160pp'
p177
F0.1619213638223021
sS'THRTRS'
p178
F2.5304055503632967
sS'PUNP2'
p179
F631.45407809329481
sS'PLIPA1E160pp'
p180
F0.0041134757553009781
sS'FRUK'
p181
F129.11334026948549
sS'DADK'
p182
F897.03910770041921
sS'PGAMT'
p183
F0.17220329751191796
sS'PLIPA1A140pp'
p184
F0.0041134757553009781
sS'DHAD1'
p185
F3.603704749137163
sS'LPLIPAL1A180pp'
p186
F155.91561740675482
sS'3OAS181'
p187
F117.03360272882115
sS'PTRCTA'
p188
F53.583382220459313
sS'THFAT'
p189
F3.2518226515199253
sS'LPLIPAL1E140pp'
p190
F155.91561740675482
sS'ACOAD5f'
p191
F0.20406790695376711
sS'EAR80y'
p192
F9.1695125486469422
sS'LPLIPAL1G160pp'
p193
F155.91561740675482
sS'AMALT4'
p194
F11.280091303694098
sS'EAR180x'
p195
F4.0805205238734006
sS'CPPPGO'
p196
F0.022402035364171558
sS'OPMEACPD'
p197
F1371.5831674091028
sS'LPLIPAL1G161pp'
p198
F155.91561740675482
sS'ACOAD8f'
p199
F0.20406790695376711
sS'PLIPA2A120pp'
p200
F0.1619213638223021
sS'UAGDP'
p201
F10.852342211940886
sS'ARGDC'
p202
F0.0019465188855521847
sS'AMALT2'
p203
F11.280091303694098
sS'OPMEACPS'
p204
F33.443244567398303
sS'PLIPA2E161pp'
p205
F0.1619213638223021
sS'PDX5POi'
p206
F0.30705432197349797
sS'AMALT1'
p207
F11.280091303694098
sS'LPLIPAL1G181pp'
p208
F155.91561740675482
sS'UAPGR'
p209
F156.9275678542966
sS'NADH10'
p210
F19.482284611725007
sS'PLIPA2E120pp'
p211
F0.1619213638223021
sS'PPC'
p212
F28.758319994792444
sS'ADMDC'
p213
F0.29588657698487314
sS'FBA3'
p214
F8.5105075179769401
sS'EAR121x'
p215
F4.0805205238734006
sS'METTRS'
p216
F1.495972395245829
sS'APH180'
p217
F22.203333112500573
sS'APH181'
p218
F22.203333112500573
sS'ADK1'
p219
F39.447294761125939
sS'PPS'
p220
F38.89352679433604
sS'ALATRS'
p221
F4.395486275038178
sS'GLGC'
p222
F3.2927180716531148
sS'PPKr'
p223
F0.2275845062871811
sS'PLIPA2G181pp'
p224
F0.1619213638223021
sS'PLIPA2E140pp'
p225
F0.1619213638223021
sS'ASPTRS'
p226
F2.1371883228526078
sS'OGMEACPD'
p227
F1371.5831674091028
sS'PLIPA2G180pp'
p228
F0.1619213638223021
sS'PYAM5PO'
p229
F0.30705432197349797
sS'EAR140y'
p230
F9.1695125486469422
sS'APH160'
p231
F22.203333112500573
sS'EAR181x'
p232
F4.0805205238734006
sS'SADH'
p233
F17.013244698075194
sS'PPCDC'
p234
F0.04455697753409666
sS'DGK1'
p235
F16.176427182544039
sS'PFK_2'
p236
F5.6240835228921648
sS'G3PD2'
p237
F487.39731447802859
sS'DTMPK'
p238
F0.07195961166429074
sS'GAPD'
p239
F157.29886997906078
sS'RBFK'
p240
F0.0064878445560409212
sS'PLIPA1A180pp'
p241
F0.0041134757553009781
sS'EAR140x'
p242
F4.0805205238734006
sS'PLIPA2G161pp'
p243
F0.1619213638223021
sS'PFK_3'
p244
F5.6240835228921648
sS'3OAS121'
p245
F33.443244567398303
sS'PPGPPDP'
p246
F0.015983688443469715
sS'ILETRS'
p247
F3.7050738757649806
sS'2DGULRGy'
p248
F832.11241125226195
sS'ALTRH'
p249
F25.366320464588089
sS'PLIPA2A161pp'
p250
F0.1619213638223021
sS'OHPBAT'
p251
F1404.1717463683426
sS'UAAGDS'
p252
F376.52768360487511
sS'MALTATr'
p253
F35.761925873822641
sS'ALLTAMH'
p254
F6.6277582918134614
sS'CTECOAI6'
p255
F4.1176046149904195
sS'CTECOAI7'
p256
F4.1176046149904195
sS'GLYAT'
p257
F101.43217691664312
sS'ADSL1r'
p258
F0.22713805490461361
sS'PSSA141'
p259
F201.86870487992638
sS'PSSA140'
p260
F201.86870487992638
sS'PLIPA2E180pp'
p261
F0.1619213638223021
sS'EAR100x'
p262
F4.0805205238734006
sS'EAR100y'
p263
F9.1695125486469422
sS'CTECOAI8'
p264
F4.1176046149904195
s.