(dp1
S'GHMT2r'
p2
F8.9628955509049959
sS'G6PDH2r'
p3
F746.96803594121036
sS'GTPDPDP'
p4
F0.0039936735743466055
sS'LPLIPAL1E160pp'
p5
F172.15634130999709
sS'LPLIPAL1E161pp'
p6
F172.15634130999709
sS'CYSSADS'
p7
F1.8368906646421521
sS'PSERT'
p8
F1338.4692263719537
sS'LPLIPAL1A181pp'
p9
F172.15634130999709
sS'PLIPA2G141pp'
p10
F0.15368517069302176
sS'LPLIPAL2A140'
p11
F11.322832959567219
sS'UPPDC1'
p12
F0.0072516626500487855
sS'PGI'
p13
F132.7593029599343
sS'NAMNPP'
p14
F50.444299262130031
sS'NTP12'
p15
F22.831731864394296
sS'PLIPA1A161pp'
p16
F0.0039042422116010158
sS'DHDPRy'
p17
F0.3501165399978618
sS'P5CD'
p18
F0.013392901291310972
sS'EAR181y'
p19
F9.2757910155315049
sS'LPADSS'
p20
F84.490782724834361
sS'EAR161y'
p21
F9.2757910155315049
sS'EAR161x'
p22
F4.1278154550998423
sS'LPLIPAL1A120pp'
p23
F172.15634130999709
sS'PLIPA1E180pp'
p24
F0.0039042422116010158
sS'ACOAD2f'
p25
F0.30366620151669149
sS'PLIPA1E181pp'
p26
F0.0039042422116010158
sS'HSTPT'
p27
F0.14794952381268037
sS'GTHOr'
p28
F15.953609829871846
sS'PLIPA2E141pp'
p29
F0.15368517069302176
sS'APH140'
p30
F50.704025493341241
sS'PLIPA1G140pp'
p31
F0.0039042422116010158
sS'PLIPA1G161pp'
p32
F0.0039042422116010158
sS'PLIPA1E161pp'
p33
F0.0039042422116010158
sS'G1PACT'
p34
F0.40237655839404346
sS'LPLIPAL2G160'
p35
F11.322832959567219
sS'LPLIPAL2G161'
p36
F11.322832959567219
sS'EPMEACPR'
p37
F9.2757910155315049
sS'GALM2pp'
p38
F321.53873176023779
sS'TPI'
p39
F11990.520646385798
sS'EAR40x'
p40
F4.1278154550998423
sS'EAR40y'
p41
F9.2757910155315049
sS'TRE6PS'
p42
F0.023346540935607157
sS'LPLIPAL2E140'
p43
F11.322832959567219
sS'LPLIPAL1E120pp'
p44
F172.15634130999709
sS'GMPR'
p45
F283.02179346577736
sS'PANTS'
p46
F0.12349583130627102
sS'NADS1'
p47
F0.025425547277834363
sS'TREH'
p48
F0.29331779879767605
sS'FMETTRS'
p49
F1.1520657204124705
sS'PRFGS'
p50
F0.15974845980476243
sS'PLIPA2A180pp'
p51
F0.15368517069302176
sS'DAPDC'
p52
F0.34048461393143015
sS'TREHpp'
p53
F5.3458575516060547
sS'SERTRS2'
p54
F0.2570999168615512
sS'3OAS141'
p55
F39.381009525801488
sS'PLIPA2G140pp'
p56
F0.15368517069302176
sS'DHBS'
p57
F0.13798714590979747
sS'PSSA161'
p58
F182.13199598131553
sS'PPNCL2'
p59
F0.049839359844839531
sS'ACOAD1f'
p60
F170.12112129786635
sS'EGMEACPR'
p61
F9.2757910155315049
sS'GLYOX'
p62
F60.166903930087791
sS'LPLIPAL2E120'
p63
F11.322832959567219
sS'PLIPA1A141pp'
p64
F0.0039042422116010158
sS'LPLIPAL1A161pp'
p65
F172.15634130999709
sS'ACODA'
p66
F221.02910582380687
sS'DHQS'
p67
F0.4197801733635893
sS'CYTK1'
p68
F5.40402967871887
sS'CYTK2'
p69
F5.40402967871887
sS'KDOCT2'
p70
F313.41807078651846
sS'LEUTRS'
p71
F3.6963544371316903
sS'TRPTRS'
p72
F20.276668080894019
sS'NTP3'
p73
F75.565991175214052
sS'PROD2'
p74
F0.040178703873932915
sS'GLUR'
p75
F1640.8841243224342
sS'MAN6PI'
p76
F1080.3157597691711
sS'NTP5'
p77
F75.565991175214052
sS'LPLIPAL2A160'
p78
F11.322832959567219
sS'LPLIPAL2A161'
p79
F11.322832959567219
sS'ACOAD7f'
p80
F0.30366620151669149
sS'PLIPA1E141pp'
p81
F0.0039042422116010158
sS'PLIPA1A120pp'
p82
F0.0039042422116010158
sS'LPLIPAL1E181pp'
p83
F172.15634130999709
sS'EAR141x'
p84
F4.1278154550998423
sS'LCADi'
p85
F384.54792134519852
sS'KDOPS'
p86
F928.22776679647097
sS'PSSA160'
p87
F182.13199598131553
sS'GK1'
p88
F13.87797399020109
sS'PGK'
p89
F387.4650063200458
sS'APH161'
p90
F50.704025493341241
sS'EAR120x'
p91
F4.1278154550998423
sS'EAR120y'
p92
F9.2757910155315049
sS'DCTPD'
p93
F1.0322965637755932
sS'FMNAT'
p94
F0.00076764968006402226
sS'ACOAD4f'
p95
F0.30366620151669149
sS'PLIPA2A160pp'
p96
F0.15368517069302176
sS'GDPTPDP'
p97
F0.0089363317494498117
sS'LPLIPAL2G140'
p98
F11.322832959567219
sS'LPLIPAL2G141'
p99
F11.322832959567219
sS'PPND'
p100
F7.6285245812600104
sS'ADSL2r'
p101
F0.22620049969261077
sS'LPLIPAL1G120pp'
p102
F172.15634130999709
sS'ENO'
p103
F48.224883900075199
sS'ALDD2y'
p104
F183.98392379767418
sS'GRTT'
p105
F0.0094240625639932969
sS'3OAS161'
p106
F39.381009525801488
sS'ASPTA'
p107
F33.94655352381924
sS'LPLIPAL1E141pp'
p108
F172.15634130999709
sS'GLNTRS'
p109
F0.15142856774738386
sS'ADNK1'
p110
F1.2626264894920189
sS'PLIPA1A181pp'
p111
F0.0039042422116010158
sS'LPLIPAL1A141pp'
p112
F172.15634130999709
sS'LPLIPAL2E160'
p113
F11.322832959567219
sS'LPLIPAL2E161'
p114
F11.322832959567219
sS'NADH5'
p115
F16.878230528499014
sS'G3PD2'
p116
F510.97815841571634
sS'NADH9'
p117
F16.878230528499014
sS'EAR160x'
p118
F4.1278154550998423
sS'EAR160y'
p119
F9.2757910155315049
sS'AMALT3'
p120
F10.783555875742172
sS'PSSA181'
p121
F182.13199598131553
sS'PPK2r'
p122
F0.28150859828380687
sS'EAR121y'
p123
F9.2757910155315049
sS'PLIPA1E120pp'
p124
F0.0039042422116010158
sS'MICITDr'
p125
F854.17513950683269
sS'EAR80x'
p126
F4.1278154550998423
sS'ACOAD3f'
p127
F0.30366620151669149
sS'METAT'
p128
F0.92956095199437172
sS'G6PP'
p129
F3.0711425095291673
sS'ACOAD6f'
p130
F0.30366620151669149
sS'ARGDCpp'
p131
F0.27675974356084992
sS'ADSS'
p132
F0.32033438526099201
sS'PSSA180'
p133
F182.13199598131553
sS'GMPS2'
p134
F0.012400055539234647
sS'PLIPA2E181pp'
p135
F0.15368517069302176
sS'UAGCVT'
p136
F0.21808525172691379
sS'SHSL1'
p137
F286.275447773601
sS'DDGLK'
p138
F0.24546913205746573
sS'DAPE'
p139
F0.88512984409714157
sS'ME2'
p140
F89.235704194541626
sS'G5SD'
p141
F421.12977146860948
sS'EAR141y'
p142
F9.2757910155315049
sS'NNDPR'
p143
F0.012907842826901064
sS'VALTRS'
p144
F1.7349741706187343
sS'EAR180y'
p145
F9.2757910155315049
sS'ASPT'
p146
F2.9916331243475485
sS'GLUCYS'
p147
F268.40505599354168
sS'APH141'
p148
F50.704025493341241
sS'DMATT'
p149
F0.026925893039980844
sS'PLIPA2A141pp'
p150
F0.15368517069302176
sS'LPLIPAL1G140pp'
p151
F172.15634130999709
sS'FCLK'
p152
F6.9048261482825453
sS'ALCD19'
p153
F28.650377451816393
sS'PLIPA2A140pp'
p154
F0.15368517069302176
sS'RBK_L1'
p155
F0.046803004334906709
sS'LPLIPAL1G141pp'
p156
F172.15634130999709
sS'SERTRS'
p157
F0.2570999168615512
sS'PPM2'
p158
F3.4578124658262155
sS'CYSTRS'
p159
F4.1540555762107525
sS'ARGSS'
p160
F1018.9814645247949
sS'LPLIPAL2A180'
p161
F11.322832959567219
sS'LPLIPAL2A181'
p162
F11.322832959567219
sS'HISTRS'
p163
F4.7548612827868375
sS'EAR60x'
p164
F4.1278154550998423
sS'PPCDC'
p165
F0.049839359844839531
sS'LPLIPAL1A140pp'
p166
F172.15634130999709
sS'PPKr'
p167
F0.28150859828380687
sS'PLIPA1G141pp'
p168
F0.0039042422116010158
sS'PLIPA2G120pp'
p169
F0.15368517069302176
sS'DHDPS'
p170
F9.507357080942624
sS'TMDS'
p171
F0.29742852761694133
sS'GCALDD'
p172
F384.54792134519852
sS'LPLIPAL2G120'
p173
F11.322832959567219
sS'PLIPA1G180pp'
p174
F0.0039042422116010158
sS'TDPDRR'
p175
F0.43916945744548541
sS'APH120'
p176
F50.704025493341241
sS'NTP11'
p177
F22.831731864394296
sS'UGMDDS'
p178
F258.61886675634645
sS'LPLIPAL1G180pp'
p179
F172.15634130999709
sS'PLIPA1G181pp'
p180
F0.0039042422116010158
sS'PLIPA2A181pp'
p181
F0.15368517069302176
sS'EAR60y'
p182
F9.2757910155315049
sS'DHFS'
p183
F253.02988806982501
sS'LPLIPAL1A160pp'
p184
F172.15634130999709
sS'PLIPA1A160pp'
p185
F0.0039042422116010158
sS'OHPBAT'
p186
F1338.4692263719537
sS'EDD'
p187
F53.565796485048985
sS'PLIPA1G120pp'
p188
F0.0039042422116010158
sS'LPLIPAL1E180pp'
p189
F172.15634130999709
sS'PLIPA2E160pp'
p190
F0.15368517069302176
sS'THRTRS'
p191
F2.6826137467841127
sS'PUNP2'
p192
F820.04769459227907
sS'PLIPA1E160pp'
p193
F0.0039042422116010158
sS'FRUK'
p194
F64.96746238564252
sS'LPLIPAL2E181'
p195
F11.322832959567219
sS'PGAMT'
p196
F0.19312772514931326
sS'PLIPA1A140pp'
p197
F0.0039042422116010158
sS'DHAD1'
p198
F3.4931536639705869
sS'LPLIPAL1A180pp'
p199
F172.15634130999709
sS'3OAS181'
p200
F108.71934525042984
sS'PTRCTA'
p201
F398.65152428633036
sS'THFAT'
p202
F3.1430288089582947
sS'LPLIPAL1E140pp'
p203
F172.15634130999709
sS'ACOAD5f'
p204
F0.30366620151669149
sS'EAR80y'
p205
F9.2757910155315049
sS'LPLIPAL1G160pp'
p206
F172.15634130999709
sS'AMALT4'
p207
F10.783555875742172
sS'EAR180x'
p208
F4.1278154550998423
sS'CPPPGO'
p209
F0.012764195944290043
sS'OPMEACPD'
p210
F1283.589698900435
sS'LPLIPAL1G161pp'
p211
F172.15634130999709
sS'ACOAD8f'
p212
F0.30366620151669149
sS'PLIPA2A120pp'
p213
F0.15368517069302176
sS'PLIPA1E140pp'
p214
F0.0039042422116010158
sS'UAGDP'
p215
F10.708408408873737
sS'PLIPA1G160pp'
p216
F0.0039042422116010158
sS'AMALT2'
p217
F10.783555875742172
sS'OPMEACPS'
p218
F39.381009525801488
sS'PLIPA2E161pp'
p219
F0.15368517069302176
sS'PDX5POi'
p220
F0.3183568252711772
sS'AMALT1'
p221
F10.783555875742172
sS'LPLIPAL1G181pp'
p222
F172.15634130999709
sS'UAPGR'
p223
F123.01956720048962
sS'NADH10'
p224
F16.878230528499014
sS'PLIPA2E120pp'
p225
F0.15368517069302176
sS'PPC'
p226
F28.462317661466901
sS'LPLIPAL2A120'
p227
F11.322832959567219
sS'FBA3'
p228
F8.3884585515959849
sS'EAR121x'
p229
F4.1278154550998423
sS'METTRS'
p230
F1.5260151821333916
sS'APH180'
p231
F50.704025493341241
sS'APH181'
p232
F50.704025493341241
sS'ADK1'
p233
F43.548235196401201
sS'PPS'
p234
F42.685941046366111
sS'ALATRS'
p235
F4.3577449306941434
sS'GLGC'
p236
F5.9682958891190188
sS'PUNP1'
p237
F820.04769459227907
sS'PSSA120'
p238
F182.13199598131553
sS'PLIPA2G181pp'
p239
F0.15368517069302176
sS'PLIPA2E140pp'
p240
F0.15368517069302176
sS'ASPTRS'
p241
F1.9642595214771008
sS'LPLIPAL2A141'
p242
F11.322832959567219
sS'OGMEACPD'
p243
F1283.589698900435
sS'PLIPA2G180pp'
p244
F0.15368517069302176
sS'PYAM5PO'
p245
F0.3183568252711772
sS'EAR140y'
p246
F9.2757910155315049
sS'APH160'
p247
F50.704025493341241
sS'EAR181x'
p248
F4.1278154550998423
sS'SADH'
p249
F100.33137983210513
sS'DGK1'
p250
F13.87797399020109
sS'PLIPA2G160pp'
p251
F0.15368517069302176
sS'PFK_2'
p252
F5.3788531111993132
sS'LPLIPAL2E180'
p253
F11.322832959567219
sS'DTMPK'
p254
F0.084905926854684247
sS'GAPD'
p255
F163.00258368007951
sS'RBFK'
p256
F0.0061764916786760425
sS'PLIPA1A180pp'
p257
F0.0039042422116010158
sS'EAR140x'
p258
F4.1278154550998423
sS'PLIPA2G161pp'
p259
F0.15368517069302176
sS'PFK_3'
p260
F5.3788531111993132
sS'3OAS121'
p261
F39.381009525801488
sS'PPGPPDP'
p262
F0.0089363317494498117
sS'ILETRS'
p263
F3.6318460927441678
sS'2DGULRGy'
p264
F724.7979782821028
sS'ALTRH'
p265
F33.174660175814488
sS'PLIPA2A161pp'
p266
F0.15368517069302176
sS'DADK'
p267
F990.2952858760932
sS'UAAGDS'
p268
F359.73762832338372
sS'LPLIPAL2G180'
p269
F11.322832959567219
sS'LPLIPAL2G181'
p270
F11.322832959567219
sS'ALLTAMH'
p271
F6.4920197162670839
sS'CTECOAI6'
p272
F7.5359492878667336
sS'CTECOAI7'
p273
F7.5359492878667336
sS'LPLIPAL2E141'
p274
F11.322832959567219
sS'GLYAT'
p275
F134.74963486225039
sS'ADSL1r'
p276
F0.22620049969261077
sS'PSSA141'
p277
F182.13199598131553
sS'PSSA140'
p278
F182.13199598131553
sS'PLIPA2E180pp'
p279
F0.15368517069302176
sS'EAR100x'
p280
F4.1278154550998423
sS'EAR100y'
p281
F9.2757910155315049
sS'CTECOAI8'
p282
F7.5359492878667336
sS'ADMDC'
p283
F0.22807078756098173
s.