(dp1
S'GHMT2r'
p2
F8.0880465165685074
sS'G6PDH2r'
p3
F734.35040344036622
sS'GTPDPDP'
p4
F0.0047533011202343153
sS'LPLIPAL1E160pp'
p5
F163.73255776871704
sS'LPLIPAL1E161pp'
p6
F163.73255776871704
sS'CYSSADS'
p7
F2.7940776972864887
sS'PSERT'
p8
F1463.5421082264563
sS'LPLIPAL1A181pp'
p9
F163.73255776871704
sS'LPLIPAL2A140'
p10
F11.786764964888402
sS'UPPDC1'
p11
F0.0069265468978690252
sS'PGI'
p12
F122.20484788051643
sS'NAMNPP'
p13
F325.89101492010082
sS'NTP12'
p14
F29.88717607278425
sS'PLIPA1A161pp'
p15
F0.004578764445200144
sS'DHDPRy'
p16
F0.46125807643884226
sS'P5CD'
p17
F0.03502340060031036
sS'LPADSS'
p18
F107.00953817111983
sS'EAR161y'
p19
F9.4881911926234519
sS'EAR161x'
p20
F4.2223355593365648
sS'LPLIPAL1A120pp'
p21
F163.73255776871704
sS'PLIPA1E180pp'
p22
F0.004578764445200144
sS'ACOAD2f'
p23
F0.018730552471462773
sS'PLIPA1E181pp'
p24
F0.004578764445200144
sS'HSTPT'
p25
F0.1777400080326548
sS'GTHOr'
p26
F16.65312851801378
sS'PLIPA2E141pp'
p27
F0.18023681861560564
sS'PLIPA1G140pp'
p28
F0.004578764445200144
sS'PLIPA1G161pp'
p29
F0.004578764445200144
sS'PLIPA1E161pp'
p30
F0.004578764445200144
sS'G1PACT'
p31
F0.4295537106736721
sS'LPLIPAL2G160'
p32
F11.786764964888402
sS'LPLIPAL2G161'
p33
F11.786764964888402
sS'EPMEACPR'
p34
F9.4881911926234519
sS'GALM2pp'
p35
F365.26166557682035
sS'TPI'
p36
F11151.131068860566
sS'EAR40x'
p37
F4.2223355593365648
sS'EAR40y'
p38
F9.4881911926234519
sS'TRE6PS'
p39
F0.0025866693916771944
sS'LPLIPAL2E140'
p40
F11.786764964888402
sS'LPLIPAL1E120pp'
p41
F163.73255776871704
sS'GMPR'
p42
F383.14794545693923
sS'PANTS'
p43
F0.15488686570290056
sS'NADS1'
p44
F0.023427391192588916
sS'TREH'
p45
F0.23647820716579004
sS'FMETTRS'
p46
F1.2898158419003825
sS'PRFGS'
p47
F0.17858929838775695
sS'PLIPA2A180pp'
p48
F0.18023681861560564
sS'DAPDC'
p49
F0.4324513003613612
sS'GLCATr'
p50
F80.524319578790013
sS'PLIPA1G120pp'
p51
F0.004578764445200144
sS'SERTRS2'
p52
F0.33660287927706739
sS'3OAS141'
p53
F38.345540972207147
sS'PLIPA2G140pp'
p54
F0.18023681861560564
sS'DHBS'
p55
F0.014810980638342811
sS'PSSA161'
p56
F306.28139443429052
sS'PPNCL2'
p57
F0.039910860654578571
sS'ACOAD1f'
p58
F10.493306706701834
sS'EGMEACPR'
p59
F9.4881911926234519
sS'GLYOX'
p60
F59.196266836093422
sS'PLIPA1A141pp'
p61
F0.004578764445200144
sS'LPLIPAL1A161pp'
p62
F163.73255776871704
sS'ACODA'
p63
F232.61322119080927
sS'DHQS'
p64
F0.47113595057479513
sS'CYTK1'
p65
F3.6653420010894675
sS'CYTK2'
p66
F3.6653420010894675
sS'KDOCT2'
p67
F526.08949720153498
sS'LEUTRS'
p68
F5.0282231990730057
sS'TRPTRS'
p69
F19.564847598089571
sS'NTP3'
p70
F87.082326433194567
sS'PROD2'
p71
F0.10507020180093106
sS'GLUR'
p72
F3197.3395226596353
sS'MAN6PI'
p73
F1282.7451439014521
sS'NTP5'
p74
F87.082326433194567
sS'LPLIPAL2A160'
p75
F11.786764964888402
sS'LPLIPAL2A161'
p76
F11.786764964888402
sS'ACOAD7f'
p77
F0.018730552471462773
sS'PLIPA1E141pp'
p78
F0.004578764445200144
sS'PLIPA1A120pp'
p79
F0.004578764445200144
sS'LPLIPAL1E181pp'
p80
F163.73255776871704
sS'EAR141x'
p81
F4.2223355593365648
sS'LCADi'
p82
F95.032340672091735
sS'KDOPS'
p83
F865.81626249528881
sS'PSSA160'
p84
F306.28139443429052
sS'GK1'
p85
F17.940871826590836
sS'EAR120x'
p86
F4.2223355593365648
sS'EAR120y'
p87
F9.4881911926234519
sS'DCTPD'
p88
F0.45140790804337216
sS'FMNAT'
p89
F0.0011082372730689322
sS'ACOAD4f'
p90
F0.018730552471462773
sS'PLIPA2A160pp'
p91
F0.18023681861560564
sS'GDPTPDP'
p92
F0.028854647601842635
sS'LPLIPAL2G140'
p93
F11.786764964888402
sS'LPLIPAL2G141'
p94
F11.786764964888402
sS'PPND'
p95
F9.756913018047662
sS'ADSL2r'
p96
F0.22920600239619654
sS'LPLIPAL1G120pp'
p97
F163.73255776871704
sS'ENO'
p98
F42.040634392237259
sS'PSSA181'
p99
F306.28139443429052
sS'GRTT'
p100
F0.0073551046740206781
sS'3OAS161'
p101
F38.345540972207147
sS'ASPTA'
p102
F36.956410868276116
sS'LPLIPAL1E141pp'
p103
F163.73255776871704
sS'GLNTRS'
p104
F0.1920894821335335
sS'ADNK1'
p105
F1.1089828690415147
sS'PLIPA1A181pp'
p106
F0.004578764445200144
sS'LPLIPAL1A141pp'
p107
F163.73255776871704
sS'LPLIPAL2E160'
p108
F11.786764964888402
sS'LPLIPAL2E161'
p109
F11.786764964888402
sS'NADH5'
p110
F25.562341539666974
sS'G3PD2'
p111
F546.86802128312002
sS'NADH9'
p112
F25.562341539666974
sS'EAR160x'
p113
F4.2223355593365648
sS'EAR160y'
p114
F9.4881911926234519
sS'AMALT3'
p115
F12.21480056226992
sS'AMALT2'
p116
F12.21480056226992
sS'PPK2r'
p117
F0.26980525812620521
sS'EAR121y'
p118
F9.4881911926234519
sS'PLIPA1E120pp'
p119
F0.004578764445200144
sS'MICITDr'
p120
F1095.5815439262367
sS'EAR80x'
p121
F4.2223355593365648
sS'ACOAD3f'
p122
F0.018730552471462773
sS'METAT'
p123
F0.92794988805168654
sS'G6PP'
p124
F4.1593166812998543
sS'ACOAD6f'
p125
F0.018730552471462773
sS'ARGDCpp'
p126
F0.30009141281190788
sS'ADSS'
p127
F0.35606658162199878
sS'PSSA180'
p128
F306.28139443429052
sS'GMPS2'
p129
F0.017660003788979039
sS'PLIPA2E181pp'
p130
F0.18023681861560564
sS'UAGCVT'
p131
F0.3254755785686293
sS'SHSL1'
p132
F392.97376480950197
sS'DDGLK'
p133
F0.42583524091940739
sS'DAPE'
p134
F1.0254424501536101
sS'ME2'
p135
F75.398153032843567
sS'G5SD'
p136
F460.63634199853732
sS'EAR141y'
p137
F9.4881911926234519
sS'NNDPR'
p138
F0.017625027976408459
sS'VALTRS'
p139
F1.9161301167633815
sS'EAR180y'
p140
F9.4881911926234519
sS'ASPT'
p141
F0.61328677721073921
sS'GLUCYS'
p142
F282.46509233909006
sS'DMATT'
p143
F0.021014584782916224
sS'PLIPA2A141pp'
p144
F0.18023681861560564
sS'LPLIPAL1G140pp'
p145
F163.73255776871704
sS'FCLK'
p146
F13.793538970304137
sS'ALCD19'
p147
F63.08106202221358
sS'PLIPA2A140pp'
p148
F0.18023681861560564
sS'RBK_L1'
p149
F0.0467483938304099
sS'LPLIPAL1G141pp'
p150
F163.73255776871704
sS'SERTRS'
p151
F0.33660287927706739
sS'PPM2'
p152
F2.7502108700764225
sS'CYSTRS'
p153
F4.0180860708322559
sS'ARGSS'
p154
F1107.1873686419383
sS'LPLIPAL2A180'
p155
F11.786764964888402
sS'LPLIPAL2A181'
p156
F11.786764964888402
sS'HISTRS'
p157
F5.7727566926819991
sS'EAR60x'
p158
F4.2223355593365648
sS'PPCDC'
p159
F0.039910860654578571
sS'LPLIPAL1A140pp'
p160
F163.73255776871704
sS'PPKr'
p161
F0.26980525812620521
sS'PLIPA1G141pp'
p162
F0.004578764445200144
sS'PLIPA2G120pp'
p163
F0.18023681861560564
sS'DHDPS'
p164
F11.013113552031108
sS'TMDS'
p165
F0.32960529365070462
sS'GCALDD'
p166
F95.032340672091735
sS'LPLIPAL2G120'
p167
F11.786764964888402
sS'PLIPA1G180pp'
p168
F0.004578764445200144
sS'TDPDRR'
p169
F0.44936309003378422
sS'NTP11'
p170
F29.88717607278425
sS'UGMDDS'
p171
F326.23422135542756
sS'PLIPA1G181pp'
p172
F0.004578764445200144
sS'PLIPA2A181pp'
p173
F0.18023681861560564
sS'EAR60y'
p174
F9.4881911926234519
sS'DHFS'
p175
F296.35408385758683
sS'LPLIPAL1A160pp'
p176
F163.73255776871704
sS'PLIPA1A160pp'
p177
F0.004578764445200144
sS'OHPBAT'
p178
F1463.5421082264563
sS'EDD'
p179
F107.36645406478473
sS'PLIPA2G141pp'
p180
F0.18023681861560564
sS'LPLIPAL1E180pp'
p181
F163.73255776871704
sS'PLIPA2E160pp'
p182
F0.18023681861560564
sS'THRTRS'
p183
F2.9778049892949476
sS'PUNP2'
p184
F581.76980197339287
sS'PLIPA1E160pp'
p185
F0.004578764445200144
sS'FRUK'
p186
F98.444310328621995
sS'LPLIPAL2E181'
p187
F11.786764964888402
sS'PGAMT'
p188
F0.16471448304812369
sS'PLIPA1A140pp'
p189
F0.004578764445200144
sS'DHAD1'
p190
F4.9596466922418667
sS'LPLIPAL1A180pp'
p191
F163.73255776871704
sS'3OAS181'
p192
F105.90529816262023
sS'PTRCTA'
p193
F20.97922145493256
sS'THFAT'
p194
F2.8362444999376142
sS'LPLIPAL1E140pp'
p195
F163.73255776871704
sS'ACOAD5f'
p196
F0.018730552471462773
sS'EAR80y'
p197
F9.4881911926234519
sS'LPLIPAL1G160pp'
p198
F163.73255776871704
sS'AMALT4'
p199
F12.21480056226992
sS'EAR180x'
p200
F4.2223355593365648
sS'CPPPGO'
p201
F0.025143256035980263
sS'RBFK'
p202
F0.0089168516223937094
sS'LPLIPAL1G161pp'
p203
F163.73255776871704
sS'ACOAD8f'
p204
F0.018730552471462773
sS'PLIPA2A120pp'
p205
F0.18023681861560564
sS'PLIPA1E140pp'
p206
F0.004578764445200144
sS'UAGDP'
p207
F11.431671332444498
sS'PLIPA1G160pp'
p208
F0.004578764445200144
sS'ARGDC'
p209
F0.0098389967148522373
sS'LPLIPAL1G180pp'
p210
F163.73255776871704
sS'OPMEACPS'
p211
F38.345540972207147
sS'PLIPA2E161pp'
p212
F0.18023681861560564
sS'PDX5POi'
p213
F0.39118968224460737
sS'AMALT1'
p214
F12.21480056226992
sS'LPLIPAL1G181pp'
p215
F163.73255776871704
sS'UAPGR'
p216
F209.45770217885632
sS'NADH10'
p217
F25.562341539666974
sS'PLIPA2E120pp'
p218
F0.18023681861560564
sS'PPC'
p219
F33.085334462288664
sS'LPLIPAL2A120'
p220
F11.786764964888402
sS'FBA3'
p221
F8.5920404588817405
sS'EAR121x'
p222
F4.2223355593365648
sS'METTRS'
p223
F1.7136990919640502
sS'PGK'
p224
F346.72100802853578
sS'ADK1'
p225
F38.249036600863221
sS'PPS'
p226
F37.110804229872798
sS'ALATRS'
p227
F5.7530932112280562
sS'GLGC'
p228
F3.4479943109139284
sS'PUNP1'
p229
F581.76980197339287
sS'PSSA120'
p230
F306.28139443429052
sS'GLYAT'
p231
F118.96491152262668
sS'PLIPA2G181pp'
p232
F0.18023681861560564
sS'PLIPA2E140pp'
p233
F0.18023681861560564
sS'ASPTRS'
p234
F2.0665148490476981
sS'LPLIPAL2A141'
p235
F11.786764964888402
sS'OGMEACPD'
p236
F1319.2472320845764
sS'PLIPA2G180pp'
p237
F0.18023681861560564
sS'PYAM5PO'
p238
F0.39118968224460737
sS'EAR140y'
p239
F9.4881911926234519
sS'EAR181y'
p240
F9.4881911926234519
sS'EAR181x'
p241
F4.2223355593365648
sS'SADH'
p242
F56.393999616692668
sS'DGK1'
p243
F17.940871826590836
sS'PLIPA2G160pp'
p244
F0.18023681861560564
sS'PFK_2'
p245
F5.5502749399995457
sS'LPLIPAL2E180'
p246
F11.786764964888402
sS'DTMPK'
p247
F0.087209998003946923
sS'GAPD'
p248
F152.41004964426531
sS'LPLIPAL2E120'
p249
F11.786764964888402
sS'PLIPA1A180pp'
p250
F0.004578764445200144
sS'EAR140x'
p251
F4.2223355593365648
sS'PLIPA2G161pp'
p252
F0.18023681861560564
sS'PFK_3'
p253
F5.5502749399995457
sS'3OAS121'
p254
F38.345540972207147
sS'PPGPPDP'
p255
F0.028854647601842635
sS'ILETRS'
p256
F4.4075772852914792
sS'2DGULRGy'
p257
F895.53846166126391
sS'ALTRH'
p258
F40.719203635717591
sS'PLIPA2A161pp'
p259
F0.18023681861560564
sS'DADK'
p260
F869.79048552275651
sS'UAAGDS'
p261
F502.29703824783178
sS'MALTATr'
p262
F80.524319578790013
sS'LPLIPAL2G180'
p263
F11.786764964888402
sS'LPLIPAL2G181'
p264
F11.786764964888402
sS'ALLTAMH'
p265
F11.026829084327739
sS'CTECOAI6'
p266
F0.52348898726148418
sS'CTECOAI7'
p267
F0.52348898726148418
sS'LPLIPAL2E141'
p268
F11.786764964888402
sS'OPMEACPD'
p269
F1319.2472320845764
sS'ADSL1r'
p270
F0.22920600239619654
sS'PSSA141'
p271
F306.28139443429052
sS'PSSA140'
p272
F306.28139443429052
sS'PLIPA2E180pp'
p273
F0.18023681861560564
sS'EAR100x'
p274
F4.2223355593365648
sS'EAR100y'
p275
F9.4881911926234519
sS'CTECOAI8'
p276
F0.52348898726148418
sS'ADMDC'
p277
F0.333687942667444
s.