(dp1
S'GHMT2r'
p2
F8.0481799183018516
sS'G6PDH2r'
p3
F649.31210587201986
sS'GTPDPDP'
p4
F0.0039287316032110033
sS'LPLIPAL1E160pp'
p5
F158.62750910963194
sS'LPLIPAL1E161pp'
p6
F158.62750910963194
sS'CYSSADS'
p7
F2.9118787027863227
sS'PSERT'
p8
F1459.3453840494421
sS'LPLIPAL1A181pp'
p9
F158.62750910963194
sS'PLIPA2G141pp'
p10
F0.13208727504780307
sS'LPLIPAL2A140'
p11
F7.6920057923803205
sS'UPPDC1'
p12
F0.0075799552554089164
sS'PGI'
p13
F142.14788243167166
sS'NAMNPP'
p14
F306.82464079370175
sS'NTP12'
p15
F17.444389308083629
sS'PLIPA1A161pp'
p16
F0.0033555658788125505
sS'DHDPRy'
p17
F0.55305443081421668
sS'P5CD'
p18
F0.020792320007077012
sS'EAR181y'
p19
F10.704497725233185
sS'LPADSS'
p20
F122.65573163674023
sS'EAR161y'
p21
F10.704497725233185
sS'EAR161x'
p22
F4.7636035649480153
sS'LPLIPAL1A120pp'
p23
F158.62750910963194
sS'PLIPA1E180pp'
p24
F0.0033555658788125505
sS'ACOAD2f'
p25
F0.0054662750417096492
sS'PLIPA1E181pp'
p26
F0.0033555658788125505
sS'HSTPT'
p27
F0.15246899053881954
sS'GTHOr'
p28
F17.603037040849618
sS'PLIPA2E141pp'
p29
F0.13208727504780307
sS'APH140'
p30
F38.412483796426081
sS'PLIPA1G140pp'
p31
F0.0033555658788125505
sS'PLIPA1G161pp'
p32
F0.0033555658788125505
sS'PLIPA1E161pp'
p33
F0.0033555658788125505
sS'G1PACT'
p34
F0.4270019173976477
sS'LPLIPAL2G160'
p35
F7.6920057923803205
sS'LPLIPAL2G161'
p36
F7.6920057923803205
sS'EPMEACPR'
p37
F10.704497725233185
sS'GALM2pp'
p38
F352.16768796403153
sS'TPI'
p39
F15395.679488294631
sS'EAR40x'
p40
F4.7636035649480153
sS'EAR40y'
p41
F10.704497725233185
sS'TRE6PS'
p42
F0.002407972185511763
sS'LPLIPAL2E140'
p43
F7.6920057923803205
sS'LPLIPAL1E120pp'
p44
F158.62750910963194
sS'GMPR'
p45
F315.30700460160722
sS'PANTS'
p46
F0.15623559574495327
sS'NADS1'
p47
F0.023940611408023164
sS'TREH'
p48
F0.46348633998366784
sS'FMETTRS'
p49
F0.9775619091448744
sS'PRFGS'
p50
F0.17342545134973941
sS'PLIPA2A180pp'
p51
F0.13208727504780307
sS'DAPDC'
p52
F0.43139617331246866
sS'GLCATr'
p53
F88.14756800244092
sS'TREHpp'
p54
F0.38095203347987722
sS'SERTRS2'
p55
F0.31638244180830521
sS'3OAS141'
p56
F44.627551314844787
sS'PLIPA2G140pp'
p57
F0.13208727504780307
sS'DHBS'
p58
F0.022596312560004727
sS'PSSA161'
p59
F283.72092737191133
sS'PPNCL2'
p60
F0.044846381682518734
sS'ACOAD1f'
p61
F3.06233895894098
sS'EGMEACPR'
p62
F10.704497725233185
sS'GLYOX'
p63
F38.807894528772835
sS'LPLIPAL2E120'
p64
F7.6920057923803205
sS'PLIPA1A141pp'
p65
F0.0033555658788125505
sS'LPLIPAL1A161pp'
p66
F158.62750910963194
sS'ACODA'
p67
F243.48858051220236
sS'DHQS'
p68
F0.49264762831045344
sS'CYTK1'
p69
F3.549983303289113
sS'CYTK2'
p70
F3.549983303289113
sS'KDOCT2'
p71
F473.09677748333337
sS'LEUTRS'
p72
F5.0107988225376241
sS'TRPTRS'
p73
F20.318173118983395
sS'NTP3'
p74
F82.446504465895003
sS'PROD2'
p75
F0.062376960021231033
sS'GLUR'
p76
F2976.2678356200213
sS'MAN6PI'
p77
F1315.1344353859563
sS'NTP5'
p78
F82.446504465895003
sS'LPLIPAL2A160'
p79
F7.6920057923803205
sS'LPLIPAL2A161'
p80
F7.6920057923803205
sS'ACOAD7f'
p81
F0.0054662750417096492
sS'PLIPA1E141pp'
p82
F0.0033555658788125505
sS'PLIPA1A120pp'
p83
F0.0033555658788125505
sS'LPLIPAL1E181pp'
p84
F158.62750910963194
sS'EAR141x'
p85
F4.7636035649480153
sS'LCADi'
p86
F117.41435582081253
sS'KDOPS'
p87
F782.63580867381722
sS'PSSA160'
p88
F283.72092737191133
sS'GK1'
p89
F15.042189122842441
sS'PGK'
p90
F423.6371558320763
sS'APH161'
p91
F38.412483796426081
sS'EAR120x'
p92
F4.7636035649480153
sS'EAR120y'
p93
F10.704497725233185
sS'DCTPD'
p94
F0.46271976226887751
sS'FMNAT'
p95
F0.00099367269282053913
sS'ACOAD4f'
p96
F0.0054662750417096492
sS'PLIPA2A160pp'
p97
F0.13208727504780307
sS'GDPTPDP'
p98
F0.019117637797190074
sS'LPLIPAL2G140'
p99
F7.6920057923803205
sS'LPLIPAL2G141'
p100
F7.6920057923803205
sS'PPND'
p101
F8.4495409890459428
sS'ADSL2r'
p102
F0.25546640104837975
sS'LPLIPAL1G120pp'
p103
F158.62750910963194
sS'ENO'
p104
F54.066224452211912
sS'ALDD2y'
p105
F25.697686836318745
sS'GRTT'
p106
F0.010397303339085113
sS'3OAS161'
p107
F44.627551314844787
sS'ASPTA'
p108
F40.040470765842564
sS'LPLIPAL1E141pp'
p109
F158.62750910963194
sS'GLNTRS'
p110
F0.18252528239694496
sS'ADNK1'
p111
F1.0180893686333583
sS'PLIPA1A181pp'
p112
F0.0033555658788125505
sS'LPLIPAL1A141pp'
p113
F158.62750910963194
sS'LPLIPAL2E160'
p114
F7.6920057923803205
sS'LPLIPAL2E161'
p115
F7.6920057923803205
sS'NADH5'
p116
F28.440149259681299
sS'G3PD2'
p117
F518.00247470572333
sS'NADH9'
p118
F28.440149259681299
sS'EAR160x'
p119
F4.7636035649480153
sS'EAR160y'
p120
F10.704497725233185
sS'AMALT3'
p121
F12.090600715459887
sS'PSSA181'
p122
F283.72092737191133
sS'PPK2r'
p123
F0.25552254067696462
sS'EAR121y'
p124
F10.704497725233185
sS'PLIPA1E120pp'
p125
F0.0033555658788125505
sS'MICITDr'
p126
F1058.1844588232229
sS'EAR80x'
p127
F4.7636035649480153
sS'ACOAD3f'
p128
F0.0054662750417096492
sS'METAT'
p129
F0.98641818962342698
sS'G6PP'
p130
F3.7968504020768279
sS'ACOAD6f'
p131
F0.0054662750417096492
sS'ARGDCpp'
p132
F0.35207661823195668
sS'ADSS'
p133
F0.34887816556019718
sS'PSSA180'
p134
F283.72092737191133
sS'GMPS2'
p135
F0.015656855878114301
sS'PLIPA2E181pp'
p136
F0.13208727504780307
sS'UAGCVT'
p137
F0.29397406970838108
sS'SHSL1'
p138
F339.73627310638699
sS'DDGLK'
p139
F0.36729191983778392
sS'DAPE'
p140
F0.64891231278537376
sS'ME2'
p141
F61.755933617899061
sS'G5SD'
p142
F496.98420907301113
sS'EAR141y'
p143
F10.704497725233185
sS'NNDPR'
p144
F0.013213329815322694
sS'VALTRS'
p145
F1.9116009677334238
sS'EAR180y'
p146
F10.704497725233185
sS'ASPT'
p147
F0.81281628334591849
sS'GLUCYS'
p148
F255.51273222788367
sS'APH141'
p149
F38.412483796426081
sS'DMATT'
p150
F0.029706580968814605
sS'PLIPA2A141pp'
p151
F0.13208727504780307
sS'LPLIPAL1G140pp'
p152
F158.62750910963194
sS'ALCD19'
p153
F38.910799491611897
sS'PLIPA2A140pp'
p154
F0.13208727504780307
sS'RBK_L1'
p155
F0.046258340935140467
sS'LPLIPAL1G141pp'
p156
F158.62750910963194
sS'SERTRS'
p157
F0.31638244180830521
sS'PPM2'
p158
F2.7252719588740337
sS'CYSTRS'
p159
F4.2788225761528906
sS'ARGSS'
p160
F1110.4683719728491
sS'LPLIPAL2A180'
p161
F7.6920057923803205
sS'LPLIPAL2A181'
p162
F7.6920057923803205
sS'HISTRS'
p163
F4.9195740796769822
sS'EAR60x'
p164
F4.7636035649480153
sS'PPCDC'
p165
F0.044846381682518734
sS'LPLIPAL1A140pp'
p166
F158.62750910963194
sS'PPKr'
p167
F0.25552254067696462
sS'PLIPA1G141pp'
p168
F0.0033555658788125505
sS'PLIPA2G120pp'
p169
F0.13208727504780307
sS'DHDPS'
p170
F12.037667579639526
sS'TMDS'
p171
F0.38276005831400417
sS'GCALDD'
p172
F117.41435582081253
sS'LPLIPAL2G120'
p173
F7.6920057923803205
sS'PLIPA1G180pp'
p174
F0.0033555658788125505
sS'TDPDRR'
p175
F0.43251701114131597
sS'APH120'
p176
F38.412483796426081
sS'NTP11'
p177
F17.444389308083629
sS'UGMDDS'
p178
F312.26073734427717
sS'LPLIPAL1G180pp'
p179
F158.62750910963194
sS'PLIPA1G181pp'
p180
F0.0033555658788125505
sS'PLIPA2A181pp'
p181
F0.13208727504780307
sS'EAR60y'
p182
F10.704497725233185
sS'DHFS'
p183
F230.63275885469051
sS'LPLIPAL1A160pp'
p184
F158.62750910963194
sS'PLIPA1A160pp'
p185
F0.0033555658788125505
sS'OHPBAT'
p186
F1459.3453840494421
sS'EDD'
p187
F98.563759531758819
sS'PLIPA1G120pp'
p188
F0.0033555658788125505
sS'LPLIPAL1E180pp'
p189
F158.62750910963194
sS'PLIPA2E160pp'
p190
F0.13208727504780307
sS'THRTRS'
p191
F2.9744544726870239
sS'PUNP2'
p192
F589.1520179100977
sS'PLIPA1E160pp'
p193
F0.0033555658788125505
sS'FRUK'
p194
F114.64745024973617
sS'LPLIPAL2E181'
p195
F7.6920057923803205
sS'PGAMT'
p196
F0.17991934732047876
sS'PLIPA1A140pp'
p197
F0.0033555658788125505
sS'DHAD1'
p198
F4.7555704612470917
sS'LPLIPAL1A180pp'
p199
F158.62750910963194
sS'3OAS181'
p200
F108.42930062603621
sS'PTRCTA'
p201
F30.677460813249166
sS'THFAT'
p202
F2.8222644344380647
sS'LPLIPAL1E140pp'
p203
F158.62750910963194
sS'ACOAD5f'
p204
F0.0054662750417096492
sS'EAR80y'
p205
F10.704497725233185
sS'LPLIPAL1G160pp'
p206
F158.62750910963194
sS'AMALT4'
p207
F12.090600715459887
sS'EAR180x'
p208
F4.7636035649480153
sS'CPPPGO'
p209
F0.015304030370988174
sS'OPMEACPD'
p210
F1150.9146009145554
sS'LPLIPAL1G161pp'
p211
F158.62750910963194
sS'ACOAD8f'
p212
F0.0054662750417096492
sS'PLIPA2A120pp'
p213
F0.13208727504780307
sS'PLIPA1E140pp'
p214
F0.0033555658788125505
sS'UAGDP'
p215
F11.363760704937398
sS'PLIPA1G160pp'
p216
F0.0033555658788125505
sS'ARGDC'
p217
F0.0023705338089591087
sS'AMALT2'
p218
F12.090600715459887
sS'OPMEACPS'
p219
F44.627551314844787
sS'PLIPA2E161pp'
p220
F0.13208727504780307
sS'PDX5POi'
p221
F0.40738226841540048
sS'AMALT1'
p222
F12.090600715459887
sS'LPLIPAL1G181pp'
p223
F158.62750910963194
sS'UAPGR'
p224
F205.85675100065703
sS'NADH10'
p225
F28.440149259681299
sS'PLIPA2E120pp'
p226
F0.13208727504780307
sS'PPC'
p227
F33.516990648441599
sS'LPLIPAL2A120'
p228
F7.6920057923803205
sS'FBA3'
p229
F9.7879026203035373
sS'EAR121x'
p230
F4.7636035649480153
sS'METTRS'
p231
F1.4590302423047816
sS'APH180'
p232
F38.412483796426081
sS'APH181'
p233
F38.412483796426081
sS'ADK1'
p234
F35.114101949530934
sS'PPS'
p235
F30.739580087309669
sS'ALATRS'
p236
F5.2098213606296948
sS'GLGC'
p237
F2.4383654021953105
sS'PUNP1'
p238
F589.1520179100977
sS'PSSA120'
p239
F283.72092737191133
sS'PLIPA2G181pp'
p240
F0.13208727504780307
sS'PLIPA2E140pp'
p241
F0.13208727504780307
sS'ASPTRS'
p242
F2.1620782184892295
sS'LPLIPAL2A141'
p243
F7.6920057923803205
sS'OGMEACPD'
p244
F1150.9146009145554
sS'PLIPA2G180pp'
p245
F0.13208727504780307
sS'PYAM5PO'
p246
F0.40738226841540048
sS'EAR140y'
p247
F10.704497725233185
sS'APH160'
p248
F38.412483796426081
sS'EAR181x'
p249
F4.7636035649480153
sS'SADH'
p250
F13.021537450844841
sS'DGK1'
p251
F15.042189122842441
sS'PLIPA2G160pp'
p252
F0.13208727504780307
sS'PFK_2'
p253
F6.9003278469954914
sS'LPLIPAL2E180'
p254
F7.6920057923803205
sS'DTMPK'
p255
F0.10441568833073873
sS'GAPD'
p256
F190.42940809396129
sS'RBFK'
p257
F0.0079950676433836482
sS'PLIPA1A180pp'
p258
F0.0033555658788125505
sS'EAR140x'
p259
F4.7636035649480153
sS'PLIPA2G161pp'
p260
F0.13208727504780307
sS'PFK_3'
p261
F6.9003278469954914
sS'3OAS121'
p262
F44.627551314844787
sS'PPGPPDP'
p263
F0.019117637797190074
sS'ILETRS'
p264
F4.6389364541251474
sS'2DGULRGy'
p265
F842.19893116254627
sS'ALTRH'
p266
F16.963026114823844
sS'PLIPA2A161pp'
p267
F0.13208727504780307
sS'DADK'
p268
F798.50146559479094
sS'UAAGDS'
p269
F461.75548579404926
sS'MALTATr'
p270
F88.14756800244092
sS'LPLIPAL2G180'
p271
F7.6920057923803205
sS'LPLIPAL2G181'
p272
F7.6920057923803205
sS'ALLTAMH'
p273
F12.681021484728577
sS'CTECOAI6'
p274
F0.64570741176426161
sS'CTECOAI7'
p275
F0.64570741176426161
sS'LPLIPAL2E141'
p276
F7.6920057923803205
sS'GLYAT'
p277
F139.48034754225404
sS'ADSL1r'
p278
F0.25546640104837975
sS'PSSA141'
p279
F283.72092737191133
sS'PSSA140'
p280
F283.72092737191133
sS'PLIPA2E180pp'
p281
F0.13208727504780307
sS'EAR100x'
p282
F4.7636035649480153
sS'EAR100y'
p283
F10.704497725233185
sS'CTECOAI8'
p284
F0.64570741176426161
sS'ADMDC'
p285
F0.32172048943519282
s.