(dp1
S'GHMT2r'
p2
F8.6270204917573867
sS'G6PDH2r'
p3
F659.94971768768539
sS'GTPDPDP'
p4
F0.0025346172459926827
sS'LPLIPAL1E160pp'
p5
F89.160565995571403
sS'LPLIPAL1E161pp'
p6
F89.160565995571403
sS'CYSSADS'
p7
F1.7689834297332778
sS'PSERT'
p8
F1520.5174031747736
sS'LPLIPAL1A181pp'
p9
F89.160565995571403
sS'PLIPA2G141pp'
p10
F0.25628789970844779
sS'UPPDC1'
p11
F0.0067511270360336786
sS'PGI'
p12
F125.97303942299899
sS'NAMNPP'
p13
F17.210172677525659
sS'NTP12'
p14
F8.722736128286499
sS'PLIPA1A161pp'
p15
F0.0065107780526395525
sS'DHDPRy'
p16
F0.38200434069179801
sS'P5CD'
p17
F0.0030964477004013368
sS'EAR181y'
p18
F9.6629994029893744
sS'LPADSS'
p19
F94.25779689112845
sS'EAR161y'
p20
F9.6629994029893744
sS'EAR161x'
p21
F4.3001268799062693
sS'LPLIPAL1A120pp'
p22
F89.160565995571403
sS'PLIPA1E180pp'
p23
F0.0065107780526395525
sS'ACOAD2f'
p24
F0.27687625123698462
sS'PLIPA1E181pp'
p25
F0.0065107780526395525
sS'HSTPT'
p26
F0.15404222072079177
sS'GTHOr'
p27
F16.66655865419909
sS'PLIPA2E141pp'
p28
F0.25628789970844779
sS'APH140'
p29
F98.6311361326172
sS'PLIPA1G140pp'
p30
F0.0065107780526395525
sS'PLIPA1G161pp'
p31
F0.0065107780526395525
sS'PLIPA1E161pp'
p32
F0.0065107780526395525
sS'G1PACT'
p33
F0.36643793084727666
sS'EPMEACPR'
p34
F9.6629994029893744
sS'GALM2pp'
p35
F295.8726958210263
sS'TPI'
p36
F12548.518190132787
sS'EAR40x'
p37
F4.3001268799062693
sS'EAR40y'
p38
F9.6629994029893744
sS'TRE6PS'
p39
F0.023412194107622943
sS'PUNP1'
p40
F912.07106983345341
sS'LPLIPAL1E120pp'
p41
F89.160565995571403
sS'GMPR'
p42
F248.37554816402917
sS'PANTS'
p43
F0.13402947730834205
sS'NADS1'
p44
F0.025561545653202674
sS'TREH'
p45
F0.46768129287644361
sS'FMETTRS'
p46
F1.0104860586720945
sS'PRFGS'
p47
F0.1668665979169788
sS'PLIPA2A180pp'
p48
F0.25628789970844779
sS'DAPDC'
p49
F0.30331701471824618
sS'GLCATr'
p50
F54.260007984161724
sS'TREHpp'
p51
F5.8976666731438598
sS'SERTRS2'
p52
F0.27696803718659324
sS'3OAS141'
p53
F45.116029468116814
sS'PLIPA2G140pp'
p54
F0.25628789970844779
sS'DHBS'
p55
F0.21216154071530277
sS'PSSA161'
p56
F179.01986685040995
sS'PSSA160'
p57
F179.01986685040995
sS'ACOAD1f'
p58
F155.11274579102781
sS'EGMEACPR'
p59
F9.6629994029893744
sS'GLYOX'
p60
F38.815754336471166
sS'PLIPA1A141pp'
p61
F0.0065107780526395525
sS'LPLIPAL1A161pp'
p62
F89.160565995571403
sS'ACODA'
p63
F236.68056727021684
sS'DHQS'
p64
F0.43516301809960078
sS'CYTK1'
p65
F4.5617031243699877
sS'CYTK2'
p66
F4.5617031243699877
sS'KDOCT2'
p67
F273.7971044952655
sS'LEUTRS'
p68
F4.3875639705485439
sS'TRPTRS'
p69
F19.821782225923769
sS'NTP3'
p70
F65.428706090768117
sS'PROD2'
p71
F0.0092893431012040124
sS'GLUR'
p72
F828.70914433123892
sS'MAN6PI'
p73
F1121.944030288641
sS'NTP5'
p74
F65.428706090768117
sS'PLIPA1E140pp'
p75
F0.0065107780526395525
sS'ACOAD7f'
p76
F0.27687625123698462
sS'PLIPA1E141pp'
p77
F0.0065107780526395525
sS'PLIPA1A120pp'
p78
F0.0065107780526395525
sS'LPLIPAL1E181pp'
p79
F89.160565995571403
sS'EAR141x'
p80
F4.3001268799062693
sS'LCADi'
p81
F377.5459484042633
sS'KDOPS'
p82
F951.32053220435068
sS'PPNCL2'
p83
F0.039215620934507471
sS'GK1'
p84
F9.2492583985595598
sS'PGK'
p85
F433.65887456332206
sS'APH161'
p86
F98.6311361326172
sS'EAR120x'
p87
F4.3001268799062693
sS'EAR120y'
p88
F9.6629994029893744
sS'DCTPD'
p89
F0.83755330602694367
sS'FMNAT'
p90
F0.0007117021279903408
sS'ACOAD4f'
p91
F0.27687625123698462
sS'PLIPA2A160pp'
p92
F0.25628789970844779
sS'GDPTPDP'
p93
F0.0085446939502667723
sS'PLIPA1G160pp'
p94
F0.0065107780526395525
sS'PPND'
p95
F7.0832883027701357
sS'ADSL2r'
p96
F0.22772663491312506
sS'LPLIPAL1G120pp'
p97
F89.160565995571403
sS'ENO'
p98
F50.478404229436968
sS'ALDD2y'
p99
F109.56095971438295
sS'GRTT'
p100
F0.0083181277685200183
sS'3OAS161'
p101
F45.116029468116814
sS'ASPTA'
p102
F38.338203670136195
sS'LPLIPAL1E141pp'
p103
F89.160565995571403
sS'GLNTRS'
p104
F0.16393548471595759
sS'ADNK1'
p105
F1.2517650387589438
sS'PLIPA1A181pp'
p106
F0.0065107780526395525
sS'LPLIPAL1A141pp'
p107
F89.160565995571403
sS'GCALDD'
p108
F377.5459484042633
sS'NADH5'
p109
F17.860640873986874
sS'NADH9'
p110
F17.860640873986874
sS'EAR160x'
p111
F4.3001268799062693
sS'EAR160y'
p112
F9.6629994029893744
sS'AMALT3'
p113
F9.2301144793081793
sS'PSSA181'
p114
F179.01986685040995
sS'PPK2r'
p115
F0.2667062417102089
sS'EAR121y'
p116
F9.6629994029893744
sS'PLIPA1E120pp'
p117
F0.0065107780526395525
sS'MICITDr'
p118
F854.8595090614084
sS'EAR80x'
p119
F4.3001268799062693
sS'ACOAD3f'
p120
F0.27687625123698462
sS'METAT'
p121
F0.88602052257698005
sS'G6PP'
p122
F3.0531818947553484
sS'ACOAD6f'
p123
F0.27687625123698462
sS'ARGDCpp'
p124
F0.28832268727121352
sS'ADSS'
p125
F0.30601433608860878
sS'PSSA180'
p126
F179.01986685040995
sS'GMPS2'
p127
F0.013937483990007689
sS'PLIPA2E181pp'
p128
F0.25628789970844779
sS'UAGCVT'
p129
F0.24521546265877014
sS'SHSL1'
p130
F318.99793251402394
sS'DAPE'
p131
F0.59052525999273275
sS'ME2'
p132
F83.217561833989663
sS'G5SD'
p133
F432.86847867958721
sS'EAR141y'
p134
F9.6629994029893744
sS'NNDPR'
p135
F0.010379713721130751
sS'VALTRS'
p136
F1.7955141734377529
sS'EAR180y'
p137
F9.6629994029893744
sS'ASPT'
p138
F3.5401275429517347
sS'GLUCYS'
p139
F296.42274671796662
sS'APH141'
p140
F98.6311361326172
sS'DMATT'
p141
F0.023766079338628621
sS'PLIPA2A141pp'
p142
F0.25628789970844779
sS'LPLIPAL1G140pp'
p143
F89.160565995571403
sS'FCLK'
p144
F6.1482220911933485
sS'ALCD19'
p145
F15.513813133813445
sS'PLIPA2A140pp'
p146
F0.25628789970844779
sS'RBK_L1'
p147
F0.070015528490963111
sS'LPLIPAL1G141pp'
p148
F89.160565995571403
sS'SERTRS'
p149
F0.27696803718659324
sS'PPM2'
p150
F3.0135494087759618
sS'CYSTRS'
p151
F3.9710625134062911
sS'ARGSS'
p152
F981.61600057474959
sS'DDGLK'
p153
F0.33825650004417096
sS'HISTRS'
p154
F5.1319438863882292
sS'EAR60x'
p155
F4.3001268799062693
sS'PLIPA2G160pp'
p156
F0.25628789970844779
sS'LPLIPAL1A140pp'
p157
F89.160565995571403
sS'PLIPA1G141pp'
p158
F0.0065107780526395525
sS'PLIPA2G120pp'
p159
F0.25628789970844779
sS'DHDPS'
p160
F9.440140099071975
sS'TMDS'
p161
F0.29201218956530284
sS'PLIPA1G180pp'
p162
F0.0065107780526395525
sS'TDPDRR'
p163
F0.21747495264347588
sS'APH120'
p164
F98.6311361326172
sS'NTP11'
p165
F8.722736128286499
sS'UGMDDS'
p166
F221.95901250765692
sS'LPLIPAL1G180pp'
p167
F89.160565995571403
sS'PLIPA1G181pp'
p168
F0.0065107780526395525
sS'PLIPA2A181pp'
p169
F0.25628789970844779
sS'EAR60y'
p170
F9.6629994029893744
sS'DHFS'
p171
F185.54043365542205
sS'LPLIPAL1A160pp'
p172
F89.160565995571403
sS'PLIPA1A160pp'
p173
F0.0065107780526395525
sS'PSSA120'
p174
F179.01986685040995
sS'EDD'
p175
F72.983404438530599
sS'PLIPA1G120pp'
p176
F0.0065107780526395525
sS'LPLIPAL1E180pp'
p177
F89.160565995571403
sS'PLIPA2E160pp'
p178
F0.25628789970844779
sS'THRTRS'
p179
F2.8428244970844498
sS'PUNP2'
p180
F912.07106983345341
sS'PLIPA1E160pp'
p181
F0.0065107780526395525
sS'FRUK'
p182
F11.946200211223774
sS'DADK'
p183
F981.77650098740696
sS'PGAMT'
p184
F0.17453694178543999
sS'PLIPA1A140pp'
p185
F0.0065107780526395525
sS'DHAD1'
p186
F3.6900067148521489
sS'LPLIPAL1A180pp'
p187
F89.160565995571403
sS'3OAS181'
p188
F105.78349191325567
sS'PTRCTA'
p189
F359.59602730615626
sS'THFAT'
p190
F3.0252471187538488
sS'LPLIPAL1E140pp'
p191
F89.160565995571403
sS'ACOAD5f'
p192
F0.27687625123698462
sS'EAR80y'
p193
F9.6629994029893744
sS'LPLIPAL1G160pp'
p194
F89.160565995571403
sS'AMALT4'
p195
F9.2301144793081793
sS'EAR180x'
p196
F4.3001268799062693
sS'CPPPGO'
p197
F0.0079554309162613822
sS'OPMEACPD'
p198
F1192.5251288842671
sS'LPLIPAL1G161pp'
p199
F89.160565995571403
sS'ACOAD8f'
p200
F0.27687625123698462
sS'PLIPA2A120pp'
p201
F0.25628789970844779
sS'UAGDP'
p202
F9.7519771919033289
sS'ARGDC'
p203
F0.0035776211334551371
sS'AMALT2'
p204
F9.2301144793081793
sS'OPMEACPS'
p205
F45.116029468116814
sS'PLIPA2E161pp'
p206
F0.25628789970844779
sS'PDX5POi'
p207
F0.3112923765767277
sS'AMALT1'
p208
F9.2301144793081793
sS'LPLIPAL1G181pp'
p209
F89.160565995571403
sS'UAPGR'
p210
F169.90369786570966
sS'NADH10'
p211
F17.860640873986874
sS'PLIPA2E120pp'
p212
F0.25628789970844779
sS'PPC'
p213
F30.858656356541292
sS'ADMDC'
p214
F0.24855553240809763
sS'FBA3'
p215
F9.1590374461556454
sS'EAR121x'
p216
F4.3001268799062693
sS'METTRS'
p217
F1.5434464775689865
sS'APH180'
p218
F98.6311361326172
sS'APH181'
p219
F98.6311361326172
sS'ADK1'
p220
F43.173621630921225
sS'PPS'
p221
F46.965164941435013
sS'ALATRS'
p222
F4.3607977039625112
sS'GLGC'
p223
F6.9648223959041138
sS'PPKr'
p224
F0.2667062417102089
sS'PLIPA2G181pp'
p225
F0.25628789970844779
sS'PLIPA2E140pp'
p226
F0.25628789970844779
sS'ASPTRS'
p227
F2.0730962139988787
sS'OGMEACPD'
p228
F1192.5251288842671
sS'PLIPA2G180pp'
p229
F0.25628789970844779
sS'PYAM5PO'
p230
F0.3112923765767277
sS'EAR140y'
p231
F9.6629994029893744
sS'APH160'
p232
F98.6311361326172
sS'EAR181x'
p233
F4.3001268799062693
sS'SADH'
p234
F102.73865955525297
sS'PPCDC'
p235
F0.039215620934507471
sS'DGK1'
p236
F9.2492583985595598
sS'PFK_2'
p237
F5.8647268582342864
sS'G3PD2'
p238
F531.26565719868006
sS'DTMPK'
p239
F0.057857002875002526
sS'GAPD'
p240
F166.95611044510238
sS'RBFK'
p241
F0.0057263389608418229
sS'PLIPA1A180pp'
p242
F0.0065107780526395525
sS'EAR140x'
p243
F4.3001268799062693
sS'PLIPA2G161pp'
p244
F0.25628789970844779
sS'PFK_3'
p245
F5.8647268582342864
sS'3OAS121'
p246
F45.116029468116814
sS'PPGPPDP'
p247
F0.0085446939502667723
sS'ILETRS'
p248
F3.7235749005620358
sS'2DGULRGy'
p249
F651.99541115457248
sS'ALTRH'
p250
F35.706205439883313
sS'PLIPA2A161pp'
p251
F0.25628789970844779
sS'OHPBAT'
p252
F1520.5174031747736
sS'UAAGDS'
p253
F264.59384889945596
sS'MALTATr'
p254
F54.260007984161724
sS'ALLTAMH'
p255
F8.1971669401313534
sS'CTECOAI6'
p256
F6.8526099589935008
sS'CTECOAI7'
p257
F6.8526099589935008
sS'GLYAT'
p258
F106.02501867928993
sS'ADSL1r'
p259
F0.22772663491312506
sS'PSSA141'
p260
F179.01986685040995
sS'PSSA140'
p261
F179.01986685040995
sS'PLIPA2E180pp'
p262
F0.25628789970844779
sS'EAR100x'
p263
F4.3001268799062693
sS'EAR100y'
p264
F9.6629994029893744
sS'CTECOAI8'
p265
F6.8526099589935008
s.