(dp1
S'GHMT2r'
p2
F9.6992022774114641
sS'G6PDH2r'
p3
F771.22515205882792
sS'GTPDPDP'
p4
F0.0037154362075973789
sS'LPLIPAL1E160pp'
p5
F50.068734127936906
sS'LPLIPAL1E161pp'
p6
F50.068734127936906
sS'CYSSADS'
p7
F2.0352704574722442
sS'PSERT'
p8
F1421.1626329081137
sS'LPLIPAL1A181pp'
p9
F50.068734127936906
sS'PLIPA2G141pp'
p10
F0.2432815164009873
sS'UPPDC1'
p11
F0.0068043310128180733
sS'PGI'
p12
F140.84476528200614
sS'NAMNPP'
p13
F35.500367983755368
sS'NTP12'
p14
F12.890582529738809
sS'PLIPA1A161pp'
p15
F0.0061803618485239279
sS'DHDPRy'
p16
F0.40988738203747904
sS'P5CD'
p17
F0.0085580249599631723
sS'EAR181y'
p18
F9.8285817908950524
sS'LPADSS'
p19
F101.67199872460468
sS'EAR161y'
p20
F9.8285817908950524
sS'EAR161x'
p21
F4.3738126215044728
sS'LPLIPAL1A120pp'
p22
F50.068734127936906
sS'PLIPA1E180pp'
p23
F0.0061803618485239279
sS'ACOAD2f'
p24
F0.34661939892432064
sS'PLIPA1E181pp'
p25
F0.0061803618485239279
sS'HSTPT'
p26
F0.14404370369307298
sS'GTHOr'
p27
F16.701818596639356
sS'PLIPA2E141pp'
p28
F0.2432815164009873
sS'APH140'
p29
F133.90079289972579
sS'PLIPA1G140pp'
p30
F0.0061803618485239279
sS'PLIPA1G161pp'
p31
F0.0061803618485239279
sS'PLIPA1E161pp'
p32
F0.0061803618485239279
sS'G1PACT'
p33
F0.39980526736788274
sS'EPMEACPR'
p34
F9.8285817908950524
sS'GALM2pp'
p35
F294.20292209302062
sS'TPI'
p36
F10801.622824094893
sS'EAR40x'
p37
F4.3738126215044728
sS'EAR40y'
p38
F9.8285817908950524
sS'TRE6PS'
p39
F0.018768743706394492
sS'PUNP1'
p40
F906.43156018186551
sS'LPLIPAL1E120pp'
p41
F50.068734127936906
sS'GMPR'
p42
F343.91499102422756
sS'PANTS'
p43
F0.12787357875416588
sS'NADS1'
p44
F0.025911676648780267
sS'TREH'
p45
F0.32287870095806137
sS'FMETTRS'
p46
F1.3596011261984922
sS'PRFGS'
p47
F0.16985561516311007
sS'PLIPA2A180pp'
p48
F0.2432815164009873
sS'DAPDC'
p49
F0.36193853876600363
sS'GLCATr'
p50
F54.872205720369166
sS'TREHpp'
p51
F5.457610185979461
sS'SERTRS2'
p52
F0.32054358712549086
sS'3OAS141'
p53
F43.73421809499289
sS'PLIPA2G140pp'
p54
F0.2432815164009873
sS'DHBS'
p55
F0.19327903559731469
sS'PSSA161'
p56
F211.95175826111162
sS'PSSA160'
p57
F211.95175826111162
sS'ACOAD1f'
p58
F194.18453721250455
sS'EGMEACPR'
p59
F9.8285817908950524
sS'GLYOX'
p60
F46.180537481591358
sS'PLIPA1A141pp'
p61
F0.0061803618485239279
sS'LPLIPAL1A161pp'
p62
F50.068734127936906
sS'ACODA'
p63
F219.17262449730782
sS'DHQS'
p64
F0.391320855416664
sS'CYTK1'
p65
F5.3956257032145531
sS'CYTK2'
p66
F5.3956257032145531
sS'KDOCT2'
p67
F375.01623250894568
sS'LEUTRS'
p68
F4.3142546275050107
sS'TRPTRS'
p69
F17.18815834535415
sS'NTP3'
p70
F80.760423972586963
sS'PROD2'
p71
F0.025674074879889517
sS'GLUR'
p72
F1242.2731503801087
sS'MAN6PI'
p73
F1270.0990216578002
sS'NTP5'
p74
F80.760423972586963
sS'PLIPA1E140pp'
p75
F0.0061803618485239279
sS'ACOAD7f'
p76
F0.34661939892432064
sS'PLIPA1E141pp'
p77
F0.0061803618485239279
sS'PLIPA1A120pp'
p78
F0.0061803618485239279
sS'LPLIPAL1E181pp'
p79
F50.068734127936906
sS'EAR141x'
p80
F4.3738126215044728
sS'LCADi'
p81
F379.61290337894798
sS'KDOPS'
p82
F842.3022367408638
sS'PPNCL2'
p83
F0.04211560517513039
sS'GK1'
p84
F15.681378440290189
sS'PGK'
p85
F438.74919937657126
sS'APH161'
p86
F133.90079289972579
sS'EAR120x'
p87
F4.3738126215044728
sS'EAR120y'
p88
F9.8285817908950524
sS'DCTPD'
p89
F0.77929055208948128
sS'FMNAT'
p90
F0.00082605364243150609
sS'ACOAD4f'
p91
F0.34661939892432064
sS'PLIPA2A160pp'
p92
F0.2432815164009873
sS'GDPTPDP'
p93
F0.01434325098624871
sS'PLIPA1G160pp'
p94
F0.0061803618485239279
sS'PPND'
p95
F7.416573152794335
sS'ADSL2r'
p96
F0.25109182972398447
sS'LPLIPAL1G120pp'
p97
F50.068734127936906
sS'ENO'
p98
F49.242502253631073
sS'ALDD2y'
p99
F154.39412427524067
sS'GRTT'
p100
F0.0084412185291677586
sS'3OAS161'
p101
F43.73421809499289
sS'ASPTA'
p102
F36.542985577615546
sS'LPLIPAL1E141pp'
p103
F50.068734127936906
sS'GLNTRS'
p104
F0.16846317416206794
sS'ADNK1'
p105
F1.2585771383211237
sS'PLIPA1A181pp'
p106
F0.0061803618485239279
sS'LPLIPAL1A141pp'
p107
F50.068734127936906
sS'GCALDD'
p108
F379.61290337894798
sS'NADH5'
p109
F18.777128895208573
sS'NADH9'
p110
F18.777128895208573
sS'EAR160x'
p111
F4.3738126215044728
sS'EAR160y'
p112
F9.8285817908950524
sS'AMALT3'
p113
F11.025653011343172
sS'PSSA181'
p114
F211.95175826111162
sS'PPK2r'
p115
F0.33985300607056673
sS'EAR121y'
p116
F9.8285817908950524
sS'PLIPA1E120pp'
p117
F0.0061803618485239279
sS'MICITDr'
p118
F842.36696058415487
sS'EAR80x'
p119
F4.3738126215044728
sS'ACOAD3f'
p120
F0.34661939892432064
sS'METAT'
p121
F0.88170648815277564
sS'G6PP'
p122
F4.1958408562995544
sS'ACOAD6f'
p123
F0.34661939892432064
sS'ARGDCpp'
p124
F0.29789191749812088
sS'ADSS'
p125
F0.32209715669303407
sS'PSSA180'
p126
F211.95175826111162
sS'GMPS2'
p127
F0.014671213233856509
sS'PLIPA2E181pp'
p128
F0.2432815164009873
sS'UAGCVT'
p129
F0.22922768899836821
sS'SHSL1'
p130
F245.42075403708506
sS'DAPE'
p131
F1.0570639050068666
sS'ME2'
p132
F90.579136104124302
sS'G5SD'
p133
F399.07509606310555
sS'EAR141y'
p134
F9.8285817908950524
sS'NNDPR'
p135
F0.011854490765025281
sS'VALTRS'
p136
F2.1292493272334099
sS'EAR180y'
p137
F9.8285817908950524
sS'ASPT'
p138
F3.8027433775935071
sS'GLUCYS'
p139
F323.47156204507047
sS'APH141'
p140
F133.90079289972579
sS'DMATT'
p141
F0.024117767226193593
sS'PLIPA2A141pp'
p142
F0.2432815164009873
sS'LPLIPAL1G140pp'
p143
F50.068734127936906
sS'FCLK'
p144
F6.9993610952913379
sS'ALCD19'
p145
F26.79269163370839
sS'PLIPA2A140pp'
p146
F0.2432815164009873
sS'RBK_L1'
p147
F0.14769335020932389
sS'LPLIPAL1G141pp'
p148
F50.068734127936906
sS'SERTRS'
p149
F0.32054358712549086
sS'PPM2'
p150
F3.8589077164147207
sS'CYSTRS'
p151
F4.8148891980655577
sS'ARGSS'
p152
F1031.0843864424098
sS'DDGLK'
p153
F0.20827033213217322
sS'HISTRS'
p154
F5.2268190491823834
sS'EAR60x'
p155
F4.3738126215044728
sS'PLIPA2G160pp'
p156
F0.2432815164009873
sS'LPLIPAL1A140pp'
p157
F50.068734127936906
sS'PLIPA1G141pp'
p158
F0.0061803618485239279
sS'PLIPA2G120pp'
p159
F0.2432815164009873
sS'DHDPS'
p160
F9.869581896388933
sS'TMDS'
p161
F0.26578436082934875
sS'PLIPA1G180pp'
p162
F0.0061803618485239279
sS'TDPDRR'
p163
F0.32530098790310336
sS'APH120'
p164
F133.90079289972579
sS'NTP11'
p165
F12.890582529738809
sS'UGMDDS'
p166
F263.51175268528465
sS'LPLIPAL1G180pp'
p167
F50.068734127936906
sS'PLIPA1G181pp'
p168
F0.0061803618485239279
sS'PLIPA2A181pp'
p169
F0.2432815164009873
sS'EAR60y'
p170
F9.8285817908950524
sS'DHFS'
p171
F218.15508335653632
sS'LPLIPAL1A160pp'
p172
F50.068734127936906
sS'PLIPA1A160pp'
p173
F0.0061803618485239279
sS'PSSA120'
p174
F211.95175826111162
sS'EDD'
p175
F72.853555793127967
sS'PLIPA1G120pp'
p176
F0.0061803618485239279
sS'LPLIPAL1E180pp'
p177
F50.068734127936906
sS'PLIPA2E160pp'
p178
F0.2432815164009873
sS'THRTRS'
p179
F2.8885842012488654
sS'PUNP2'
p180
F906.43156018186551
sS'PLIPA1E160pp'
p181
F0.0061803618485239279
sS'FRUK'
p182
F45.849520586543605
sS'DADK'
p183
F987.11932417343053
sS'PGAMT'
p184
F0.20208828606076068
sS'PLIPA1A140pp'
p185
F0.0061803618485239279
sS'DHAD1'
p186
F3.5510780463067313
sS'LPLIPAL1A180pp'
p187
F50.068734127936906
sS'3OAS181'
p188
F105.56461312626604
sS'PTRCTA'
p189
F428.52455706709748
sS'THFAT'
p190
F3.4012303288238175
sS'LPLIPAL1E140pp'
p191
F50.068734127936906
sS'ACOAD5f'
p192
F0.34661939892432064
sS'EAR80y'
p193
F9.8285817908950524
sS'LPLIPAL1G160pp'
p194
F50.068734127936906
sS'AMALT4'
p195
F11.025653011343172
sS'EAR180x'
p196
F4.3738126215044728
sS'CPPPGO'
p197
F0.0085252182399769179
sS'OPMEACPD'
p198
F1161.2220711901493
sS'LPLIPAL1G161pp'
p199
F50.068734127936906
sS'ACOAD8f'
p200
F0.34661939892432064
sS'PLIPA2A120pp'
p201
F0.2432815164009873
sS'UAGDP'
p202
F10.639978889629136
sS'ARGDC'
p203
F0.0025067543616626646
sS'AMALT2'
p204
F11.025653011343172
sS'OPMEACPS'
p205
F43.73421809499289
sS'PLIPA2E161pp'
p206
F0.2432815164009873
sS'PDX5POi'
p207
F0.3235290668584957
sS'AMALT1'
p208
F11.025653011343172
sS'LPLIPAL1G181pp'
p209
F50.068734127936906
sS'UAPGR'
p210
F119.90957861322161
sS'NADH10'
p211
F18.777128895208573
sS'PLIPA2E120pp'
p212
F0.2432815164009873
sS'PPC'
p213
F32.122819732320551
sS'ADMDC'
p214
F0.35064999253458773
sS'FBA3'
p215
F9.8138145058309494
sS'EAR121x'
p216
F4.3738126215044728
sS'METTRS'
p217
F1.7015967154078038
sS'APH180'
p218
F133.90079289972579
sS'APH181'
p219
F133.90079289972579
sS'ADK1'
p220
F43.408572280526599
sS'PPS'
p221
F45.75622995428278
sS'ALATRS'
p222
F4.822646416366263
sS'GLGC'
p223
F8.1185891313242919
sS'PPKr'
p224
F0.33985300607056673
sS'PLIPA2G181pp'
p225
F0.2432815164009873
sS'PLIPA2E140pp'
p226
F0.2432815164009873
sS'ASPTRS'
p227
F2.2084024782754845
sS'OGMEACPD'
p228
F1161.2220711901493
sS'PLIPA2G180pp'
p229
F0.2432815164009873
sS'PYAM5PO'
p230
F0.3235290668584957
sS'EAR140y'
p231
F9.8285817908950524
sS'APH160'
p232
F133.90079289972579
sS'EAR181x'
p233
F4.3738126215044728
sS'SADH'
p234
F123.3014920659798
sS'PPCDC'
p235
F0.04211560517513039
sS'DGK1'
p236
F15.681378440290189
sS'PFK_2'
p237
F6.3880300540788237
sS'G3PD2'
p238
F521.77000198144685
sS'DTMPK'
p239
F0.072431336779600092
sS'GAPD'
p240
F187.38634055700919
sS'RBFK'
p241
F0.0066464086172649921
sS'PLIPA1A180pp'
p242
F0.0061803618485239279
sS'EAR140x'
p243
F4.3738126215044728
sS'PLIPA2G161pp'
p244
F0.2432815164009873
sS'PFK_3'
p245
F6.3880300540788237
sS'3OAS121'
p246
F43.73421809499289
sS'PPGPPDP'
p247
F0.01434325098624871
sS'ILETRS'
p248
F4.3176231216248286
sS'2DGULRGy'
p249
F672.45026078583749
sS'ALTRH'
p250
F34.895742079300597
sS'PLIPA2A161pp'
p251
F0.2432815164009873
sS'OHPBAT'
p252
F1421.1626329081137
sS'UAAGDS'
p253
F341.1888685007271
sS'MALTATr'
p254
F54.872205720369166
sS'ALLTAMH'
p255
F6.5809028722912233
sS'CTECOAI6'
p256
F8.1512537949326713
sS'CTECOAI7'
p257
F8.1512537949326713
sS'GLYAT'
p258
F158.33107578577315
sS'ADSL1r'
p259
F0.25109182972398447
sS'PSSA141'
p260
F211.95175826111162
sS'PSSA140'
p261
F211.95175826111162
sS'PLIPA2E180pp'
p262
F0.2432815164009873
sS'EAR100x'
p263
F4.3738126215044728
sS'EAR100y'
p264
F9.8285817908950524
sS'CTECOAI8'
p265
F8.1512537949326713
s.