(dp1
S'GHMT2r'
p2
F8.8939195139200411
sS'G6PDH2r'
p3
F723.26171113043722
sS'GTPDPDP'
p4
F0.005366477798693643
sS'LPLIPAL1E160pp'
p5
F89.231279410038567
sS'LPLIPAL1E161pp'
p6
F89.231279410038567
sS'CYSSADS'
p7
F3.4574408077561807
sS'PSERT'
p8
F1425.2892612077981
sS'LPLIPAL1A181pp'
p9
F89.231279410038567
sS'PLIPA2G141pp'
p10
F0.21955305544216711
sS'LPLIPAL2A140'
p11
F6.6430937165732962
sS'UPPDC1'
p12
F0.0070737578976202342
sS'PGI'
p13
F123.89221741593947
sS'NAMNPP'
p14
F306.99175534778516
sS'NTP12'
p15
F16.003124188642175
sS'PLIPA1A161pp'
p16
F0.0055775602999164871
sS'DHDPRy'
p17
F0.46776432532447049
sS'P5CD'
p18
F0.040392841684468418
sS'EAR181y'
p19
F9.8306011221161906
sS'LPADSS'
p20
F116.5084248496936
sS'EAR161y'
p21
F9.8306011221161906
sS'EAR161x'
p22
F4.3747112431540573
sS'LPLIPAL1A120pp'
p23
F89.231279410038567
sS'PLIPA1E180pp'
p24
F0.0055775602999164871
sS'ACOAD2f'
p25
F0.0056767644500130944
sS'PLIPA1E181pp'
p26
F0.0055775602999164871
sS'HSTPT'
p27
F0.1669012645853776
sS'GTHOr'
p28
F19.671181556083674
sS'PLIPA2E141pp'
p29
F0.21955305544216711
sS'APH140'
p30
F46.98509744169754
sS'PLIPA1G140pp'
p31
F0.0055775602999164871
sS'PLIPA1G161pp'
p32
F0.0055775602999164871
sS'PLIPA1E161pp'
p33
F0.0055775602999164871
sS'G1PACT'
p34
F0.43496822886543851
sS'LPLIPAL2G160'
p35
F6.6430937165732962
sS'LPLIPAL2G161'
p36
F6.6430937165732962
sS'EPMEACPR'
p37
F9.8306011221161906
sS'GALM2pp'
p38
F376.18932204953882
sS'TPI'
p39
F13572.745421555397
sS'EAR40x'
p40
F4.3747112431540573
sS'EAR40y'
p41
F9.8306011221161906
sS'TRE6PS'
p42
F0.0044596332011223386
sS'LPLIPAL2E140'
p43
F6.6430937165732962
sS'LPLIPAL1E120pp'
p44
F89.231279410038567
sS'GMPR'
p45
F321.96330996541838
sS'PANTS'
p46
F0.1462411444128027
sS'NADS1'
p47
F0.02416361920692587
sS'TREH'
p48
F0.14431344214446956
sS'FMETTRS'
p49
F1.0137514635461713
sS'PRFGS'
p50
F0.17283333118392444
sS'PLIPA2A180pp'
p51
F0.21955305544216711
sS'DAPDC'
p52
F0.47390458658803958
sS'GLCATr'
p53
F50.76026345331055
sS'TREHpp'
p54
F0.14464902921637598
sS'SERTRS2'
p55
F0.32824834586252771
sS'3OAS141'
p56
F35.342696092827481
sS'PLIPA2G140pp'
p57
F0.21955305544216711
sS'DHBS'
p58
F0.049901474453794302
sS'PSSA161'
p59
F264.90835410088459
sS'PPNCL2'
p60
F0.043139734555227953
sS'ACOAD1f'
p61
F3.1802601960857664
sS'EGMEACPR'
p62
F9.8306011221161906
sS'GLYOX'
p63
F81.503508430406427
sS'LPLIPAL2E120'
p64
F6.6430937165732962
sS'PLIPA1A141pp'
p65
F0.0055775602999164871
sS'LPLIPAL1A161pp'
p66
F89.231279410038567
sS'ACODA'
p67
F217.27193404661631
sS'DHQS'
p68
F0.45817233974148647
sS'CYTK1'
p69
F4.7997101277743033
sS'CYTK2'
p70
F4.7997101277743033
sS'KDOCT2'
p71
F492.09064656858106
sS'LEUTRS'
p72
F4.5411767420574209
sS'TRPTRS'
p73
F18.729218946512368
sS'NTP3'
p74
F87.368468964537627
sS'PROD2'
p75
F0.12117852505340526
sS'GLUR'
p76
F2603.8552932967468
sS'MAN6PI'
p77
F1167.16845371004
sS'NTP5'
p78
F87.368468964537627
sS'LPLIPAL2A160'
p79
F6.6430937165732962
sS'LPLIPAL2A161'
p80
F6.6430937165732962
sS'ACOAD7f'
p81
F0.0056767644500130944
sS'PLIPA1E141pp'
p82
F0.0055775602999164871
sS'PLIPA1A120pp'
p83
F0.0055775602999164871
sS'LPLIPAL1E181pp'
p84
F89.231279410038567
sS'EAR141x'
p85
F4.3747112431540573
sS'LCADi'
p86
F112.54115077915958
sS'KDOPS'
p87
F867.59679885372759
sS'PSSA160'
p88
F264.90835410088459
sS'GK1'
p89
F20.255947516450433
sS'PGK'
p90
F366.50438502665526
sS'APH161'
p91
F46.98509744169754
sS'EAR120x'
p92
F4.3747112431540573
sS'EAR120y'
p93
F9.8306011221161906
sS'DCTPD'
p94
F0.86697844724462425
sS'FMNAT'
p95
F0.00089477333200276357
sS'ACOAD4f'
p96
F0.0056767644500130944
sS'PLIPA2A160pp'
p97
F0.21955305544216711
sS'GDPTPDP'
p98
F0.028186277077897594
sS'LPLIPAL2G140'
p99
F6.6430937165732962
sS'LPLIPAL2G141'
p100
F6.6430937165732962
sS'PPND'
p101
F9.7197832118144092
sS'ADSL2r'
p102
F0.23313505673319426
sS'LPLIPAL1G120pp'
p103
F89.231279410038567
sS'ENO'
p104
F49.161871350336725
sS'ALDD2y'
p105
F16.034887251867406
sS'GRTT'
p106
F0.0094570854606858979
sS'3OAS161'
p107
F35.342696092827481
sS'ASPTA'
p108
F39.259286488965373
sS'LPLIPAL1E141pp'
p109
F89.231279410038567
sS'GLNTRS'
p110
F0.18447409580054655
sS'ADNK1'
p111
F1.1039332440748322
sS'PLIPA1A181pp'
p112
F0.0055775602999164871
sS'LPLIPAL1A141pp'
p113
F89.231279410038567
sS'LPLIPAL2E160'
p114
F6.6430937165732962
sS'LPLIPAL2E161'
p115
F6.6430937165732962
sS'NADH5'
p116
F19.701088795631218
sS'G3PD2'
p117
F536.4159253135939
sS'NADH9'
p118
F19.701088795631218
sS'EAR160x'
p119
F4.3747112431540573
sS'EAR160y'
p120
F9.8306011221161906
sS'AMALT3'
p121
F13.151358107093399
sS'PSSA181'
p122
F264.90835410088459
sS'PPK2r'
p123
F0.2949208540126495
sS'EAR121y'
p124
F9.8306011221161906
sS'PLIPA1E120pp'
p125
F0.0055775602999164871
sS'MICITDr'
p126
F1022.3707818987845
sS'EAR80x'
p127
F4.3747112431540573
sS'ACOAD3f'
p128
F0.0056767644500130944
sS'METAT'
p129
F0.96339725795001019
sS'G6PP'
p130
F2.9643878206365835
sS'ACOAD6f'
p131
F0.0056767644500130944
sS'ARGDCpp'
p132
F0.27518950897989347
sS'ADSS'
p133
F0.33532088533115034
sS'PSSA180'
p134
F264.90835410088459
sS'GMPS2'
p135
F0.013886553229338572
sS'PLIPA2E181pp'
p136
F0.21955305544216711
sS'UAGCVT'
p137
F0.28191705852828169
sS'SHSL1'
p138
F351.29952821035903
sS'DDGLK'
p139
F0.41824689468164328
sS'DAPE'
p140
F0.81174530856911009
sS'ME2'
p141
F89.28644621349784
sS'G5SD'
p142
F453.6482742396563
sS'EAR141y'
p143
F9.8306011221161906
sS'NNDPR'
p144
F0.015759058980725937
sS'VALTRS'
p145
F1.8266459549252607
sS'EAR180y'
p146
F9.8306011221161906
sS'ASPT'
p147
F0.39536623119575676
sS'GLUCYS'
p148
F325.43654329260306
sS'APH141'
p149
F46.98509744169754
sS'DMATT'
p150
F0.027020244173388278
sS'PLIPA2A141pp'
p151
F0.21955305544216711
sS'LPLIPAL1G140pp'
p152
F89.231279410038567
sS'FCLK'
p153
F8.685098988535195
sS'ALCD19'
p154
F60.966694732658823
sS'PLIPA2A140pp'
p155
F0.21955305544216711
sS'RBK_L1'
p156
F0.039713903297355913
sS'LPLIPAL1G141pp'
p157
F89.231279410038567
sS'SERTRS'
p158
F0.32824834586252771
sS'PPM2'
p159
F2.0925471883542253
sS'CYSTRS'
p160
F4.2057554230037502
sS'ARGSS'
p161
F1108.5892569207726
sS'LPLIPAL2A180'
p162
F6.6430937165732962
sS'LPLIPAL2A181'
p163
F6.6430937165732962
sS'HISTRS'
p164
F5.0223164290703606
sS'EAR60x'
p165
F4.3747112431540573
sS'PPCDC'
p166
F0.043139734555227953
sS'LPLIPAL1A140pp'
p167
F89.231279410038567
sS'PPKr'
p168
F0.2949208540126495
sS'PLIPA1G141pp'
p169
F0.0055775602999164871
sS'PLIPA2G120pp'
p170
F0.21955305544216711
sS'DHDPS'
p171
F10.397075557714123
sS'TMDS'
p172
F0.38518228279064987
sS'GCALDD'
p173
F112.54115077915958
sS'LPLIPAL2G120'
p174
F6.6430937165732962
sS'PLIPA1G180pp'
p175
F0.0055775602999164871
sS'TDPDRR'
p176
F0.42431077422638536
sS'APH120'
p177
F46.98509744169754
sS'NTP11'
p178
F16.003124188642175
sS'UGMDDS'
p179
F358.58030563800594
sS'LPLIPAL1G180pp'
p180
F89.231279410038567
sS'PLIPA1G181pp'
p181
F0.0055775602999164871
sS'PLIPA2A181pp'
p182
F0.21955305544216711
sS'EAR60y'
p183
F9.8306011221161906
sS'DHFS'
p184
F310.38871631988223
sS'LPLIPAL1A160pp'
p185
F89.231279410038567
sS'PLIPA1A160pp'
p186
F0.0055775602999164871
sS'OHPBAT'
p187
F1425.2892612077981
sS'EDD'
p188
F106.15884559988848
sS'PLIPA1G120pp'
p189
F0.0055775602999164871
sS'LPLIPAL1E180pp'
p190
F89.231279410038567
sS'PLIPA2E160pp'
p191
F0.21955305544216711
sS'THRTRS'
p192
F2.7371447844730423
sS'PUNP2'
p193
F630.42478959539926
sS'PLIPA1E160pp'
p194
F0.0055775602999164871
sS'FRUK'
p195
F59.004238820529558
sS'LPLIPAL2E181'
p196
F6.6430937165732962
sS'PGAMT'
p197
F0.17778262715866328
sS'PLIPA1A140pp'
p198
F0.0055775602999164871
sS'DHAD1'
p199
F4.3289373913233815
sS'LPLIPAL1A180pp'
p200
F89.231279410038567
sS'3OAS181'
p201
F114.10062877880911
sS'PTRCTA'
p202
F11.547932016627351
sS'THFAT'
p203
F3.1188409033712889
sS'LPLIPAL1E140pp'
p204
F89.231279410038567
sS'ACOAD5f'
p205
F0.0056767644500130944
sS'EAR80y'
p206
F9.8306011221161906
sS'LPLIPAL1G160pp'
p207
F89.231279410038567
sS'AMALT4'
p208
F13.151358107093399
sS'EAR180x'
p209
F4.3747112431540573
sS'CPPPGO'
p210
F0.042099193368087179
sS'OPMEACPD'
p211
F1214.5030484184897
sS'LPLIPAL1G161pp'
p212
F89.231279410038567
sS'ACOAD8f'
p213
F0.0056767644500130944
sS'PLIPA2A120pp'
p214
F0.21955305544216711
sS'PLIPA1E140pp'
p215
F0.0055775602999164871
sS'UAGDP'
p216
F11.575767381096346
sS'PLIPA1G160pp'
p217
F0.0055775602999164871
sS'ARGDC'
p218
F0.002226510250412744
sS'AMALT2'
p219
F13.151358107093399
sS'OPMEACPS'
p220
F35.342696092827481
sS'PLIPA2E161pp'
p221
F0.21955305544216711
sS'PDX5POi'
p222
F0.39792368802953748
sS'AMALT1'
p223
F13.151358107093399
sS'LPLIPAL1G181pp'
p224
F89.231279410038567
sS'UAPGR'
p225
F168.63687447565943
sS'NADH10'
p226
F19.701088795631218
sS'PLIPA2E120pp'
p227
F0.21955305544216711
sS'PPC'
p228
F32.929209121577841
sS'LPLIPAL2A120'
p229
F6.6430937165732962
sS'FBA3'
p230
F9.1622107635462129
sS'EAR121x'
p231
F4.3747112431540573
sS'METTRS'
p232
F1.5659133848893005
sS'APH180'
p233
F46.98509744169754
sS'APH181'
p234
F46.98509744169754
sS'ADK1'
p235
F38.07487404563981
sS'PPS'
p236
F40.131365486141476
sS'ALATRS'
p237
F4.8129493548503097
sS'GLGC'
p238
F2.3516979046027426
sS'PUNP1'
p239
F630.42478959539926
sS'PSSA120'
p240
F264.90835410088459
sS'PLIPA2G181pp'
p241
F0.21955305544216711
sS'PLIPA2E140pp'
p242
F0.21955305544216711
sS'ASPTRS'
p243
F2.322331472511626
sS'LPLIPAL2A141'
p244
F6.6430937165732962
sS'OGMEACPD'
p245
F1214.5030484184897
sS'PLIPA2G180pp'
p246
F0.21955305544216711
sS'PYAM5PO'
p247
F0.39792368802953748
sS'EAR140y'
p248
F9.8306011221161906
sS'APH160'
p249
F46.98509744169754
sS'EAR181x'
p250
F4.3747112431540573
sS'SADH'
p251
F23.940629575216196
sS'DGK1'
p252
F20.255947516450433
sS'PLIPA2G160pp'
p253
F0.21955305544216711
sS'PFK_2'
p254
F5.7927400657397543
sS'LPLIPAL2E180'
p255
F6.6430937165732962
sS'DTMPK'
p256
F0.067526031180619131
sS'GAPD'
p257
F157.85176245395587
sS'RBFK'
p258
F0.0071993256597923513
sS'PLIPA1A180pp'
p259
F0.0055775602999164871
sS'EAR140x'
p260
F4.3747112431540573
sS'PLIPA2G161pp'
p261
F0.21955305544216711
sS'PFK_3'
p262
F5.7927400657397543
sS'3OAS121'
p263
F35.342696092827481
sS'PPGPPDP'
p264
F0.028186277077897594
sS'ILETRS'
p265
F4.1994426309396395
sS'2DGULRGy'
p266
F784.76744488329621
sS'ALTRH'
p267
F36.448916038422873
sS'PLIPA2A161pp'
p268
F0.21955305544216711
sS'DADK'
p269
F865.82999535280976
sS'UAAGDS'
p270
F499.24873993995129
sS'MALTATr'
p271
F50.76026345331055
sS'LPLIPAL2G180'
p272
F6.6430937165732962
sS'LPLIPAL2G181'
p273
F6.6430937165732962
sS'ALLTAMH'
p274
F6.2360424274560042
sS'CTECOAI6'
p275
F0.17888088434440255
sS'CTECOAI7'
p276
F0.17888088434440255
sS'LPLIPAL2E141'
p277
F6.6430937165732962
sS'GLYAT'
p278
F126.96653446495608
sS'ADSL1r'
p279
F0.23313505673319426
sS'PSSA141'
p280
F264.90835410088459
sS'PSSA140'
p281
F264.90835410088459
sS'PLIPA2E180pp'
p282
F0.21955305544216711
sS'EAR100x'
p283
F4.3747112431540573
sS'EAR100y'
p284
F9.8306011221161906
sS'CTECOAI8'
p285
F0.17888088434440255
sS'ADMDC'
p286
F0.37971511305069711
s.