(dp1
S'GHMT2r'
p2
F7.6356668634238147
sS'G6PDH2r'
p3
F616.4813859460437
sS'GTPDPDP'
p4
F0.0047595427541328589
sS'LPLIPAL1E160pp'
p5
F120.44157209797525
sS'LPLIPAL1E161pp'
p6
F120.44157209797525
sS'CYSSADS'
p7
F1.872055938968511
sS'PSERT'
p8
F1451.0082782504414
sS'LPLIPAL1A181pp'
p9
F120.44157209797525
sS'PLIPA2G141pp'
p10
F0.13372356228416521
sS'LPLIPAL2A140'
p11
F7.9340301897086647
sS'UPPDC1'
p12
F0.0062350884037065428
sS'PGI'
p13
F136.62429587785323
sS'NAMNPP'
p14
F259.33033199593757
sS'NTP12'
p15
F18.267872609413459
sS'PLIPA1A161pp'
p16
F0.0033971343767339899
sS'DHDPRy'
p17
F0.48124637650534247
sS'P5CD'
p18
F0.051677480773221693
sS'EAR181y'
p19
F9.7749932930514785
sS'LPADSS'
p20
F114.86239138681472
sS'EAR161y'
p21
F9.7749932930514785
sS'EAR161x'
p22
F4.3499652289485287
sS'LPLIPAL1A120pp'
p23
F120.44157209797525
sS'PLIPA1E180pp'
p24
F0.0033971343767339899
sS'ACOAD2f'
p25
F0.01603382249486978
sS'PLIPA1E181pp'
p26
F0.0033971343767339899
sS'HSTPT'
p27
F0.15558137594498206
sS'GTHOr'
p28
F18.93076966838759
sS'PLIPA2E141pp'
p29
F0.13372356228416521
sS'APH140'
p30
F52.974114612543119
sS'PLIPA1G140pp'
p31
F0.0033971343767339899
sS'PLIPA1G161pp'
p32
F0.0033971343767339899
sS'PLIPA1E161pp'
p33
F0.0033971343767339899
sS'G1PACT'
p34
F0.38220595928948464
sS'LPLIPAL2G160'
p35
F7.9340301897086647
sS'LPLIPAL2G161'
p36
F7.9340301897086647
sS'EPMEACPR'
p37
F9.7749932930514785
sS'GALM2pp'
p38
F360.9236628455352
sS'TPI'
p39
F11418.927424182802
sS'EAR40x'
p40
F4.3499652289485287
sS'EAR40y'
p41
F9.7749932930514785
sS'TRE6PS'
p42
F0.0061515783538949147
sS'LPLIPAL2E140'
p43
F7.9340301897086647
sS'LPLIPAL1E120pp'
p44
F120.44157209797525
sS'GMPR'
p45
F278.97752987494039
sS'PANTS'
p46
F0.17306384265502486
sS'NADS1'
p47
F0.024535341853106834
sS'TREH'
p48
F0.16041126514380483
sS'FMETTRS'
p49
F1.3045513641389428
sS'PRFGS'
p50
F0.16259441599916535
sS'PLIPA2A180pp'
p51
F0.13372356228416521
sS'DAPDC'
p52
F0.35397156904289107
sS'GLCATr'
p53
F90.382911128336886
sS'TREHpp'
p54
F1.107931440602407
sS'SERTRS2'
p55
F0.33476976045943663
sS'3OAS141'
p56
F40.782179574746998
sS'PLIPA2G140pp'
p57
F0.13372356228416521
sS'DHBS'
p58
F0.042108332519109573
sS'PSSA161'
p59
F282.07010030052879
sS'PPNCL2'
p60
F0.043450069600058594
sS'ACOAD1f'
p61
F8.9825336105713074
sS'EGMEACPR'
p62
F9.7749932930514785
sS'GLYOX'
p63
F65.407831981085749
sS'LPLIPAL2E120'
p64
F7.9340301897086647
sS'PLIPA1A141pp'
p65
F0.0033971343767339899
sS'LPLIPAL1A161pp'
p66
F120.44157209797525
sS'ACODA'
p67
F262.02516240704858
sS'DHQS'
p68
F0.52127983790528865
sS'CYTK1'
p69
F4.4638591853980536
sS'CYTK2'
p70
F4.4638591853980536
sS'KDOCT2'
p71
F395.45654929703539
sS'LEUTRS'
p72
F5.1538083529575465
sS'TRPTRS'
p73
F20.743554103916065
sS'NTP3'
p74
F74.958948589612461
sS'PROD2'
p75
F0.15503244231966509
sS'GLUR'
p76
F3027.7455050458793
sS'MAN6PI'
p77
F1418.0535792079038
sS'NTP5'
p78
F74.958948589612461
sS'LPLIPAL2A160'
p79
F7.9340301897086647
sS'LPLIPAL2A161'
p80
F7.9340301897086647
sS'ACOAD7f'
p81
F0.01603382249486978
sS'PLIPA1E141pp'
p82
F0.0033971343767339899
sS'PLIPA1A120pp'
p83
F0.0033971343767339899
sS'LPLIPAL1E181pp'
p84
F120.44157209797525
sS'EAR141x'
p85
F4.3499652289485287
sS'LCADi'
p86
F159.50714558072798
sS'KDOPS'
p87
F872.19445155247956
sS'PSSA160'
p88
F282.07010030052879
sS'GK1'
p89
F14.387005240955284
sS'PGK'
p90
F478.00222992233256
sS'APH161'
p91
F52.974114612543119
sS'EAR120x'
p92
F4.3499652289485287
sS'EAR120y'
p93
F9.7749932930514785
sS'DCTPD'
p94
F0.46126232570867848
sS'FMNAT'
p95
F0.0010401773630575688
sS'ACOAD4f'
p96
F0.01603382249486978
sS'PLIPA2A160pp'
p97
F0.13372356228416521
sS'GDPTPDP'
p98
F0.017875097141556329
sS'LPLIPAL2G140'
p99
F7.9340301897086647
sS'LPLIPAL2G141'
p100
F7.9340301897086647
sS'PPND'
p101
F6.5850624710157355
sS'ADSL2r'
p102
F0.25876361411943105
sS'LPLIPAL1G120pp'
p103
F120.44157209797525
sS'ENO'
p104
F54.573246231791657
sS'ALDD2y'
p105
F9.1777480774188067
sS'GRTT'
p106
F0.0070358337967151765
sS'3OAS161'
p107
F40.782179574746998
sS'ASPTA'
p108
F38.056529502651024
sS'LPLIPAL1E141pp'
p109
F120.44157209797525
sS'GLNTRS'
p110
F0.16864739177904978
sS'ADNK1'
p111
F1.1690739774329322
sS'PLIPA1A181pp'
p112
F0.0033971343767339899
sS'LPLIPAL1A141pp'
p113
F120.44157209797525
sS'LPLIPAL2E160'
p114
F7.9340301897086647
sS'LPLIPAL2E161'
p115
F7.9340301897086647
sS'NADH5'
p116
F30.284330016865205
sS'G3PD2'
p117
F362.39507450187841
sS'NADH9'
p118
F30.284330016865205
sS'EAR160x'
p119
F4.3499652289485287
sS'EAR160y'
p120
F9.7749932930514785
sS'AMALT3'
p121
F9.774365987864897
sS'PSSA181'
p122
F282.07010030052879
sS'PPK2r'
p123
F0.32747250955505869
sS'EAR121y'
p124
F9.7749932930514785
sS'PLIPA1E120pp'
p125
F0.0033971343767339899
sS'MICITDr'
p126
F1107.3074578725739
sS'EAR80x'
p127
F4.3499652289485287
sS'ACOAD3f'
p128
F0.01603382249486978
sS'METAT'
p129
F0.88964254055662495
sS'G6PP'
p130
F4.2347004622386155
sS'ACOAD6f'
p131
F0.01603382249486978
sS'ARGDCpp'
p132
F0.29733009687797146
sS'ADSS'
p133
F0.35102257806526033
sS'PSSA180'
p134
F282.07010030052879
sS'GMPS2'
p135
F0.018050003475834197
sS'PLIPA2E181pp'
p136
F0.13372356228416521
sS'UAGCVT'
p137
F0.31330937805691689
sS'SHSL1'
p138
F429.99231425277475
sS'DDGLK'
p139
F0.3548266549065423
sS'DAPE'
p140
F0.84203376562826049
sS'ME2'
p141
F54.27703850542224
sS'G5SD'
p142
F504.58127028231257
sS'EAR141y'
p143
F9.7749932930514785
sS'NNDPR'
p144
F0.016691287881617861
sS'VALTRS'
p145
F2.0039713951256908
sS'EAR180y'
p146
F9.7749932930514785
sS'ASPT'
p147
F1.334775331018256
sS'GLUCYS'
p148
F265.94733516532204
sS'APH141'
p149
F52.974114612543119
sS'DMATT'
p150
F0.02010238227632908
sS'PLIPA2A141pp'
p151
F0.13372356228416521
sS'LPLIPAL1G140pp'
p152
F120.44157209797525
sS'ALCD19'
p153
F41.684272220536215
sS'PLIPA2A140pp'
p154
F0.13372356228416521
sS'LPLIPAL1G141pp'
p155
F120.44157209797525
sS'SERTRS'
p156
F0.33476976045943663
sS'PPM2'
p157
F4.463700694319531
sS'CYSTRS'
p158
F3.6915554394674599
sS'ARGSS'
p159
F1188.58476662813
sS'LPLIPAL2A180'
p160
F7.9340301897086647
sS'LPLIPAL2A181'
p161
F7.9340301897086647
sS'HISTRS'
p162
F4.6494782848861735
sS'EAR60x'
p163
F4.3499652289485287
sS'PPCDC'
p164
F0.043450069600058594
sS'LPLIPAL1A140pp'
p165
F120.44157209797525
sS'PPKr'
p166
F0.32747250955505869
sS'PLIPA1G141pp'
p167
F0.0033971343767339899
sS'PLIPA2G120pp'
p168
F0.13372356228416521
sS'DHDPS'
p169
F12.569591395714271
sS'TMDS'
p170
F0.26149003160979134
sS'GCALDD'
p171
F159.50714558072798
sS'LPLIPAL2G120'
p172
F7.9340301897086647
sS'PLIPA1G180pp'
p173
F0.0033971343767339899
sS'TDPDRR'
p174
F0.46828890940827406
sS'APH120'
p175
F52.974114612543119
sS'NTP11'
p176
F18.267872609413459
sS'UGMDDS'
p177
F214.11607432081829
sS'LPLIPAL1G180pp'
p178
F120.44157209797525
sS'PLIPA1G181pp'
p179
F0.0033971343767339899
sS'PLIPA2A181pp'
p180
F0.13372356228416521
sS'EAR60y'
p181
F9.7749932930514785
sS'DHFS'
p182
F290.04421277686112
sS'LPLIPAL1A160pp'
p183
F120.44157209797525
sS'PLIPA1A160pp'
p184
F0.0033971343767339899
sS'OHPBAT'
p185
F1451.0082782504414
sS'EDD'
p186
F118.77567550330856
sS'PLIPA1G120pp'
p187
F0.0033971343767339899
sS'LPLIPAL1E180pp'
p188
F120.44157209797525
sS'PLIPA2E160pp'
p189
F0.13372356228416521
sS'THRTRS'
p190
F2.9281531258790974
sS'PUNP2'
p191
F520.59498301332587
sS'PLIPA1E160pp'
p192
F0.0033971343767339899
sS'FRUK'
p193
F224.74468952796289
sS'LPLIPAL2E181'
p194
F7.9340301897086647
sS'PGAMT'
p195
F0.17078579009621264
sS'PLIPA1A140pp'
p196
F0.0033971343767339899
sS'DHAD1'
p197
F4.7611460471438392
sS'LPLIPAL1A180pp'
p198
F120.44157209797525
sS'3OAS181'
p199
F97.19790450170521
sS'PTRCTA'
p200
F117.75329278347051
sS'THFAT'
p201
F2.6776080108315052
sS'LPLIPAL1E140pp'
p202
F120.44157209797525
sS'ACOAD5f'
p203
F0.01603382249486978
sS'EAR80y'
p204
F9.7749932930514785
sS'LPLIPAL1G160pp'
p205
F120.44157209797525
sS'AMALT4'
p206
F9.774365987864897
sS'EAR180x'
p207
F4.3499652289485287
sS'CPPPGO'
p208
F0.024968945076844863
sS'OPMEACPD'
p209
F1238.5759487783546
sS'LPLIPAL1G161pp'
p210
F120.44157209797525
sS'ACOAD8f'
p211
F0.01603382249486978
sS'PLIPA2A120pp'
p212
F0.13372356228416521
sS'PLIPA1E140pp'
p213
F0.0033971343767339899
sS'UAGDP'
p214
F10.171610206897574
sS'PLIPA1G160pp'
p215
F0.0033971343767339899
sS'ARGDC'
p216
F0.0024597674641911962
sS'AMALT2'
p217
F9.774365987864897
sS'OPMEACPS'
p218
F40.782179574746998
sS'PLIPA2E161pp'
p219
F0.13372356228416521
sS'PDX5POi'
p220
F0.40405566524180531
sS'AMALT1'
p221
F9.774365987864897
sS'LPLIPAL1G181pp'
p222
F120.44157209797525
sS'UAPGR'
p223
F232.62001174385534
sS'NADH10'
p224
F30.284330016865205
sS'PLIPA2E120pp'
p225
F0.13372356228416521
sS'PPC'
p226
F32.804776622691861
sS'LPLIPAL2A120'
p227
F7.9340301897086647
sS'FBA3'
p228
F9.8932395758948175
sS'EAR121x'
p229
F4.3499652289485287
sS'METTRS'
p230
F1.5550379464233222
sS'APH180'
p231
F52.974114612543119
sS'APH181'
p232
F52.974114612543119
sS'ADK1'
p233
F40.321590711853489
sS'PPS'
p234
F30.071917269323126
sS'ALATRS'
p235
F4.9812090717949076
sS'GLGC'
p236
F2.7395191903749008
sS'PUNP1'
p237
F520.59498301332587
sS'PSSA120'
p238
F282.07010030052879
sS'PLIPA2G181pp'
p239
F0.13372356228416521
sS'PLIPA2E140pp'
p240
F0.13372356228416521
sS'ASPTRS'
p241
F1.9742007773751382
sS'LPLIPAL2A141'
p242
F7.9340301897086647
sS'OGMEACPD'
p243
F1238.5759487783546
sS'PLIPA2G180pp'
p244
F0.13372356228416521
sS'PYAM5PO'
p245
F0.40405566524180531
sS'EAR140y'
p246
F9.7749932930514785
sS'APH160'
p247
F52.974114612543119
sS'EAR181x'
p248
F4.3499652289485287
sS'SADH'
p249
F23.437710766482457
sS'DGK1'
p250
F14.387005240955284
sS'PLIPA2G160pp'
p251
F0.13372356228416521
sS'PFK_2'
p252
F7.7805307540047393
sS'LPLIPAL2E180'
p253
F7.9340301897086647
sS'DTMPK'
p254
F0.095015950838378715
sS'GAPD'
p255
F169.53383731222715
sS'RBFK'
p256
F0.0083692431510379098
sS'PLIPA1A180pp'
p257
F0.0033971343767339899
sS'EAR140x'
p258
F4.3499652289485287
sS'PLIPA2G161pp'
p259
F0.13372356228416521
sS'PFK_3'
p260
F7.7805307540047393
sS'3OAS121'
p261
F40.782179574746998
sS'PPGPPDP'
p262
F0.017875097141556329
sS'ILETRS'
p263
F4.2568319946593611
sS'2DGULRGy'
p264
F781.78449959660304
sS'ALTRH'
p265
F24.786163640692656
sS'PLIPA2A161pp'
p266
F0.13372356228416521
sS'DADK'
p267
F916.92076661406452
sS'UAAGDS'
p268
F477.79662103829673
sS'MALTATr'
p269
F90.382911128336886
sS'LPLIPAL2G180'
p270
F7.9340301897086647
sS'LPLIPAL2G181'
p271
F7.9340301897086647
sS'ALLTAMH'
p272
F21.108145057900405
sS'CTECOAI6'
p273
F1.9649699143141397
sS'CTECOAI7'
p274
F1.9649699143141397
sS'LPLIPAL2E141'
p275
F7.9340301897086647
sS'GLYAT'
p276
F189.4213846910788
sS'ADSL1r'
p277
F0.25876361411943105
sS'PSSA141'
p278
F282.07010030052879
sS'PSSA140'
p279
F282.07010030052879
sS'PLIPA2E180pp'
p280
F0.13372356228416521
sS'EAR100x'
p281
F4.3499652289485287
sS'EAR100y'
p282
F9.7749932930514785
sS'CTECOAI8'
p283
F1.9649699143141397
sS'ADMDC'
p284
F0.30019396828802869
s.