(dp1
S'GHMT2r'
p2
F8.9983228052857065
sS'G6PDH2r'
p3
F901.41974426497654
sS'GTPDPDP'
p4
F0.0030173735148132951
sS'LPLIPAL1E160pp'
p5
F44.419255073561672
sS'LPLIPAL1E161pp'
p6
F44.419255073561672
sS'CYSSADS'
p7
F2.1578350940062831
sS'PSERT'
p8
F1626.9043573980264
sS'LPLIPAL1A181pp'
p9
F44.419255073561672
sS'PLIPA2G141pp'
p10
F0.2284519627608656
sS'UPPDC1'
p11
F0.0076975778337085759
sS'PGI'
p12
F152.98818712804268
sS'NAMNPP'
p13
F27.151861613730578
sS'PLIPA1G160pp'
p14
F0.005803629538959635
sS'PLIPA1A161pp'
p15
F0.005803629538959635
sS'DHDPRy'
p16
F0.48308014890573236
sS'P5CD'
p17
F0.011624885725915678
sS'EAR181y'
p18
F10.796767816246634
sS'LPADSS'
p19
F57.798662734352462
sS'EAR161y'
p20
F10.796767816246634
sS'EAR161x'
p21
F4.8046646353290798
sS'LPLIPAL1A120pp'
p22
F44.419255073561672
sS'PLIPA1E180pp'
p23
F0.005803629538959635
sS'ACOAD2f'
p24
F0.37971538141434474
sS'PLIPA1E181pp'
p25
F0.005803629538959635
sS'HSTPT'
p26
F0.14192731280667636
sS'GTHOr'
p27
F15.285018138986063
sS'PLIPA2E141pp'
p28
F0.2284519627608656
sS'APH140'
p29
F114.87877594335666
sS'PLIPA1G140pp'
p30
F0.005803629538959635
sS'PLIPA1G161pp'
p31
F0.005803629538959635
sS'PLIPA1E161pp'
p32
F0.005803629538959635
sS'G1PACT'
p33
F0.41263064686502188
sS'EPMEACPR'
p34
F10.796767816246634
sS'GALM2pp'
p35
F335.56735483986256
sS'TPI'
p36
F11783.050793320263
sS'EAR40x'
p37
F4.8046646353290798
sS'EAR40y'
p38
F10.796767816246634
sS'TRE6PS'
p39
F0.018157795181959074
sS'PUNP1'
p40
F1099.8256508669597
sS'LPLIPAL1E120pp'
p41
F44.419255073561672
sS'GMPR'
p42
F258.95797720303523
sS'PANTS'
p43
F0.13916885508806612
sS'NADS1'
p44
F0.028421806878116847
sS'TREH'
p45
F0.17265428301291111
sS'FMETTRS'
p46
F1.1973946187331495
sS'PRFGS'
p47
F0.17024723774040026
sS'PLIPA2A180pp'
p48
F0.2284519627608656
sS'DAPDC'
p49
F0.41721012587098877
sS'GLCATr'
p50
F36.500594891766319
sS'TREHpp'
p51
F5.3711765227453876
sS'SERTRS2'
p52
F0.33799098881689393
sS'3OAS141'
p53
F49.191169509493825
sS'PLIPA2G140pp'
p54
F0.2284519627608656
sS'DHBS'
p55
F0.19138461320888284
sS'PSSA161'
p56
F245.40245421763683
sS'PSSA160'
p57
F245.40245421763683
sS'ACOAD1f'
p58
F212.72570387358249
sS'EGMEACPR'
p59
F10.796767816246634
sS'GLYOX'
p60
F23.187480360420068
sS'PLIPA1A141pp'
p61
F0.005803629538959635
sS'LPLIPAL1A161pp'
p62
F44.419255073561672
sS'ACODA'
p63
F202.8654486117139
sS'DHQS'
p64
F0.40175608644596933
sS'CYTK1'
p65
F4.8844757461430515
sS'CYTK2'
p66
F4.8844757461430515
sS'KDOCT2'
p67
F361.92883357217863
sS'LEUTRS'
p68
F4.8840123039874772
sS'TRPTRS'
p69
F19.161723694960244
sS'NTP3'
p70
F84.576237452338617
sS'PROD2'
p71
F0.034874657177747036
sS'GLUR'
p72
F1215.8908090445266
sS'MAN6PI'
p73
F1433.1782736684829
sS'NTP5'
p74
F84.576237452338617
sS'PLIPA1E140pp'
p75
F0.005803629538959635
sS'ACOAD7f'
p76
F0.37971538141434474
sS'PLIPA1E141pp'
p77
F0.005803629538959635
sS'PLIPA1A120pp'
p78
F0.005803629538959635
sS'LPLIPAL1E181pp'
p79
F44.419255073561672
sS'EAR141x'
p80
F4.8046646353290798
sS'LCADi'
p81
F487.61298148413869
sS'KDOPS'
p82
F931.60203712469377
sS'PPNCL2'
p83
F0.042402806279454516
sS'GK1'
p84
F15.202343307682089
sS'PGK'
p85
F455.1996984308841
sS'APH161'
p86
F114.87877594335666
sS'EAR120x'
p87
F4.8046646353290798
sS'EAR120y'
p88
F10.796767816246634
sS'DCTPD'
p89
F0.70317430789599278
sS'FMNAT'
p90
F0.00080724590309767059
sS'ACOAD4f'
p91
F0.37971538141434474
sS'PLIPA2A160pp'
p92
F0.2284519627608656
sS'GDPTPDP'
p93
F0.014853079896975051
sS'PPND'
p94
F7.348883030065906
sS'ADSL2r'
p95
F0.27860591356844672
sS'LPLIPAL1G120pp'
p96
F44.419255073561672
sS'ENO'
p97
F53.121867938276019
sS'ALDD2y'
p98
F266.91310866188326
sS'GRTT'
p99
F0.006361959303490438
sS'3OAS161'
p100
F49.191169509493825
sS'ASPTA'
p101
F40.861371935903307
sS'LPLIPAL1E141pp'
p102
F44.419255073561672
sS'GLNTRS'
p103
F0.18018268970071125
sS'ADNK1'
p104
F1.3295284451177882
sS'PLIPA1A181pp'
p105
F0.005803629538959635
sS'LPLIPAL1A141pp'
p106
F44.419255073561672
sS'GCALDD'
p107
F487.61298148413869
sS'NADH5'
p108
F20.447548182043597
sS'NADH9'
p109
F20.447548182043597
sS'EAR160x'
p110
F4.8046646353290798
sS'EAR160y'
p111
F10.796767816246634
sS'AMALT3'
p112
F12.475813426641382
sS'PSSA181'
p113
F245.40245421763683
sS'PPK2r'
p114
F0.30269284881121578
sS'EAR121y'
p115
F10.796767816246634
sS'PLIPA1E120pp'
p116
F0.005803629538959635
sS'MICITDr'
p117
F930.20651881214314
sS'EAR80x'
p118
F4.8046646353290798
sS'ACOAD3f'
p119
F0.37971538141434474
sS'METAT'
p120
F0.88973153575930697
sS'G6PP'
p121
F3.8142997910936254
sS'ACOAD6f'
p122
F0.37971538141434474
sS'ARGDCpp'
p123
F0.29934141481830639
sS'ADSS'
p124
F0.35027003686104474
sS'PSSA180'
p125
F245.40245421763683
sS'GMPS2'
p126
F0.017693769955220418
sS'PLIPA2E181pp'
p127
F0.2284519627608656
sS'UAGCVT'
p128
F0.20453113095200057
sS'SHSL1'
p129
F261.29664239865377
sS'DAPE'
p130
F0.45817901166065927
sS'ME2'
p131
F99.864957001813238
sS'G5SD'
p132
F439.80831881660788
sS'EAR141y'
p133
F10.796767816246634
sS'NNDPR'
p134
F0.014585985810162513
sS'VALTRS'
p135
F2.0919393891064844
sS'EAR180y'
p136
F10.796767816246634
sS'ASPT'
p137
F4.8089603562184031
sS'GLUCYS'
p138
F374.85316634320492
sS'APH141'
p139
F114.87877594335666
sS'DMATT'
p140
F0.018177026581401252
sS'PLIPA2A141pp'
p141
F0.2284519627608656
sS'LPLIPAL1G140pp'
p142
F44.419255073561672
sS'FCLK'
p143
F7.6265959967343537
sS'ALCD19'
p144
F33.285536000527259
sS'PLIPA2A140pp'
p145
F0.2284519627608656
sS'RBK_L1'
p146
F0.051695379120374314
sS'LPLIPAL1G141pp'
p147
F44.419255073561672
sS'SERTRS'
p148
F0.33799098881689393
sS'PPM2'
p149
F4.029628951291957
sS'CYSTRS'
p150
F4.7823268628060429
sS'ARGSS'
p151
F1163.4535412093933
sS'DDGLK'
p152
F0.1296934842306576
sS'HISTRS'
p153
F5.1361041259158124
sS'EAR60x'
p154
F4.8046646353290798
sS'PLIPA2G160pp'
p155
F0.2284519627608656
sS'LPLIPAL1A140pp'
p156
F44.419255073561672
sS'PLIPA1G141pp'
p157
F0.005803629538959635
sS'PLIPA2G120pp'
p158
F0.2284519627608656
sS'DHDPS'
p159
F12.246767215793245
sS'TMDS'
p160
F0.18563636025070779
sS'PLIPA1G180pp'
p161
F0.005803629538959635
sS'TDPDRR'
p162
F0.3530726220984865
sS'APH120'
p163
F114.87877594335666
sS'UGMDDS'
p164
F296.20830806802394
sS'LPLIPAL1G180pp'
p165
F44.419255073561672
sS'PLIPA1G181pp'
p166
F0.005803629538959635
sS'PLIPA2A181pp'
p167
F0.2284519627608656
sS'EAR60y'
p168
F10.796767816246634
sS'DHFS'
p169
F192.005195621799
sS'LPLIPAL1A160pp'
p170
F44.419255073561672
sS'PLIPA1A160pp'
p171
F0.005803629538959635
sS'PSSA120'
p172
F245.40245421763683
sS'EDD'
p173
F70.221914767645188
sS'PLIPA1G120pp'
p174
F0.005803629538959635
sS'LPLIPAL1E180pp'
p175
F44.419255073561672
sS'PLIPA2E160pp'
p176
F0.2284519627608656
sS'THRTRS'
p177
F3.1337885434503354
sS'PUNP2'
p178
F1099.8256508669597
sS'PLIPA1E160pp'
p179
F0.005803629538959635
sS'FRUK'
p180
F72.251329443326867
sS'DADK'
p181
F1042.7674079355202
sS'PGAMT'
p182
F0.18316401588683773
sS'PLIPA1A140pp'
p183
F0.005803629538959635
sS'DHAD1'
p184
F4.1798826485191531
sS'LPLIPAL1A180pp'
p185
F44.419255073561672
sS'3OAS181'
p186
F114.71771698061134
sS'PTRCTA'
p187
F462.88428621257151
sS'THFAT'
p188
F3.1554521246723359
sS'LPLIPAL1E140pp'
p189
F44.419255073561672
sS'ACOAD5f'
p190
F0.37971538141434474
sS'EAR80y'
p191
F10.796767816246634
sS'LPLIPAL1G160pp'
p192
F44.419255073561672
sS'AMALT4'
p193
F12.475813426641382
sS'EAR180x'
p194
F4.8046646353290798
sS'CPPPGO'
p195
F0.0089519478373586547
sS'OPMEACPD'
p196
F1225.2684859532117
sS'LPLIPAL1G161pp'
p197
F44.419255073561672
sS'ACOAD8f'
p198
F0.37971538141434474
sS'PLIPA2A120pp'
p199
F0.2284519627608656
sS'UAGDP'
p200
F10.981299473020742
sS'ARGDC'
p201
F0.0026330018855658891
sS'AMALT2'
p202
F12.475813426641382
sS'OPMEACPS'
p203
F49.191169509493825
sS'PLIPA2E161pp'
p204
F0.2284519627608656
sS'PDX5POi'
p205
F0.34507651925690586
sS'AMALT1'
p206
F12.475813426641382
sS'LPLIPAL1G181pp'
p207
F44.419255073561672
sS'UAPGR'
p208
F84.362971864451808
sS'NADH10'
p209
F20.447548182043597
sS'PLIPA2E120pp'
p210
F0.2284519627608656
sS'PPC'
p211
F33.644807516319531
sS'ADMDC'
p212
F0.31795326133848273
sS'FBA3'
p213
F9.6335952380432204
sS'EAR121x'
p214
F4.8046646353290798
sS'METTRS'
p215
F1.8347011967205642
sS'APH180'
p216
F114.87877594335666
sS'APH181'
p217
F114.87877594335666
sS'ADK1'
p218
F45.855696763964495
sS'PPS'
p219
F50.139644219472423
sS'ALATRS'
p220
F5.2631488875250776
sS'GLGC'
p221
F9.4302214106128428
sS'PPKr'
p222
F0.30269284881121578
sS'PLIPA2G181pp'
p223
F0.2284519627608656
sS'PLIPA2E140pp'
p224
F0.2284519627608656
sS'ASPTRS'
p225
F2.2808595602179498
sS'OGMEACPD'
p226
F1225.2684859532117
sS'PLIPA2G180pp'
p227
F0.2284519627608656
sS'PYAM5PO'
p228
F0.34507651925690586
sS'EAR140y'
p229
F10.796767816246634
sS'APH160'
p230
F114.87877594335666
sS'EAR181x'
p231
F4.8046646353290798
sS'SADH'
p232
F134.47219632774292
sS'PPCDC'
p233
F0.042402806279454516
sS'DGK1'
p234
F15.202343307682089
sS'PFK_2'
p235
F6.4786595143761501
sS'G3PD2'
p236
F502.65800525830792
sS'DTMPK'
p237
F0.07932459678267921
sS'GAPD'
p238
F189.79365728634468
sS'RBFK'
p239
F0.0064950819789467741
sS'PLIPA1A180pp'
p240
F0.005803629538959635
sS'EAR140x'
p241
F4.8046646353290798
sS'PLIPA2G161pp'
p242
F0.2284519627608656
sS'PFK_3'
p243
F6.4786595143761501
sS'3OAS121'
p244
F49.191169509493825
sS'PPGPPDP'
p245
F0.014853079896975051
sS'ILETRS'
p246
F4.4316528061584339
sS'2DGULRGy'
p247
F662.49518057861042
sS'ALTRH'
p248
F21.985468574280123
sS'PLIPA2A161pp'
p249
F0.2284519627608656
sS'OHPBAT'
p250
F1626.9043573980264
sS'UAAGDS'
p251
F358.75201717513465
sS'MALTATr'
p252
F36.500594891766319
sS'ALLTAMH'
p253
F14.085077949110939
sS'CTECOAI6'
p254
F10.625766412063365
sS'CTECOAI7'
p255
F10.625766412063365
sS'GLYAT'
p256
F189.59521630841002
sS'ADSL1r'
p257
F0.27860591356844672
sS'PSSA141'
p258
F245.40245421763683
sS'PSSA140'
p259
F245.40245421763683
sS'PLIPA2E180pp'
p260
F0.2284519627608656
sS'EAR100x'
p261
F4.8046646353290798
sS'EAR100y'
p262
F10.796767816246634
sS'CTECOAI8'
p263
F10.625766412063365
s.