(lp1
(S'YP_003047288.1'
p2
cnumpy.core.multiarray
scalar
p3
(cnumpy
dtype
p4
(S'f8'
I0
I1
tRp5
(I3
S'<'
NNNI-1
I-1
I0
tbS'3\x8b\x93,o\xa9\x17@'
tRp6
tp7
a(S'YP_003045899.1'
p8
g3
(g5
S'7\xc9\xb4\xae\x9e\xb0\x18@'
tRp9
tp10
a(S'YP_003044634.1'
p11
g3
(g5
S';\xf1\xd5G)s\x19@'
tRp12
tp13
a(S'YP_003043984.1'
p14
g3
(g5
S'Al\x0e\xc8\xe0\x19\x1a@'
tRp15
tp16
a(S'YP_003043445.1'
p17
g3
(g5
S'\x17D}\x9c\x7fs\x1b@'
tRp18
tp19
a(S'YP_003046514.1'
p20
g3
(g5
S'D\xc4U:\xda\xea\x1b@'
tRp21
tp22
a(S'YP_003045167.1'
p23
g3
(g5
S'\x08\x0b:\x05\x00\xb4\x1f@'
tRp24
tp25
a(S'YP_003044823.1'
p26
g3
(g5
S'\xc8\x8d\xfd[y\x94!@'
tRp27
tp28
a(S'YP_003044194.1'
p29
g3
(g5
S'\x06\x121S\xf2\x15"@'
tRp30
tp31
a(S'YP_003046549.1'
p32
g3
(g5
S'S\xf3\x8b\x1f\x1d\xd1"@'
tRp33
tp34
a(S'YP_003043376.1'
p35
g3
(g5
S'^\xf3\xb6\x83\x10\xd2"@'
tRp36
tp37
a(S'YP_003047061.1'
p38
g3
(g5
S'*H\xdd\x9a\xe3\x11#@'
tRp39
tp40
a(S'YP_003045471.1'
p41
g3
(g5
S'\xa9T%\xc1\x95\x8e#@'
tRp42
tp43
a(S'YP_003045457.1'
p44
g3
(g5
S"\xfa'[\xd8\x7f\xd0#@"
tRp45
tp46
a(S'YP_003045755.1'
p47
g3
(g5
S'\xa6\xc3!\x87\x88\xf4#@'
tRp48
tp49
a(S'YP_003047009.1'
p50
g3
(g5
S'\xefS\xb5\xe4\xec\r%@'
tRp51
tp52
a(S'YP_003046643.1'
p53
g3
(g5
S'0\x96\xfa8\x0c,&@'
tRp54
tp55
a(S'YP_003047113.1'
p56
g3
(g5
S'G2jm\x97\xa1&@'
tRp57
tp58
a(S'YP_003045631.1'
p59
g3
(g5
S'(\xbe\xfaJM\xf3&@'
tRp60
tp61
a(S'YP_003043617.1'
p62
g3
(g5
S'\xfbA\xf1Tt\xe7(@'
tRp63
tp64
a(S'YP_003044537.1'
p65
g3
(g5
S'\xb4\x84uY\x98\xc7)@'
tRp66
tp67
a(S'YP_003043692.1'
p68
g3
(g5
S';\xab\x19\xad\xf7\xe9*@'
tRp69
tp70
a(S'YP_003045107.1'
p71
g3
(g5
S';\xcb\xe1\x84\x96\xf7*@'
tRp72
tp73
a(S'YP_003045239.1'
p74
g3
(g5
S'\x18Dd\xe4\xd24+@'
tRp75
tp76
a(S'YP_003047275.1'
p77
g3
(g5
S'\xf0;\x1c]\xfeV+@'
tRp78
tp79
a(S'YP_003046781.1'
p80
g3
(g5
S'\xed\x03\x82\xa73+,@'
tRp81
tp82
a(S'YP_003043394.1'
p83
g3
(g5
S'1\x85\x1c\x85\x11-,@'
tRp84
tp85
a(S'YP_003046911.1'
p86
g3
(g5
S'0\xe2/\xea\xf3\x97,@'
tRp87
tp88
a(S'YP_003045709.1'
p89
g3
(g5
S'2\x8c\x87\x8aoo-@'
tRp90
tp91
a(S'YP_003044378.1'
p92
g3
(g5
S'\xe72M\xb9y\xe4-@'
tRp93
tp94
a(S'YP_003043527.1'
p95
g3
(g5
S'\x8c^\xf1P\x93\xe0/@'
tRp96
tp97
a(S'YP_003044417.1'
p98
g3
(g5
S'/\xdbsf\xd8\x140@'
tRp99
tp100
a(S'YP_003043979.1'
p101
g3
(g5
S'#\x87\xb8\xcb\xf1\xa11@'
tRp102
tp103
a(S'YP_003043871.1'
p104
g3
(g5
S'\x91u\x90"\xae\xb71@'
tRp105
tp106
a(S'YP_003047006.1'
p107
g3
(g5
S'!\x8a\xe9\xe0u%3@'
tRp108
tp109
a(S'YP_003045075.1'
p110
g3
(g5
S"\x8c\xd1w\xfa0'3@"
tRp111
tp112
a(S'YP_003043708.1'
p113
g3
(g5
S'i\x0e\x8d\xaf\x8dE3@'
tRp114
tp115
a(S'YP_003046603.1'
p116
g3
(g5
S'\xcf-\xbdJ\xc9F3@'
tRp117
tp118
a(S'YP_003044899.1'
p119
g3
(g5
S'N\x13H\xe9\x83\x9b3@'
tRp120
tp121
a(S'YP_003046729.1'
p122
g3
(g5
S'\xad\r\xe0\xbf&\xb93@'
tRp123
tp124
a(S'YP_003043503.1'
p125
g3
(g5
S'\x11\xbf\xc8\x16\xd5\xd83@'
tRp126
tp127
a(S'YP_003044607.1'
p128
g3
(g5
S'[\x1b|\xff\xfbU4@'
tRp129
tp130
a(S'YP_003045721.1'
p131
g3
(g5
S'\x03\x1f\xf8\x9d\x08\x136@'
tRp132
tp133
a(S'YP_003045299.1'
p134
g3
(g5
S'\xfd2\xef)\xf8,6@'
tRp135
tp136
a(S'YP_003045013.1'
p137
g3
(g5
S'q\xca\xbd\xb2\x8bs6@'
tRp138
tp139
a(S'YP_003044563.1'
p140
g3
(g5
S'\x97\x96`\xd4|\xa66@'
tRp141
tp142
a(S'YP_003045358.1'
p143
g3
(g5
S'H\xe7\r~\x86\xbb7@'
tRp144
tp145
a(S'YP_003046127.1'
p146
g3
(g5
S'\xd2\xf6\xf6\xcco\xeb8@'
tRp147
tp148
a(S'YP_003044070.1'
p149
g3
(g5
S'\xea\xdb-jf\xf78@'
tRp150
tp151
a(S'YP_003044099.1'
p152
g3
(g5
S'\r\xe0+\x99\r+9@'
tRp153
tp154
a(S'YP_003044498.1'
p155
g3
(g5
S'\xffh\xeb`\x1aT9@'
tRp156
tp157
a(S'YP_003046394.1'
p158
g3
(g5
S'\x14\xdf\xe4\xf1l\x9f9@'
tRp159
tp160
a(S'YP_003045344.1'
p161
g3
(g5
S'\xfao\x1e\xf0\xfa\xb19@'
tRp162
tp163
a(S'YP_003044215.1'
p164
g3
(g5
S'\xbe\xe6wTu\xdf9@'
tRp165
tp166
a(S'YP_003047373.1'
p167
g3
(g5
S'\xbe\xfd\xcf\xce\xce!:@'
tRp168
tp169
a(S'YP_003044640.1'
p170
g3
(g5
S'\xe9\x0c\xd1\x16e\xca:@'
tRp171
tp172
a(S'YP_003045326.1'
p173
g3
(g5
S'\x13\x07v\xb8(\xac;@'
tRp174
tp175
a(S'YP_003046726.1'
p176
g3
(g5
S'\x8c\x02S\x8c\xe9\xef;@'
tRp177
tp178
a(S'YP_003044092.1'
p179
g3
(g5
S'^D \xfc\x81 <@'
tRp180
tp181
a(S'YP_003043736.1'
p182
g3
(g5
S'\xa4E3:\xc55=@'
tRp183
tp184
a(S'YP_003045693.1'
p185
g3
(g5
S'\xb8\xd1LA\x18\xa4?@'
tRp186
tp187
a(S'YP_003046374.1'
p188
g3
(g5
S':\xd4\xa7`\x08\n@@'
tRp189
tp190
a(S'YP_003044915.1'
p191
g3
(g5
S'\x00\xd7\xa8M\xa5\xa6@@'
tRp192
tp193
a(S'YP_003046910.1'
p194
g3
(g5
S'!c.\x9f\x15\x17A@'
tRp195
tp196
a(S'YP_003046551.1'
p197
g3
(g5
S'A;\x01O \xbeA@'
tRp198
tp199
a(S'YP_003043249.1'
p200
g3
(g5
S'\xc4\xc4\x99X\xa2\xe9A@'
tRp201
tp202
a(S'YP_003045517.1'
p203
g3
(g5
S'z\x97\xb7`\xac[B@'
tRp204
tp205
a(S'YP_003043385.1'
p206
g3
(g5
S'\x80\xcb\xab\xdf\x8a\xb1B@'
tRp207
tp208
a(S'YP_003044835.1'
p209
g3
(g5
S'\xda_@\xd7\x96\xcaB@'
tRp210
tp211
a(S'YP_003047244.1'
p212
g3
(g5
S'Ku\xde\xe8\x87\xdeB@'
tRp213
tp214
a(S'YP_003045049.1'
p215
g3
(g5
S'\xf7|\xac\x05\xa1\xfeB@'
tRp216
tp217
a(S'YP_003043989.1'
p218
g3
(g5
S'\xe0t\xda6\xb6\xa1C@'
tRp219
tp220
a(S'YP_003047010.1'
p221
g3
(g5
S'^\xcd\xd3\x8e\xe1\xafC@'
tRp222
tp223
a(S'YP_003046195.1'
p224
g3
(g5
S'\xfb\xfd4\x8bv\xb7C@'
tRp225
tp226
a(S'YP_003044335.1'
p227
g3
(g5
S'\x8d\xdf\x10.\xca\xe7C@'
tRp228
tp229
a(S'YP_003044184.1'
p230
g3
(g5
S'z/\xac\xa2E\xf1C@'
tRp231
tp232
a(S'YP_003046077.1'
p233
g3
(g5
S'M\x95 \xd7\xaf\x16D@'
tRp234
tp235
a(S'YP_003044687.1'
p236
g3
(g5
S'@\xab\xb0v\x9dQD@'
tRp237
tp238
a(S'YP_003045887.1'
p239
g3
(g5
S'\xa2\x80_9\xb1hD@'
tRp240
tp241
a(S'YP_003044216.1'
p242
g3
(g5
S'q\x7f\x86\xd5wVE@'
tRp243
tp244
a(S'YP_003044679.1'
p245
g3
(g5
S'HHm\\\xfe\x9fE@'
tRp246
tp247
a(S'YP_003043561.1'
p248
g3
(g5
S'\xa8\x8b<|\xfd\xa0E@'
tRp249
tp250
a(S'YP_003043958.1'
p251
g3
(g5
S'\xfe\xd65\xf8\x10#F@'
tRp252
tp253
a(S'YP_003045534.1'
p254
g3
(g5
S"\xebb\xfc'\x1d\xc8F@"
tRp255
tp256
a(S'YP_003047266.1'
p257
g3
(g5
S'U\xf0\xa5ol\x17I@'
tRp258
tp259
a(S'YP_003046329.1'
p260
g3
(g5
S'\xa96\xd0\xd7\x01YI@'
tRp261
tp262
a(S'YP_003045756.1'
p263
g3
(g5
S'h\x86{`.fI@'
tRp264
tp265
a(S'YP_003045602.1'
p266
g3
(g5
S'k \xe5\x13K\xddI@'
tRp267
tp268
a(S'YP_003047287.1'
p269
g3
(g5
S'0\xea\xb0\xd2\xfb\xddI@'
tRp270
tp271
a(S'YP_003044379.1'
p272
g3
(g5
S'\xd3\x9ep!s\xfbI@'
tRp273
tp274
a(S'YP_003044391.1'
p275
g3
(g5
S'\x9f.7\x81k,J@'
tRp276
tp277
a(S'YP_003046493.1'
p278
g3
(g5
S'\xd6#\xae\xf9\xab8J@'
tRp279
tp280
a(S'YP_003047251.1'
p281
g3
(g5
S':\xc9fmRVJ@'
tRp282
tp283
a(S'YP_003044102.1'
p284
g3
(g5
S'\xfaq \xb7O\xe9J@'
tRp285
tp286
a(S'YP_003047377.1'
p287
g3
(g5
S'$\xf2\x14\x8a\x91eK@'
tRp288
tp289
a(S'YP_003044138.1'
p290
g3
(g5
S'}V\xaa\x18J\xa6K@'
tRp291
tp292
a(S'YP_003043388.1'
p293
g3
(g5
S'\xec7\xa8\x11[\x7fL@'
tRp294
tp295
a(S'YP_003044107.1'
p296
g3
(g5
S'Z\xfa\xd7\xd0L\xb9L@'
tRp297
tp298
a(S'YP_003047004.1'
p299
g3
(g5
S'/L*\x93\x03\xceL@'
tRp300
tp301
a(S'YP_003045458.1'
p302
g3
(g5
S'\xab\xe5\xd77\x1b3M@'
tRp303
tp304
a(S'YP_003044381.1'
p305
g3
(g5
S"\xfd'*\x85B\x8cM@"
tRp306
tp307
a(S'YP_003044546.1'
p308
g3
(g5
S'\x9a\x918a\x1e\xe3M@'
tRp309
tp310
a(S'YP_003046311.1'
p311
g3
(g5
S'\xc4\x99Y2Q\xfeM@'
tRp312
tp313
a(S'YP_003043593.1'
p314
g3
(g5
S'I\xd6\xcf>\x99%N@'
tRp315
tp316
a(S'YP_003045177.1'
p317
g3
(g5
S'\xd3\xc0\xc5G\xd20N@'
tRp318
tp319
a(S'YP_003046488.1'
p320
g3
(g5
S'B\xb1\xad\x13\xd0\x83N@'
tRp321
tp322
a(S'YP_003046166.1'
p323
g3
(g5
S'\x8a\xe43\x82\x97\xabN@'
tRp324
tp325
a(S'YP_003044788.1'
p326
g3
(g5
S'D8k\xa3=fO@'
tRp327
tp328
a(S'YP_003044615.1'
p329
g3
(g5
S'f6U\x8c\xe4\x0bP@'
tRp330
tp331
a(S'YP_003044981.1'
p332
g3
(g5
S'\x9eaz\xc5+\x18P@'
tRp333
tp334
a(S'YP_003046651.1'
p335
g3
(g5
S'\xc0(\xdd\x82\xcb\nQ@'
tRp336
tp337
a(S'YP_003045820.1'
p338
g3
(g5
S'\x9d\xa2_Tr\x0bQ@'
tRp339
tp340
a(S'YP_003044791.1'
p341
g3
(g5
S'IAD\x9d\xdc,Q@'
tRp342
tp343
a(S'YP_003043977.1'
p344
g3
(g5
S'\xa2ku_\x02-Q@'
tRp345
tp346
a(S'YP_003046090.1'
p347
g3
(g5
S'D&\xffo\x7f-Q@'
tRp348
tp349
a(S'YP_003044415.1'
p350
g3
(g5
S')%&\xe5*6Q@'
tRp351
tp352
a(S'YP_003044380.1'
p353
g3
(g5
S'\xa8\xd2\xef\xd6j\xcaQ@'
tRp354
tp355
a(S'YP_003046461.1'
p356
g3
(g5
S'\x8aG8\xfc\xec\xd9Q@'
tRp357
tp358
a(S'YP_003047223.1'
p359
g3
(g5
S'\xaa/\xafc\xc8\xeeQ@'
tRp360
tp361
a(S'YP_003047298.1'
p362
g3
(g5
S'\xe5\x1eu\xb0\xcb\x04R@'
tRp363
tp364
a(S'YP_003044479.1'
p365
g3
(g5
S'9\x12}Fj\rR@'
tRp366
tp367
a(S'YP_003047027.1'
p368
g3
(g5
S'\xcd4lD\x84MR@'
tRp369
tp370
a(S'YP_003045637.1'
p371
g3
(g5
S'\x0f/\xdc\xe6\x19\xb2R@'
tRp372
tp373
a(S'YP_003045988.1'
p374
g3
(g5
S'\xf8\xfd1\to\xb4R@'
tRp375
tp376
a(S'YP_003044515.1'
p377
g3
(g5
S'>REj/\xc0R@'
tRp378
tp379
a(S'YP_003043951.1'
p380
g3
(g5
S'\xcc\x8dv\xfdD\x82S@'
tRp381
tp382
a(S'YP_003046145.1'
p383
g3
(g5
S'\xb4\xbe\xc9\xee\xe0\xa9S@'
tRp384
tp385
a(S'YP_003046667.1'
p386
g3
(g5
S'\xf7\xd3\xb0\nX\xb9S@'
tRp387
tp388
a(S'YP_003046627.1'
p389
g3
(g5
S'\x90\xfc\xffRM\xd1S@'
tRp390
tp391
a(S'YP_003045014.1'
p392
g3
(g5
S'\x88\x9c\x98\xf2\xe2\xf0S@'
tRp393
tp394
a(S'YP_003046156.1'
p395
g3
(g5
S'W\x8c`\'\xa1"T@'
tRp396
tp397
a(S'YP_003044143.1'
p398
g3
(g5
S'\x05IW\x0f\xfbuT@'
tRp399
tp400
a(S'YP_003045026.1'
p401
g3
(g5
S'\xb5\xcbB\xc4\xfb\xa6T@'
tRp402
tp403
a(S'YP_003047195.1'
p404
g3
(g5
S'-\xa8\xccY\xb1\xd3T@'
tRp405
tp406
a(S'YP_003047196.1'
p407
g3
(g5
S'&R<V|\xdcT@'
tRp408
tp409
a(S'YP_003046830.1'
p410
g3
(g5
S'\x15\x95T\xe6\xed\x10U@'
tRp411
tp412
a(S'YP_003043825.1'
p413
g3
(g5
S'\xfeaY\x9c\xc7NU@'
tRp414
tp415
a(S'YP_003046666.1'
p416
g3
(g5
S"\xd7\xf9.'\x1b\xc4U@"
tRp417
tp418
a(S'YP_003044344.1'
p419
g3
(g5
S'\x83a\xc8\x88t.V@'
tRp420
tp421
a(S'YP_003047179.1'
p422
g3
(g5
S'\xfe\x8c\xca2\xb3sV@'
tRp423
tp424
a(S'YP_003045247.1'
p425
g3
(g5
S'@\x9f\xce\x1a\x04\xb9V@'
tRp426
tp427
a(S'YP_003045311.1'
p428
g3
(g5
S'!^\xe4\r\x8e1W@'
tRp429
tp430
a(S'YP_003043924.1'
p431
g3
(g5
S'7[\x1f\xa6^OW@'
tRp432
tp433
a(S'YP_003045547.1'
p434
g3
(g5
S'\xca\xe4\xe2\xc3@yW@'
tRp435
tp436
a(S'YP_003046558.1'
p437
g3
(g5
S'j\x0c`\x89\x8f\xcdW@'
tRp438
tp439
a(S'YP_003046523.1'
p440
g3
(g5
S'Yf\xcc\xf6y@X@'
tRp441
tp442
a(S'YP_003045148.1'
p443
g3
(g5
S'\x1c\x07C\x11\xd4\x86X@'
tRp444
tp445
a(S'YP_003045821.1'
p446
g3
(g5
S'\r\x1at\xab\xcd\x96X@'
tRp447
tp448
a(S'YP_003046863.1'
p449
g3
(g5
S'\xbb\xcaI\xcb\xaf\xc8X@'
tRp450
tp451
a(S'YP_003046658.1'
p452
g3
(g5
S'\xb3wfrh\xe5X@'
tRp453
tp454
a(S'YP_003045438.1'
p455
g3
(g5
S'\x8b_\x92v\xdb\x15Y@'
tRp456
tp457
a(S'YP_003045343.1'
p458
g3
(g5
S"'b\xce\xac\xbb\x17Y@"
tRp459
tp460
a(S'YP_003045710.1'
p461
g3
(g5
S'\nc\x1d\xbb\xcb3Y@'
tRp462
tp463
a(S'YP_003045642.1'
p464
g3
(g5
S'\xdd\xc3\xdf\x8f\x8fiY@'
tRp465
tp466
a(S'YP_003044661.1'
p467
g3
(g5
S'\xb3\x98Ih\x10\x84Y@'
tRp468
tp469
a(S'YP_003046973.1'
p470
g3
(g5
S'\\L\x1b\xacr\xd6Y@'
tRp471
tp472
a(S'YP_003044427.1'
p473
g3
(g5
S'\x9cq\x00$9\xdfY@'
tRp474
tp475
a(S'YP_003046260.1'
p476
g3
(g5
S'\xb5mh\xf1%\xe9Y@'
tRp477
tp478
a(S'YP_003044787.1'
p479
g3
(g5
S'8\xfd\xa6\x8b\xd2\xf7Y@'
tRp480
tp481
a(S'YP_003043494.1'
p482
g3
(g5
S'Z\xbd;\xdem\xf9Y@'
tRp483
tp484
a(S'YP_003044958.1'
p485
g3
(g5
S'\xf9A\xe9\xe7M\x07Z@'
tRp486
tp487
a(S'YP_003043411.1'
p488
g3
(g5
S"^\xf6\xa0\xcc\xb8'Z@"
tRp489
tp490
a(S'YP_003046701.1'
p491
g3
(g5
S'\x1e\x88\x18\xe7j;Z@'
tRp492
tp493
a(S'YP_003045092.1'
p494
g3
(g5
S'<1\x14\xa0dQZ@'
tRp495
tp496
a(S'YP_003045865.1'
p497
g3
(g5
S'1\xfe\x80,\x05\x8fZ@'
tRp498
tp499
a(S'YP_003045096.1'
p500
g3
(g5
S'1`\xd3a\xe5\xf1Z@'
tRp501
tp502
a(S'YP_003046125.1'
p503
g3
(g5
S'\xc1\xe2\xfa\xeeO\n[@'
tRp504
tp505
a(S'YP_003043572.1'
p506
g3
(g5
S'\x14\xec\x98f0I[@'
tRp507
tp508
a(S'YP_003044400.1'
p509
g3
(g5
S'\xbb\xef\xe7\xe8\x19\xb1[@'
tRp510
tp511
a(S'YP_003046129.1'
p512
g3
(g5
S'E\xe6a\xee\xc6\xf4[@'
tRp513
tp514
a(S'YP_003045065.1'
p515
g3
(g5
S'\x82\x17\xd4\xb4\xfa\x12\\@'
tRp516
tp517
a(S'YP_003045706.1'
p518
g3
(g5
S'\xfb\x86\x8dw\xd9/\\@'
tRp519
tp520
a(S'YP_003045527.1'
p521
g3
(g5
S'\x95\x11\xecF\xc8c\\@'
tRp522
tp523
a(S'YP_003044936.1'
p524
g3
(g5
S'\xf4\xc5\xff\x1d\x96\xb2\\@'
tRp525
tp526
a(S'YP_003045467.1'
p527
g3
(g5
S"\x94)'B\x02\xce\\@"
tRp528
tp529
a(S'YP_003044091.1'
p530
g3
(g5
S'\x94E\x96\xe7\xab\xd7\\@'
tRp531
tp532
a(S'YP_003045289.1'
p533
g3
(g5
S'\xe4i\xed\x14\x97\x07]@'
tRp534
tp535
a(S'YP_003045091.1'
p536
g3
(g5
S'b\xb8\xba\xc50\x17]@'
tRp537
tp538
a(S'YP_003045781.1'
p539
g3
(g5
S'%L\xf2\x96Gq]@'
tRp540
tp541
a(S'YP_003044852.1'
p542
g3
(g5
S'+-\xa6\x14W\x95]@'
tRp543
tp544
a(S'YP_003044223.1'
p545
g3
(g5
S'\x02K\xd0\xf4p\xa8]@'
tRp546
tp547
a(S'YP_003044617.1'
p548
g3
(g5
S'\xda\xc3>\xaf\xa3\xa8]@'
tRp549
tp550
a(S'YP_003046747.1'
p551
g3
(g5
S'gq\x87h{\xe7]@'
tRp552
tp553
a(S'YP_003046841.1'
p554
g3
(g5
S'\xf7M\x82\x88R\xec]@'
tRp555
tp556
a(S'YP_003045002.1'
p557
g3
(g5
S'z1c\xfb\xcfD^@'
tRp558
tp559
a(S'YP_003045663.1'
p560
g3
(g5
S'\xf1\xcc\xe4\xd7\x06Z^@'
tRp561
tp562
a(S'YP_003046943.1'
p563
g3
(g5
S'z\x9a\xcf\xa6\xa5\x86^@'
tRp564
tp565
a(S'YP_003043418.1'
p566
g3
(g5
S'\xd3\xbd\xda\x19\r\xb2^@'
tRp567
tp568
a(S'YP_003045638.1'
p569
g3
(g5
S"\x08\x7f'\xfd.\xc2^@"
tRp570
tp571
a(S'YP_003047207.1'
p572
g3
(g5
S'\x14\xd9\x0c\x1e\xe7\xf3^@'
tRp573
tp574
a(S'YP_003045388.1'
p575
g3
(g5
S'\xce\x89\x80\x16.]_@'
tRp576
tp577
a(S'YP_003045338.1'
p578
g3
(g5
S'\xcb\x7f\xa70\x94l_@'
tRp579
tp580
a(S'YP_003045226.1'
p581
g3
(g5
S'}5\\\x96\xfa\x92_@'
tRp582
tp583
a(S'YP_003045290.1'
p584
g3
(g5
S'lh\x9f\xad\xf1\xd4_@'
tRp585
tp586
a(S'YP_003045591.1'
p587
g3
(g5
S'\xd4_[-\xcbv`@'
tRp588
tp589
a(S'YP_003043347.1'
p590
g3
(g5
S'\xaem\xb5\xda-\x8c`@'
tRp591
tp592
a(S'YP_003044221.1'
p593
g3
(g5
S'14Z\xd6\xd1\x9a`@'
tRp594
tp595
a(S'YP_003047418.1'
p596
g3
(g5
S'\xbc7Q\xde\xa2\xa6`@'
tRp597
tp598
a(S'YP_003043794.1'
p599
g3
(g5
S'\x11\xdf\xc3U`\xc2`@'
tRp600
tp601
a(S'YP_003043830.1'
p602
g3
(g5
S'\x1b\xea\x07L\xbc\xd8`@'
tRp603
tp604
a(S'YP_003043781.1'
p605
g3
(g5
S']0N\xe6t\xf5`@'
tRp606
tp607
a(S'YP_003043631.1'
p608
g3
(g5
S'i\xad\x9f\x85<\x16a@'
tRp609
tp610
a(S'YP_003047153.1'
p611
g3
(g5
S'Z\xf8\xfa\xddb(a@'
tRp612
tp613
a(S'YP_003045296.1'
p614
g3
(g5
S'\xcb\x04\x0c\x80\x990a@'
tRp615
tp616
a(S'YP_003046992.1'
p617
g3
(g5
S'\xf5\x90~-\xda@a@'
tRp618
tp619
a(S'YP_003046372.1'
p620
g3
(g5
S'\xa4\x15 \xfb\x9cea@'
tRp621
tp622
a(S'YP_003044224.1'
p623
g3
(g5
S'\xba\x00\xba\x19oua@'
tRp624
tp625
a(S'YP_003046688.1'
p626
g3
(g5
S'kBI\xa7\xea\x89a@'
tRp627
tp628
a(S'YP_003047374.1'
p629
g3
(g5
S'\xebR:.\x7f\x8da@'
tRp630
tp631
a(S'YP_003044173.1'
p632
g3
(g5
S'C\xfdj]$\x8ea@'
tRp633
tp634
a(S'YP_003047120.1'
p635
g3
(g5
S'\x940\xcb\xad\x12\xb7a@'
tRp636
tp637
a(S'YP_003044342.1'
p638
g3
(g5
S'v`\xf9k\xc0\xd5a@'
tRp639
tp640
a(S'YP_003044971.1'
p641
g3
(g5
S'&5\xb0\x14\xca.b@'
tRp642
tp643
a(S'YP_003043436.1'
p644
g3
(g5
S'@\xcf>n\xc25b@'
tRp645
tp646
a(S'YP_003044478.1'
p647
g3
(g5
S';L\xb2\xe51ab@'
tRp648
tp649
a(S'YP_003045313.1'
p650
g3
(g5
S'\xe0\xf4+o\x93\x87b@'
tRp651
tp652
a(S'YP_003044464.1'
p653
g3
(g5
S'}\xc7\xfb\x151\x96b@'
tRp654
tp655
a(S'YP_003045550.1'
p656
g3
(g5
S'\xdb2\x90\x9f\r\xa0b@'
tRp657
tp658
a(S'YP_003044517.1'
p659
g3
(g5
S'dh\x92\xe0\xf0\xb5b@'
tRp660
tp661
a(S'YP_003045435.1'
p662
g3
(g5
S'-\xe5\xf0\xa9A\xc4b@'
tRp663
tp664
a(S'YP_003044025.1'
p665
g3
(g5
S'\x83U\x81f\xec\x08c@'
tRp666
tp667
a(S'YP_003047259.1'
p668
g3
(g5
S'E\x12={\xba\x0fc@'
tRp669
tp670
a(S'YP_003044171.1'
p671
g3
(g5
S'\x8bF}8T8c@'
tRp672
tp673
a(S'YP_003045909.1'
p674
g3
(g5
S'\xa9\xbb\xfc\xf6\xb09c@'
tRp675
tp676
a(S'YP_003045278.1'
p677
g3
(g5
S'\xd3\x8eWN\x1c;c@'
tRp678
tp679
a(S'YP_003046494.1'
p680
g3
(g5
S'l\xab_p\xa6?c@'
tRp681
tp682
a(S'YP_003043429.1'
p683
g3
(g5
S'\xf5\xff(\x7f5Nc@'
tRp684
tp685
a(S'YP_003047208.1'
p686
g3
(g5
S'\xcf\xb5\x06\x10\x9a\xc3c@'
tRp687
tp688
a(S'YP_003046087.1'
p689
g3
(g5
S'\xb1h\x90l\xd4\xe8c@'
tRp690
tp691
a(S'YP_003046864.1'
p692
g3
(g5
S'/k\x8aw\x17\xf1c@'
tRp693
tp694
a(S'YP_003046459.1'
p695
g3
(g5
S'\x8b\xa8\x88\xd6J?d@'
tRp696
tp697
a(S'YP_003043332.1'
p698
g3
(g5
S'\xf4\xa3\xc6\xf9;Nd@'
tRp699
tp700
a(S'YP_003047378.1'
p701
g3
(g5
S'\x91%\x02\x10\xf8\x99d@'
tRp702
tp703
a(S'YP_003045583.1'
p704
g3
(g5
S'\x9eY\xa4\xef\xb8\xa9d@'
tRp705
tp706
a(S'YP_003043374.1'
p707
g3
(g5
S'\x1b\xfd\xa2\x8a\x10\xaad@'
tRp708
tp709
a(S'YP_003047297.1'
p710
g3
(g5
S'r\xbbK\xc7\xdaKe@'
tRp711
tp712
a(S'YP_003044137.1'
p713
g3
(g5
S'\x99\xee\xc3\xdbFPe@'
tRp714
tp715
a(S'YP_003046976.1'
p716
g3
(g5
S'\x17-\xc3\x98\xdc\x89e@'
tRp717
tp718
a(S'YP_003043415.1'
p719
g3
(g5
S'\xe1\x85\xbf0\x1c\x99e@'
tRp720
tp721
a(S'YP_003043461.1'
p722
g3
(g5
S'W;\x1f\xdfg\xbce@'
tRp723
tp724
a(S'YP_003046121.1'
p725
g3
(g5
S'\xf2\x90+4J\x00f@'
tRp726
tp727
a(S'YP_003047381.1'
p728
g3
(g5
S'\xcf\x1e\xf2\xfd\xf1.f@'
tRp729
tp730
a(S'YP_003045986.1'
p731
g3
(g5
S'\xa0\xf8X\xc6\xa82f@'
tRp732
tp733
a(S'YP_003043552.1'
p734
g3
(g5
S'l\x1c\xf4\x16\x82;f@'
tRp735
tp736
a(S'YP_003047408.1'
p737
g3
(g5
S'a\xcb\xe3\x9d]<f@'
tRp738
tp739
a(S'YP_003045971.1'
p740
g3
(g5
S'7X\xd5|\x0cKf@'
tRp741
tp742
a(S'YP_003043980.1'
p743
g3
(g5
S's\xef;\xd6\xfbWf@'
tRp744
tp745
a(S'YP_003046785.1'
p746
g3
(g5
S'\x97S\x7f\x16\n\x80f@'
tRp747
tp748
a(S'YP_003046108.1'
p749
g3
(g5
S'\x1amcxi\xc9f@'
tRp750
tp751
a(S'YP_003043670.1'
p752
g3
(g5
S'\xf8Vq\xc1h\xd8f@'
tRp753
tp754
a(S'YP_003044007.1'
p755
g3
(g5
S'\x90\xf1\x1b\x94\xa4\xd8f@'
tRp756
tp757
a(S'YP_003047059.1'
p758
g3
(g5
S'\xc0w\x14\x1d\xde\xf6f@'
tRp759
tp760
a(S'YP_003046075.1'
p761
g3
(g5
S'\x90\x16\xd5=\x1f3g@'
tRp762
tp763
a(S'YP_003045279.1'
p764
g3
(g5
S'\xff\xd4\x94\xc5\xe2Qg@'
tRp765
tp766
a(S'YP_003046472.1'
p767
g3
(g5
S'\xa6\xb7\x0e\xd3]kg@'
tRp768
tp769
a(S'YP_003047286.1'
p770
g3
(g5
S'\x13\xdf\xf2\xcc\xffug@'
tRp771
tp772
a(S'YP_003043992.1'
p773
g3
(g5
S'M\xe7-\x06z\x8dg@'
tRp774
tp775
a(S'YP_003045197.1'
p776
g3
(g5
S'\x90\xae\xc6\xff\xab\xa7g@'
tRp777
tp778
a(S'YP_003047398.1'
p779
g3
(g5
S'<\x9d\xef\x9d\x18\xb4g@'
tRp780
tp781
a(S'YP_003045670.1'
p782
g3
(g5
S'\xe8\xc2\xf1\xf4\xe5\xb6g@'
tRp783
tp784
a(S'YP_003045818.1'
p785
g3
(g5
S'\xaa-6\xb5Q\xb9g@'
tRp786
tp787
a(S'YP_003046501.1'
p788
g3
(g5
S'h4\xd1&\xce\xcdg@'
tRp789
tp790
a(S'YP_003046635.1'
p791
g3
(g5
S'{\x10Mk\xdb\xd4g@'
tRp792
tp793
a(S'YP_003046499.1'
p794
g3
(g5
S'}c\x83\xd5\xd3\x0eh@'
tRp795
tp796
a(S'YP_003043671.1'
p797
g3
(g5
S'\xd6\x97DD\xc4\x11h@'
tRp798
tp799
a(S'YP_003044660.1'
p800
g3
(g5
S'+h\x9e\xffREh@'
tRp801
tp802
a(S'YP_003047375.1'
p803
g3
(g5
S'0\xde\xfa\xeaT`h@'
tRp804
tp805
a(S'YP_003046463.1'
p806
g3
(g5
S'\xdcY]\xd4L\x81h@'
tRp807
tp808
a(S'YP_003045826.1'
p809
g3
(g5
S'\xbd\xad\x8a\xf5\xbe\x84h@'
tRp810
tp811
a(S'YP_003043355.1'
p812
g3
(g5
S'\x11!\x87\xdf\xd9\xb3h@'
tRp813
tp814
a(S'YP_003044470.1'
p815
g3
(g5
S'\xe2\xa8\xff\xd6[\xdbh@'
tRp816
tp817
a(S'YP_003046692.1'
p818
g3
(g5
S'\xa7C\x1e\x07\xf5\xe2h@'
tRp819
tp820
a(S'YP_003044753.1'
p821
g3
(g5
S'\x00Z\x94\xac|\x07i@'
tRp822
tp823
a(S'YP_003046625.1'
p824
g3
(g5
S'\x83\xd8\xda\x00N\x0fi@'
tRp825
tp826
a(S'YP_003045421.1'
p827
g3
(g5
S'P\x8bK\xd7\x96)i@'
tRp828
tp829
a(S'YP_003046465.1'
p830
g3
(g5
S"X\xe6U9'\rj@"
tRp831
tp832
a(S'YP_003047197.1'
p833
g3
(g5
S'QJ"\xb6\xa0\x11j@'
tRp834
tp835
a(S'YP_003043929.1'
p836
g3
(g5
S'93\xbd\xc8&"j@'
tRp837
tp838
a(S'YP_003046748.1'
p839
g3
(g5
S'\x14\xcd\x9b\xa5\xaaIj@'
tRp840
tp841
a(S'YP_003046831.1'
p842
g3
(g5
S'Z\xbbL\x89\xbfQj@'
tRp843
tp844
a(S'YP_003044085.1'
p845
g3
(g5
S'$\x08\xce\x13\xcdTj@'
tRp846
tp847
a(S'YP_003045108.1'
p848
g3
(g5
S'A\xee\xfe\x13J\x94j@'
tRp849
tp850
a(S'YP_003045482.1'
p851
g3
(g5
S'\xee ,\x0bg\xaej@'
tRp852
tp853
a(S'YP_003044972.1'
p854
g3
(g5
S'\x18\xa4t\xfa\x90\xd1j@'
tRp855
tp856
a(S'YP_003046391.1'
p857
g3
(g5
S'\x9b\x7f\x82\xc4\xb8\xe0j@'
tRp858
tp859
a(S'YP_003044893.1'
p860
g3
(g5
S'\xdb\x8c\xc4g\xe6\x0ek@'
tRp861
tp862
a(S'YP_003046874.1'
p863
g3
(g5
S'\x8eh\xde\x80\xc4Zk@'
tRp864
tp865
a(S'YP_003046392.1'
p866
g3
(g5
S'\x88\xab&R\xb6ck@'
tRp867
tp868
a(S'YP_003046141.1'
p869
g3
(g5
S'\xaa\xc5\xb4:\xe3\xa9k@'
tRp870
tp871
a(S'YP_003045697.1'
p872
g3
(g5
S'\x150\x13G\xdc\xbbk@'
tRp873
tp874
a(S'YP_003046138.1'
p875
g3
(g5
S'\x96\x99\xb6W\xad\xc6k@'
tRp876
tp877
a(S'YP_003044513.1'
p878
g3
(g5
S',L\xc9\xfe<\xe7k@'
tRp879
tp880
a(S'YP_003047062.1'
p881
g3
(g5
S'\x80\xb9\x01\x10\xab\x04l@'
tRp882
tp883
a(S'YP_003047112.1'
p884
g3
(g5
S'^`XO6Tl@'
tRp885
tp886
a(S'YP_003044685.1'
p887
g3
(g5
S'\xca\xe4L\x8aB[l@'
tRp888
tp889
a(S'YP_003046757.1'
p890
g3
(g5
S'\xb2S3o<|l@'
tRp891
tp892
a(S'YP_003046671.1'
p893
g3
(g5
S'\x00R\xe9\r\xd9\x8bl@'
tRp894
tp895
a(S'YP_003045019.1'
p896
g3
(g5
S'/q\xdbO\xae\xa2l@'
tRp897
tp898
a(S'YP_003045827.1'
p899
g3
(g5
S'\xe5BL\xbf]\xdbl@'
tRp900
tp901
a(S'YP_003043379.1'
p902
g3
(g5
S'\xf5n\xe3e\xceqm@'
tRp903
tp904
a(S'YP_003046030.1'
p905
g3
(g5
S'\xc6\xb2"\xae\xcawm@'
tRp906
tp907
a(S'YP_003044191.1'
p908
g3
(g5
S'\xd1\xbd\x0e\xa7\xd9\x81m@'
tRp909
tp910
a(S'YP_003043326.1'
p911
g3
(g5
S'\xf5\x829\xb0V\xd4m@'
tRp912
tp913
a(S'YP_003044854.1'
p914
g3
(g5
S'\x800\x91\xfd\xcf\xe9m@'
tRp915
tp916
a(S'YP_003046802.1'
p917
g3
(g5
S'\r\xd4\xc9\xb9\xb6\xf5m@'
tRp918
tp919
a(S'YP_003046524.1'
p920
g3
(g5
S'\\\x0fL\xb9C\x01n@'
tRp921
tp922
a(S'YP_003047411.1'
p923
g3
(g5
S'\xd1\x8b\xde\x82\x19\x1en@'
tRp924
tp925
a(S'YP_003045445.1'
p926
g3
(g5
S'T\xd3\xe7:\x97Cn@'
tRp927
tp928
a(S'YP_003044580.1'
p929
g3
(g5
S'5\xae\x07eg[n@'
tRp930
tp931
a(S'YP_003043644.1'
p932
g3
(g5
S"\xc7\x9a'\xfe\xc5nn@"
tRp933
tp934
a(S'YP_003046669.1'
p935
g3
(g5
S'\x10?\xbc\xc1\xa9sn@'
tRp936
tp937
a(S'YP_003044510.1'
p938
g3
(g5
S'\xa8\xeb\xa8N\xe3\x97n@'
tRp939
tp940
a(S'YP_003045046.1'
p941
g3
(g5
S'\x8a4\xd6\xf4\x08\xc1n@'
tRp942
tp943
a(S'YP_003043759.1'
p944
g3
(g5
S'\xf6\xfb\x03\xe4u\xc2n@'
tRp945
tp946
a(S'YP_003043861.1'
p947
g3
(g5
S'\xdd\xaa\xa85\x17\xcbn@'
tRp948
tp949
a(S'YP_003047353.1'
p950
g3
(g5
S'k3\x81\xd1,\xedn@'
tRp951
tp952
a(S'YP_003046396.1'
p953
g3
(g5
S' J\x7f\xf9\x0f!o@'
tRp954
tp955
a(S'YP_003044304.1'
p956
g3
(g5
S';Z\xcesqPo@'
tRp957
tp958
a(S'YP_003043409.1'
p959
g3
(g5
S'Lfm\r\\mo@'
tRp960
tp961
a(S'YP_003043915.1'
p962
g3
(g5
S'\xbf^\xf97\x12\x92o@'
tRp963
tp964
a(S'YP_003046983.1'
p965
g3
(g5
S'\x9bB\x99\xc5A\x98o@'
tRp966
tp967
a(S'YP_003044844.1'
p968
g3
(g5
S'E|q\x19\xcf\x9fo@'
tRp969
tp970
a(S'YP_003044127.1'
p971
g3
(g5
S'\x13\xbb?g>\xa8o@'
tRp972
tp973
a(S'YP_003044109.1'
p974
g3
(g5
S',\x16\x03\xc3\xe4\xaeo@'
tRp975
tp976
a(S'YP_003046277.1'
p977
g3
(g5
S'L\x1b\x8f=\x03\xcbo@'
tRp978
tp979
a(S'YP_003044035.1'
p980
g3
(g5
S'F4\x84\x15\x8a\xd3o@'
tRp981
tp982
a(S'YP_003043844.1'
p983
g3
(g5
S'8\x8b\xdb\xb4\x16\xe0o@'
tRp984
tp985
a(S'YP_003043414.1'
p986
g3
(g5
S"\x14'\x99o\x11\x03p@"
tRp987
tp988
a(S'YP_003044277.1'
p989
g3
(g5
S'\x01\x13\xa7\x18.\x04p@'
tRp990
tp991
a(S'YP_003044328.1'
p992
g3
(g5
S'\xb3?\x06w\xac\x18p@'
tRp993
tp994
a(S'YP_003045330.1'
p995
g3
(g5
S'oS>\xc4p\x1fp@'
tRp996
tp997
a(S'YP_003046159.1'
p998
g3
(g5
S'.M\xd8a\x040p@'
tRp999
tp1000
a(S'YP_003044973.1'
p1001
g3
(g5
S'\x00NR\x96\x8b8p@'
tRp1002
tp1003
a(S'YP_003045880.1'
p1004
g3
(g5
S'T$Cy\xcdHp@'
tRp1005
tp1006
a(S'YP_003045578.1'
p1007
g3
(g5
S"\x9a\xbb'`k\x7fp@"
tRp1008
tp1009
a(S'YP_003045276.1'
p1010
g3
(g5
S'\xcb\xf7\xf8\xff\xb7\x8bp@'
tRp1011
tp1012
a(S'YP_003043837.1'
p1013
g3
(g5
S'\x15\xfb\x9c\x1b\xd1\x9bp@'
tRp1014
tp1015
a(S'YP_003044458.1'
p1016
g3
(g5
S'\x9e\xf6\xce\x06\xa3\xb3p@'
tRp1017
tp1018
a(S'YP_003044986.1'
p1019
g3
(g5
S'M\x89\xce\x8a\\\xb4p@'
tRp1020
tp1021
a(S'YP_003043664.1'
p1022
g3
(g5
S'\xde\xd4h8\x89\xbcp@'
tRp1023
tp1024
a(S'YP_003044401.1'
p1025
g3
(g5
S'~\x90\x9a\x15%\xd3p@'
tRp1026
tp1027
a(S'YP_003044557.1'
p1028
g3
(g5
S'\x93\x82\xea_\n\xf1p@'
tRp1029
tp1030
a(S'YP_003046690.1'
p1031
g3
(g5
S'e\xb4\r/W\x00q@'
tRp1032
tp1033
a(S'YP_003043849.1'
p1034
g3
(g5
S'YQ\x1d_~\x01q@'
tRp1035
tp1036
a(S'YP_003045405.1'
p1037
g3
(g5
S'F\xb6>TR\x08q@'
tRp1038
tp1039
a(S'YP_003046655.1'
p1040
g3
(g5
S'\xaf\xf6l/\xc4\x1fq@'
tRp1041
tp1042
a(S'YP_003045656.1'
p1043
g3
(g5
S'[\x16\xcas\xbf1q@'
tRp1044
tp1045
a(S'YP_003044850.1'
p1046
g3
(g5
S'eyO_0Fq@'
tRp1047
tp1048
a(S'YP_003045556.1'
p1049
g3
(g5
S'\xec\xa1p\x89\xaeUq@'
tRp1050
tp1051
a(S'YP_003043800.1'
p1052
g3
(g5
S'\xcdS\xb0\xdf&Xq@'
tRp1053
tp1054
a(S'YP_003044589.1'
p1055
g3
(g5
S"'\xa9\xfc\x89\x88\\q@"
tRp1056
tp1057
a(S'YP_003046218.1'
p1058
g3
(g5
S'\xe8\xdby\x92[\x80q@'
tRp1059
tp1060
a(S'YP_003045003.1'
p1061
g3
(g5
S'\x04xj\r\xb5\x9eq@'
tRp1062
tp1063
a(S'YP_003043931.1'
p1064
g3
(g5
S'^\xa4\xc4,\x8e\xa1q@'
tRp1065
tp1066
a(S'YP_003045584.1'
p1067
g3
(g5
S'\x1fE\xae\xd8\xa1\xb3q@'
tRp1068
tp1069
a(S'YP_003043341.1'
p1070
g3
(g5
S'N\x9a?\x0b\x8f\xc8q@'
tRp1071
tp1072
a(S'YP_003043969.1'
p1073
g3
(g5
S'm$\x8f3\x9b\xcaq@'
tRp1074
tp1075
a(S'YP_003047429.1'
p1076
g3
(g5
S'\xc6\x11nmU\xd1q@'
tRp1077
tp1078
a(S'YP_003046561.1'
p1079
g3
(g5
S'S\xc1\xec\x10,\xdeq@'
tRp1080
tp1081
a(S'YP_003043574.1'
p1082
g3
(g5
S'!A\xe9\xbb\xe3\xeaq@'
tRp1083
tp1084
a(S'YP_003046657.1'
p1085
g3
(g5
S'\x16\xcf\x9b$\xa0\x0br@'
tRp1086
tp1087
a(S'YP_003043377.1'
p1088
g3
(g5
S':\xab\xc5I\xf5\x19r@'
tRp1089
tp1090
a(S'YP_003045782.1'
p1091
g3
(g5
S'r9f\xfdc\x1fr@'
tRp1092
tp1093
a(S'YP_003044995.1'
p1094
g3
(g5
S'\x0c\xaa\x8f1\x99*r@'
tRp1095
tp1096
a(S'YP_003043511.1'
p1097
g3
(g5
S'\xbe\xef\xe3J\x0ear@'
tRp1098
tp1099
a(S'YP_003044104.1'
p1100
g3
(g5
S'\x86j[_\xecfr@'
tRp1101
tp1102
a(S'YP_003046556.1'
p1103
g3
(g5
S'\r\xbe\x01CB\x8er@'
tRp1104
tp1105
a(S'YP_003047102.1'
p1106
g3
(g5
S'\xd8s\xf2\x7f\\\xafr@'
tRp1107
tp1108
a(S'YP_003045734.1'
p1109
g3
(g5
S'\xac\xdc\xe6~\xa3\xdcr@'
tRp1110
tp1111
a(S'YP_003047404.1'
p1112
g3
(g5
S'\xaa\xb2J\xf9{\x08s@'
tRp1113
tp1114
a(S'YP_003046236.1'
p1115
g3
(g5
S'\x80\xf7 \xc4\xb4\x1cs@'
tRp1116
tp1117
a(S'YP_003047028.1'
p1118
g3
(g5
S"'\xe1\xbaJ\x98)s@"
tRp1119
tp1120
a(S'YP_003045772.1'
p1121
g3
(g5
S'fE\x9f\xcf\xeb*s@'
tRp1122
tp1123
a(S'YP_003044433.1'
p1124
g3
(g5
S'\xe8\x7f\xf4\xdd\x1e/s@'
tRp1125
tp1126
a(S'YP_003043495.1'
p1127
g3
(g5
S't\xea\xe1^\x997s@'
tRp1128
tp1129
a(S'YP_003043661.1'
p1130
g3
(g5
S'\x0f\xa0\xac\x12\x92?s@'
tRp1131
tp1132
a(S'YP_003044177.1'
p1133
g3
(g5
S'\x94\xd0\x0f\xda{@s@'
tRp1134
tp1135
a(S'YP_003043579.1'
p1136
g3
(g5
S'\xd6\xf88\x91\xbaNs@'
tRp1137
tp1138
a(S'YP_003043982.1'
p1139
g3
(g5
S'jE\x89\xe9qOs@'
tRp1140
tp1141
a(S'YP_003044144.1'
p1142
g3
(g5
S'h\xe8\xccE\xed^s@'
tRp1143
tp1144
a(S'YP_003046497.1'
p1145
g3
(g5
S'\xab\xec\x9c:\xabps@'
tRp1146
tp1147
a(S'YP_003044953.1'
p1148
g3
(g5
S'\x80\xe6\x16\t\xe5~s@'
tRp1149
tp1150
a(S'YP_003046907.1'
p1151
g3
(g5
S'\xdf;^\xd3 \x95s@'
tRp1152
tp1153
a(S'YP_003046626.1'
p1154
g3
(g5
S'G\xf4#\xf6\x1a\xa1s@'
tRp1155
tp1156
a(S'YP_003043657.1'
p1157
g3
(g5
S'\x99\x96*\xadU\xa7s@'
tRp1158
tp1159
a(S'YP_003046152.1'
p1160
g3
(g5
S'\x8a}\xf0}i\xc3s@'
tRp1161
tp1162
a(S'YP_003047272.1'
p1163
g3
(g5
S'4\xe4\xe8m@\xdbs@'
tRp1164
tp1165
a(S'YP_003047399.1'
p1166
g3
(g5
S'\xff\xc5\xd5\x084\xdfs@'
tRp1167
tp1168
a(S'YP_003045558.1'
p1169
g3
(g5
S'9\xb8\x1f\xcf\x7f\xe0s@'
tRp1170
tp1171
a(S'YP_003047426.1'
p1172
g3
(g5
S'\\\x98\x1b$d\xe3s@'
tRp1173
tp1174
a(S'YP_003046654.1'
p1175
g3
(g5
S'\xc9HDD\xd0\xe7s@'
tRp1176
tp1177
a(S'YP_003046952.1'
p1178
g3
(g5
S'\xbeFiW7\xf0s@'
tRp1179
tp1180
a(S'YP_003045502.1'
p1181
g3
(g5
S'\x9a4u)\x93\xfds@'
tRp1182
tp1183
a(S'YP_003044461.1'
p1184
g3
(g5
S':a\xf5\xb8\xfa\x10t@'
tRp1185
tp1186
a(S'YP_003046837.1'
p1187
g3
(g5
S'\xad@\r\x1f(\x13t@'
tRp1188
tp1189
a(S'YP_003043588.1'
p1190
g3
(g5
S'\xb2\xd6\xff\xee\t\x18t@'
tRp1191
tp1192
a(S'YP_003044602.1'
p1193
g3
(g5
S'\xaa|?\x15J5t@'
tRp1194
tp1195
a(S'YP_003044112.1'
p1196
g3
(g5
S'\xe1\x07\xf9\x99|@t@'
tRp1197
tp1198
a(S'YP_003046687.1'
p1199
g3
(g5
S'\xf88\x8b]\xd5_t@'
tRp1200
tp1201
a(S'YP_003044270.1'
p1202
g3
(g5
S'\xad5\xae\xf1\x9ctt@'
tRp1203
tp1204
a(S'YP_003044849.1'
p1205
g3
(g5
S'?GI\xc4!vt@'
tRp1206
tp1207
a(S'YP_003044312.1'
p1208
g3
(g5
S'\xbe\x92\xa8\xb1@wt@'
tRp1209
tp1210
a(S'YP_003044414.1'
p1211
g3
(g5
S'\xb2\x1fg\xddRyt@'
tRp1212
tp1213
a(S'YP_003045864.1'
p1214
g3
(g5
S'\x04\x1a\xd9\xae\x12\x8dt@'
tRp1215
tp1216
a(S'YP_003046148.1'
p1217
g3
(g5
S'\x83\x8d\xab+\r\x98t@'
tRp1218
tp1219
a(S'YP_003043916.1'
p1220
g3
(g5
S'\x82\xc8\xee\xf5\x9f\xd0t@'
tRp1221
tp1222
a(S'YP_003043281.1'
p1223
g3
(g5
S'\x11\xf4}\xb51\xe6t@'
tRp1224
tp1225
a(S'YP_003045849.1'
p1226
g3
(g5
S':\xee\xf8\xd7\x93\x19u@'
tRp1227
tp1228
a(S'YP_003043682.1'
p1229
g3
(g5
S'\x06\xad\x18\x16\x15\x1bu@'
tRp1230
tp1231
a(S'YP_003046761.1'
p1232
g3
(g5
S'\x96\xb4(\xe1.Bu@'
tRp1233
tp1234
a(S'YP_003043833.1'
p1235
g3
(g5
S'\x16\xc8n\xbe\\Uu@'
tRp1236
tp1237
a(S'YP_003043283.1'
p1238
g3
(g5
S'\xe3%\xab\xb5rVu@'
tRp1239
tp1240
a(S'YP_003046926.1'
p1241
g3
(g5
S'\xe0:i\x8e\x01uu@'
tRp1242
tp1243
a(S'YP_003045021.1'
p1244
g3
(g5
S'\xc0;\xf9>\xb6\x84u@'
tRp1245
tp1246
a(S'YP_003045983.1'
p1247
g3
(g5
S'\xcfx"9|\x9au@'
tRp1248
tp1249
a(S'YP_003047278.1'
p1250
g3
(g5
S"'\xa1\xf3n\xce\xafu@"
tRp1251
tp1252
a(S'YP_003047107.1'
p1253
g3
(g5
S'}\xc3\x9atn\xc0u@'
tRp1254
tp1255
a(S'YP_003044777.1'
p1256
g3
(g5
S'\xc3\xc7\x07\xafb\xc6u@'
tRp1257
tp1258
a(S'YP_003044761.1'
p1259
g3
(g5
S'\xad\xb1\xfc@[\xdcu@'
tRp1260
tp1261
a(S'YP_003046464.1'
p1262
g3
(g5
S'\xbd2\x96\xfa<\xdfu@'
tRp1263
tp1264
a(S'YP_003045509.1'
p1265
g3
(g5
S'%\x8aW;\x07\xf2u@'
tRp1266
tp1267
a(S'YP_003045976.1'
p1268
g3
(g5
S'?i\xe4\x8ai\xfau@'
tRp1269
tp1270
a(S'YP_003047083.1'
p1271
g3
(g5
S'\xd4\xd1\xb2*\x10\x02v@'
tRp1272
tp1273
a(S'YP_003045946.1'
p1274
g3
(g5
S'7\xbe\xbaqg\x13v@'
tRp1275
tp1276
a(S'YP_003046089.1'
p1277
g3
(g5
S'fHEx\x8c v@'
tRp1278
tp1279
a(S'YP_003044648.1'
p1280
g3
(g5
S'\x8a\xf4\x93Q\xe83v@'
tRp1281
tp1282
a(S'YP_003047175.1'
p1283
g3
(g5
S'\x87r\x1a\x94\xbf>v@'
tRp1284
tp1285
a(S'YP_003043410.1'
p1286
g3
(g5
S'\xbf\xb4\xe6-\xcfYv@'
tRp1287
tp1288
a(S'YP_003045428.1'
p1289
g3
(g5
S'\xd23\xdcx\xbafv@'
tRp1290
tp1291
a(S'YP_003046232.1'
p1292
g3
(g5
S'dT\xb9\xb0\x0c\xa8v@'
tRp1293
tp1294
a(S'YP_003043967.1'
p1295
g3
(g5
S'L\x1f\x8c\xd1E\xbev@'
tRp1296
tp1297
a(S'YP_003047026.1'
p1298
g3
(g5
S'\xc8(\xbf\x0c\x84\xbev@'
tRp1299
tp1300
a(S'YP_003047170.1'
p1301
g3
(g5
S'\xd2fl\t\x9c\xc8v@'
tRp1302
tp1303
a(S'YP_003046233.1'
p1304
g3
(g5
S'\xee\xb3\x11\x18\x02\xd8v@'
tRp1305
tp1306
a(S'YP_003043758.1'
p1307
g3
(g5
S'\xd6\xa7\xcf\x90M\xe1v@'
tRp1308
tp1309
a(S'YP_003047255.1'
p1310
g3
(g5
S'\x9e\x0e\xcf\xe4\xe9\xe8v@'
tRp1311
tp1312
a(S'YP_003043928.1'
p1313
g3
(g5
S'\x08H\xa9\x86\x96\xeev@'
tRp1314
tp1315
a(S'YP_003043937.1'
p1316
g3
(g5
S'%\x82\xe2\x1a\x8a\xfcv@'
tRp1317
tp1318
a(S'YP_003044260.1'
p1319
g3
(g5
S'\xe2Y&9\xf0\x0fw@'
tRp1320
tp1321
a(S'YP_003043783.1'
p1322
g3
(g5
S'8\xf0~j\x9e\x16w@'
tRp1323
tp1324
a(S'YP_003045164.1'
p1325
g3
(g5
S'}~V\xab\xe7\x1cw@'
tRp1326
tp1327
a(S'YP_003044225.1'
p1328
g3
(g5
S'\x0e\x9b\x9d\xb9\xc2`w@'
tRp1329
tp1330
a(S'YP_003046788.1'
p1331
g3
(g5
S'3\x84\x7f\xa9\x17uw@'
tRp1332
tp1333
a(S'YP_003047164.1'
p1334
g3
(g5
S'\xdf0\xf2\xb4a\x82w@'
tRp1335
tp1336
a(S'YP_003047417.1'
p1337
g3
(g5
S'\x82\x19\x11T\x15\x92w@'
tRp1338
tp1339
a(S'YP_003045673.1'
p1340
g3
(g5
S'\xb4z}E\x82\x0ex@'
tRp1341
tp1342
a(S'YP_003046280.1'
p1343
g3
(g5
S'jI\x1b\x9am\x1cx@'
tRp1344
tp1345
a(S'YP_003043597.1'
p1346
g3
(g5
S'+\x7f\xb7\xc7\xf9.x@'
tRp1347
tp1348
a(S'YP_003045447.1'
p1349
g3
(g5
S'\x9dz%\xf4i9x@'
tRp1350
tp1351
a(S'YP_003043598.1'
p1352
g3
(g5
S'\xb0\x11\xb6\xae\xaf<x@'
tRp1353
tp1354
a(S'YP_003043775.1'
p1355
g3
(g5
S'WG3c\xa8Ux@'
tRp1356
tp1357
a(S'YP_003044108.1'
p1358
g3
(g5
S'\x18Ra\x1f\xa8`x@'
tRp1359
tp1360
a(S'YP_003043535.1'
p1361
g3
(g5
S'T\xff\x1e\x0b\x81px@'
tRp1362
tp1363
a(S'YP_003043262.1'
p1364
g3
(g5
S'\xe7\x9ae\x88hyx@'
tRp1365
tp1366
a(S'YP_003046811.1'
p1367
g3
(g5
S'\x04\x13\x0c#\xcd\xacx@'
tRp1368
tp1369
a(S'YP_003046124.1'
p1370
g3
(g5
S'\x83\x85\x90\xd3\x9f\xafx@'
tRp1371
tp1372
a(S'YP_003045784.1'
p1373
g3
(g5
S'52\xfd\xbeT\xb5x@'
tRp1374
tp1375
a(S'YP_003045294.1'
p1376
g3
(g5
S':o5\x9d+\xb6x@'
tRp1377
tp1378
a(S'YP_003043756.1'
p1379
g3
(g5
S'\x88\xce\xc5\x06\xa9\xb6x@'
tRp1380
tp1381
a(S'YP_003045291.1'
p1382
g3
(g5
S'\x98\x88\x03\x1c\xbc\xcfx@'
tRp1383
tp1384
a(S'YP_003045431.1'
p1385
g3
(g5
S"'\xf9\x1b\x83`\xd0x@"
tRp1386
tp1387
a(S'YP_003046265.1'
p1388
g3
(g5
S'\x91\xbe\xccj\x15\x07y@'
tRp1389
tp1390
a(S'YP_003043852.1'
p1391
g3
(g5
S'q\x07 \x8f&(y@'
tRp1392
tp1393
a(S'YP_003045941.1'
p1394
g3
(g5
S'"\x1eE\x1b\x8c(y@'
tRp1395
tp1396
a(S'YP_003044278.1'
p1397
g3
(g5
S'\xb0\xd1d\x0cn8y@'
tRp1398
tp1399
a(S'YP_003043890.1'
p1400
g3
(g5
S'\xe4\x08\xe2\x17\xbcNy@'
tRp1401
tp1402
a(S'YP_003046686.1'
p1403
g3
(g5
S'\xa8WW\x18\xe8Wy@'
tRp1404
tp1405
a(S'YP_003044136.1'
p1406
g3
(g5
S'* w\xd7\xcbfy@'
tRp1407
tp1408
a(S'YP_003046094.1'
p1409
g3
(g5
S'\x91\xb2I\xe95oy@'
tRp1410
tp1411
a(S'YP_003045406.1'
p1412
g3
(g5
S't\xf4Gp\xbcuy@'
tRp1413
tp1414
a(S'YP_003045073.1'
p1415
g3
(g5
S'\xe2\xcc \x83\xf1{y@'
tRp1416
tp1417
a(S'YP_003043263.1'
p1418
g3
(g5
S'\x8d\xa3\xc3\x0e \x96y@'
tRp1419
tp1420
a(S'YP_003044275.1'
p1421
g3
(g5
S'I\x8f\x8e\xbdH\xc8y@'
tRp1422
tp1423
a(S'YP_003045747.1'
p1424
g3
(g5
S'\x13\xe6\x02\xce\xc4\xf2y@'
tRp1425
tp1426
a(S'YP_003046953.1'
p1427
g3
(g5
S'\xd0\xf4On\xcd\xf4y@'
tRp1428
tp1429
a(S'YP_003047097.1'
p1430
g3
(g5
S'\xe2i\xcf\xa7\x88\xf7y@'
tRp1431
tp1432
a(S'YP_003045649.1'
p1433
g3
(g5
S'2\xe9\xeea\xb6\x1az@'
tRp1434
tp1435
a(S'YP_003046291.1'
p1436
g3
(g5
S'M\x08\x8aW\xb8\x1az@'
tRp1437
tp1438
a(S'YP_003045420.1'
p1439
g3
(g5
S'og0\xf8\xe17z@'
tRp1440
tp1441
a(S'YP_003044170.1'
p1442
g3
(g5
S'\xed\xc2\xc8e\xa0?z@'
tRp1443
tp1444
a(S'YP_003046448.1'
p1445
g3
(g5
S'\x99\xa7V\x99\xa9Tz@'
tRp1446
tp1447
a(S'YP_003047410.1'
p1448
g3
(g5
S'%\xbe}k\xefXz@'
tRp1449
tp1450
a(S'YP_003043863.1'
p1451
g3
(g5
S'\x9d\x9f"_\xa2Zz@'
tRp1452
tp1453
a(S'YP_003046294.1'
p1454
g3
(g5
S'\xec\xb3\x99\xb53]z@'
tRp1455
tp1456
a(S'YP_003043426.1'
p1457
g3
(g5
S'\x08g\x90*1kz@'
tRp1458
tp1459
a(S'YP_003043538.1'
p1460
g3
(g5
S'\xe2\xf0\xfe\xee\xad\x88z@'
tRp1461
tp1462
a(S'YP_003043337.1'
p1463
g3
(g5
S'\xae\xa2\xf5\xd6f\x91z@'
tRp1464
tp1465
a(S'YP_003046404.1'
p1466
g3
(g5
S'\xabE1\xa2|\x92z@'
tRp1467
tp1468
a(S'YP_003045740.1'
p1469
g3
(g5
S'\xc7\xd8\x865\xd1\xb0z@'
tRp1470
tp1471
a(S'YP_003044851.1'
p1472
g3
(g5
S'9OuU4\xb3z@'
tRp1473
tp1474
a(S'YP_003045604.1'
p1475
g3
(g5
S'\x05\x1a\xdb\x99H\xbbz@'
tRp1476
tp1477
a(S'YP_003044820.1'
p1478
g3
(g5
S'!\x8e\x9e\x1c\x0f\xd4z@'
tRp1479
tp1480
a(S'YP_003044463.1'
p1481
g3
(g5
S'\xe9nu\xc5E\xd7z@'
tRp1482
tp1483
a(S'YP_003046076.1'
p1484
g3
(g5
S'\xf51\xb8\xa4\xe8\xd8z@'
tRp1485
tp1486
a(S'YP_003047096.1'
p1487
g3
(g5
S'h\xe30\xe3\xae\xd9z@'
tRp1488
tp1489
a(S'YP_003043889.1'
p1490
g3
(g5
S'\xf5\x83[\x9b\xa7\xddz@'
tRp1491
tp1492
a(S'YP_003044367.1'
p1493
g3
(g5
S'\x17x\xf2\xb24\x11{@'
tRp1494
tp1495
a(S'YP_003047045.1'
p1496
g3
(g5
S'\x07\xbdi<"\x19{@'
tRp1497
tp1498
a(S'YP_003044437.1'
p1499
g3
(g5
S'T\xc5:-\xaa#{@'
tRp1500
tp1501
a(S'YP_003044434.1'
p1502
g3
(g5
S'<\x8dsK\xca*{@'
tRp1503
tp1504
a(S'YP_003046760.1'
p1505
g3
(g5
S'\xb8\x8bs!\xdb4{@'
tRp1506
tp1507
a(S'YP_003044878.1'
p1508
g3
(g5
S'\x06\xe2\xeb\xbbl5{@'
tRp1509
tp1510
a(S'YP_003044146.1'
p1511
g3
(g5
S'3F\xa7=\x13R{@'
tRp1512
tp1513
a(S'YP_003045265.1'
p1514
g3
(g5
S'yM]yWc{@'
tRp1515
tp1516
a(S'YP_003043630.1'
p1517
g3
(g5
S'\xee\x9cal(o{@'
tRp1518
tp1519
a(S'YP_003043340.1'
p1520
g3
(g5
S'\x8dz\xfa\xcf\xe3u{@'
tRp1521
tp1522
a(S'YP_003046212.1'
p1523
g3
(g5
S'\x85[p\xab\xf7\x96{@'
tRp1524
tp1525
a(S'YP_003043550.1'
p1526
g3
(g5
S'\xaa\xef\xe8\x8f{\x99{@'
tRp1527
tp1528
a(S'YP_003044509.1'
p1529
g3
(g5
S'\xa6H!\xadi\xb5{@'
tRp1530
tp1531
a(S'YP_003043259.1'
p1532
g3
(g5
S'k\xb7\x970\x05\xbe{@'
tRp1533
tp1534
a(S'YP_003047210.1'
p1535
g3
(g5
S'\xe43\\\xd7\x9b\xc1{@'
tRp1536
tp1537
a(S'YP_003046606.1'
p1538
g3
(g5
S'\xe2\xfcVz\x0f\xd2{@'
tRp1539
tp1540
a(S'YP_003046302.1'
p1541
g3
(g5
S'\xf4\xbcn\xcc?\xdb{@'
tRp1542
tp1543
a(S'YP_003046388.1'
p1544
g3
(g5
S'sHm\xc1|\xe7{@'
tRp1545
tp1546
a(S'YP_003044836.1'
p1547
g3
(g5
S'U\x8f\xd3\xcc\xef\xef{@'
tRp1548
tp1549
a(S'YP_003046382.1'
p1550
g3
(g5
S'{\xfd\x06X\x96\x07|@'
tRp1551
tp1552
a(S'YP_003043968.1'
p1553
g3
(g5
S'\xf2\x11z\xde\xab\x8f|@'
tRp1554
tp1555
a(S'YP_003045379.1'
p1556
g3
(g5
S'c\xa0[Y\xce\xb4|@'
tRp1557
tp1558
a(S'YP_003043320.1'
p1559
g3
(g5
S'\xb8pW\xd4\xad\xc9|@'
tRp1560
tp1561
a(S'YP_003044465.1'
p1562
g3
(g5
S'\xaez+\r\x99\xf5|@'
tRp1563
tp1564
a(S'YP_003046031.1'
p1565
g3
(g5
S'I\xd0\x1e\xfaF\x04}@'
tRp1566
tp1567
a(S'YP_003043891.1'
p1568
g3
(g5
S'\x10\x1d\x1b\xd6\x91.}@'
tRp1569
tp1570
a(S'YP_003044341.1'
p1571
g3
(g5
S'*h\xb4\xf5\xfbJ}@'
tRp1572
tp1573
a(S'YP_003043288.1'
p1574
g3
(g5
S'I\x0f9\x1d\x1e\xaa}@'
tRp1575
tp1576
a(S'YP_003044078.1'
p1577
g3
(g5
S'\xd9\xa0\xebI\x9f\xc4}@'
tRp1578
tp1579
a(S'YP_003045546.1'
p1580
g3
(g5
S'_\xd5\x10\xb85\xd5}@'
tRp1581
tp1582
a(S'YP_003043285.1'
p1583
g3
(g5
S'\xa7\xc4\x8b\x16\x14\xd6}@'
tRp1584
tp1585
a(S'YP_003045015.1'
p1586
g3
(g5
S'\xa2\xcd\xb3zP\xee}@'
tRp1587
tp1588
a(S'YP_003047080.1'
p1589
g3
(g5
S'\xcb\x8f\x8aK\xe4\x01~@'
tRp1590
tp1591
a(S'YP_003045418.1'
p1592
g3
(g5
S'NPF}\xea\x06~@'
tRp1593
tp1594
a(S'YP_003044492.1'
p1595
g3
(g5
S'\x8a\t\x9bS\x80\x10~@'
tRp1596
tp1597
a(S'YP_003044493.1'
p1598
g3
(g5
S'\xc5}\xa1\xc6\xe1;~@'
tRp1599
tp1600
a(S'YP_003047093.1'
p1601
g3
(g5
S'\xb3x\x7f\xa2\xc0I~@'
tRp1602
tp1603
a(S'YP_003044752.1'
p1604
g3
(g5
S'\xb4\xcb\xa3\x1a\x86h~@'
tRp1605
tp1606
a(S'YP_003046069.1'
p1607
g3
(g5
S'\xe17\xb5\xba\xfc\x83~@'
tRp1608
tp1609
a(S'YP_003046582.1'
p1610
g3
(g5
S'\xa4lT1\x15\x99~@'
tRp1611
tp1612
a(S'YP_003046944.1'
p1613
g3
(g5
S' \xe0\x08\x19"\xab~@'
tRp1614
tp1615
a(S'YP_003044269.1'
p1616
g3
(g5
S'k6_\xadX\xac~@'
tRp1617
tp1618
a(S'YP_003045519.1'
p1619
g3
(g5
S'5\xbf\x99p\xc1\xc5~@'
tRp1620
tp1621
a(S'YP_003045281.1'
p1622
g3
(g5
S'\xcc;\xef\x12\xed\xcd~@'
tRp1623
tp1624
a(S'YP_003046909.1'
p1625
g3
(g5
S'\x90L9\xba\xc6\x0b\x7f@'
tRp1626
tp1627
a(S'YP_003046436.1'
p1628
g3
(g5
S'\xe0&\x109p\r\x7f@'
tRp1629
tp1630
a(S'YP_003043507.1'
p1631
g3
(g5
S'\xed\xb6\xb9\xf1\x13\x0e\x7f@'
tRp1632
tp1633
a(S'YP_003043788.1'
p1634
g3
(g5
S'>\xe5\x1f2\xd0\x13\x7f@'
tRp1635
tp1636
a(S'YP_003045921.1'
p1637
g3
(g5
S'\xc33\xb5\x87@$\x7f@'
tRp1638
tp1639
a(S'YP_003046085.1'
p1640
g3
(g5
S'\xffj\xb3-\x04.\x7f@'
tRp1641
tp1642
a(S'YP_003043855.1'
p1643
g3
(g5
S'\xa1Yk\x03\x8ay\x7f@'
tRp1644
tp1645
a(S'YP_003045729.1'
p1646
g3
(g5
S'\xac\x7f\xf2~\xee{\x7f@'
tRp1647
tp1648
a(S'YP_003047087.1'
p1649
g3
(g5
S'\xd5\x14tU\n\x8b\x7f@'
tRp1650
tp1651
a(S'YP_003043782.1'
p1652
g3
(g5
S'=\xa4,\x00v\x8f\x7f@'
tRp1653
tp1654
a(S'YP_003044132.1'
p1655
g3
(g5
S'\xfd$\x0b\x88\xde\x93\x7f@'
tRp1656
tp1657
a(S'YP_003044792.1'
p1658
g3
(g5
S'\xf5\xf7\xbe\xa2\xc4\x96\x7f@'
tRp1659
tp1660
a(S'YP_003044399.1'
p1661
g3
(g5
S'O\xa1n\xd5\x17\x99\x7f@'
tRp1662
tp1663
a(S'YP_003044998.1'
p1664
g3
(g5
S'k\xfc\xe9c\xb9\xdc\x7f@'
tRp1665
tp1666
a(S'YP_003044176.1'
p1667
g3
(g5
S"\x7f\x11\xc5\xa2'\xfd\x7f@"
tRp1668
tp1669
a(S'YP_003045920.1'
p1670
g3
(g5
S'C\xbf\xce<g\x06\x80@'
tRp1671
tp1672
a(S'YP_003045665.1'
p1673
g3
(g5
S'\xcc\x85I\xf5\x03\r\x80@'
tRp1674
tp1675
a(S'YP_003047379.1'
p1676
g3
(g5
S'\x89;\x18\x9f\x0f\x11\x80@'
tRp1677
tp1678
a(S'YP_003044145.1'
p1679
g3
(g5
S'\xc2\x97\xd1\x03\x88+\x80@'
tRp1680
tp1681
a(S'YP_003045224.1'
p1682
g3
(g5
S'\t\xd6e$\xf1.\x80@'
tRp1683
tp1684
a(S'YP_003043434.1'
p1685
g3
(g5
S'\x97\x88\xa4\x94\x8a6\x80@'
tRp1686
tp1687
a(S'YP_003045658.1'
p1688
g3
(g5
S'&\xa2f\\\t>\x80@'
tRp1689
tp1690
a(S'YP_003046354.1'
p1691
g3
(g5
S'\xd8\x038a\xf6@\x80@'
tRp1692
tp1693
a(S'YP_003044808.1'
p1694
g3
(g5
S'11\xeb5\\C\x80@'
tRp1695
tp1696
a(S'YP_003047419.1'
p1697
g3
(g5
S'\x89\xd4\x10\xf9AP\x80@'
tRp1698
tp1699
a(S'YP_003045304.1'
p1700
g3
(g5
S'\xaf\x7f\xdf\x05vX\x80@'
tRp1701
tp1702
a(S'YP_003045954.1'
p1703
g3
(g5
S'w\xc1\xb2\xa9\x9d|\x80@'
tRp1704
tp1705
a(S'YP_003045829.1'
p1706
g3
(g5
S'#\xad3Ut\x89\x80@'
tRp1707
tp1708
a(S'YP_003047023.1'
p1709
g3
(g5
S'\x7f+\x94\xdc\x83\x89\x80@'
tRp1710
tp1711
a(S'YP_003044925.1'
p1712
g3
(g5
S'5\xee\x97h\xbd\x93\x80@'
tRp1713
tp1714
a(S'YP_003046839.1'
p1715
g3
(g5
S'\xd8F\xc2\xd6\xc8\x99\x80@'
tRp1716
tp1717
a(S'YP_003047079.1'
p1718
g3
(g5
S'\xad1\xe7\\g\xa5\x80@'
tRp1719
tp1720
a(S'YP_003045828.1'
p1721
g3
(g5
S'\xb3\xf9v\xdbF\xac\x80@'
tRp1722
tp1723
a(S'YP_003046982.1'
p1724
g3
(g5
S'\x02uvFg\xd4\x80@'
tRp1725
tp1726
a(S'YP_003043352.1'
p1727
g3
(g5
S'\xe8\xdd\xae;\x1d\xdb\x80@'
tRp1728
tp1729
a(S'YP_003046923.1'
p1730
g3
(g5
S'\xc8\x98$\xb8\xd7\xeb\x80@'
tRp1731
tp1732
a(S'YP_003043854.1'
p1733
g3
(g5
S'\x1b-\xc5Pu\x14\x81@'
tRp1734
tp1735
a(S'YP_003044846.1'
p1736
g3
(g5
S'\x12>\t\x1cb\x15\x81@'
tRp1737
tp1738
a(S'YP_003043537.1'
p1739
g3
(g5
S'W\xcbVE\x1b\x1a\x81@'
tRp1740
tp1741
a(S'YP_003044561.1'
p1742
g3
(g5
S'0\x99\xb2\x1bB\x1f\x81@'
tRp1743
tp1744
a(S'YP_003045139.1'
p1745
g3
(g5
S'\xb7\x0c\xa8\xe0\xc2!\x81@'
tRp1746
tp1747
a(S'YP_003045423.1'
p1748
g3
(g5
S'\xae\x91\x82\xa0A#\x81@'
tRp1749
tp1750
a(S'YP_003045087.1'
p1751
g3
(g5
S'\xb4\xeaR\xeb=+\x81@'
tRp1752
tp1753
a(S'YP_003043460.1'
p1754
g3
(g5
S'\xa3\xe3\xa2J\xf0,\x81@'
tRp1755
tp1756
a(S'YP_003044932.1'
p1757
g3
(g5
S'\xde\xe9L\xcdEE\x81@'
tRp1758
tp1759
a(S'YP_003047101.1'
p1760
g3
(g5
S'e(x<7R\x81@'
tRp1761
tp1762
a(S'YP_003045854.1'
p1763
g3
(g5
S'\xd7\xf6q\x0e\x9aR\x81@'
tRp1764
tp1765
a(S'YP_003043582.1'
p1766
g3
(g5
S'IKj:\x02X\x81@'
tRp1767
tp1768
a(S'YP_003045964.1'
p1769
g3
(g5
S'\x8f\x06\xc0\xbf?_\x81@'
tRp1770
tp1771
a(S'YP_003046999.1'
p1772
g3
(g5
S'\x97r\x80\xba\xc4\x92\x81@'
tRp1773
tp1774
a(S'YP_003046474.1'
p1775
g3
(g5
S'R\xe3?\xb83\x98\x81@'
tRp1776
tp1777
a(S'YP_003047060.1'
p1778
g3
(g5
S'\xc3v\x18\xdf\x04\x9c\x81@'
tRp1779
tp1780
a(S'YP_003045427.1'
p1781
g3
(g5
S'\xd2\xc5\xe6a\x11\xa4\x81@'
tRp1782
tp1783
a(S'YP_003045089.1'
p1784
g3
(g5
S'\xc3\t\xe6\x11v\xa4\x81@'
tRp1785
tp1786
a(S'YP_003046851.1'
p1787
g3
(g5
S'\xe5\xb6\x85\x03\x8a\xa4\x81@'
tRp1788
tp1789
a(S'YP_003043608.1'
p1790
g3
(g5
S',\xe9\xfd\xb5\x1a\xa9\x81@'
tRp1791
tp1792
a(S'YP_003045824.1'
p1793
g3
(g5
S'j\x00\xb4Ja\xad\x81@'
tRp1794
tp1795
a(S'YP_003044323.1'
p1796
g3
(g5
S'd\x16\x00\x08\xca\xb6\x81@'
tRp1797
tp1798
a(S'YP_003045256.1'
p1799
g3
(g5
S'\x8dY\x03\x15\xd3\xc0\x81@'
tRp1800
tp1801
a(S'YP_003045489.1'
p1802
g3
(g5
S'I\x8e\xab=\x04\xc2\x81@'
tRp1803
tp1804
a(S'YP_003046495.1'
p1805
g3
(g5
S'e\xfak\x96[\xcd\x81@'
tRp1806
tp1807
a(S'YP_003044439.1'
p1808
g3
(g5
S'Dl\xa8"\xe9\xd0\x81@'
tRp1809
tp1810
a(S'YP_003045668.1'
p1811
g3
(g5
S'\x82\x81H\xe5<\xdd\x81@'
tRp1812
tp1813
a(S'YP_003044124.1'
p1814
g3
(g5
S'\x84*\xa0\xb9\x07\xe6\x81@'
tRp1815
tp1816
a(S'YP_003043777.1'
p1817
g3
(g5
S'//\xb1\x88;\x00\x82@'
tRp1818
tp1819
a(S'YP_003046908.1'
p1820
g3
(g5
S'4\xc3w\xae\x88\x02\x82@'
tRp1821
tp1822
a(S'YP_003045178.1'
p1823
g3
(g5
S'B\x94\xb0J@\x16\x82@'
tRp1824
tp1825
a(S'YP_003046013.1'
p1826
g3
(g5
S'\x10\xfb\xe8t\x10\x17\x82@'
tRp1827
tp1828
a(S'YP_003043370.1'
p1829
g3
(g5
S'5^\xfe!\x9e\x1c\x82@'
tRp1830
tp1831
a(S'YP_003046920.1'
p1832
g3
(g5
S'eR\x05q\xa0&\x82@'
tRp1833
tp1834
a(S'YP_003046680.1'
p1835
g3
(g5
S'`|\x1c|\x89>\x82@'
tRp1836
tp1837
a(S'YP_003045608.1'
p1838
g3
(g5
S'7|7Dg?\x82@'
tRp1839
tp1840
a(S'YP_003045913.1'
p1841
g3
(g5
S'\x9f0>\xde,E\x82@'
tRp1842
tp1843
a(S'YP_003044394.1'
p1844
g3
(g5
S'&q@\xae\tK\x82@'
tRp1845
tp1846
a(S'YP_003046109.1'
p1847
g3
(g5
S'\xcf\x99\xc1n"^\x82@'
tRp1848
tp1849
a(S'YP_003046241.1'
p1850
g3
(g5
S'\xb0\x13\xd2\xa6\x03o\x82@'
tRp1851
tp1852
a(S'YP_003043639.1'
p1853
g3
(g5
S'\xe4\xa6\xbat$p\x82@'
tRp1854
tp1855
a(S'YP_003046810.1'
p1856
g3
(g5
S'(_F\x80\x00y\x82@'
tRp1857
tp1858
a(S'YP_003047409.1'
p1859
g3
(g5
S'%\x80\xcf\xec5\x8b\x82@'
tRp1860
tp1861
a(S'YP_003044365.1'
p1862
g3
(g5
S'q\xbdZ\x11\r\x8e\x82@'
tRp1863
tp1864
a(S'YP_003046095.1'
p1865
g3
(g5
S'\xa7\xb5\xe5NT\x94\x82@'
tRp1866
tp1867
a(S'YP_003047081.1'
p1868
g3
(g5
S'\xf3\x8e\x1d\xe1e\x9b\x82@'
tRp1869
tp1870
a(S'YP_003044948.1'
p1871
g3
(g5
S'8\xd2\x97\xec\xf1\xa7\x82@'
tRp1872
tp1873
a(S'YP_003044072.1'
p1874
g3
(g5
S'\xa2\x8f5\xc9;\xab\x82@'
tRp1875
tp1876
a(S'YP_003044812.1'
p1877
g3
(g5
S'l\x9e\x0c\xa7\x83\xac\x82@'
tRp1878
tp1879
a(S'YP_003046634.1'
p1880
g3
(g5
S'\xd1\x8c\xda\xcb\xd2\xe0\x82@'
tRp1881
tp1882
a(S'YP_003046289.1'
p1883
g3
(g5
S'\x85q,\xbd\xb5\xf0\x82@'
tRp1884
tp1885
a(S'YP_003047279.1'
p1886
g3
(g5
S'[\x14G.%\x05\x83@'
tRp1887
tp1888
a(S'YP_003045460.1'
p1889
g3
(g5
S'\x017\x86ij\x11\x83@'
tRp1890
tp1891
a(S'YP_003046637.1'
p1892
g3
(g5
S'\xb7\x82Y\x8f\xaf\x17\x83@'
tRp1893
tp1894
a(S'YP_003044933.1'
p1895
g3
(g5
S'\xb9\x19sJ\\$\x83@'
tRp1896
tp1897
a(S'YP_003046066.1'
p1898
g3
(g5
S'\xf3\xc1L\x16\x82$\x83@'
tRp1899
tp1900
a(S'YP_003047200.1'
p1901
g3
(g5
S'\x84a\x01-\xc7&\x83@'
tRp1902
tp1903
a(S'YP_003045029.1'
p1904
g3
(g5
S'\xe3SI\xca\x89(\x83@'
tRp1905
tp1906
a(S'YP_003044700.1'
p1907
g3
(g5
S'\x82\xf0F\xd8\x00,\x83@'
tRp1908
tp1909
a(S'YP_003044810.1'
p1910
g3
(g5
S'\xd9#\xfa\x94\xef.\x83@'
tRp1911
tp1912
a(S'YP_003043594.1'
p1913
g3
(g5
S'\xf8Mi\x06\xcfC\x83@'
tRp1914
tp1915
a(S'YP_003045987.1'
p1916
g3
(g5
S',\x19\xd3\xb9eS\x83@'
tRp1917
tp1918
a(S'YP_003046557.1'
p1919
g3
(g5
S'\xfa]\xeed^]\x83@'
tRp1920
tp1921
a(S'YP_003044154.1'
p1922
g3
(g5
S'\xca\xc4\x06t\x9cr\x83@'
tRp1923
tp1924
a(S'YP_003043829.1'
p1925
g3
(g5
S'\xe4\xb9_\xeb\xac\xa6\x83@'
tRp1926
tp1927
a(S'YP_003046227.1'
p1928
g3
(g5
S'\x96H&,\x88\xa7\x83@'
tRp1929
tp1930
a(S'YP_003047424.1'
p1931
g3
(g5
S'\xd4\x186\xd9^\xa9\x83@'
tRp1932
tp1933
a(S'YP_003045255.1'
p1934
g3
(g5
S'\xa3\xf4\xc4\x1a\xac\xb5\x83@'
tRp1935
tp1936
a(S'YP_003045140.1'
p1937
g3
(g5
S'\xaf\x9f0\xfb\xc6\xbb\x83@'
tRp1938
tp1939
a(S'YP_003046775.1'
p1940
g3
(g5
S'`&i+\xca\xbe\x83@'
tRp1941
tp1942
a(S'YP_003045655.1'
p1943
g3
(g5
S'\xdeyy\x84)\xca\x83@'
tRp1944
tp1945
a(S'YP_003045368.1'
p1946
g3
(g5
S'\x0b\xfeB\xbe\x0b\xce\x83@'
tRp1947
tp1948
a(S'YP_003043823.1'
p1949
g3
(g5
S'\xfd\xafI4\xeb\xd0\x83@'
tRp1950
tp1951
a(S'YP_003044979.1'
p1952
g3
(g5
S'\xb9\xe9\x1d<2\xdc\x83@'
tRp1953
tp1954
a(S'YP_003045870.1'
p1955
g3
(g5
S"\xc5\x81a'O\xe6\x83@"
tRp1956
tp1957
a(S'YP_003043351.1'
p1958
g3
(g5
S'Ht\xef9\x82\xe7\x83@'
tRp1959
tp1960
a(S'YP_003043596.1'
p1961
g3
(g5
S'\xa1\x02<\xe5\x9e\xe9\x83@'
tRp1962
tp1963
a(S'YP_003044089.1'
p1964
g3
(g5
S'4\xd0\xa4\xd4@\xee\x83@'
tRp1965
tp1966
a(S'YP_003046675.1'
p1967
g3
(g5
S'\x8f\xd2\x86\x1c&\x10\x84@'
tRp1968
tp1969
a(S'YP_003044959.1'
p1970
g3
(g5
S'%"\xb8<\xe0\x16\x84@'
tRp1971
tp1972
a(S'YP_003045925.1'
p1973
g3
(g5
S'u\xf4\xa9\xbf\xe0\x1b\x84@'
tRp1974
tp1975
a(S'YP_003044005.1'
p1976
g3
(g5
S'\x1f[\xb2\xdd\xdc-\x84@'
tRp1977
tp1978
a(S'YP_003045408.1'
p1979
g3
(g5
S'\xde\xecT\xa4\xf9G\x84@'
tRp1980
tp1981
a(S'YP_003045225.1'
p1982
g3
(g5
S'\xe6\x9f\xd9%7I\x84@'
tRp1983
tp1984
a(S'YP_003045714.1'
p1985
g3
(g5
S'\xdb\xd9Q\x12tN\x84@'
tRp1986
tp1987
a(S'YP_003045272.1'
p1988
g3
(g5
S'u\x98\x925Kb\x84@'
tRp1989
tp1990
a(S'YP_003045553.1'
p1991
g3
(g5
S'\x90R\xe9^Lm\x84@'
tRp1992
tp1993
a(S'YP_003046273.1'
p1994
g3
(g5
S'\x8fwsPJ\x86\x84@'
tRp1995
tp1996
a(S'YP_003044459.1'
p1997
g3
(g5
S'c$\x93\xca\x91\x93\x84@'
tRp1998
tp1999
a(S'YP_003047187.1'
p2000
g3
(g5
S'=\xebn\x9d\x9b\xad\x84@'
tRp2001
tp2002
a(S'YP_003044153.1'
p2003
g3
(g5
S'w\xfa\xb3T\xbe\xb3\x84@'
tRp2004
tp2005
a(S'YP_003044861.1'
p2006
g3
(g5
S'\xf2\x8f\xc4q\xae\xbc\x84@'
tRp2007
tp2008
a(S'YP_003043910.1'
p2009
g3
(g5
S'\x8ey\xb2\xe8\xdf\xc0\x84@'
tRp2010
tp2011
a(S'YP_003046852.1'
p2012
g3
(g5
S'\xcf\xca\x17\x9c\xad\xc6\x84@'
tRp2013
tp2014
a(S'YP_003045459.1'
p2015
g3
(g5
S'^6\x8aM\x13\xc8\x84@'
tRp2016
tp2017
a(S'YP_003043930.1'
p2018
g3
(g5
S'\x0b\xeb\x17)\x93\xca\x84@'
tRp2019
tp2020
a(S'YP_003045180.1'
p2021
g3
(g5
S'i\x05\xc9"\xe2\xd2\x84@'
tRp2022
tp2023
a(S'YP_003045432.1'
p2024
g3
(g5
S'\x06m\x9b\x06c\xee\x84@'
tRp2025
tp2026
a(S'YP_003046496.1'
p2027
g3
(g5
S'Y\x0e;\xc4\x86\xf5\x84@'
tRp2028
tp2029
a(S'YP_003044174.1'
p2030
g3
(g5
S'\x0c\xdc2\x9f\xa7\xf9\x84@'
tRp2031
tp2032
a(S'YP_003044382.1'
p2033
g3
(g5
S'\x15K\xbc\xe3A\x02\x85@'
tRp2034
tp2035
a(S'YP_003046840.1'
p2036
g3
(g5
S'\xc2\xf4\t\x0f\xfa!\x85@'
tRp2037
tp2038
a(S'YP_003044916.1'
p2039
g3
(g5
S'\xa5/\xb1\x9b\xbc"\x85@'
tRp2040
tp2041
a(S'YP_003046441.1'
p2042
g3
(g5
S'\x1b\x18\xc3\x1fW#\x85@'
tRp2043
tp2044
a(S'YP_003043398.1'
p2045
g3
(g5
S'3\x9a\xf2"\xf0A\x85@'
tRp2046
tp2047
a(S'YP_003046925.1'
p2048
g3
(g5
S'\x98:\xef\x98\x1fS\x85@'
tRp2049
tp2050
a(S'YP_003044077.1'
p2051
g3
(g5
S'\xf6g,enX\x85@'
tRp2052
tp2053
a(S'YP_003047020.1'
p2054
g3
(g5
S'=\xbfo\xa7\x84]\x85@'
tRp2055
tp2056
a(S'YP_003043997.1'
p2057
g3
(g5
S'\xa9?C\x9c\xdby\x85@'
tRp2058
tp2059
a(S'YP_003043612.1'
p2060
g3
(g5
S'\x0f\xe9\xccee{\x85@'
tRp2061
tp2062
a(S'YP_003046801.1'
p2063
g3
(g5
S'\xc6\xc0\x87\x1e\x1f\x86\x85@'
tRp2064
tp2065
a(S'YP_003043309.1'
p2066
g3
(g5
S',\xfe\xca\x00\xbf\x9d\x85@'
tRp2067
tp2068
a(S'YP_003044645.1'
p2069
g3
(g5
S'\x18 \x0e\x02\x17\x9f\x85@'
tRp2070
tp2071
a(S'YP_003043333.1'
p2072
g3
(g5
S'\xcb\x89jY4\xb6\x85@'
tRp2073
tp2074
a(S'YP_003046110.1'
p2075
g3
(g5
S'Xj\xc2Q\xc0\xb9\x85@'
tRp2076
tp2077
a(S'YP_003044088.1'
p2078
g3
(g5
S'\xa0\xb7u\xbe5\xc1\x85@'
tRp2079
tp2080
a(S'YP_003047359.1'
p2081
g3
(g5
S'\xaf)\xd8\xc9K\xc3\x85@'
tRp2082
tp2083
a(S'YP_003045659.1'
p2084
g3
(g5
S"\x19'\xa5\x89[\xcc\x85@"
tRp2085
tp2086
a(S'YP_003046292.1'
p2087
g3
(g5
S'e\x83\x02\x15H\xd2\x85@'
tRp2088
tp2089
a(S'YP_003046279.1'
p2090
g3
(g5
S'\x7fcH\x13y\xd3\x85@'
tRp2091
tp2092
a(S'YP_003046678.1'
p2093
g3
(g5
S'F\xf2Z\x98\x15\xd5\x85@'
tRp2094
tp2095
a(S'YP_003047248.1'
p2096
g3
(g5
S'\x9a\xe7\x1e\xfcA\xda\x85@'
tRp2097
tp2098
a(S'YP_003045732.1'
p2099
g3
(g5
S'\x89\x84@ *\xf2\x85@'
tRp2100
tp2101
a(S'YP_003046843.1'
p2102
g3
(g5
S'8W.\xd2[\x01\x86@'
tRp2103
tp2104
a(S'YP_003045309.1'
p2105
g3
(g5
S'\x10\xa9\xcf\x94\x19\x06\x86@'
tRp2106
tp2107
a(S'YP_003046838.1'
p2108
g3
(g5
S'|%\xd5\x8dt\x07\x86@'
tRp2109
tp2110
a(S'YP_003046098.1'
p2111
g3
(g5
S"p\xfd\x9b\xc4\x0b'\x86@"
tRp2112
tp2113
a(S'YP_003043584.1'
p2114
g3
(g5
S'\xd1\x11\x9d\xb1\x9b-\x86@'
tRp2115
tp2116
a(S'YP_003044853.1'
p2117
g3
(g5
S'\xe1\xe1\xa0\xde\xecU\x86@'
tRp2118
tp2119
a(S'YP_003047047.1'
p2120
g3
(g5
S'\x8b\x9a\x85$\xb6r\x86@'
tRp2121
tp2122
a(S'YP_003044377.1'
p2123
g3
(g5
S'aP\xd2[\xee|\x86@'
tRp2124
tp2125
a(S'YP_003043932.1'
p2126
g3
(g5
S'r<{\x13k\x91\x86@'
tRp2127
tp2128
a(S'YP_003043853.1'
p2129
g3
(g5
S'\x90\x7f\xdbSB\x9d\x86@'
tRp2130
tp2131
a(S'YP_003046002.1'
p2132
g3
(g5
S'\x9efm\xe4\x87\x9e\x86@'
tRp2133
tp2134
a(S'YP_003043985.1'
p2135
g3
(g5
S'Q\xb1M*U\xa4\x86@'
tRp2136
tp2137
a(S'YP_003046891.1'
p2138
g3
(g5
S"\x05'\xaf\xd8\x83\xa8\x86@"
tRp2139
tp2140
a(S'YP_003043371.1'
p2141
g3
(g5
S',pP\xf8\x13\xb1\x86@'
tRp2142
tp2143
a(S'YP_003044024.1'
p2144
g3
(g5
S'!\xf1\x80\x94`\xc6\x86@'
tRp2145
tp2146
a(S'YP_003043921.1'
p2147
g3
(g5
S'\x0f5B\xe5\x03\xca\x86@'
tRp2148
tp2149
a(S'YP_003046854.1'
p2150
g3
(g5
S'.n\xc7\xfc\xba\xe6\x86@'
tRp2151
tp2152
a(S'YP_003044833.1'
p2153
g3
(g5
S'\xbe\xa0\xc5m\x14\x04\x87@'
tRp2154
tp2155
a(S'YP_003043587.1'
p2156
g3
(g5
S'\xa9\x1b\xb1\xe2Y\x06\x87@'
tRp2157
tp2158
a(S'YP_003045955.1'
p2159
g3
(g5
S'u\x94\xd1\xbdk\x0e\x87@'
tRp2160
tp2161
a(S'YP_003047201.1'
p2162
g3
(g5
S'\xf8i\x1fwz\x1f\x87@'
tRp2163
tp2164
a(S'YP_003045688.1'
p2165
g3
(g5
S'\xe8\xdc\xe6\x9b82\x87@'
tRp2166
tp2167
a(S'YP_003045654.1'
p2168
g3
(g5
S'5\xf9\x82\xa1\xf6>\x87@'
tRp2169
tp2170
a(S'YP_003046487.1'
p2171
g3
(g5
S'\xa6\x8fa\x1a;?\x87@'
tRp2172
tp2173
a(S'YP_003047406.1'
p2174
g3
(g5
S'\xc8\xc7-\x91\x92J\x87@'
tRp2175
tp2176
a(S'YP_003044829.1'
p2177
g3
(g5
S')\xe7\x92$tL\x87@'
tRp2178
tp2179
a(S'YP_003044931.1'
p2180
g3
(g5
S'\xd72\x8a\xfd\x90b\x87@'
tRp2181
tp2182
a(S'YP_003046486.1'
p2183
g3
(g5
S'\xe9v4T\xb7e\x87@'
tRp2184
tp2185
a(S'YP_003046862.1'
p2186
g3
(g5
S't\x1e{\xe5bh\x87@'
tRp2187
tp2188
a(S'YP_003046572.1'
p2189
g3
(g5
S'\xa4Y\xe5\xd8\xc7k\x87@'
tRp2190
tp2191
a(S'YP_003046252.1'
p2192
g3
(g5
S'N<\xb3\x94\xa2r\x87@'
tRp2193
tp2194
a(S'YP_003043580.1'
p2195
g3
(g5
S'\x10\x8a\x98\xed\xcar\x87@'
tRp2196
tp2197
a(S'YP_003045605.1'
p2198
g3
(g5
S'\\-\xd7\x15M\x8d\x87@'
tRp2199
tp2200
a(S'YP_003044462.1'
p2201
g3
(g5
S'\x8az\x1d\xc5\xef\x95\x87@'
tRp2202
tp2203
a(S'YP_003044281.1'
p2204
g3
(g5
S'Q2\x8c\x8e$\x9f\x87@'
tRp2205
tp2206
a(S'YP_003046784.1'
p2207
g3
(g5
S'\xe9\x93\xc8\xa8\xba\xa0\x87@'
tRp2208
tp2209
a(S'YP_003046998.1'
p2210
g3
(g5
S'LY1C\xa6\xb0\x87@'
tRp2211
tp2212
a(S'YP_003045911.1'
p2213
g3
(g5
S'b\xf5\xa3g\xa8\xbf\x87@'
tRp2214
tp2215
a(S'YP_003043637.1'
p2216
g3
(g5
S'C\xf1>7h\xc7\x87@'
tRp2217
tp2218
a(S'YP_003045610.1'
p2219
g3
(g5
S'\xd3\xd5\x85Z5\xcf\x87@'
tRp2220
tp2221
a(S'YP_003045044.1'
p2222
g3
(g5
S'\xe4\x14\xa0\xc6\x0c\xd3\x87@'
tRp2223
tp2224
a(S'YP_003044822.1'
p2225
g3
(g5
S'\t]\nL\xd0\xea\x87@'
tRp2226
tp2227
a(S'YP_003043862.1'
p2228
g3
(g5
S'\xd0\xf4{:\x0b\x14\x88@'
tRp2229
tp2230
a(S'YP_003047085.1'
p2231
g3
(g5
S'j\xd3\r\xe5\x91\x16\x88@'
tRp2232
tp2233
a(S'YP_003044249.1'
p2234
g3
(g5
S'\x11v\xdb\x97\x1a\x17\x88@'
tRp2235
tp2236
a(S'YP_003043316.1'
p2237
g3
(g5
S'M\\\x03IW.\x88@'
tRp2238
tp2239
a(S'YP_003046991.1'
p2240
g3
(g5
S'`\xda%\xbe\xe6B\x88@'
tRp2241
tp2242
a(S'YP_003045523.1'
p2243
g3
(g5
S'\xc9\xcd\xa7p\x9bL\x88@'
tRp2244
tp2245
a(S'YP_003046684.1'
p2246
g3
(g5
S'\x02\xd9>\x95\xdb^\x88@'
tRp2247
tp2248
a(S'YP_003046971.1'
p2249
g3
(g5
S'\xa8\x14\xfb\x02_b\x88@'
tRp2250
tp2251
a(S'YP_003044472.1'
p2252
g3
(g5
S'))U\x8c\x10}\x88@'
tRp2253
tp2254
a(S'YP_003046001.1'
p2255
g3
(g5
S'#\x91\xc7\xc9\xfc\x9a\x88@'
tRp2256
tp2257
a(S'YP_003044782.1'
p2258
g3
(g5
S'\xca\xa3LR\xa2\x9b\x88@'
tRp2259
tp2260
a(S'YP_003043428.1'
p2261
g3
(g5
S'\x19\x02k2\xc8\xb6\x88@'
tRp2262
tp2263
a(S'YP_003046443.1'
p2264
g3
(g5
S'\xbdY\x99\xac\r\xbb\x88@'
tRp2265
tp2266
a(S'YP_003046202.1'
p2267
g3
(g5
S'j\x02D\x15\xc6\xbe\x88@'
tRp2268
tp2269
a(S'YP_003046319.1'
p2270
g3
(g5
S'\x87Ri}\x88\xf0\x88@'
tRp2271
tp2272
a(S'YP_003043321.1'
p2273
g3
(g5
S'\x8dx\xed\x8b\x80\xfd\x88@'
tRp2274
tp2275
a(S'YP_003046984.1'
p2276
g3
(g5
S'x\x15\xa9\xd7\x9a\t\x89@'
tRp2277
tp2278
a(S'YP_003046240.1'
p2279
g3
(g5
S'\xda\xda\x8ac\x86\x1c\x89@'
tRp2280
tp2281
a(S'YP_003046756.1'
p2282
g3
(g5
S'\xac \x18\x84>8\x89@'
tRp2283
tp2284
a(S'YP_003046208.1'
p2285
g3
(g5
S'-e-\x9c\x99>\x89@'
tRp2286
tp2287
a(S'YP_003043318.1'
p2288
g3
(g5
S'\x06\xe5\x91}m@\x89@'
tRp2289
tp2290
a(S'YP_003046356.1'
p2291
g3
(g5
S'\x0e\x0e\xceo{C\x89@'
tRp2292
tp2293
a(S'YP_003044880.1'
p2294
g3
(g5
S'q\xee_\xaaiL\x89@'
tRp2295
tp2296
a(S'YP_003047019.1'
p2297
g3
(g5
S'\x0c\x9eH\x8e\xe5O\x89@'
tRp2298
tp2299
a(S'YP_003045236.1'
p2300
g3
(g5
S'2\x94\xd4\x02\xe4Q\x89@'
tRp2301
tp2302
a(S'YP_003046214.1'
p2303
g3
(g5
S'\xa6H\xfc:@S\x89@'
tRp2304
tp2305
a(S'YP_003046433.1'
p2306
g3
(g5
S'75,#\x91\\\x89@'
tRp2307
tp2308
a(S'YP_003046317.1'
p2309
g3
(g5
S'\xf1&?\xc5|^\x89@'
tRp2310
tp2311
a(S'YP_003043391.1'
p2312
g3
(g5
S'@\x91B\x18\xdd^\x89@'
tRp2313
tp2314
a(S'YP_003044343.1'
p2315
g3
(g5
S'8|\x07H\xa0v\x89@'
tRp2316
tp2317
a(S'YP_003044093.1'
p2318
g3
(g5
S'\xacZxa\xe2v\x89@'
tRp2319
tp2320
a(S'YP_003043996.1'
p2321
g3
(g5
S'\x97\xefn\x0f0\x84\x89@'
tRp2322
tp2323
a(S'YP_003047271.1'
p2324
g3
(g5
S'\xafV\x1b\xbb\xe6\x8d\x89@'
tRp2325
tp2326
a(S'YP_003044294.1'
p2327
g3
(g5
S'\xa1\xf4\xe4}A\x95\x89@'
tRp2328
tp2329
a(S'YP_003044371.1'
p2330
g3
(g5
S'\x04\xe5\xb03[\xbc\x89@'
tRp2331
tp2332
a(S'YP_003045545.1'
p2333
g3
(g5
S'\xb8\xdc\xdd^B\xc9\x89@'
tRp2334
tp2335
a(S'YP_003043416.1'
p2336
g3
(g5
S'\xa3\xa4S\xa7^\xe3\x89@'
tRp2337
tp2338
a(S'YP_003043705.1'
p2339
g3
(g5
S'\xa8fo\xf8\xff\xeb\x89@'
tRp2340
tp2341
a(S'YP_003044389.1'
p2342
g3
(g5
S'\r\x92\xe8\xe1\xcc\xf4\x89@'
tRp2343
tp2344
a(S'YP_003045353.1'
p2345
g3
(g5
S'C\x86\x0f\xdf\x05\x05\x8a@'
tRp2346
tp2347
a(S'YP_003043595.1'
p2348
g3
(g5
S'\xf3\xf2\x9b\xa2\xc2\x07\x8a@'
tRp2349
tp2350
a(S'YP_003045446.1'
p2351
g3
(g5
S'w\xb7\xe9\xcd\xe4%\x8a@'
tRp2352
tp2353
a(S'YP_003047433.1'
p2354
g3
(g5
S'f\xac\x98\xa4\x0c2\x8a@'
tRp2355
tp2356
a(S'YP_003045615.1'
p2357
g3
(g5
S'\xceY\xffU%W\x8a@'
tRp2358
tp2359
a(S'YP_003046980.1'
p2360
g3
(g5
S'\x05*7Qi\x81\x8a@'
tRp2361
tp2362
a(S'YP_003046583.1'
p2363
g3
(g5
S'\xec\xda[\xea=\x9a\x8a@'
tRp2364
tp2365
a(S'YP_003043473.1'
p2366
g3
(g5
S'n\x04\xac\xa4\xc4\xb4\x8a@'
tRp2367
tp2368
a(S'YP_003044780.1'
p2369
g3
(g5
S'\xeb\x924\xa4\xe5\xba\x8a@'
tRp2370
tp2371
a(S'YP_003046222.1'
p2372
g3
(g5
S'_\nQL\xf3\xd0\x8a@'
tRp2373
tp2374
a(S'YP_003045113.1'
p2375
g3
(g5
S'lx\xa9\x00"\xe1\x8a@'
tRp2376
tp2377
a(S'YP_003044806.1'
p2378
g3
(g5
S')\xb4\xfc\x9a\xae\xeb\x8a@'
tRp2379
tp2380
a(S'YP_003043569.1'
p2381
g3
(g5
S'\xf08lI6\xec\x8a@'
tRp2382
tp2383
a(S'YP_003046573.1'
p2384
g3
(g5
S'\x00ac`\xdf\xf0\x8a@'
tRp2385
tp2386
a(S'YP_003045635.1'
p2387
g3
(g5
S'W\rc.\xfa&\x8b@'
tRp2388
tp2389
a(S'YP_003045166.1'
p2390
g3
(g5
S'\xf3&\xee\xf0`,\x8b@'
tRp2391
tp2392
a(S'YP_003043324.1'
p2393
g3
(g5
S'\x03u $U9\x8b@'
tRp2394
tp2395
a(S'YP_003044894.1'
p2396
g3
(g5
S'\xd4`Q!8N\x8b@'
tRp2397
tp2398
a(S'YP_003045205.1'
p2399
g3
(g5
S'#2u\xaa\x06q\x8b@'
tRp2400
tp2401
a(S'YP_003044388.1'
p2402
g3
(g5
S'cX\xb3\x1bp\x84\x8b@'
tRp2403
tp2404
a(S'YP_003045060.1'
p2405
g3
(g5
S'qi\x16sP\x93\x8b@'
tRp2406
tp2407
a(S'YP_003043654.1'
p2408
g3
(g5
S'\x8e\xe1\xcd\x87\x97\x9a\x8b@'
tRp2409
tp2410
a(S'YP_003046254.1'
p2411
g3
(g5
S'\xc7G\x0e\xc1\xc1\xa8\x8b@'
tRp2412
tp2413
a(S'YP_003047024.1'
p2414
g3
(g5
S'\x1bhp\x9e>\xec\x8b@'
tRp2415
tp2416
a(S'YP_003046255.1'
p2417
g3
(g5
S'\x07_\x98q\x04\xf7\x8b@'
tRp2418
tp2419
a(S'YP_003043818.1'
p2420
g3
(g5
S'\xd1\xa7\xdf\r\xd3\x1e\x8c@'
tRp2421
tp2422
a(S'YP_003045382.1'
p2423
g3
(g5
S'P[\xd1\x93\xfc.\x8c@'
tRp2424
tp2425
a(S'YP_003043796.1'
p2426
g3
(g5
S'\xf8\x01\xd2\xc6\xd0;\x8c@'
tRp2427
tp2428
a(S'YP_003045396.1'
p2429
g3
(g5
S'K\r>e\x98Q\x8c@'
tRp2430
tp2431
a(S'YP_003046990.1'
p2432
g3
(g5
S"P\x98'\xb6\xfbS\x8c@"
tRp2433
tp2434
a(S'YP_003047273.1'
p2435
g3
(g5
S'\xdc\xb2\x98\xf7\xcap\x8c@'
tRp2436
tp2437
a(S'YP_003046900.1'
p2438
g3
(g5
S'\x174\nND\x8a\x8c@'
tRp2439
tp2440
a(S'YP_003044149.1'
p2441
g3
(g5
S'\xf7\xb9J\x10\xa0\xc4\x8c@'
tRp2442
tp2443
a(S'YP_003045863.1'
p2444
g3
(g5
S'\xe9\x93\x11\x11m\xdc\x8c@'
tRp2445
tp2446
a(S'YP_003045652.1'
p2447
g3
(g5
S'r\xd0\xb2\x9c\x95\xea\x8c@'
tRp2448
tp2449
a(S'YP_003046393.1'
p2450
g3
(g5
S'\xe1\xf0\x97D\x8d\t\x8d@'
tRp2451
tp2452
a(S'YP_003044250.1'
p2453
g3
(g5
S'\x9f\xb0\xc4\xd4\xed\x0e\x8d@'
tRp2454
tp2455
a(S'YP_003043943.1'
p2456
g3
(g5
S'\\\xb1\x9a(\xf40\x8d@'
tRp2457
tp2458
a(S'YP_003044985.1'
p2459
g3
(g5
S'\xd8,v^\x1b1\x8d@'
tRp2460
tp2461
a(S'YP_003044521.1'
p2462
g3
(g5
S'\xd3\xc3\rX\xcb3\x8d@'
tRp2463
tp2464
a(S'YP_003043546.1'
p2465
g3
(g5
S"\xe0'\xcd\x84\xa49\x8d@"
tRp2466
tp2467
a(S'YP_003047249.1'
p2468
g3
(g5
S'?\x13^d\xeb9\x8d@'
tRp2469
tp2470
a(S'YP_003043235.1'
p2471
g3
(g5
S'\x8c\xc1\x85j\xfdM\x8d@'
tRp2472
tp2473
a(S'YP_003046531.1'
p2474
g3
(g5
S'*z=2\x82z\x8d@'
tRp2475
tp2476
a(S'YP_003045022.1'
p2477
g3
(g5
S'\xcfa)F\xafz\x8d@'
tRp2478
tp2479
a(S'YP_003045436.1'
p2480
g3
(g5
S'\xe7LS=E\x85\x8d@'
tRp2481
tp2482
a(S'YP_003046323.1'
p2483
g3
(g5
S'\x8c\xd5\x93[\xc5\x87\x8d@'
tRp2484
tp2485
a(S'YP_003044167.1'
p2486
g3
(g5
S'\xf5\x173\x89\x1a\x97\x8d@'
tRp2487
tp2488
a(S'YP_003044370.1'
p2489
g3
(g5
S'\xd75\xbc\xb2P\x9e\x8d@'
tRp2490
tp2491
a(S'YP_003045554.1'
p2492
g3
(g5
S'\xb3\xf4\x9c\x92\xb7\xa4\x8d@'
tRp2493
tp2494
a(S'YP_003043562.1'
p2495
g3
(g5
S'N\x8eH\xe97\xaa\x8d@'
tRp2496
tp2497
a(S'YP_003044460.1'
p2498
g3
(g5
S'@\xa3UC\x10\xbc\x8d@'
tRp2499
tp2500
a(S'YP_003046219.1'
p2501
g3
(g5
S'\x94N\xfc\x9d\xb5\xee\x8d@'
tRp2502
tp2503
a(S'YP_003046591.1'
p2504
g3
(g5
S'\x9ei\xcf\xa9\xe9\xf5\x8d@'
tRp2505
tp2506
a(S'YP_003045437.1'
p2507
g3
(g5
S'\xe9\xfdv\x9b\x06\xfc\x8d@'
tRp2508
tp2509
a(S'YP_003046086.1'
p2510
g3
(g5
S'OO\xba\x1d\xa5\x04\x8e@'
tRp2511
tp2512
a(S'YP_003045597.1'
p2513
g3
(g5
S'\xac;R6\x818\x8e@'
tRp2514
tp2515
a(S'YP_003046226.1'
p2516
g3
(g5
S'U\xdd\xe3\xfc\xfcY\x8e@'
tRp2517
tp2518
a(S'YP_003047420.1'
p2519
g3
(g5
S'\xef9\xcf\xe4\xcc]\x8e@'
tRp2520
tp2521
a(S'YP_003044366.1'
p2522
g3
(g5
S'#\x9bP\xed\x0bb\x8e@'
tRp2523
tp2524
a(S'YP_003045928.1'
p2525
g3
(g5
S'\x9d\x0f\x01\xff\x8c\x90\x8e@'
tRp2526
tp2527
a(S'YP_003043467.1'
p2528
g3
(g5
S'\xae\xb6\xf7L\x8b\x97\x8e@'
tRp2529
tp2530
a(S'YP_003044930.1'
p2531
g3
(g5
S'\xfbj#\xd8\x1a\xa8\x8e@'
tRp2532
tp2533
a(S'YP_003043927.1'
p2534
g3
(g5
S'\x97\x8eln\xeb\xbf\x8e@'
tRp2535
tp2536
a(S'YP_003045398.1'
p2537
g3
(g5
S'\x0bI\xd4\xfd\xba\xc4\x8e@'
tRp2538
tp2539
a(S'YP_003043649.1'
p2540
g3
(g5
S'\xeeZ\xda\xcaV\xc5\x8e@'
tRp2541
tp2542
a(S'YP_003046832.1'
p2543
g3
(g5
S'\x05*\xc3\xe1\xb2\xdb\x8e@'
tRp2544
tp2545
a(S'YP_003045090.1'
p2546
g3
(g5
S'J\xa1wm\x87\xdf\x8e@'
tRp2547
tp2548
a(S'YP_003044872.1'
p2549
g3
(g5
S'\xadFB\x82\xae\r\x8f@'
tRp2550
tp2551
a(S'YP_003044169.1'
p2552
g3
(g5
S'\xd5.B\xc0\xca\x16\x8f@'
tRp2553
tp2554
a(S'YP_003045843.1'
p2555
g3
(g5
S'\x98\x19\x8dU\xb4\x18\x8f@'
tRp2556
tp2557
a(S'YP_003045650.1'
p2558
g3
(g5
S'\xeaI\xbf\xf9\xdb \x8f@'
tRp2559
tp2560
a(S'YP_003044113.1'
p2561
g3
(g5
S'R\xd3\xf7P\xaf3\x8f@'
tRp2562
tp2563
a(S'YP_003044012.1'
p2564
g3
(g5
S'\xc2g\xef\xe4\xc7<\x8f@'
tRp2565
tp2566
a(S'YP_003045032.1'
p2567
g3
(g5
S'1\x82\x86\x92Wk\x8f@'
tRp2568
tp2569
a(S'YP_003043847.1'
p2570
g3
(g5
S'\xba \xb9;6}\x8f@'
tRp2571
tp2572
a(S'YP_003044896.1'
p2573
g3
(g5
S'\xa8\xf4\xbec\xb8\x83\x8f@'
tRp2574
tp2575
a(S'YP_003047260.1'
p2576
g3
(g5
S'\xc4\xe4?\x13\xcf\xa1\x8f@'
tRp2577
tp2578
a(S'YP_003046881.1'
p2579
g3
(g5
S'Y\xde\x1a\x10\xfd\xc0\x8f@'
tRp2580
tp2581
a(S'YP_003047180.1'
p2582
g3
(g5
S'\x15xKn\xbc\xce\x8f@'
tRp2583
tp2584
a(S'YP_003044771.1'
p2585
g3
(g5
S'\xbcz\xc6$=\xe8\x8f@'
tRp2586
tp2587
a(S'YP_003043286.1'
p2588
g3
(g5
S'\xa7ax\xd7\xda\xed\x8f@'
tRp2589
tp2590
a(S'YP_003044783.1'
p2591
g3
(g5
S'\x13\x12\t\x15\xd7\xfd\x8f@'
tRp2592
tp2593
a(S'YP_003045969.1'
p2594
g3
(g5
S'\xc4\xb7xKK!\x90@'
tRp2595
tp2596
a(S'YP_003045020.1'
p2597
g3
(g5
S'\xb0\xec\xc3\xe9,4\x90@'
tRp2598
tp2599
a(S'YP_003043361.1'
p2600
g3
(g5
S'x\x9a\x9a\x0bZ8\x90@'
tRp2601
tp2602
a(S'YP_003045306.1'
p2603
g3
(g5
S'$7\xd3\x9b\x0c<\x90@'
tRp2604
tp2605
a(S'YP_003046282.1'
p2606
g3
(g5
S'J\xca\x8eW\xb9B\x90@'
tRp2607
tp2608
a(S'YP_003046425.1'
p2609
g3
(g5
S'7\xc9}\x9e\xf8B\x90@'
tRp2610
tp2611
a(S'YP_003045918.1'
p2612
g3
(g5
S'\xaa \x91\xc0\x0cP\x90@'
tRp2613
tp2614
a(S'YP_003045410.1'
p2615
g3
(g5
S'\x8d\xd5\xa0p9T\x90@'
tRp2616
tp2617
a(S'YP_003045016.1'
p2618
g3
(g5
S'\xc5\x85\x0e\xe3\xd3Z\x90@'
tRp2619
tp2620
a(S'YP_003044755.1'
p2621
g3
(g5
S'\xe7\x8ey\xeb\x0f\x8a\x90@'
tRp2622
tp2623
a(S'YP_003044140.1'
p2624
g3
(g5
S'\xb0\xf7\x94\xb2\x98\x97\x90@'
tRp2625
tp2626
a(S'YP_003043265.1'
p2627
g3
(g5
S'\xfep\xde\xd2\x1f\x9a\x90@'
tRp2628
tp2629
a(S'YP_003046997.1'
p2630
g3
(g5
S'\x98\xb6\xe8\xc1\xcf\xa1\x90@'
tRp2631
tp2632
a(S'YP_003043590.1'
p2633
g3
(g5
S'\x9fA\xa4\xda\x95\xb0\x90@'
tRp2634
tp2635
a(S'YP_003044454.1'
p2636
g3
(g5
S'T?\xdbu\x13\xba\x90@'
tRp2637
tp2638
a(S'YP_003044345.1'
p2639
g3
(g5
S'#\x89\xa9\xf3\xed\xc1\x90@'
tRp2640
tp2641
a(S'YP_003045350.1'
p2642
g3
(g5
S'\xd0\xceUxr\xd0\x90@'
tRp2643
tp2644
a(S'YP_003043315.1'
p2645
g3
(g5
S'"\xbbj\x1cb\xd5\x90@'
tRp2646
tp2647
a(S'YP_003045980.1'
p2648
g3
(g5
S'\xb0\x87\x95\xee\x85\xe0\x90@'
tRp2649
tp2650
a(S'YP_003043899.1'
p2651
g3
(g5
S'\xc6;n[a\xe8\x90@'
tRp2652
tp2653
a(S'YP_003044856.1'
p2654
g3
(g5
S'qfH\xcd\x13\x1c\x91@'
tRp2655
tp2656
a(S'YP_003045404.1'
p2657
g3
(g5
S'\x81\x0b=X\xdf-\x91@'
tRp2658
tp2659
a(S'YP_003046231.1'
p2660
g3
(g5
S'pEe\xc967\x91@'
tRp2661
tp2662
a(S'YP_003047282.1'
p2663
g3
(g5
S'\x04M;\xf6+:\x91@'
tRp2664
tp2665
a(S'YP_003044870.1'
p2666
g3
(g5
S'\xc6]\t\x0f\xc8<\x91@'
tRp2667
tp2668
a(S'YP_003045785.1'
p2669
g3
(g5
S'\xe5\xc2_E\xa4R\x91@'
tRp2670
tp2671
a(S'YP_003047270.1'
p2672
g3
(g5
S'\xe0\x9a\xfb\x13>[\x91@'
tRp2673
tp2674
a(S'YP_003046670.1'
p2675
g3
(g5
S'\xaf\xef\xb5\xee\xb8[\x91@'
tRp2676
tp2677
a(S'YP_003046424.1'
p2678
g3
(g5
S'\xf4\xa1\x01@\xbed\x91@'
tRp2679
tp2680
a(S'YP_003043960.1'
p2681
g3
(g5
S'\x15\xf5\xb1\x12kf\x91@'
tRp2682
tp2683
a(S'YP_003043378.1'
p2684
g3
(g5
S'/\xf0\x93\xfael\x91@'
tRp2685
tp2686
a(S'YP_003044020.1'
p2687
g3
(g5
S'`\xaf\xfe\x8b\x1eo\x91@'
tRp2688
tp2689
a(S'YP_003045120.1'
p2690
g3
(g5
S'\x81\xd4\x07\tau\x91@'
tRp2691
tp2692
a(S'YP_003045354.1'
p2693
g3
(g5
S'Q\xad\xe7q\xc8y\x91@'
tRp2694
tp2695
a(S'YP_003045664.1'
p2696
g3
(g5
S'\x95`\xfcwcz\x91@'
tRp2697
tp2698
a(S'YP_003044185.1'
p2699
g3
(g5
S'\xe9\x94\xfd\xf6\x0b\x8b\x91@'
tRp2700
tp2701
a(S'YP_003046604.1'
p2702
g3
(g5
S'\xcb\x13\xe8lj\x8b\x91@'
tRp2703
tp2704
a(S'YP_003046437.1'
p2705
g3
(g5
S'C\xae\xad\xe2\xbf\x96\x91@'
tRp2706
tp2707
a(S'YP_003045966.1'
p2708
g3
(g5
S'\x97\xc2\xf6\xc4\xda\xa8\x91@'
tRp2709
tp2710
a(S'YP_003046813.1'
p2711
g3
(g5
S'\x13\x7f\xb6\t*\xab\x91@'
tRp2712
tp2713
a(S'YP_003044023.1'
p2714
g3
(g5
S'1\xcb\xff\x8bN\xb4\x91@'
tRp2715
tp2716
a(S'YP_003047281.1'
p2717
g3
(g5
S'\x10\xdf+\xba4\xd3\x91@'
tRp2718
tp2719
a(S'YP_003044412.1'
p2720
g3
(g5
S'#\x83\xcfH(\xde\x91@'
tRp2721
tp2722
a(S'YP_003047318.1'
p2723
g3
(g5
S'vZ\xba\xff\xc8\xe5\x91@'
tRp2724
tp2725
a(S'YP_003043832.1'
p2726
g3
(g5
S'+\xe5\t\xd9\x96\xe8\x91@'
tRp2727
tp2728
a(S'YP_003044562.1'
p2729
g3
(g5
S'\x9eG\xf3v\xca\xf7\x91@'
tRp2730
tp2731
a(S'YP_003046064.1'
p2732
g3
(g5
S'\xd8\xc4\xd2B\x91\x02\x92@'
tRp2733
tp2734
a(S'YP_003043864.1'
p2735
g3
(g5
S'E\xe3s\xa9%\x14\x92@'
tRp2736
tp2737
a(S'YP_003046646.1'
p2738
g3
(g5
S'\x8a8\xb8X3\x16\x92@'
tRp2739
tp2740
a(S'YP_003043658.1'
p2741
g3
(g5
S'Th#\x029\x1f\x92@'
tRp2742
tp2743
a(S'YP_003045400.1'
p2744
g3
(g5
S'\x1a\xc2K8\x05/\x92@'
tRp2745
tp2746
a(S'YP_003044984.1'
p2747
g3
(g5
S'y\x9e\xb7<\xe9?\x92@'
tRp2748
tp2749
a(S'YP_003043349.1'
p2750
g3
(g5
S';w\xdcbFC\x92@'
tRp2751
tp2752
a(S'YP_003045007.1'
p2753
g3
(g5
S'\x0e\xac\xba\xaa\xa7F\x92@'
tRp2754
tp2755
a(S'YP_003045789.1'
p2756
g3
(g5
S'\xe0\xc0\x99\xa6}M\x92@'
tRp2757
tp2758
a(S'YP_003045678.1'
p2759
g3
(g5
S'T\xc9\xb1\xb8\x14h\x92@'
tRp2760
tp2761
a(S'YP_003045796.1'
p2762
g3
(g5
S'\t\x9d\x17\xa3\xef}\x92@'
tRp2763
tp2764
a(S'YP_003045513.1'
p2765
g3
(g5
S'\x8fr\x0e\x0e\x07\x83\x92@'
tRp2766
tp2767
a(S'YP_003046673.1'
p2768
g3
(g5
S'#\x055L{\x86\x92@'
tRp2769
tp2770
a(S'YP_003046122.1'
p2771
g3
(g5
S'\xc95\x1b\x90\x9e\xb2\x92@'
tRp2772
tp2773
a(S'YP_003044314.1'
p2774
g3
(g5
S'\xcc}\xdf\x9dC\xba\x92@'
tRp2775
tp2776
a(S'YP_003045956.1'
p2777
g3
(g5
S'v\xb9\x9f\xa3\xb6\xbe\x92@'
tRp2778
tp2779
a(S'YP_003043353.1'
p2780
g3
(g5
S'\x8f1\xa2|\x7f\xd1\x92@'
tRp2781
tp2782
a(S'YP_003046384.1'
p2783
g3
(g5
S'04\xe6xR\xdb\x92@'
tRp2784
tp2785
a(S'YP_003047376.1'
p2786
g3
(g5
S'\xc6I\xacO\xf1\xe7\x92@'
tRp2787
tp2788
a(S'YP_003047001.1'
p2789
g3
(g5
S'\xed=\x01p\x9b\xee\x92@'
tRp2790
tp2791
a(S'YP_003046005.1'
p2792
g3
(g5
S'\xb1>p\x1cJ3\x93@'
tRp2793
tp2794
a(S'YP_003046421.1'
p2795
g3
(g5
S'\xe2K\x8a`\x038\x93@'
tRp2796
tp2797
a(S'YP_003046828.1'
p2798
g3
(g5
S'P3 {)8\x93@'
tRp2799
tp2800
a(S'YP_003047427.1'
p2801
g3
(g5
S'?\xa0\x7f\x1b\xd4:\x93@'
tRp2802
tp2803
a(S'YP_003046758.1'
p2804
g3
(g5
S'\xa6\x13\x9b\x1f\xf0H\x93@'
tRp2805
tp2806
a(S'YP_003043799.1'
p2807
g3
(g5
S'\x9e\xc4\xa4\xd7\xabT\x93@'
tRp2808
tp2809
a(S'YP_003044598.1'
p2810
g3
(g5
S'!L\x8dV\x1fm\x93@'
tRp2811
tp2812
a(S'YP_003044469.1'
p2813
g3
(g5
S'\xa8\xd0\xb9c\x7f\x8c\x93@'
tRp2814
tp2815
a(S'YP_003044248.1'
p2816
g3
(g5
S'EA>\x0f^\x8f\x93@'
tRp2817
tp2818
a(S'YP_003044781.1'
p2819
g3
(g5
S'z\xa3\x87kn\x8f\x93@'
tRp2820
tp2821
a(S'YP_003044618.1'
p2822
g3
(g5
S'\x9f\x8a\xee\xad\xee\x9a\x93@'
tRp2823
tp2824
a(S'YP_003045647.1'
p2825
g3
(g5
S'\xa2\xd2\xf4m\xbe\xaf\x93@'
tRp2826
tp2827
a(S'YP_003047321.1'
p2828
g3
(g5
S'hJG\xeb\x96\xb0\x93@'
tRp2829
tp2830
a(S'YP_003047289.1'
p2831
g3
(g5
S'?d\xedx\xc0\xc0\x93@'
tRp2832
tp2833
a(S'YP_003044322.1'
p2834
g3
(g5
S'\xaf\xf7\x80\xbd\xe5\xc9\x93@'
tRp2835
tp2836
a(S'YP_003047280.1'
p2837
g3
(g5
S':Y\x13\x855\xcf\x93@'
tRp2838
tp2839
a(S'YP_003045034.1'
p2840
g3
(g5
S'\xa4P\x93\xb6\xdf\xd2\x93@'
tRp2841
tp2842
a(S'YP_003043856.1'
p2843
g3
(g5
S'Z\xb3\xb165\xd7\x93@'
tRp2844
tp2845
a(S'YP_003043466.1'
p2846
g3
(g5
S'\\n\x0b\x9b\x9f\xdf\x93@'
tRp2847
tp2848
a(S'YP_003045965.1'
p2849
g3
(g5
S'\x8d\\\xc3\xd6\x0c\xe1\x93@'
tRp2850
tp2851
a(S'YP_003046322.1'
p2852
g3
(g5
S'g\xbe)}\x84\xe2\x93@'
tRp2853
tp2854
a(S'YP_003043702.1'
p2855
g3
(g5
S"i\xda\x0f'\x18\xf9\x93@"
tRp2856
tp2857
a(S'YP_003045115.1'
p2858
g3
(g5
S'\x85\xd1\x9cV\x95"\x94@'
tRp2859
tp2860
a(S'YP_003043822.1'
p2861
g3
(g5
S'\xaf\xe6\xd4s6/\x94@'
tRp2862
tp2863
a(S'YP_003044297.1'
p2864
g3
(g5
S'\x19\xd9CGb4\x94@'
tRp2865
tp2866
a(S'YP_003046731.1'
p2867
g3
(g5
S'uS^\x9c~9\x94@'
tRp2868
tp2869
a(S'YP_003044997.1'
p2870
g3
(g5
S'\xa3\xdeC\xc7|:\x94@'
tRp2871
tp2872
a(S'YP_003043646.1'
p2873
g3
(g5
S'\xab\xf0\xb2\xeb\xa8A\x94@'
tRp2874
tp2875
a(S'YP_003047063.1'
p2876
g3
(g5
S'\xcau\xc1C\xbaG\x94@'
tRp2877
tp2878
a(S'YP_003044701.1'
p2879
g3
(g5
S'\xd99\xc0\x14\xbeM\x94@'
tRp2880
tp2881
a(S'YP_003044296.1'
p2882
g3
(g5
S'\xec/\xff\xf7\x84R\x94@'
tRp2883
tp2884
a(S'YP_003045814.1'
p2885
g3
(g5
S'\xf4VuIT_\x94@'
tRp2886
tp2887
a(S'YP_003045497.1'
p2888
g3
(g5
S'4\xa1\x01\xf6}g\x94@'
tRp2889
tp2890
a(S'YP_003045874.1'
p2891
g3
(g5
S'\x94\x99\xa7\xdd\xa0k\x94@'
tRp2892
tp2893
a(S'YP_003047212.1'
p2894
g3
(g5
S'u\x83w\x1d\xf1o\x94@'
tRp2895
tp2896
a(S'YP_003043330.1'
p2897
g3
(g5
S'R\xd0\xed\x84\x8ep\x94@'
tRp2898
tp2899
a(S'YP_003044890.1'
p2900
g3
(g5
S'\xda\x0cr\x14\x80{\x94@'
tRp2901
tp2902
a(S'YP_003044887.1'
p2903
g3
(g5
S'\x86\x9fS\x91J\x82\x94@'
tRp2904
tp2905
a(S'YP_003045118.1'
p2906
g3
(g5
S'\x7f\xa1\x9f\xbaE\x99\x94@'
tRp2907
tp2908
a(S'YP_003043902.1'
p2909
g3
(g5
S'\x12x\x01CO\xa0\x94@'
tRp2910
tp2911
a(S'YP_003045512.1'
p2912
g3
(g5
S'\xdc^\xabj\xdc\xa7\x94@'
tRp2913
tp2914
a(S'YP_003043583.1'
p2915
g3
(g5
S'\xf4\x94\xee\xdd\x89\xa8\x94@'
tRp2916
tp2917
a(S'YP_003044139.1'
p2918
g3
(g5
S'\xbdj5\xa6\x89\xb6\x94@'
tRp2919
tp2920
a(S'YP_003044087.1'
p2921
g3
(g5
S'\xb9\xe2\xd6\xa1\x00\xbf\x94@'
tRp2922
tp2923
a(S'YP_003045433.1'
p2924
g3
(g5
S'\xb8\xe8\x1f\xc5r\xd4\x94@'
tRp2925
tp2926
a(S'YP_003046452.1'
p2927
g3
(g5
S'\xd1\xb5\xea\xa9\x12\xde\x94@'
tRp2928
tp2929
a(S'YP_003044273.1'
p2930
g3
(g5
S'\xcb\xde\xaac\xc8\xf0\x94@'
tRp2931
tp2932
a(S'YP_003046721.1'
p2933
g3
(g5
S'r\n\xe0\x139\xf4\x94@'
tRp2934
tp2935
a(S'YP_003044346.1'
p2936
g3
(g5
S'?Z\x8a?K\xf6\x94@'
tRp2937
tp2938
a(S'YP_003044845.1'
p2939
g3
(g5
S')\x13\xc4!,\xf7\x94@'
tRp2940
tp2941
a(S'YP_003045923.1'
p2942
g3
(g5
S'\xbf(\x1a\xd1\xce\xfd\x94@'
tRp2943
tp2944
a(S'YP_003046679.1'
p2945
g3
(g5
S'\xee\xb5\xde\xb1\x15\x13\x95@'
tRp2946
tp2947
a(S'YP_003046974.1'
p2948
g3
(g5
S'\xbc\xfei\x96\x8e\x1d\x95@'
tRp2949
tp2950
a(S'YP_003046065.1'
p2951
g3
(g5
S't\x80\xc0<\x92-\x95@'
tRp2952
tp2953
a(S'YP_003045577.1'
p2954
g3
(g5
S'\xb9=;\x95/0\x95@'
tRp2955
tp2956
a(S'YP_003046239.1'
p2957
g3
(g5
S'\x8d\xc4\x89\xdbc\\\x95@'
tRp2958
tp2959
a(S'YP_003043850.1'
p2960
g3
(g5
S'o\xbf\x11w\xa2_\x95@'
tRp2961
tp2962
a(S'YP_003045403.1'
p2963
g3
(g5
S'\xf0e}\xf8\x16\x88\x95@'
tRp2964
tp2965
a(S'YP_003047436.1'
p2966
g3
(g5
S'\xf1\xb5\x05JZ\x98\x95@'
tRp2967
tp2968
a(S'YP_003047293.1'
p2969
g3
(g5
S'\x9a\xee\x05\x1fS\x9c\x95@'
tRp2970
tp2971
a(S'YP_003046529.1'
p2972
g3
(g5
S'\xa9W\x16\xb7m\xa0\x95@'
tRp2973
tp2974
a(S'YP_003044151.1'
p2975
g3
(g5
S'\x82\x15G\xfd\xe5\xaa\x95@'
tRp2976
tp2977
a(S'YP_003047256.1'
p2978
g3
(g5
S'\xde|\x9aw\x94\xab\x95@'
tRp2979
tp2980
a(S'YP_003045589.1'
p2981
g3
(g5
S'\xefcOy\x1e\xc7\x95@'
tRp2982
tp2983
a(S'YP_003045671.1'
p2984
g3
(g5
S'\xe5\x8b\x97\x16G\xee\x95@'
tRp2985
tp2986
a(S'YP_003044307.1'
p2987
g3
(g5
S'\x89\xd5@\x14x\xfd\x95@'
tRp2988
tp2989
a(S'YP_003045677.1'
p2990
g3
(g5
S'\xb1\x10\x1aM\xea\x03\x96@'
tRp2991
tp2992
a(S'YP_003047103.1'
p2993
g3
(g5
S'o\xfc\xd7=\x81\t\x96@'
tRp2994
tp2995
a(S'YP_003045915.1'
p2996
g3
(g5
S'\nI\xb4\xff(9\x96@'
tRp2997
tp2998
a(S'YP_003046856.1'
p2999
g3
(g5
S'#M\x8a\x9a[M\x96@'
tRp3000
tp3001
a(S'YP_003043408.1'
p3002
g3
(g5
S'\x9f\xd8\x9f=\xb0Y\x96@'
tRp3003
tp3004
a(S'YP_003045416.1'
p3005
g3
(g5
S'nWz\xa0)`\x96@'
tRp3006
tp3007
a(S'YP_003045237.1'
p3008
g3
(g5
S'\x16x\x90D\xb9w\x96@'
tRp3009
tp3010
a(S'YP_003044298.1'
p3011
g3
(g5
S'\xab\xe1I\x8a"\x89\x96@'
tRp3012
tp3013
a(S'YP_003043963.1'
p3014
g3
(g5
S'\x98\xc7\x10jj\x8b\x96@'
tRp3015
tp3016
a(S'YP_003045121.1'
p3017
g3
(g5
S'\x83\xf9\xce\xf2\x94\x8b\x96@'
tRp3018
tp3019
a(S'YP_003045595.1'
p3020
g3
(g5
S'\xbfe\xbcf\xa1\x96\x96@'
tRp3021
tp3022
a(S'YP_003044291.1'
p3023
g3
(g5
S'\xdd$\xd7\xbd\xf9\x9e\x96@'
tRp3024
tp3025
a(S'YP_003045582.1'
p3026
g3
(g5
S'd.\xb96A\xa8\x96@'
tRp3027
tp3028
a(S'YP_003043343.1'
p3029
g3
(g5
S'v\xd5\x9a\xcc\xe9\xb9\x96@'
tRp3030
tp3031
a(S'YP_003045429.1'
p3032
g3
(g5
S'\x92\xda~7p\xd6\x96@'
tRp3033
tp3034
a(S'YP_003044293.1'
p3035
g3
(g5
S'p\x12\x8c\xb6U\xe7\x96@'
tRp3036
tp3037
a(S'YP_003043619.1'
p3038
g3
(g5
S'o\xea\x006\xc5\xed\x96@'
tRp3039
tp3040
a(S'YP_003046638.1'
p3041
g3
(g5
S'\xcc2Y~j\xee\x96@'
tRp3042
tp3043
a(S'YP_003043560.1'
p3044
g3
(g5
S'\n\xb4\xb4\x1d\xf4"\x97@'
tRp3045
tp3046
a(S'YP_003045910.1'
p3047
g3
(g5
S'\x08\xc1xYo-\x97@'
tRp3048
tp3049
a(S'YP_003046912.1'
p3050
g3
(g5
S'\xbf>\xc4L\x12R\x97@'
tRp3051
tp3052
a(S'YP_003045790.1'
p3053
g3
(g5
S'\xdf2=\xa28z\x97@'
tRp3054
tp3055
a(S'YP_003045165.1'
p3056
g3
(g5
S'\\\x08\xe3\xda\xddz\x97@'
tRp3057
tp3058
a(S'YP_003046790.1'
p3059
g3
(g5
S'\xdc\xc4\xaf\xe6\xb1\xa7\x97@'
tRp3060
tp3061
a(S'YP_003045596.1'
p3062
g3
(g5
S'\xc9\xed\\q\xd1\xd9\x97@'
tRp3063
tp3064
a(S'YP_003043459.1'
p3065
g3
(g5
S'j\x8bP\xb0]\xf8\x97@'
tRp3066
tp3067
a(S'YP_003043328.1'
p3068
g3
(g5
S'\x0f\x06Xx\x80\xf9\x97@'
tRp3069
tp3070
a(S'YP_003043920.1'
p3071
g3
(g5
S'\xe2\x9em\x0c\x12\xfb\x97@'
tRp3072
tp3073
a(S'YP_003044449.1'
p3074
g3
(g5
S'B<\x1d\x1d\xc6\xfe\x97@'
tRp3075
tp3076
a(S'YP_003047058.1'
p3077
g3
(g5
S"\x123'\xc52\x04\x98@"
tRp3078
tp3079
a(S'YP_003044428.1'
p3080
g3
(g5
S'?\xdf\xb4:\x07"\x98@'
tRp3081
tp3082
a(S'YP_003046746.1'
p3083
g3
(g5
S'\x95\xc7:\x87;$\x98@'
tRp3084
tp3085
a(S'YP_003045401.1'
p3086
g3
(g5
S"{\xf7\xfe\xed\xa3'\x98@"
tRp3087
tp3088
a(S'YP_003043904.1'
p3089
g3
(g5
S'\xef<e\x8e\xa75\x98@'
tRp3090
tp3091
a(S'YP_003043611.1'
p3092
g3
(g5
S'k\xa5!\xf2o8\x98@'
tRp3093
tp3094
a(S'YP_003046298.1'
p3095
g3
(g5
S'\xbcK\xd0\x02\xcc8\x98@'
tRp3096
tp3097
a(S'YP_003045516.1'
p3098
g3
(g5
S'\xea\x83\xda\xf1\x019\x98@'
tRp3099
tp3100
a(S'YP_003043518.1'
p3101
g3
(g5
S'B t\x18&|\x98@'
tRp3102
tp3103
a(S'YP_003043640.1'
p3104
g3
(g5
S'\xa1|\xd3T\x05\x95\x98@'
tRp3105
tp3106
a(S'YP_003045694.1'
p3107
g3
(g5
S'\x90\x90\xbds\xa5\xb3\x98@'
tRp3108
tp3109
a(S'YP_003046833.1'
p3110
g3
(g5
S'\xe3\x169\xfd\xad\xc1\x98@'
tRp3111
tp3112
a(S'YP_003046585.1'
p3113
g3
(g5
S'\x9c\x15\xabJ>\xc3\x98@'
tRp3114
tp3115
a(S'YP_003045116.1'
p3116
g3
(g5
S'\xca\x1c\x05\xe0\xaa\xcc\x98@'
tRp3117
tp3118
a(S'YP_003047069.1'
p3119
g3
(g5
S'W\x08\x08+\xda\x16\x99@'
tRp3120
tp3121
a(S'YP_003045613.1'
p3122
g3
(g5
S'\xb8\xe7\xa7\x19\xad\x19\x99@'
tRp3123
tp3124
a(S'YP_003043698.1'
p3125
g3
(g5
S'\xac\x88\xe1mI$\x99@'
tRp3126
tp3127
a(S'YP_003046918.1'
p3128
g3
(g5
S'\x94$\xfb\xe9\xcd*\x99@'
tRp3129
tp3130
a(S'YP_003043615.1'
p3131
g3
(g5
S'2y\x825\xbfN\x99@'
tRp3132
tp3133
a(S'YP_003043395.1'
p3134
g3
(g5
S'\xe9#\x91\xeb>X\x99@'
tRp3135
tp3136
a(S'YP_003045141.1'
p3137
g3
(g5
S'\x954\x0b\xf0\xaaY\x99@'
tRp3138
tp3139
a(S'YP_003043905.1'
p3140
g3
(g5
S'\x8f\x81\xce\xee\xf1\x9b\x99@'
tRp3141
tp3142
a(S'YP_003043267.1'
p3143
g3
(g5
S'\xe8\x88\xf1\xfd[\xcf\x99@'
tRp3144
tp3145
a(S'YP_003044451.1'
p3146
g3
(g5
S'\xee\xb1\xf78\xcb\xd2\x99@'
tRp3147
tp3148
a(S'YP_003046825.1'
p3149
g3
(g5
S'kg\x9a0K\xf2\x99@'
tRp3150
tp3151
a(S'YP_003043362.1'
p3152
g3
(g5
S'[\xd0\xbb\xa1\xa6\xf3\x99@'
tRp3153
tp3154
a(S'YP_003047098.1'
p3155
g3
(g5
S'\xd2\xbdU\x1e\x1b\xf4\x99@'
tRp3156
tp3157
a(S'YP_003046648.1'
p3158
g3
(g5
S'\xbb\x87\xbb$\xce\xf4\x99@'
tRp3159
tp3160
a(S'YP_003044292.1'
p3161
g3
(g5
S'v\xbd\x1e\xa5U\xf5\x99@'
tRp3162
tp3163
a(S'YP_003044881.1'
p3164
g3
(g5
S'9\x99vN\x16\x05\x9a@'
tRp3165
tp3166
a(S'YP_003046422.1'
p3167
g3
(g5
S'\x04\xeb\xf3Q}*\x9a@'
tRp3168
tp3169
a(S'YP_003046237.1'
p3170
g3
(g5
S'\xf3[\xa2\xfb\xb78\x9a@'
tRp3171
tp3172
a(S'YP_003043669.1'
p3173
g3
(g5
S'\xa7L?wKo\x9a@'
tRp3174
tp3175
a(S'YP_003046584.1'
p3176
g3
(g5
S')\xad\xe5\xc0\xe7u\x9a@'
tRp3177
tp3178
a(S'YP_003046345.1'
p3179
g3
(g5
S'\xf1\xeb\xdc\x8bG~\x9a@'
tRp3180
tp3181
a(S'YP_003046592.1'
p3182
g3
(g5
S'N:\xc7E>\x8e\x9a@'
tRp3183
tp3184
a(S'YP_003043244.1'
p3185
g3
(g5
S'\xd2\xea\x030\xea\xa2\x9a@'
tRp3186
tp3187
a(S'YP_003044276.1'
p3188
g3
(g5
S'\xdd\xb4v\xb6\xc4\xc2\x9a@'
tRp3189
tp3190
a(S'YP_003046295.1'
p3191
g3
(g5
S'&\xe7\xeb\xcd\xdc\xcd\x9a@'
tRp3192
tp3193
a(S'YP_003044474.1'
p3194
g3
(g5
S'n\x0e\xc4\xad\x9c\xd4\x9a@'
tRp3195
tp3196
a(S'YP_003046645.1'
p3197
g3
(g5
S'\xfe\xf32\x9d\x97\x05\x9b@'
tRp3198
tp3199
a(S'YP_003045736.1'
p3200
g3
(g5
S'\xc4\xc0\x07\x96\x04\x0c\x9b@'
tRp3201
tp3202
a(S'YP_003043260.1'
p3203
g3
(g5
S'\x0cQ\x86\x87\xdc:\x9b@'
tRp3204
tp3205
a(S'YP_003044393.1'
p3206
g3
(g5
S'\xd2H\xe9\xcb8m\x9b@'
tRp3207
tp3208
a(S'YP_003045117.1'
p3209
g3
(g5
S'\xd9\xeb\n\xa6\x8cs\x9b@'
tRp3210
tp3211
a(S'YP_003043308.1'
p3212
g3
(g5
S'E\n]H\x93\x8c\x9b@'
tRp3213
tp3214
a(S'YP_003046315.1'
p3215
g3
(g5
S'?\xbdF\x00C\x94\x9b@'
tRp3216
tp3217
a(S'YP_003045123.1'
p3218
g3
(g5
S'7\x99\xaf\xd6]\x99\x9b@'
tRp3219
tp3220
a(S'YP_003045414.1'
p3221
g3
(g5
S'\x05V\xbe\xf2\x0f\xd7\x9b@'
tRp3222
tp3223
a(S'YP_003045791.1'
p3224
g3
(g5
S'6I\xf1"\xcb\xe2\x9b@'
tRp3225
tp3226
a(S'YP_003044111.1'
p3227
g3
(g5
S'\x18$\x90\x8bK\xff\x9b@'
tRp3228
tp3229
a(S'YP_003046225.1'
p3230
g3
(g5
S'\x11\xdc*\x83\x9d\x01\x9c@'
tRp3231
tp3232
a(S'YP_003043600.1'
p3233
g3
(g5
S'\x06\xb0-\xc8+\x10\x9c@'
tRp3234
tp3235
a(S'YP_003045508.1'
p3236
g3
(g5
S'\x1b\xc3]\xdfd\x17\x9c@'
tRp3237
tp3238
a(S'YP_003045417.1'
p3239
g3
(g5
S'\xeb_\xafH\x04\x19\x9c@'
tRp3240
tp3241
a(S'YP_003045559.1'
p3242
g3
(g5
S'&y"\x06$\x1d\x9c@'
tRp3243
tp3244
a(S'YP_003046803.1'
p3245
g3
(g5
S'\xa9\n\xbfD\x1e0\x9c@'
tRp3246
tp3247
a(S'YP_003045018.1'
p3248
g3
(g5
S'\xde\xa7m\x8e\x9c{\x9c@'
tRp3249
tp3250
a(S'YP_003045442.1'
p3251
g3
(g5
S'\x81\xf0\xac\x83@\x9f\x9c@'
tRp3252
tp3253
a(S'YP_003043650.1'
p3254
g3
(g5
S'B\xa64`\xd5\xa6\x9c@'
tRp3255
tp3256
a(S'YP_003044882.1'
p3257
g3
(g5
S'lkr\x1fZ\xd2\x9c@'
tRp3258
tp3259
a(S'YP_003047068.1'
p3260
g3
(g5
S'B\xc4\xab\xb4b\xd9\x9c@'
tRp3261
tp3262
a(S'YP_003044421.1'
p3263
g3
(g5
S'D\x02\xd8\xdd:\xea\x9c@'
tRp3264
tp3265
a(S'YP_003046221.1'
p3266
g3
(g5
S'\x1c\xe2\x0c.h\xff\x9c@'
tRp3267
tp3268
a(S'YP_003043651.1'
p3269
g3
(g5
S'\xba\xd3\xb9\xa5\x9d1\x9d@'
tRp3270
tp3271
a(S'YP_003044405.1'
p3272
g3
(g5
S'IZ\xcf\xcb\xdd@\x9d@'
tRp3273
tp3274
a(S'YP_003043888.1'
p3275
g3
(g5
S'\xbf\r\xa5>CR\x9d@'
tRp3276
tp3277
a(S'YP_003046989.1'
p3278
g3
(g5
S'\x89\x81[\x0f4Y\x9d@'
tRp3279
tp3280
a(S'YP_003045562.1'
p3281
g3
(g5
S'\x97Lk\xe5xY\x9d@'
tRp3282
tp3283
a(S'YP_003045607.1'
p3284
g3
(g5
S'\x1b\xcb\xb2\xde\x1fk\x9d@'
tRp3285
tp3286
a(S'YP_003046274.1'
p3287
g3
(g5
S'\x9c\xc8\xfc\xe5\x17\x7f\x9d@'
tRp3288
tp3289
a(S'YP_003043382.1'
p3290
g3
(g5
S'\xb7\x87\x9fjM\x94\x9d@'
tRp3291
tp3292
a(S'YP_003043999.1'
p3293
g3
(g5
S';\xbc\xa4\x05\x14\xa6\x9d@'
tRp3294
tp3295
a(S'YP_003046490.1'
p3296
g3
(g5
S'\xce\xf3\x82b\xa9\xda\x9d@'
tRp3297
tp3298
a(S'YP_003044999.1'
p3299
g3
(g5
S'\xa9\x92\xb2\xd4\x0b\xe8\x9d@'
tRp3300
tp3301
a(S'YP_003043399.1'
p3302
g3
(g5
S'>\xd0/\xbch\xfd\x9d@'
tRp3303
tp3304
a(S'YP_003045738.1'
p3305
g3
(g5
S'\x89Z\x83\xf4\x00\x0e\x9e@'
tRp3306
tp3307
a(S'YP_003044338.1'
p3308
g3
(g5
S'fm\xf6T\x03\x12\x9e@'
tRp3309
tp3310
a(S'YP_003046399.1'
p3311
g3
(g5
S'HZ\xe8u\xb4\x1d\x9e@'
tRp3312
tp3313
a(S'YP_003046420.1'
p3314
g3
(g5
S'\x19\xb9L\x0b\xbd$\x9e@'
tRp3315
tp3316
a(S'YP_003046230.1'
p3317
g3
(g5
S'|tl\xdb\xa4D\x9e@'
tRp3318
tp3319
a(S'YP_003045797.1'
p3320
g3
(g5
S'\nu\xfb\x830F\x9e@'
tRp3321
tp3322
a(S'YP_003045798.1'
p3323
g3
(g5
S'Q\xf6\xa2N\xb3\x80\x9e@'
tRp3324
tp3325
a(S'YP_003044125.1'
p3326
g3
(g5
S'g\x81\xaa\xd1\xe3\xb2\x9e@'
tRp3327
tp3328
a(S'YP_003046348.1'
p3329
g3
(g5
S'\xff\x13R \xa9\xd0\x9e@'
tRp3330
tp3331
a(S'YP_003043412.1'
p3332
g3
(g5
S'\xe1L\xf9\x00\x87\x00\x9f@'
tRp3333
tp3334
a(S'YP_003046299.1'
p3335
g3
(g5
S'$\x8c"1-\x02\x9f@'
tRp3336
tp3337
a(S'YP_003044086.1'
p3338
g3
(g5
S'\xf7#\x80\x86\x87\x19\x9f@'
tRp3339
tp3340
a(S'YP_003046216.1'
p3341
g3
(g5
S'\x92\x17\x858\x97\\\x9f@'
tRp3342
tp3343
a(S'YP_003045561.1'
p3344
g3
(g5
S'\xee\xaaO\xa3\xdcp\x9f@'
tRp3345
tp3346
a(S'YP_003044425.1'
p3347
g3
(g5
S'\x8b\xf5?\xf3\xf3s\x9f@'
tRp3348
tp3349
a(S'YP_003047078.1'
p3350
g3
(g5
S'a\xe61rW\x81\x9f@'
tRp3351
tp3352
a(S'YP_003044450.1'
p3353
g3
(g5
S'\xd1\xdf\xb0A+\x83\x9f@'
tRp3354
tp3355
a(S'YP_003047211.1'
p3356
g3
(g5
S'\xce\xd8P\xc0n\x87\x9f@'
tRp3357
tp3358
a(S'YP_003043926.1'
p3359
g3
(g5
S'\x9d\x00k\x86\xce\x9e\x9f@'
tRp3360
tp3361
a(S'YP_003044115.1'
p3362
g3
(g5
S'W,\xffXK\x9f\x9f@'
tRp3363
tp3364
a(S'YP_003045125.1'
p3365
g3
(g5
S'\x84K\x9f?\x02\xc6\x9f@'
tRp3366
tp3367
a(S'YP_003044083.1'
p3368
g3
(g5
S'\x86\xba\xbb\xf0T\xcc\x9f@'
tRp3369
tp3370
a(S'YP_003045351.1'
p3371
g3
(g5
S'9\x8aX\xafX\xe9\x9f@'
tRp3372
tp3373
a(S'YP_003043846.1'
p3374
g3
(g5
S'\xdf?z\xdd;\x07\xa0@'
tRp3375
tp3376
a(S'YP_003044430.1'
p3377
g3
(g5
S'\xa5\xf6\xf8\x03q\x12\xa0@'
tRp3378
tp3379
a(S'YP_003046259.1'
p3380
g3
(g5
S'\x00\x13 B\x89&\xa0@'
tRp3381
tp3382
a(S'YP_003046793.1'
p3383
g3
(g5
S'i\xd3\xa5\x00\xd62\xa0@'
tRp3384
tp3385
a(S'YP_003045684.1'
p3386
g3
(g5
S'JFfV\xb3<\xa0@'
tRp3387
tp3388
a(S'YP_003044907.1'
p3389
g3
(g5
S'\xf8\t\xa4\xc4zK\xa0@'
tRp3390
tp3391
a(S'YP_003043903.1'
p3392
g3
(g5
S't\xed\x94\x89g]\xa0@'
tRp3393
tp3394
a(S'YP_003044317.1'
p3395
g3
(g5
S'\xc0\xb90g\x13a\xa0@'
tRp3396
tp3397
a(S'YP_003045069.1'
p3398
g3
(g5
S'\x9c\xe1\xb0\xd1ne\xa0@'
tRp3399
tp3400
a(S'YP_003045122.1'
p3401
g3
(g5
S'\x19\x0b@=\x9as\xa0@'
tRp3402
tp3403
a(S'YP_003046892.1'
p3404
g3
(g5
S'\x87\xf3\xe1\xf2\xb4s\xa0@'
tRp3405
tp3406
a(S'YP_003044305.1'
p3407
g3
(g5
S'\xe9\x97\xb1U\xe9\x87\xa0@'
tRp3408
tp3409
a(S'YP_003043231.1'
p3410
g3
(g5
S'\xc2\x0c\x95Tb\x95\xa0@'
tRp3411
tp3412
a(S'YP_003045929.1'
p3413
g3
(g5
S'\xe5\xf6x\x1c\xc9\x96\xa0@'
tRp3414
tp3415
a(S'YP_003045580.1'
p3416
g3
(g5
S'o\xeaI\x9a\x88\x99\xa0@'
tRp3417
tp3418
a(S'YP_003046337.1'
p3419
g3
(g5
S'\xb9_Nq\xa7\xc2\xa0@'
tRp3420
tp3421
a(S'YP_003045563.1'
p3422
g3
(g5
S'\x83\x0f#d\xb3\xc5\xa0@'
tRp3423
tp3424
a(S'YP_003044946.1'
p3425
g3
(g5
S'Ee\xd6\xe1\x0e\xe5\xa0@'
tRp3426
tp3427
a(S'YP_003046338.1'
p3428
g3
(g5
S'\x1d3\x8f\xd9\xad\xe9\xa0@'
tRp3429
tp3430
a(S'YP_003045119.1'
p3431
g3
(g5
S'\xd2\x9a\xe7\xc0!\xf5\xa0@'
tRp3432
tp3433
a(S'YP_003044826.1'
p3434
g3
(g5
S'"\x9c^\x15\x15\x08\xa1@'
tRp3435
tp3436
a(S'YP_003044807.1'
p3437
g3
(g5
S'.g\xeclm\x0f\xa1@'
tRp3438
tp3439
a(S'YP_003043424.1'
p3440
g3
(g5
S'\xba\xe9\xab\xeej\x10\xa1@'
tRp3441
tp3442
a(S'YP_003046676.1'
p3443
g3
(g5
S'L\x01\x1aR\x10\x12\xa1@'
tRp3444
tp3445
a(S'YP_003043406.1'
p3446
g3
(g5
S'\x1b\xf9Uu\xb5\x17\xa1@'
tRp3447
tp3448
a(S'YP_003046453.1'
p3449
g3
(g5
S'\xbb\x1f\xba\xaf\xb21\xa1@'
tRp3450
tp3451
a(S'YP_003046092.1'
p3452
g3
(g5
S'\xbc\xf8\xaa.\xa7:\xa1@'
tRp3453
tp3454
a(S'YP_003046220.1'
p3455
g3
(g5
S'\xf4\xd7\xd6C\x88;\xa1@'
tRp3456
tp3457
a(S'YP_003043346.1'
p3458
g3
(g5
S'\xbf]\xd9\xd1j<\xa1@'
tRp3459
tp3460
a(S'YP_003047036.1'
p3461
g3
(g5
S'.l\xca\x184N\xa1@'
tRp3462
tp3463
a(S'YP_003044315.1'
p3464
g3
(g5
S'\x8a\x06(\x0f6|\xa1@'
tRp3465
tp3466
a(S'YP_003047055.1'
p3467
g3
(g5
S'\xc6%\xbd\x1ad\xaf\xa1@'
tRp3468
tp3469
a(S'YP_003043648.1'
p3470
g3
(g5
S'P\xe3\xeex\x80\xb3\xa1@'
tRp3471
tp3472
a(S'YP_003045611.1'
p3473
g3
(g5
S'm\x8aH\x15Q\xbd\xa1@'
tRp3474
tp3475
a(S'YP_003046732.1'
p3476
g3
(g5
S'k\x04"\x91\xf8\xbd\xa1@'
tRp3477
tp3478
a(S'YP_003046262.1'
p3479
g3
(g5
S'O\xb7&(\x14\xc9\xa1@'
tRp3480
tp3481
a(S'YP_003045679.1'
p3482
g3
(g5
S'\xcb\xb9\xd4\x96\xe1\xd6\xa1@'
tRp3483
tp3484
a(S'YP_003043918.1'
p3485
g3
(g5
S'\x97\xbfg[\x8a\x12\xa2@'
tRp3486
tp3487
a(S'YP_003046383.1'
p3488
g3
(g5
S'+\x9ab\xc4\xe4\x15\xa2@'
tRp3489
tp3490
a(S'YP_003046967.1'
p3491
g3
(g5
S'\xc1\xab\x8cL4)\xa2@'
tRp3492
tp3493
a(S'YP_003047056.1'
p3494
g3
(g5
S'\x1b\xef\x87r\xa1?\xa2@'
tRp3495
tp3496
a(S'YP_003047031.1'
p3497
g3
(g5
S'`\xc4\xc2\x8e\xd2?\xa2@'
tRp3498
tp3499
a(S'YP_003046263.1'
p3500
g3
(g5
S'\xe0\xf6:\xb0He\xa2@'
tRp3501
tp3502
a(S'YP_003044074.1'
p3503
g3
(g5
S'\x17\x85\xac\xb5\x80k\xa2@'
tRp3504
tp3505
a(S'YP_003043860.1'
p3506
g3
(g5
S'L\xdeM*\xbcy\xa2@'
tRp3507
tp3508
a(S'YP_003047295.1'
p3509
g3
(g5
S'\xbc\x9d?P\x84~\xa2@'
tRp3510
tp3511
a(S'YP_003045017.1'
p3512
g3
(g5
S'\xe8\xa3\x01n\xae\x86\xa2@'
tRp3513
tp3514
a(S'YP_003047214.1'
p3515
g3
(g5
S'`\x86~I\x87\x98\xa2@'
tRp3516
tp3517
a(S'YP_003045426.1'
p3518
g3
(g5
S'\x8f\x0c\x1f\xe7\xa7\xa8\xa2@'
tRp3519
tp3520
a(S'YP_003046223.1'
p3521
g3
(g5
S'\xff&MZ\x86\xb0\xa2@'
tRp3522
tp3523
a(S'YP_003043422.1'
p3524
g3
(g5
S')\xb9%8\xee\xc5\xa2@'
tRp3525
tp3526
a(S'YP_003045456.1'
p3527
g3
(g5
S'\xf7\x874\x91z\xe6\xa2@'
tRp3528
tp3529
a(S'YP_003045503.1'
p3530
g3
(g5
S'\x84QXd\xc6\x1c\xa3@'
tRp3531
tp3532
a(S'YP_003043446.1'
p3533
g3
(g5
S"\xaa>\x8a\xbf\x1b'\xa3@"
tRp3534
tp3535
a(S'YP_003046824.1'
p3536
g3
(g5
S'\x04\x05\x1aj\x95A\xa3@'
tRp3537
tp3538
a(S'YP_003044134.1'
p3539
g3
(g5
S'\xf4L\x18NMC\xa3@'
tRp3540
tp3541
a(S'YP_003047015.1'
p3542
g3
(g5
S'c|\x13<ZG\xa3@'
tRp3543
tp3544
a(S'YP_003043427.1'
p3545
g3
(g5
S'\xdd\xb6\x13+\xcdR\xa3@'
tRp3546
tp3547
a(S'YP_003046789.1'
p3548
g3
(g5
S'\x82n\xb7]"p\xa3@'
tRp3549
tp3550
a(S'YP_003046647.1'
p3551
g3
(g5
S'\x98\xbbb\xb6F\x9d\xa3@'
tRp3552
tp3553
a(S'YP_003046351.1'
p3554
g3
(g5
S'u\xaa\xbd]\xe9\x9d\xa3@'
tRp3555
tp3556
a(S'YP_003046809.1'
p3557
g3
(g5
S'\xee\x04\xcc\xaa\x9c\xad\xa3@'
tRp3558
tp3559
a(S'YP_003043743.1'
p3560
g3
(g5
S'\xf4`\x8a0\x8e\xb3\xa3@'
tRp3561
tp3562
a(S'YP_003047265.1'
p3563
g3
(g5
S'\xf8\x02\x84\xcf\x15\xd9\xa3@'
tRp3564
tp3565
a(S'YP_003043325.1'
p3566
g3
(g5
S'\x90F\xa5\xa5\xc0\xe7\xa3@'
tRp3567
tp3568
a(S'YP_003044302.1'
p3569
g3
(g5
S'N\x0c\x07\xac\x9b\x18\xa4@'
tRp3570
tp3571
a(S'YP_003043772.1'
p3572
g3
(g5
S';!\x85\xdfbG\xa4@'
tRp3573
tp3574
a(S'YP_003043407.1'
p3575
g3
(g5
S'\x17\x91\x08\x7f\xa2y\xa4@'
tRp3576
tp3577
a(S'YP_003046765.1'
p3578
g3
(g5
S'\x89uQ\xf9j\x89\xa4@'
tRp3579
tp3580
a(S'YP_003043393.1'
p3581
g3
(g5
S'\xc4b\xb78 \x8d\xa4@'
tRp3582
tp3583
a(S'YP_003047014.1'
p3584
g3
(g5
S'?\xe0nL\xa2\x8f\xa4@'
tRp3585
tp3586
a(S'YP_003043342.1'
p3587
g3
(g5
S'\x12\x90h08\xc1\xa4@'
tRp3588
tp3589
a(S'YP_003046275.1'
p3590
g3
(g5
S'x?\x9b?\x14\xd9\xa4@'
tRp3591
tp3592
a(S'YP_003046278.1'
p3593
g3
(g5
S'\x92\xa7\x160\x15\xfd\xa4@'
tRp3594
tp3595
a(S'YP_003043232.1'
p3596
g3
(g5
S'\xd9\x82w;O\x07\xa5@'
tRp3597
tp3598
a(S'YP_003045691.1'
p3599
g3
(g5
S'\xf0\x99\xb20\x0e\x12\xa5@'
tRp3600
tp3601
a(S'YP_003044476.1'
p3602
g3
(g5
S'_\xe3!\x95z\x12\xa5@'
tRp3603
tp3604
a(S'YP_003046649.1'
p3605
g3
(g5
S'\x9b\x08\x0c\xbaL\x18\xa5@'
tRp3606
tp3607
a(S'YP_003043821.1'
p3608
g3
(g5
S'\x80\x1a\xc3\x94h5\xa5@'
tRp3609
tp3610
a(S'YP_003047209.1'
p3611
g3
(g5
S'\xf9yG\x97\x87P\xa5@'
tRp3612
tp3613
a(S'YP_003043348.1'
p3614
g3
(g5
S'l\xfd%\xe7\xaaV\xa5@'
tRp3615
tp3616
a(S'YP_003045411.1'
p3617
g3
(g5
S'+\xa5\x04\xbcZ\x83\xa5@'
tRp3618
tp3619
a(S'YP_003047322.1'
p3620
g3
(g5
S'\xa4\xc0\x90\x97\xa2\x8d\xa5@'
tRp3621
tp3622
a(S'YP_003045440.1'
p3623
g3
(g5
S'\xd40\xfa\x9e\xa3\xa0\xa5@'
tRp3624
tp3625
a(S'YP_003044447.1'
p3626
g3
(g5
S'\x94\xa5\x11h/\xae\xa5@'
tRp3627
tp3628
a(S'YP_003046797.1'
p3629
g3
(g5
S'\x0c\xb4e\xb4\xfc\xc6\xa5@'
tRp3630
tp3631
a(S'YP_003043898.1'
p3632
g3
(g5
S'^k\xd2\xcf\xf1\xe2\xa5@'
tRp3633
tp3634
a(S'YP_003047018.1'
p3635
g3
(g5
S'_\xb0!\xb8\xbd\x07\xa6@'
tRp3636
tp3637
a(S'YP_003046812.1'
p3638
g3
(g5
S'\xdf\xfd\xc3K)\x1b\xa6@'
tRp3639
tp3640
a(S'YP_003046385.1'
p3641
g3
(g5
S'\xb4_\xb5\x1f`!\xa6@'
tRp3642
tp3643
a(S'YP_003047017.1'
p3644
g3
(g5
S'\x9e\xa0"\xb6\xe6h\xa6@'
tRp3645
tp3646
a(S'YP_003045560.1'
p3647
g3
(g5
S'M\xf5\xb5\xb6:\x88\xa6@'
tRp3648
tp3649
a(S'YP_003046818.1'
p3650
g3
(g5
S'\xb7\xada\x029\x8c\xa6@'
tRp3651
tp3652
a(S'YP_003046340.1'
p3653
g3
(g5
S'\xd2\xd8\xb7\x96\xb1\xa4\xa6@'
tRp3654
tp3655
a(S'YP_003046357.1'
p3656
g3
(g5
S':\xd1\xe3\x1d\xb3\xb7\xa6@'
tRp3657
tp3658
a(S'YP_003043901.1'
p3659
g3
(g5
S'yE\xbeG\xa2\xc4\xa6@'
tRp3660
tp3661
a(S'YP_003043842.1'
p3662
g3
(g5
S'U\x7f\x8f\x95\xe0\xdc\xa6@'
tRp3663
tp3664
a(S'YP_003044150.1'
p3665
g3
(g5
S'R\xc07i\xc2\x0f\xa7@'
tRp3666
tp3667
a(S'YP_003045639.1'
p3668
g3
(g5
S'\xe5o\xfeC_g\xa7@'
tRp3669
tp3670
a(S'YP_003043237.1'
p3671
g3
(g5
S'j\xf6\x82\xcc\xf5\xb8\xa7@'
tRp3672
tp3673
a(S'YP_003047037.1'
p3674
g3
(g5
S'\x9ep\xd2\xd4x\xc5\xa7@'
tRp3675
tp3676
a(S'YP_003043919.1'
p3677
g3
(g5
S'\x1eb\xfe\xa6\xc0\xd3\xa7@'
tRp3678
tp3679
a(S'YP_003045933.1'
p3680
g3
(g5
S'\xfd\xe0\xd6\x0e!\xd9\xa7@'
tRp3681
tp3682
a(S'YP_003044129.1'
p3683
g3
(g5
S'd\xd6n6\\\x07\xa8@'
tRp3684
tp3685
a(S'YP_003047000.1'
p3686
g3
(g5
S'^\x06\x01\x87\xc8*\xa8@'
tRp3687
tp3688
a(S'YP_003043389.1'
p3689
g3
(g5
S'h\x02\xce p\x91\xa8@'
tRp3690
tp3691
a(S'YP_003044284.1'
p3692
g3
(g5
S'v\xba\x9b\xd2\xc8"\xa9@'
tRp3693
tp3694
a(S'YP_003044448.1'
p3695
g3
(g5
S'>$b&\x81:\xa9@'
tRp3696
tp3697
a(S'YP_003046827.1'
p3698
g3
(g5
S'\xd7;\xf6a\xb3D\xa9@'
tRp3699
tp3700
a(S'YP_003044106.1'
p3701
g3
(g5
S'\x91\x04zz{T\xa9@'
tRp3702
tp3703
a(S'YP_003046587.1'
p3704
g3
(g5
S'7k\x04^\xb0w\xa9@'
tRp3705
tp3706
a(S'YP_003046795.1'
p3707
g3
(g5
S'c\xb6\xe7\xbb\x1a\x86\xa9@'
tRp3708
tp3709
a(S'YP_003046835.1'
p3710
g3
(g5
S'\xe904\xc5\x0c\x9d\xa9@'
tRp3711
tp3712
a(S'YP_003046395.1'
p3713
g3
(g5
S'\x86\xd0n\x17\x1e\x9e\xa9@'
tRp3714
tp3715
a(S'YP_003046576.1'
p3716
g3
(g5
S"\xd7\xde\r\xda'\xad\xa9@"
tRp3717
tp3718
a(S'YP_003046342.1'
p3719
g3
(g5
S'\x02h\x97\xf4\xbd\xfd\xa9@'
tRp3720
tp3721
a(S'YP_003046349.1'
p3722
g3
(g5
S'\x8a"+d\xd9\x01\xaa@'
tRp3723
tp3724
a(S'YP_003043906.1'
p3725
g3
(g5
S'\xaf\xa1\x1a\x97\xd4!\xaa@'
tRp3726
tp3727
a(S'YP_003045413.1'
p3728
g3
(g5
S'\xb5\x8ax,\x0eK\xaa@'
tRp3729
tp3730
a(S'YP_003044772.1'
p3731
g3
(g5
S'qP=\xe0\x1bL\xaa@'
tRp3732
tp3733
a(S'YP_003044285.1'
p3734
g3
(g5
S'\xc3\xb8y\x9e\xe0[\xaa@'
tRp3735
tp3736
a(S'YP_003047184.1'
p3737
g3
(g5
S'\x06uS< \x95\xaa@'
tRp3738
tp3739
a(S'YP_003045581.1'
p3740
g3
(g5
S'\x14\xa5<\xd0\x9c\x8f\xab@'
tRp3741
tp3742
a(S'YP_003045953.1'
p3743
g3
(g5
S'\xdct\x9f\x0c\x8a\xc7\xab@'
tRp3744
tp3745
a(S'YP_003043618.1'
p3746
g3
(g5
S'\xed$q\x91\xe1\xc9\xab@'
tRp3747
tp3748
a(S'YP_003043986.1'
p3749
g3
(g5
S'\x0f\x0c\xdf1;%\xac@'
tRp3750
tp3751
a(S'YP_003043827.1'
p3752
g3
(g5
S'\xdf\xa61\x9d\x138\xac@'
tRp3753
tp3754
a(S'YP_003043305.1'
p3755
g3
(g5
S'\xda\xd0\x86\xac\xc2\x91\xac@'
tRp3756
tp3757
a(S'YP_003045402.1'
p3758
g3
(g5
S'K\xf1)\xcf+\xac\xac@'
tRp3759
tp3760
a(S'YP_003045507.1'
p3761
g3
(g5
S'4\xc7\xe2\xd9s\xef\xac@'
tRp3762
tp3763
a(S'YP_003044130.1'
p3764
g3
(g5
S'\t]\xb6\x14h\x15\xad@'
tRp3765
tp3766
a(S'YP_003046794.1'
p3767
g3
(g5
S'\xb8\x07\xe0\xf0\x8c6\xad@'
tRp3768
tp3769
a(S'YP_003043859.1'
p3770
g3
(g5
S'\x96\x04^S\xd99\xad@'
tRp3771
tp3772
a(S'YP_003046355.1'
p3773
g3
(g5
S'\x12*[\xd9d\xf6\xad@'
tRp3774
tp3775
a(S'YP_003046341.1'
p3776
g3
(g5
S'\xc4\x9awq\x1aG\xae@'
tRp3777
tp3778
a(S'YP_003046333.1'
p3779
g3
(g5
S'?\xa1\xee\xc7\x97U\xae@'
tRp3780
tp3781
a(S'YP_003045308.1'
p3782
g3
(g5
S';\xd9\xa0\xdb\xc5U\xaf@'
tRp3783
tp3784
a(S'YP_003043614.1'
p3785
g3
(g5
S'YU4j\xfdn\xaf@'
tRp3786
tp3787
a(S'YP_003044306.1'
p3788
g3
(g5
S'\xcb\x8b\tK\xd2z\xaf@'
tRp3789
tp3790
a(S'YP_003044886.1'
p3791
g3
(g5
S'\xca\x00\x18y;\xb0\xaf@'
tRp3792
tp3793
a(S'YP_003043701.1'
p3794
g3
(g5
S'\x80\x9b\x01\xd6]\xb3\xaf@'
tRp3795
tp3796
a(S'YP_003046929.1'
p3797
g3
(g5
S'\xf8\x1d\xf8{F\x02\xb0@'
tRp3798
tp3799
a(S'YP_003047016.1'
p3800
g3
(g5
S'\xe4C\xbfx"\x0e\xb0@'
tRp3801
tp3802
a(S'YP_003046377.1'
p3803
g3
(g5
S'\xe2-,`N\x13\xb0@'
tRp3804
tp3805
a(S'YP_003044179.1'
p3806
g3
(g5
S'R\xf39\x85\x90M\xb0@'
tRp3807
tp3808
a(S'YP_003046685.1'
p3809
g3
(g5
S'6s0\xd9NV\xb0@'
tRp3810
tp3811
a(S'YP_003043425.1'
p3812
g3
(g5
S'\xfdH\x1e\xf5\xb5p\xb0@'
tRp3813
tp3814
a(S'YP_003044308.1'
p3815
g3
(g5
S'\xa15\xd3\xd9^{\xb0@'
tRp3816
tp3817
a(S'YP_003044289.1'
p3818
g3
(g5
S'\xfb`P\xe86\x8b\xb0@'
tRp3819
tp3820
a(S'YP_003047034.1'
p3821
g3
(g5
S'\xd6\xe8\xd5G\x8a\xa1\xb0@'
tRp3822
tp3823
a(S'YP_003043699.1'
p3824
g3
(g5
S'\xf8\x12T\xa5\xfe\xc3\xb0@'
tRp3825
tp3826
a(S'YP_003046468.1'
p3827
g3
(g5
S'\x0c\x17W8\x02\xdd\xb0@'
tRp3828
tp3829
a(S'YP_003046526.1'
p3830
g3
(g5
S'\x8a\xf5\xc1\xe7\x1e\xe7\xb0@'
tRp3831
tp3832
a(S'YP_003044110.1'
p3833
g3
(g5
S'\x05^\xb7a6\x08\xb1@'
tRp3834
tp3835
a(S'YP_003043613.1'
p3836
g3
(g5
S't2\xdd\x81\xdd \xb1@'
tRp3837
tp3838
a(S'YP_003043266.1'
p3839
g3
(g5
S'cib\x15\x95-\xb1@'
tRp3840
tp3841
a(S'YP_003044133.1'
p3842
g3
(g5
S'\xb4D\x07\xa9Nn\xb1@'
tRp3843
tp3844
a(S'YP_003043925.1'
p3845
g3
(g5
S'\x8e7:o\x8ao\xb1@'
tRp3846
tp3847
a(S'YP_003045590.1'
p3848
g3
(g5
S'\xe8_f\xcc\xfb\x87\xb1@'
tRp3849
tp3850
a(S'YP_003046791.1'
p3851
g3
(g5
S'\x96\x08|\\2\x91\xb1@'
tRp3852
tp3853
a(S'YP_003044927.1'
p3854
g3
(g5
S'(x8\xd8L\x9a\xb1@'
tRp3855
tp3856
a(S'YP_003046304.1'
p3857
g3
(g5
S'.\x00\x12\x98\xe1,\xb2@'
tRp3858
tp3859
a(S'YP_003047032.1'
p3860
g3
(g5
S'\xb0s\x17\xf0\xb02\xb2@'
tRp3861
tp3862
a(S'YP_003046672.1'
p3863
g3
(g5
S'\xfe\xb1\xd9\x16\xdb[\xb2@'
tRp3864
tp3865
a(S'YP_003046347.1'
p3866
g3
(g5
S'\x89&\x16\x0b|f\xb2@'
tRp3867
tp3868
a(S'YP_003043359.1'
p3869
g3
(g5
S'\xe0\x80\xcbJ6\x7f\xb2@'
tRp3870
tp3871
a(S'YP_003044290.1'
p3872
g3
(g5
S'\t\xa5\xf1\x11X\x88\xb2@'
tRp3873
tp3874
a(S'YP_003045600.1'
p3875
g3
(g5
S'\xaag\x9d\x18\xb2\x9d\xb2@'
tRp3876
tp3877
a(S'YP_003046004.1'
p3878
g3
(g5
S'\x910\x14\xc8\x02\xa6\xb2@'
tRp3879
tp3880
a(S'YP_003047239.1'
p3881
g3
(g5
S'\x81\x14e\x01\x10\xa9\xb2@'
tRp3882
tp3883
a(S'YP_003044811.1'
p3884
g3
(g5
S'\xab\xec\xff<\xf0\xe1\xb2@'
tRp3885
tp3886
a(S'YP_003044512.1'
p3887
g3
(g5
S'A \xa5>9\x06\xb3@'
tRp3888
tp3889
a(S'YP_003045687.1'
p3890
g3
(g5
S'=~\x12R\xe6.\xb3@'
tRp3891
tp3892
a(S'YP_003046281.1'
p3893
g3
(g5
S'\xb4\xb7\xc2\xb2\xe2\x89\xb3@'
tRp3894
tp3895
a(S'YP_003044426.1'
p3896
g3
(g5
S'\\\xef\\J-\xb0\xb3@'
tRp3897
tp3898
a(S'YP_003047050.1'
p3899
g3
(g5
S'N\n\xd9\xde\x02\xc0\xb3@'
tRp3900
tp3901
a(S'YP_003043795.1'
p3902
g3
(g5
S'\xac]z\xde\x93|\xb4@'
tRp3903
tp3904
a(S'YP_003045275.1'
p3905
g3
(g5
S"iyd'3\xba\xb4@"
tRp3906
tp3907
a(S'YP_003045109.1'
p3908
g3
(g5
S'\xdb\xdd\xc6\xdew\xcc\xb4@'
tRp3909
tp3910
a(S'YP_003046353.1'
p3911
g3
(g5
S'%!\x19\x11\xf8\xda\xb4@'
tRp3912
tp3913
a(S'YP_003043302.1'
p3914
g3
(g5
S'\xb9\x03\xfc1}\x1f\xb5@'
tRp3915
tp3916
a(S'YP_003043304.1'
p3917
g3
(g5
S'sC\xdb\xe75\x84\xb5@'
tRp3918
tp3919
a(S'YP_003043303.1'
p3920
g3
(g5
S'\xdc1\xb3\xbd\xca\x85\xb5@'
tRp3921
tp3922
a(S'YP_003043233.1'
p3923
g3
(g5
S'0\xa4\n:\x00\xa7\xb5@'
tRp3924
tp3925
a(S'YP_003045104.1'
p3926
g3
(g5
S'K\xf2$0\xaa\xdd\xb5@'
tRp3927
tp3928
a(S'YP_003046217.1'
p3929
g3
(g5
S'o=\x15\x87\x16"\xb6@'
tRp3930
tp3931
a(S'YP_003046343.1'
p3932
g3
(g5
S'N\xba \x7f\xcb)\xb6@'
tRp3933
tp3934
a(S'YP_003046796.1'
p3935
g3
(g5
S'\xda\x01A\xaa\x91K\xb6@'
tRp3936
tp3937
a(S'YP_003045960.1'
p3938
g3
(g5
S'\r\x11 \x08\xf3n\xb6@'
tRp3939
tp3940
a(S'YP_003043243.1'
p3941
g3
(g5
S'\x1f \xed\x13\xf5\xb0\xb6@'
tRp3942
tp3943
a(S'YP_003043373.1'
p3944
g3
(g5
S'\x0c\xf4\x7ff\xcb\xda\xb6@'
tRp3945
tp3946
a(S'YP_003043396.1'
p3947
g3
(g5
S'\xc32\x18v\xfeG\xb7@'
tRp3948
tp3949
a(S'YP_003045945.1'
p3950
g3
(g5
S'\xac~\xa8\x7f\x89w\xb7@'
tRp3951
tp3952
a(S'YP_003046792.1'
p3953
g3
(g5
S'\x8c\xc7;^\xdcw\xb7@'
tRp3954
tp3955
a(S'YP_003047033.1'
p3956
g3
(g5
S's\xfe*\xde"\x9b\xb7@'
tRp3957
tp3958
a(S'YP_003046346.1'
p3959
g3
(g5
S'kw\x9f\x85i\xe1\xb7@'
tRp3960
tp3961
a(S'YP_003045944.1'
p3962
g3
(g5
S'\x80\x06\xe4L\xae\xf2\xb7@'
tRp3963
tp3964
a(S'YP_003045932.1'
p3965
g3
(g5
S'\xcfS}1\xf5\xff\xb7@'
tRp3966
tp3967
a(S'YP_003046350.1'
p3968
g3
(g5
S"X'\xdf\x04\x17D\xb8@"
tRp3969
tp3970
a(S'YP_003046331.1'
p3971
g3
(g5
S'\x86\x0f\x98\xef."\xb9@'
tRp3972
tp3973
a(S'YP_003045633.1'
p3974
g3
(g5
S'\xb2\x94\x16\xe7n(\xb9@'
tRp3975
tp3976
a(S'YP_003046378.1'
p3977
g3
(g5
S'H\x8b\xc3q\x9b\\\xb9@'
tRp3978
tp3979
a(S'YP_003046492.1'
p3980
g3
(g5
S'\x17\xb1V&k\x83\xb9@'
tRp3981
tp3982
a(S'YP_003044152.1'
p3983
g3
(g5
S'\xcdp\xd3\x9c*$\xbb@'
tRp3984
tp3985
a(S'YP_003043581.1'
p3986
g3
(g5
S'\xc0~^^\xb6\x1a\xbc@'
tRp3987
tp3988
a(S'YP_003046344.1'
p3989
g3
(g5
S'\x03+\x0c\xe0iZ\xbc@'
tRp3990
tp3991
a(S'YP_003047237.1'
p3992
g3
(g5
S'\xd3,\x04{B1\xbd@'
tRp3993
tp3994
a(S'YP_003046376.1'
p3995
g3
(g5
S'\x13\xc1&\x1c\x8a\xad\xbf@'
tRp3996
tp3997
a(S'YP_003046352.1'
p3998
g3
(g5
S'\xad&\xc1k\xb4`\xc0@'
tRp3999
tp4000
a(S'YP_003046882.1'
p4001
g3
(g5
S'*\xc9\x81N3\x90\xc0@'
tRp4002
tp4003
a(S'YP_003046977.1'
p4004
g3
(g5
S'\xb9\xb6\x93\xc9j\xbe\xc0@'
tRp4005
tp4006
a(S'YP_003047240.1'
p4007
g3
(g5
S'\xbd\xed\xa6U<"\xc1@'
tRp4008
tp4009
a(S'YP_003045506.1'
p4010
g3
(g5
S'\xa2!k%Cn\xc1@'
tRp4011
tp4012
a(S'YP_003044309.1'
p4013
g3
(g5
S'\x0b\xb1E\xc9\xa1t\xc1@'
tRp4014
tp4015
a(S'YP_003045813.1'
p4016
g3
(g5
S'{ua]\x86\x04\xc2@'
tRp4017
tp4018
a(S'YP_003043397.1'
p4019
g3
(g5
S'\n\xf4j\x85\x1ca\xc2@'
tRp4020
tp4021
a(S'YP_003046334.1'
p4022
g3
(g5
S'=\x9d\xee\x0f\xeb\xb4\xc2@'
tRp4023
tp4024
a(S'YP_003043609.1'
p4025
g3
(g5
S'(C\xd6\xb0\x05\xfb\xc2@'
tRp4026
tp4027
a(S'YP_003046823.1'
p4028
g3
(g5
S'\x8b=xf\x05+\xc3@'
tRp4029
tp4030
a(S'YP_003046332.1'
p4031
g3
(g5
S'\xfe\xe9\x8b\x8e\x85@\xc5@'
tRp4032
tp4033
a(S'YP_003044438.1'
p4034
g3
(g5
S'0\xfd\x9b#T\x17\xc7@'
tRp4035
tp4036
a(S'YP_003043257.1'
p4037
g3
(g5
S'\x7f\x9b\xa9z\xcf(\xc7@'
tRp4038
tp4039
a(S'YP_003044303.1'
p4040
g3
(g5
S'6\xef\x1f\xcd\xf3O\xc8@'
tRp4041
tp4042
a(S'YP_003045505.1'
p4043
g3
(g5
S'\xd3\xd6\xecl\x81\xcc\xc8@'
tRp4044
tp4045
a(S'YP_003044945.1'
p4046
g3
(g5
S'\xe7#\x89\xf2\xa4\x1a\xce@'
tRp4047
tp4048
a(S'YP_003046994.1'
p4049
g3
(g5
S'\x9b`L\xccY\x93\xd0@'
tRp4050
tp4051
a(S'YP_003046339.1'
p4052
g3
(g5
S'\xae\xd2\xb0\xca+\x1b\xd1@'
tRp4053
tp4054
a(S'YP_003044990.1'
p4055
g3
(g5
S'\x1d\xb3R\x01~?\xd1@'
tRp4056
tp4057
a(S'YP_003047035.1'
p4058
g3
(g5
S'\x14\x91\xdb\xd4\xcd\xca\xd1@'
tRp4059
tp4060
a(S'YP_003047029.1'
p4061
g3
(g5
S'D0})V\xfc\xd3@'
tRp4062
tp4063
a(S'YP_003046375.1'
p4064
g3
(g5
S'\x8b\xc6\x83n\xdb\xef\xd6@'
tRp4065
tp4066
a.