(lp1
(S'YP_003044417.1'
p2
cnumpy.core.multiarray
scalar
p3
(cnumpy
dtype
p4
(S'f8'
I0
I1
tRp5
(I3
S'<'
NNNI-1
I-1
I0
tbS'\x85\x82\xb9\xd7\xb3\x05\x14@'
tRp6
tp7
a(S'YP_003043984.1'
p8
g3
(g5
S'\x89pf!\xccY\x1a@'
tRp9
tp10
a(S'YP_003044634.1'
p11
g3
(g5
S'\xd4\x95&i\xb9\x03\x1e@'
tRp12
tp13
a(S'YP_003044823.1'
p14
g3
(g5
S'\xbdTE\x99\xb3/\x1e@'
tRp15
tp16
a(S'YP_003047009.1'
p17
g3
(g5
S'\x81\xd6\xe0\xeb\x94\x99\x1f@'
tRp18
tp19
a(S'YP_003045899.1'
p20
g3
(g5
S'\xf4\xb1\xff?\xe8\xd9\x1f@'
tRp21
tp22
a(S'YP_003046374.1'
p23
g3
(g5
S'\x1f1zu\xe5\x9c @'
tRp24
tp25
a(S'YP_003045239.1'
p26
g3
(g5
S'4y\xe7$\xbb\x87!@'
tRp27
tp28
a(S'YP_003046514.1'
p29
g3
(g5
S'\xa8V\xb6R\xff\xb0!@'
tRp30
tp31
a(S'YP_003045167.1'
p32
g3
(g5
S'\xcf\xc7\x82.\x10\xc5!@'
tRp33
tp34
a(S'YP_003043617.1'
p35
g3
(g5
S'\x90\x12P \xed\xe4"@'
tRp36
tp37
a(S'YP_003043708.1'
p38
g3
(g5
S'\xa1d\xae\xb8\x0f-#@'
tRp39
tp40
a(S'YP_003045471.1'
p41
g3
(g5
S'\xc7?S\x92\x1e4#@'
tRp42
tp43
a(S'YP_003044194.1'
p44
g3
(g5
S'\x19\xe2DY*\x81#@'
tRp45
tp46
a(S'YP_003045887.1'
p47
g3
(g5
S'zG\xb6A\xc1N$@'
tRp48
tp49
a(S'YP_003044498.1'
p50
g3
(g5
S'\xc6\xa3\x98\xa5"\xd0%@'
tRp51
tp52
a(S'YP_003047061.1'
p53
g3
(g5
S'\xb1)\x04bi\xf6%@'
tRp54
tp55
a(S'YP_003047113.1'
p56
g3
(g5
S'y\x06\xc8t\xd4\x84&@'
tRp57
tp58
a(S'YP_003045299.1'
p59
g3
(g5
S'\xa2\xcd\x02%L\xb7&@'
tRp60
tp61
a(S'YP_003045755.1'
p62
g3
(g5
S"\x18\xce\\\x8c7\xd5'@"
tRp63
tp64
a(S'YP_003043736.1'
p65
g3
(g5
S'e\x1ev,\xff\x14(@'
tRp66
tp67
a(S'YP_003044391.1'
p68
g3
(g5
S'\xf2\x90\xf0\xca\xce\xa5(@'
tRp69
tp70
a(S'YP_003045693.1'
p71
g3
(g5
S'Sm\xcetc\xba)@'
tRp72
tp73
a(S'YP_003046077.1'
p74
g3
(g5
S',\xf8\x8c%\xdf\x92*@'
tRp75
tp76
a(S'YP_003045300.1'
p77
g3
(g5
S'\xb4\x95\xa3\xdcC\xea*@'
tRp78
tp79
a(S'YP_003045856.1'
p80
g3
(g5
S'y1\xdf\x95\xaf\xf5*@'
tRp81
tp82
a(S'YP_003043673.1'
p83
g3
(g5
S'\xb26\xcb\xcb9\xbf+@'
tRp84
tp85
a(S'YP_003047006.1'
p86
g3
(g5
S'm\xa7\xf4\xa2\x7f\xf1,@'
tRp87
tp88
a(S'YP_003043979.1'
p89
g3
(g5
S'n\x0f\xff\xae\xa3Y-@'
tRp90
tp91
a(S'YP_003046146.1'
p92
g3
(g5
S'=\x9d@\x85\xb3u-@'
tRp93
tp94
a(S'YP_003046549.1'
p95
g3
(g5
S'\x13Po\x93\x87\xd5.@'
tRp96
tp97
a(S'YP_003045013.1'
p98
g3
(g5
S'\xe6\xd6\x99\t5$/@'
tRp99
tp100
a(S'YP_003047266.1'
p101
g3
(g5
S'}\x0c\xde\x03\x06\xa50@'
tRp102
tp103
a(S'YP_003046195.1'
p104
g3
(g5
S'\x82/\xd0\xd0\xd6\xca0@'
tRp105
tp106
a(S'YP_003043871.1'
p107
g3
(g5
S'\x1aF\xc2\xce\xcd\xe90@'
tRp108
tp109
a(S'YP_003045631.1'
p110
g3
(g5
S'\xc7\x10\xca\xd4\x97\x132@'
tRp111
tp112
a(S'YP_003045107.1'
p113
g3
(g5
S'\xdc\x1a\x8b*T62@'
tRp114
tp115
a(S'YP_003045075.1'
p116
g3
(g5
S'\x1f\xf5\xb6V\x9ek2@'
tRp117
tp118
a(S'YP_003046729.1'
p119
g3
(g5
S'\xddm4\xc8\xc4\xc43@'
tRp120
tp121
a(S'YP_003045458.1'
p122
g3
(g5
S"\x19\x8c,'\xdd\x075@"
tRp123
tp124
a(S'YP_003047223.1'
p125
g3
(g5
S'\xc4\xf4\xb6\xda\xdc\xb75@'
tRp126
tp127
a(S'YP_003044537.1'
p128
g3
(g5
S'\xed\xb5h\x98\x8b36@'
tRp129
tp130
a(S'YP_003043445.1'
p131
g3
(g5
S'\xc9\xe9B3\xd4\xa46@'
tRp132
tp133
a(S'YP_003044378.1'
p134
g3
(g5
S'5\xda\xa86\x06m7@'
tRp135
tp136
a(S'YP_003046781.1'
p137
g3
(g5
S'-\xd9\x15[\xaaq7@'
tRp138
tp139
a(S'YP_003043692.1'
p140
g3
(g5
S'\xd7\xfe\xae1\x90\xcb7@'
tRp141
tp142
a(S'YP_003046910.1'
p143
g3
(g5
S'7\x83\r\xeb\x92{8@'
tRp144
tp145
a(S'YP_003045721.1'
p146
g3
(g5
S'&\x02\xf4L;\x928@'
tRp147
tp148
a(S'YP_003045049.1'
p149
g3
(g5
S'\x92\xa3J\xa8\x14S:@'
tRp150
tp151
a(S'YP_003046166.1'
p152
g3
(g5
S'\x0f\xbf\xd7\xd6\xd0\xce:@'
tRp153
tp154
a(S'YP_003047244.1'
p155
g3
(g5
S'\xa1\xd3O\x0f\x97\xf2:@'
tRp156
tp157
a(S'YP_003044563.1'
p158
g3
(g5
S'\xd3\x89G\xe1\xb9\r<@'
tRp159
tp160
a(S'YP_003043593.1'
p161
g3
(g5
S'\xaa\xee\xe3\xd9;v=@'
tRp162
tp163
a(S'YP_003044981.1'
p164
g3
(g5
S'\xc3*9r\xd4\x82=@'
tRp165
tp166
a(S'YP_003043934.1'
p167
g3
(g5
S'\x0f\xb2\x0fq\xa3$>@'
tRp168
tp169
a(S'YP_003046416.1'
p170
g3
(g5
S'#\x13s\x85\xbc\xc2?@'
tRp171
tp172
a(S'YP_003045326.1'
p173
g3
(g5
S'gi\xf3x7"@@'
tRp174
tp175
a(S'YP_003046551.1'
p176
g3
(g5
S'\xccm\xf4(\xf5\xdf@@'
tRp177
tp178
a(S'YP_003044092.1'
p179
g3
(g5
S'ja\xb4m\x84\x82A@'
tRp180
tp181
a(S'YP_003046759.1'
p182
g3
(g5
S'\x06E\x84\x9b\xa4\xb4A@'
tRp183
tp184
a(S'YP_003045981.1'
p185
g3
(g5
S'\xf9\x97\xb8\x89Y\xe6A@'
tRp186
tp187
a(S'YP_003046667.1'
p188
g3
(g5
S'\x9b\x03\x916[\x0cB@'
tRp189
tp190
a(S'YP_003044099.1'
p191
g3
(g5
S'\xc6w\x05\xfc\xcf\x9aB@'
tRp192
tp193
a(S'YP_003043527.1'
p194
g3
(g5
S"'\x81Qj\xeb<C@"
tRp195
tp196
a(S'YP_003043977.1'
p197
g3
(g5
S'\xa0M6\xe1\xd7=C@'
tRp198
tp199
a(S'YP_003046726.1'
p200
g3
(g5
S'\x9b\xf7\xc7Y\n\xdcC@'
tRp201
tp202
a(S'YP_003046461.1'
p203
g3
(g5
S'\rz\xb3KJ\tD@'
tRp204
tp205
a(S'YP_003044607.1'
p206
g3
(g5
S'Vv]\xce#<D@'
tRp207
tp208
a(S'YP_003043385.1'
p209
g3
(g5
S'\xbe\xb5:=C_D@'
tRp210
tp211
a(S'YP_003047374.1'
p212
g3
(g5
S'iE.\x01\xe7vD@'
tRp213
tp214
a(S'YP_003046911.1'
p215
g3
(g5
S'K\x1b?_f\xebD@'
tRp216
tp217
a(S'YP_003046394.1'
p218
g3
(g5
S"$\x9c\xd5\t\xa0'E@"
tRp219
tp220
a(S'YP_003043631.1'
p221
g3
(g5
S'\x88\x18\x917+FE@'
tRp222
tp223
a(S'YP_003044687.1'
p224
g3
(g5
S'\x9bZ\xce\x15NHE@'
tRp225
tp226
a(S'YP_003044791.1'
p227
g3
(g5
S'x\xc3\x1d\xb2VbE@'
tRp228
tp229
a(S'YP_003043989.1'
p230
g3
(g5
S'\xe1\xf3\xcf|{cE@'
tRp231
tp232
a(S'YP_003044102.1'
p233
g3
(g5
S'\xb0U\xf2qp\xebE@'
tRp234
tp235
a(S'YP_003047288.1'
p236
g3
(g5
S'\xa6\xde\x81\x17b\x18F@'
tRp237
tp238
a(S'YP_003047251.1'
p239
g3
(g5
S'\x15\x98\x94\xfeU0F@'
tRp240
tp241
a(S'YP_003044094.1'
p242
g3
(g5
S'\x85\xca`E8@F@'
tRp243
tp244
a(S'YP_003045855.1'
p245
g3
(g5
S'\xcd\xec5o|[F@'
tRp246
tp247
a(S'YP_003046127.1'
p248
g3
(g5
S"'\xf2\x91\x81\xc9\xa2F@"
tRp249
tp250
a(S'YP_003044335.1'
p251
g3
(g5
S'\xbb\xa0\xb2_@\xc7F@'
tRp252
tp253
a(S'YP_003045065.1'
p254
g3
(g5
S'\xe1\xaa{\xa6\xaf\x10G@'
tRp255
tp256
a(S'YP_003046459.1'
p257
g3
(g5
S'\x1c\xbe\x8b\x92g\xd5G@'
tRp258
tp259
a(S'YP_003044763.1'
p260
g3
(g5
S'\x05\xcc\xde\xbb\xe9\xebG@'
tRp261
tp262
a(S'YP_003045534.1'
p263
g3
(g5
S'\xc0i\x91!\xfc\x08H@'
tRp264
tp265
a(S'YP_003044679.1'
p266
g3
(g5
S'\xa0\x14L\x92\xd09H@'
tRp267
tp268
a(S'YP_003044392.1'
p269
g3
(g5
S'$\xe3\xc3\x81|dH@'
tRp270
tp271
a(S'YP_003045988.1'
p272
g3
(g5
S'\xc2pM\n1vH@'
tRp273
tp274
a(S'YP_003044138.1'
p275
g3
(g5
S'\n\xbe\xdbD$\x95H@'
tRp276
tp277
a(S'YP_003047195.1'
p278
g3
(g5
S'\x86\xb4y\xae\xe6\xb8H@'
tRp279
tp280
a(S'YP_003045602.1'
p281
g3
(g5
S'{\x82dW\xe5\xdbH@'
tRp282
tp283
a(S'YP_003047373.1'
p284
g3
(g5
S'>\xc3\xd9\xf5\x8e{I@'
tRp285
tp286
a(S'YP_003043249.1'
p287
g3
(g5
S'\x1d\xc1\xba\xa4\xae\x9dI@'
tRp288
tp289
a(S'YP_003045709.1'
p290
g3
(g5
S'\xb0h\x89\xc7\xa2\xfcI@'
tRp291
tp292
a(S'YP_003046696.1'
p293
g3
(g5
S'\xad\xbb\xd1\xdb\xa3aJ@'
tRp294
tp295
a(S'YP_003044215.1'
p296
g3
(g5
S'\x7fD\x80\xb5j\xa0J@'
tRp297
tp298
a(S'YP_003046493.1'
p299
g3
(g5
S'\xbauZO\x0fDK@'
tRp300
tp301
a(S'YP_003043503.1'
p302
g3
(g5
S'\xf3\x859\xd7\x9d\xefK@'
tRp303
tp304
a(S'YP_003044597.1'
p305
g3
(g5
S'\x9a\x91[\x9d\xd5\x06L@'
tRp306
tp307
a(S'YP_003045344.1'
p308
g3
(g5
S'z\xde\xc1!\x86\xecL@'
tRp309
tp310
a(S'YP_003046772.1'
p311
g3
(g5
S'\xe4j\xacYS2M@'
tRp312
tp313
a(S'YP_003045756.1'
p314
g3
(g5
S'\xbb\x81gl{@M@'
tRp315
tp316
a(S'YP_003044143.1'
p317
g3
(g5
S'{\x1d\x8aH\x03\xc3M@'
tRp318
tp319
a(S'YP_003046129.1'
p320
g3
(g5
S'\xe5\xb2=a\x02\xdcN@'
tRp321
tp322
a(S'YP_003044216.1'
p323
g3
(g5
S'\xb8%\x92\xc0:\x03P@'
tRp324
tp325
a(S'YP_003043429.1'
p326
g3
(g5
S'lDp\xb47\x06P@'
tRp327
tp328
a(S'YP_003043951.1'
p329
g3
(g5
S'q\xa5\xe5/eAP@'
tRp330
tp331
a(S'YP_003047298.1'
p332
g3
(g5
S'\xad\x88\x8di\x96\x97P@'
tRp333
tp334
a(S'YP_003046156.1'
p335
g3
(g5
S'gsJ\xfe\x12\xb4P@'
tRp336
tp337
a(S'YP_003045226.1'
p338
g3
(g5
S'\x99\xa1\xf7J^\xccP@'
tRp339
tp340
a(S'YP_003044546.1'
p341
g3
(g5
S'\xe1\x0b\x82l\xd7\xf2P@'
tRp342
tp343
a(S'YP_003045527.1'
p344
g3
(g5
S'\xefO\xd6P\x99\xf4P@'
tRp345
tp346
a(S'YP_003046523.1'
p347
g3
(g5
S'\x95I\xb6\x07\xa8$Q@'
tRp348
tp349
a(S'YP_003046111.1'
p350
g3
(g5
S"'T\xf6\x15\xa6+Q@"
tRp351
tp352
a(S'YP_003043775.1'
p353
g3
(g5
S'\xc6\x87\xfbjv<Q@'
tRp354
tp355
a(S'YP_003047196.1'
p356
g3
(g5
S'\x01\xcdQ\xf8\xffJQ@'
tRp357
tp358
a(S'YP_003046559.1'
p359
g3
(g5
S'!\xa95\x02\xf4TQ@'
tRp360
tp361
a(S'YP_003043591.1'
p362
g3
(g5
S'=\xe4\xe53\x1erQ@'
tRp363
tp364
a(S'YP_003045358.1'
p365
g3
(g5
S'\x92\xbdo\xa5\xe5\xa8Q@'
tRp366
tp367
a(S'YP_003045517.1'
p368
g3
(g5
S'\xb75\xda\xad\xb6\xa9Q@'
tRp369
tp370
a(S'YP_003044787.1'
p371
g3
(g5
S'-K@\x8e\x9d\xe5Q@'
tRp372
tp373
a(S'YP_003046830.1'
p374
g3
(g5
S':u/\xeb\x8ewR@'
tRp375
tp376
a(S'YP_003046260.1'
p377
g3
(g5
S'D\xf5\xd9]\x8d\x93R@'
tRp378
tp379
a(S'YP_003047077.1'
p380
g3
(g5
S'"\xe2\x81\xbc\xa0\x9eR@'
tRp381
tp382
a(S'YP_003044661.1'
p383
g3
(g5
S'\xa9\x0c\x88{\xea;S@'
tRp384
tp385
a(S'YP_003047377.1'
p386
g3
(g5
S'\xabV\x10M\xa4YS@'
tRp387
tp388
a(S'YP_003046175.1'
p389
g3
(g5
S'~\x19\r\xad+\x99S@'
tRp390
tp391
a(S'YP_003044070.1'
p392
g3
(g5
S'ET\xf0\xa0\x13\xa9S@'
tRp393
tp394
a(S'YP_003044482.1'
p395
g3
(g5
S'\xc88<}\xd2\xb6S@'
tRp396
tp397
a(S'YP_003044342.1'
p398
g3
(g5
S'L8\xb4[\x98\xdbS@'
tRp399
tp400
a(S'YP_003045986.1'
p401
g3
(g5
S'\xcdf\x03\xce\xfd\x16T@'
tRp402
tp403
a(S'YP_003045858.1'
p404
g3
(g5
S'1\xbf(\x18\x073T@'
tRp405
tp406
a(S'YP_003045271.1'
p407
g3
(g5
S'\x9c\x94;\xb4\x81ZT@'
tRp408
tp409
a(S'YP_003045685.1'
p410
g3
(g5
S'\xb7\x8b\xe8\xa23\xa2T@'
tRp411
tp412
a(S'YP_003043572.1'
p413
g3
(g5
S'\x18yEo\xb6\xbbT@'
tRp414
tp415
a(S'YP_003043552.1'
p416
g3
(g5
S'E7x\xbd\x0b\xc7T@'
tRp417
tp418
a(S'YP_003045547.1'
p419
g3
(g5
S'\xdd\x9b\xe4i\x1b\x9aU@'
tRp420
tp421
a(S'YP_003046145.1'
p422
g3
(g5
S'\x16\x02lx\xa3\xf7U@'
tRp423
tp424
a(S'YP_003044014.1'
p425
g3
(g5
S'\\\xd0v\x96\x8f(V@'
tRp426
tp427
a(S'YP_003044640.1'
p428
g3
(g5
S'0\xef!*\xb9<V@'
tRp429
tp430
a(S'YP_003043652.1'
p431
g3
(g5
S'\xd1\x84\xeee\xbdQV@'
tRp432
tp433
a(S'YP_003045706.1'
p434
g3
(g5
S'U\x90\x9e\x04%]V@'
tRp435
tp436
a(S'YP_003047398.1'
p437
g3
(g5
S'J\xe0\t\xb8\xc3\xbfV@'
tRp438
tp439
a(S'YP_003044221.1'
p440
g3
(g5
S'\x94\xf5.\xdd,\x07W@'
tRp441
tp442
a(S'YP_003047227.1'
p443
g3
(g5
S'cLX\x1eP$W@'
tRp444
tp445
a(S'YP_003044915.1'
p446
g3
(g5
S'\xe5\x84\xad9\xbc\x87W@'
tRp447
tp448
a(S'YP_003045051.1'
p449
g3
(g5
S'\x85\xfc\x0e\x85j\x07X@'
tRp450
tp451
a(S'YP_003045313.1'
p452
g3
(g5
S'\xd0\xab\x18bj\x1eX@'
tRp453
tp454
a(S'YP_003044578.1'
p455
g3
(g5
S'\xce\x90\xfaA\x944X@'
tRp456
tp457
a(S'YP_003046651.1'
p458
g3
(g5
S'\x14\x14%\xd5\xd9gX@'
tRp459
tp460
a(S'YP_003045338.1'
p461
g3
(g5
S'B\x81-NDxX@'
tRp462
tp463
a(S'YP_003043289.1'
p464
g3
(g5
S'w\xed)\xc2.~X@'
tRp465
tp466
a(S'YP_003045821.1'
p467
g3
(g5
S'\x15\xe0\x83\xcdX\xa9X@'
tRp468
tp469
a(S'YP_003046863.1'
p470
g3
(g5
S"\xbb\xf0\x0f\x0b\x06'Y@"
tRp471
tp472
a(S'YP_003045820.1'
p473
g3
(g5
S'1\xe1\xc2\x18\xde0Y@'
tRp474
tp475
a(S'YP_003047407.1'
p476
g3
(g5
S'7\xc6\x87\xa4\xfc4Y@'
tRp477
tp478
a(S'YP_003046481.1'
p479
g3
(g5
S'\x1d\x0c\xf8\xbcfmY@'
tRp480
tp481
a(S'YP_003044971.1'
p482
g3
(g5
S'\x98r\xff\xdeNoY@'
tRp483
tp484
a(S'YP_003043450.1'
p485
g3
(g5
S'\xb3\x12\xe9\xf3\xf8|Y@'
tRp486
tp487
a(S'YP_003043845.1'
p488
g3
(g5
S'%kp}\x18\x98Y@'
tRp489
tp490
a(S'YP_003043314.1'
p491
g3
(g5
S'Q\x1a\xe9\x13*\xd2Y@'
tRp492
tp493
a(S'YP_003043430.1'
p494
g3
(g5
S'-j@4\x14\x03Z@'
tRp495
tp496
a(S'YP_003047404.1'
p497
g3
(g5
S'\x07\x93&\x19\xc8ZZ@'
tRp498
tp499
a(S'YP_003047378.1'
p500
g3
(g5
S'\x0f\x1a\xa8\xca\tzZ@'
tRp501
tp502
a(S'YP_003043347.1'
p503
g3
(g5
S'0\x90\x19*+\x89Z@'
tRp504
tp505
a(S'YP_003044515.1'
p506
g3
(g5
S'\xfa\x05\xe3\x16M\x8dZ@'
tRp507
tp508
a(S'YP_003044381.1'
p509
g3
(g5
S'\x98\x8a\xf2\nY\xc8Z@'
tRp510
tp511
a(S'YP_003044617.1'
p512
g3
(g5
S'\n\x15p\xbb\x8c\xebZ@'
tRp513
tp514
a(S'YP_003046325.1'
p515
g3
(g5
S'\r]\xc7\xaf\xa0/[@'
tRp516
tp517
a(S'YP_003043958.1'
p518
g3
(g5
S'\xf8V\xcbs\xd0\x8f[@'
tRp519
tp520
a(S'YP_003044615.1'
p521
g3
(g5
S'\xda\xae\xfe\xe6`\xf8[@'
tRp522
tp523
a(S'YP_003044852.1'
p524
g3
(g5
S'S~9E>\x0b\\@'
tRp525
tp526
a(S'YP_003043781.1'
p527
g3
(g5
S'&\xb8\xa6P5e\\@'
tRp528
tp529
a(S'YP_003045438.1'
p530
g3
(g5
S"'|'\xa1\x8e\x89\\@"
tRp531
tp532
a(S'YP_003044468.1'
p533
g3
(g5
S'\xdc~\x90\xc8\x90\xab\\@'
tRp534
tp535
a(S'YP_003046671.1'
p536
g3
(g5
S'p+\xe9\x0e\x88&]@'
tRp537
tp538
a(S'YP_003045637.1'
p539
g3
(g5
S'\xbb\x81gl{@]@'
tRp540
tp541
a(S'YP_003045096.1'
p542
g3
(g5
S'\xa7H.>\xb0P]@'
tRp543
tp544
a(S'YP_003045106.1'
p545
g3
(g5
S')[\xb8y}^]@'
tRp546
tp547
a(S'YP_003043494.1'
p548
g3
(g5
S'B\xc5]W4\xe9]@'
tRp549
tp550
a(S'YP_003045014.1'
p551
g3
(g5
S'\xa5\x89m\xe5>0^@'
tRp552
tp553
a(S'YP_003044912.1'
p554
g3
(g5
S'9\xb8\x8a!sl^@'
tRp555
tp556
a(S'YP_003046902.1'
p557
g3
(g5
S'\x93SY\xb9\xee\xa2^@'
tRp558
tp559
a(S'YP_003046488.1'
p560
g3
(g5
S'\x9b\xeb\xad\x1c\x99\xcc^@'
tRp561
tp562
a(S'YP_003045550.1'
p563
g3
(g5
S'\x1f\xedfE7?_@'
tRp564
tp565
a(S'YP_003044522.1'
p566
g3
(g5
S'E\xfa\xab\xfc2Y_@'
tRp567
tp568
a(S'YP_003047207.1'
p569
g3
(g5
S'\xbb\xa00\xb6\xa9]_@'
tRp570
tp571
a(S'YP_003043784.1'
p572
g3
(g5
S'\xd9\x86.\x87=`_@'
tRp573
tp574
a(S'YP_003046329.1'
p575
g3
(g5
S'\xae\t`8-\x8f_@'
tRp576
tp577
a(S'YP_003045914.1'
p578
g3
(g5
S'\xb0\xf1R\xc4\x02\xd4_@'
tRp579
tp580
a(S'YP_003043825.1'
p581
g3
(g5
S'"\xfd\x80[\x7f\xeb_@'
tRp582
tp583
a(S'YP_003046973.1'
p584
g3
(g5
S'\xcd4\x07sm\x0c`@'
tRp585
tp586
a(S'YP_003043411.1'
p587
g3
(g5
S'\xe10\xf0\xf7\x00\x11`@'
tRp588
tp589
a(S'YP_003044400.1'
p590
g3
(g5
S'6vi\xaa\xa2\x16`@'
tRp591
tp592
a(S'YP_003043436.1'
p593
g3
(g5
S'"G\xd1\xcb\x062`@'
tRp594
tp595
a(S'YP_003045657.1'
p596
g3
(g5
S'\xe9\x8f\xa5\xe4\xb2B`@'
tRp597
tp598
a(S'YP_003046701.1'
p599
g3
(g5
S'\x02\x8cQ\xfd\x88T`@'
tRp600
tp601
a(S'YP_003044344.1'
p602
g3
(g5
S'\x9d\xd9\xd1d\x7fZ`@'
tRp603
tp604
a(S'YP_003044107.1'
p605
g3
(g5
S'U\x9e\x83\xdd\x05\x9e`@'
tRp606
tp607
a(S'YP_003046976.1'
p608
g3
(g5
S'u\x08Q*\x17\xa5`@'
tRp609
tp610
a(S'YP_003047027.1'
p611
g3
(g5
S'oU\x96\xed\xde\xaa`@'
tRp612
tp613
a(S'YP_003045148.1'
p614
g3
(g5
S'\xb5\t;,\xb0\xb3`@'
tRp615
tp616
a(S'YP_003045197.1'
p617
g3
(g5
S'\xd33VCo\xb6`@'
tRp618
tp619
a(S'YP_003046558.1'
p620
g3
(g5
S'\xb8\xc2G\xa7\xb2\xc2`@'
tRp621
tp622
a(S'YP_003046125.1'
p623
g3
(g5
S'K\xc8\x8a3U\xd5`@'
tRp624
tp625
a(S'YP_003043526.1'
p626
g3
(g5
S'\xa1\xd0/\x9f\x16\na@'
tRp627
tp628
a(S'YP_003043332.1'
p629
g3
(g5
S'K\xc4~\x92\x120a@'
tRp630
tp631
a(S'YP_003044874.1'
p632
g3
(g5
S'i\xc6|\x80UKa@'
tRp633
tp634
a(S'YP_003044660.1'
p635
g3
(g5
S'\xd2-\x13H\xa7\xd0a@'
tRp636
tp637
a(S'YP_003044517.1'
p638
g3
(g5
S'_\xde\x81M\xfe\xd7a@'
tRp639
tp640
a(S'YP_003045002.1'
p641
g3
(g5
S'>.\xff\xcd\x1dXb@'
tRp642
tp643
a(S'YP_003045672.1'
p644
g3
(g5
S'\xb5r\xefk\xf7\x94b@'
tRp645
tp646
a(S'YP_003047132.1'
p647
g3
(g5
S'Q\x8ex\xb0V\x9cb@'
tRp648
tp649
a(S'YP_003046864.1'
p650
g3
(g5
S'K\xf4\x03v&\x9eb@'
tRp651
tp652
a(S'YP_003045583.1'
p653
g3
(g5
S'\xcc\xd9\x04I?\xe7b@'
tRp654
tp655
a(S'YP_003043573.1'
p656
g3
(g5
S'F\xdb\xb8U\xdf\x1fc@'
tRp657
tp658
a(S'YP_003045388.1'
p659
g3
(g5
S'\xf0\x17v\x1b(*c@'
tRp660
tp661
a(S'YP_003046658.1'
p662
g3
(g5
S'\x81\xbf,\r\x1b8c@'
tRp663
tp664
a(S'YP_003045766.1'
p665
g3
(g5
S'(;E\xf9\xbbtc@'
tRp666
tp667
a(S'YP_003044779.1'
p668
g3
(g5
S'a\xb8\x0f\x02\xfauc@'
tRp669
tp670
a(S'YP_003043447.1'
p671
g3
(g5
S'zi\xf6_a~c@'
tRp672
tp673
a(S'YP_003043794.1'
p674
g3
(g5
S'\xb2|\xb0\xbe\xfe\x9bc@'
tRp675
tp676
a(S'YP_003046847.1'
p677
g3
(g5
S'Q\xd9q\n\\\xb4c@'
tRp678
tp679
a(S'YP_003043924.1'
p680
g3
(g5
S'v\x9frP\xac\xc4c@'
tRp681
tp682
a(S'YP_003044972.1'
p683
g3
(g5
S'\xf1\xf7D\x8c4\xd9c@'
tRp684
tp685
a(S'YP_003045220.1'
p686
g3
(g5
S'\xb4V\x11\xb6\xfc\x1dd@'
tRp687
tp688
a(S'YP_003044123.1'
p689
g3
(g5
S'\xe9\x026\xb5\xd0\x88d@'
tRp690
tp691
a(S'YP_003045026.1'
p692
g3
(g5
S'\xc4\xf6ZF\x1d\xaed@'
tRp693
tp694
a(S'YP_003044958.1'
p695
g3
(g5
S'/G\xc8u\x00\xbcd@'
tRp696
tp697
a(S'YP_003046121.1'
p698
g3
(g5
S'\x86\xcfQ\xb7\xe6\x08e@'
tRp699
tp700
a(S'YP_003044557.1'
p701
g3
(g5
S'\xd7T\x89\x9c\xdb\x17e@'
tRp702
tp703
a(S'YP_003045663.1'
p704
g3
(g5
S'^\x06K:B<e@'
tRp705
tp706
a(S'YP_003045880.1'
p707
g3
(g5
S'\xdfVr\nmBe@'
tRp708
tp709
a(S'YP_003046497.1'
p710
g3
(g5
S'\xd68\x07\x1d\xc3Ee@'
tRp711
tp712
a(S'YP_003044304.1'
p713
g3
(g5
S'\x96+\n\xe6$Ye@'
tRp714
tp715
a(S'YP_003047059.1'
p716
g3
(g5
S'u\xa9\r\x84\x95[e@'
tRp717
tp718
a(S'YP_003044173.1'
p719
g3
(g5
S'\xed\x14O3\x8b\x9ce@'
tRp720
tp721
a(S'YP_003045311.1'
p722
g3
(g5
S'3\xb3\xf7\xd6p\xa8e@'
tRp723
tp724
a(S'YP_003043443.1'
p725
g3
(g5
S'\x05N:g\x7f\xbde@'
tRp726
tp727
a(S'YP_003044191.1'
p728
g3
(g5
S"H\xe4'\xc5S\xbee@"
tRp729
tp730
a(S'YP_003043647.1'
p731
g3
(g5
S'\x07[\xc4\xc8\xb7\xc5e@'
tRp732
tp733
a(S'YP_003044889.1'
p734
g3
(g5
S'\xab\xb7\xec._\x03f@'
tRp735
tp736
a(S'YP_003044849.1'
p737
g3
(g5
S'z\x19=\xe4\xc6[f@'
tRp738
tp739
a(S'YP_003046874.1'
p740
g3
(g5
S'\xa8c\x05\x14\xc1tf@'
tRp741
tp742
a(S'YP_003045435.1'
p743
g3
(g5
S'\xddK\xcd\x1b8\x8cf@'
tRp744
tp745
a(S'YP_003044144.1'
p746
g3
(g5
S'x\n\x8f\xfc\xd0\x99f@'
tRp747
tp748
a(S'YP_003046915.1'
p749
g3
(g5
S'\x02\xc3\x0e\xf5\x8e\x9bf@'
tRp750
tp751
a(S'YP_003044091.1'
p752
g3
(g5
S'\xc7\xd1V\xc0$\xd5f@'
tRp753
tp754
a(S'YP_003046141.1'
p755
g3
(g5
S'\xf6\x8bb9\xe1\xf5f@'
tRp756
tp757
a(S'YP_003047208.1'
p758
g3
(g5
S"\x81j\xd9'\x85\xfdf@"
tRp759
tp760
a(S'YP_003046983.1'
p761
g3
(g5
S'\xbay\x9a\x83\xb9#g@'
tRp762
tp763
a(S'YP_003045425.1'
p764
g3
(g5
S'\xbby\x9a\x83\xb9#g@'
tRp765
tp766
a(S'YP_003043964.1'
p767
g3
(g5
S'x\xb2o\xa4\xa2]g@'
tRp768
tp769
a(S'YP_003047120.1'
p770
g3
(g5
S'\x1a\x8es\xc9Dfg@'
tRp771
tp772
a(S'YP_003047197.1'
p773
g3
(g5
S'/\xdf\xae\x9a\xfbvg@'
tRp774
tp775
a(S'YP_003046501.1'
p776
g3
(g5
S'\x15\x00\xff%R\x06h@'
tRp777
tp778
a(S'YP_003045091.1'
p779
g3
(g5
S'=\xf2\xf5y\x00\x14h@'
tRp780
tp781
a(S'YP_003043782.1'
p782
g3
(g5
S'q\xb5\x7f\xd6q\x15h@'
tRp783
tp784
a(S'YP_003046927.1'
p785
g3
(g5
S't`\x19\xbc7\x88h@'
tRp786
tp787
a(S'YP_003044280.1'
p788
g3
(g5
S"'\xcd@%\xfc\xa2h@"
tRp789
tp790
a(S'YP_003043641.1'
p791
g3
(g5
S'\xae7\xb6\xb6l\xbdh@'
tRp792
tp793
a(S'YP_003046090.1'
p794
g3
(g5
S'\x86b\xd4\xb8E\xe5h@'
tRp795
tp796
a(S'YP_003043644.1'
p797
g3
(g5
S'\xf7\x84\x1d~\xc0\x00i@'
tRp798
tp799
a(S'YP_003047375.1'
p800
g3
(g5
S'V\xc3\rAl\x1fi@'
tRp801
tp802
a(S'YP_003046654.1'
p803
g3
(g5
S'\xbbAw\xea\r,i@'
tRp804
tp805
a(S'YP_003043759.1'
p806
g3
(g5
S'\x92\x02\xb0b\xd2=i@'
tRp807
tp808
a(S'YP_003043370.1'
p809
g3
(g5
S'\xc0\xfb\xc8\xd3\xc9Zi@'
tRp810
tp811
a(S'YP_003046087.1'
p812
g3
(g5
S'\x9f\xe4(\x9e\x87\x9fi@'
tRp813
tp814
a(S'YP_003044580.1'
p815
g3
(g5
S'\xb3\xd6\x11=Z\xa2i@'
tRp816
tp817
a(S'YP_003045277.1'
p818
g3
(g5
S'5%\xa9\xc9\xaf\xaai@'
tRp819
tp820
a(S'YP_003047297.1'
p821
g3
(g5
S'\x0bL%\x17\xfd\xb4i@'
tRp822
tp823
a(S'YP_003043326.1'
p824
g3
(g5
S'\xdb\x90\xafbm\xc3i@'
tRp825
tp826
a(S'YP_003043379.1'
p827
g3
(g5
S'\xc2\xf2\x1ce\x1e\xf0i@'
tRp828
tp829
a(S'YP_003045826.1'
p830
g3
(g5
S'\xd8I\x15\xd9k]j@'
tRp831
tp832
a(S'YP_003043992.1'
p833
g3
(g5
S'\x19\xb1\xaa\xefc`j@'
tRp834
tp835
a(S'YP_003044035.1'
p836
g3
(g5
S'F" \xe3\xc2jj@'
tRp837
tp838
a(S'YP_003045021.1'
p839
g3
(g5
S'A\x08\xbf\x89\x8b\x8dj@'
tRp840
tp841
a(S'YP_003046472.1'
p842
g3
(g5
S'\x02\x1f\xfc }\x93j@'
tRp843
tp844
a(S'YP_003043355.1'
p845
g3
(g5
S'\x87l\x10\x99\xe8\xb5j@'
tRp846
tp847
a(S'YP_003043980.1'
p848
g3
(g5
S'\x07\xbeK\x82\xce\xe0j@'
tRp849
tp850
a(S'YP_003047408.1'
p851
g3
(g5
S'\xca\xe1\x1f\xdf9\xe5j@'
tRp852
tp853
a(S'YP_003043561.1'
p854
g3
(g5
S'\xc5\xfdGB\x94\xfaj@'
tRp855
tp856
a(S'YP_003044589.1'
p857
g3
(g5
S'\xecg\xcc\xea\x1d)k@'
tRp858
tp859
a(S'YP_003046692.1'
p860
g3
(g5
S'2l\x01:\x11+k@'
tRp861
tp862
a(S'YP_003046499.1'
p863
g3
(g5
S'-&?\x95\xd0Bk@'
tRp864
tp865
a(S'YP_003047153.1'
p866
g3
(g5
S'c\xaao\x94\x01Tk@'
tRp867
tp868
a(S'YP_003044085.1'
p869
g3
(g5
S'J\x84\xdd\x93\\}k@'
tRp870
tp871
a(S'YP_003044510.1'
p872
g3
(g5
S';\x8e\xfb\x94\xe3\xe6k@'
tRp873
tp874
a(S'YP_003047353.1'
p875
g3
(g5
S'S\xa1z\x8b\x8d\x05l@'
tRp876
tp877
a(S'YP_003043682.1'
p878
g3
(g5
S'\xb3@Fy\xb4#l@'
tRp879
tp880
a(S'YP_003046463.1'
p881
g3
(g5
S'8\x95L\xf0\xb5%l@'
tRp882
tp883
a(S'YP_003044277.1'
p884
g3
(g5
S'\xe3%\xd7zu^l@'
tRp885
tp886
a(S'YP_003044137.1'
p887
g3
(g5
S'\x03\xb5N\xbb\xef\x93l@'
tRp888
tp889
a(S'YP_003045734.1'
p890
g3
(g5
S'\xd2UL\x1f\xc4\xb3l@'
tRp891
tp892
a(S'YP_003044470.1'
p893
g3
(g5
S')TF\x13\xbf\xb9l@'
tRp894
tp895
a(S'YP_003043409.1'
p896
g3
(g5
S'\x05\x8eK\xael\xddl@'
tRp897
tp898
a(S'YP_003045019.1'
p899
g3
(g5
S'\xd6\x84\xb6*\x12\xf6l@'
tRp900
tp901
a(S'YP_003046625.1'
p902
g3
(g5
S'* \xabH\xf8\x07m@'
tRp903
tp904
a(S'YP_003045827.1'
p905
g3
(g5
S'\x19\xa6\xe9:\xa7\x0cm@'
tRp906
tp907
a(S'YP_003046372.1'
p908
g3
(g5
S'\x90+\xb9\x06\xcd5m@'
tRp909
tp910
a(S'YP_003047399.1'
p911
g3
(g5
S' \xd2\xac\x8a\x06{m@'
tRp912
tp913
a(S'YP_003043612.1'
p914
g3
(g5
S' \xa2\x9c\xb3\xe4|m@'
tRp915
tp916
a(S'YP_003045909.1'
p917
g3
(g5
S'\x04\x86\t\xbaP\xb1m@'
tRp918
tp919
a(S'YP_003043415.1'
p920
g3
(g5
S'\xe3\x99y\xd6\xdb\xc9m@'
tRp921
tp922
a(S'YP_003046391.1'
p923
g3
(g5
S'\x87\x9c\xb5\xd5\xe0\xd0m@'
tRp924
tp925
a(S'YP_003044275.1'
p926
g3
(g5
S'\xf9@\xbd!>\xd2m@'
tRp927
tp928
a(S'YP_003044854.1'
p929
g3
(g5
S'\n\xf1_\x0b\x90\xffm@'
tRp930
tp931
a(S'YP_003043670.1'
p932
g3
(g5
S'wF:i\xb2\x15n@'
tRp933
tp934
a(S'YP_003046944.1'
p935
g3
(g5
S'\xb4\xc0.\x7f\x97\x16n@'
tRp936
tp937
a(S'YP_003046215.1'
p938
g3
(g5
S'=\th\xdf\x97\x1an@'
tRp939
tp940
a(S'YP_003043283.1'
p941
g3
(g5
S'\xc0\xc0s\xc9\x8d)n@'
tRp942
tp943
a(S'YP_003047112.1'
p944
g3
(g5
S'nv\xaa\x02\xd5\x94n@'
tRp945
tp946
a(S'YP_003043461.1'
p947
g3
(g5
S'\\\x83Y\xd3`\xb2n@'
tRp948
tp949
a(S'YP_003046841.1'
p950
g3
(g5
S'\xbc\xd5ij\x8e\xe5n@'
tRp951
tp952
a(S'YP_003046907.1'
p953
g3
(g5
S'\xdb`\xb7\x11 \xf2n@'
tRp954
tp955
a(S'YP_003044025.1'
p956
g3
(g5
S'\x9c\xe0\x88\xdfJ\x01o@'
tRp957
tp958
a(S'YP_003046030.1'
p959
g3
(g5
S'k\xbf\xec\xfa\x8c\x11o@'
tRp960
tp961
a(S'YP_003045276.1'
p962
g3
(g5
S'j\xf1\xa1\xea`?o@'
tRp963
tp964
a(S'YP_003043511.1'
p965
g3
(g5
S'N\xfc\xca\xbe\x10Eo@'
tRp966
tp967
a(S'YP_003043777.1'
p968
g3
(g5
S"X\x94'\x13\xb6co@"
tRp969
tp970
a(S'YP_003045971.1'
p971
g3
(g5
S'}b<qW}o@'
tRp972
tp973
a(S'YP_003046635.1'
p974
g3
(g5
S'\xd2\x92\xae\xdeP\xa7o@'
tRp975
tp976
a(S'YP_003044171.1'
p977
g3
(g5
S'h1\xc0\x15f\xa9o@'
tRp978
tp979
a(S'YP_003046108.1'
p980
g3
(g5
S'o\xd3P\xb2p\xe4o@'
tRp981
tp982
a(S'YP_003044007.1'
p983
g3
(g5
S'\x9fD\xe9\x89\x19\x07p@'
tRp984
tp985
a(S'YP_003043282.1'
p986
g3
(g5
S'\xcc\xf2ah8\x0bp@'
tRp987
tp988
a(S'YP_003046655.1'
p989
g3
(g5
S'\xfdF\x00\xa9~\x0bp@'
tRp990
tp991
a(S'YP_003045841.1'
p992
g3
(g5
S'\x17Q\x07v\xc8\x1cp@'
tRp993
tp994
a(S'YP_003043837.1'
p995
g3
(g5
S'\xe5\xbb\xfc\xe4\xc0\x1ep@'
tRp996
tp997
a(S'YP_003045482.1'
p998
g3
(g5
S't-fw[#p@'
tRp999
tp1000
a(S'YP_003044893.1'
p1001
g3
(g5
S'>\xe9\xa7\x0b\x11%p@'
tRp1002
tp1003
a(S'YP_003045670.1'
p1004
g3
(g5
S'\x8d\xa4\xf0#B2p@'
tRp1005
tp1006
a(S'YP_003043969.1'
p1007
g3
(g5
S'\xf8T[\xcbXUp@'
tRp1008
tp1009
a(S'YP_003044401.1'
p1010
g3
(g5
S'\x83\x9c\xaf\x95\x9exp@'
tRp1011
tp1012
a(S'YP_003044850.1'
p1013
g3
(g5
S"\xea'\xd4\xdf\xfa{p@"
tRp1014
tp1015
a(S'YP_003045818.1'
p1016
g3
(g5
S'i\x18~\xaf\x8e\x8ap@'
tRp1017
tp1018
a(S'YP_003046690.1'
p1019
g3
(g5
S'!h\x81?s\x92p@'
tRp1020
tp1021
a(S'YP_003047413.1'
p1022
g3
(g5
S'\xc7\x80\x98~\x1c\xbcp@'
tRp1023
tp1024
a(S'YP_003044427.1'
p1025
g3
(g5
S'\xe9\xe3\x99\x1a\xd9\xd1p@'
tRp1026
tp1027
a(S'YP_003046152.1'
p1028
g3
(g5
S'\xd3|\x84\xf4B\xd9p@'
tRp1029
tp1030
a(S'YP_003046159.1'
p1031
g3
(g5
S'\xe6\xd3\xc5E\xe9\xddp@'
tRp1032
tp1033
a(S'YP_003044761.1'
p1034
g3
(g5
S'\xcc{\x14\xa8\xa4\xf2p@'
tRp1035
tp1036
a(S'YP_003045849.1'
p1037
g3
(g5
S'\xfe\xbc9\xb13\rq@'
tRp1038
tp1039
a(S'YP_003047210.1'
p1040
g3
(g5
S'ZY\xcf\xe0@\x13q@'
tRp1041
tp1042
a(S'YP_003045609.1'
p1043
g3
(g5
S'\xabjc\xbaiEq@'
tRp1044
tp1045
a(S'YP_003047255.1'
p1046
g3
(g5
S'T\xff4\x8b+Mq@'
tRp1047
tp1048
a(S'YP_003043495.1'
p1049
g3
(g5
S'\x07v\xc5<g\\q@'
tRp1050
tp1051
a(S'YP_003046860.1'
p1052
g3
(g5
S'V\x9b\x92\x0b\xd7gq@'
tRp1053
tp1054
a(S'YP_003044973.1'
p1055
g3
(g5
S'\xa1do\x0e\xf8iq@'
tRp1056
tp1057
a(S'YP_003045864.1'
p1058
g3
(g5
S'%.D\xb0\xe0yq@'
tRp1059
tp1060
a(S'YP_003043929.1'
p1061
g3
(g5
S':\x1a&\x03\xe7\x95q@'
tRp1062
tp1063
a(S'YP_003045046.1'
p1064
g3
(g5
S'\x88\x96\xaf\xc4\xda\x9dq@'
tRp1065
tp1066
a(S'YP_003046561.1'
p1067
g3
(g5
S'\xc8P\xcd\xac\xcd\xa4q@'
tRp1068
tp1069
a(S'YP_003045343.1'
p1070
g3
(g5
S'xG9\x96\xeb\xa8q@'
tRp1071
tp1072
a(S'YP_003045772.1'
p1073
g3
(g5
S'J\xdc\xda\xd1\xce\xaeq@'
tRp1074
tp1075
a(S'YP_003047411.1'
p1076
g3
(g5
S'\xc91\x1fjL\xb7q@'
tRp1077
tp1078
a(S'YP_003044224.1'
p1079
g3
(g5
S'\x0eu\x14\xb5Q\xc2q@'
tRp1080
tp1081
a(S'YP_003044002.1'
p1082
g3
(g5
S'e<{pK\xcbq@'
tRp1083
tp1084
a(S'YP_003047429.1'
p1085
g3
(g5
S'V\xa4\xa6\x07\x95\xd2q@'
tRp1086
tp1087
a(S'YP_003043915.1'
p1088
g3
(g5
S':\xfdp\x8bs\xd5q@'
tRp1089
tp1090
a(S'YP_003043664.1'
p1091
g3
(g5
S';\xb4\x1a\xec!\xdcq@'
tRp1092
tp1093
a(S'YP_003043377.1'
p1094
g3
(g5
S'8A\xd6\xea\x85\xebq@'
tRp1095
tp1096
a(S'YP_003047102.1'
p1097
g3
(g5
S'+\xee\x86\\#\xf9q@'
tRp1098
tp1099
a(S'YP_003044602.1'
p1100
g3
(g5
S'\x8e\xd4\xc2j\x1e%r@'
tRp1101
tp1102
a(S'YP_003043570.1'
p1103
g3
(g5
S'J\xd0\x0f\xd9\xf8Ur@'
tRp1104
tp1105
a(S'YP_003046657.1'
p1106
g3
(g5
S'\xebE\xfeD_Vr@'
tRp1107
tp1108
a(S'YP_003045656.1'
p1109
g3
(g5
S'\x1a\x1c\xe6\xbd\x11ar@'
tRp1110
tp1111
a(S'YP_003044925.1'
p1112
g3
(g5
S'S]610ir@'
tRp1113
tp1114
a(S'YP_003045578.1'
p1115
g3
(g5
S'\xc2\x0b\xb4.\xedqr@'
tRp1116
tp1117
a(S'YP_003044685.1'
p1118
g3
(g5
S'\xe1"\xe92\xff\x7fr@'
tRp1119
tp1120
a(S'YP_003046748.1'
p1121
g3
(g5
S'\x06KB\xc8W\x8fr@'
tRp1122
tp1123
a(S'YP_003046138.1'
p1124
g3
(g5
S'S\x17\xcei\xd3\xadr@'
tRp1125
tp1126
a(S'YP_003043507.1'
p1127
g3
(g5
S'\x93u/\xed~\xb5r@'
tRp1128
tp1129
a(S'YP_003044986.1'
p1130
g3
(g5
S'd\xbc\x0057\xc1r@'
tRp1131
tp1132
a(S'YP_003044328.1'
p1133
g3
(g5
S'\xd4\xa7\x0b\x19\xe6\xc6r@'
tRp1134
tp1135
a(S'YP_003045509.1'
p1136
g3
(g5
S'i\x91\x08\x0c\xa4\xccr@'
tRp1137
tp1138
a(S'YP_003045003.1'
p1139
g3
(g5
S'\xc3\xc5\xb7\xcb\xb5\xd1r@'
tRp1140
tp1141
a(S'YP_003046556.1'
p1142
g3
(g5
S'\xa2U0\x9fq\xe4r@'
tRp1143
tp1144
a(S'YP_003046465.1'
p1145
g3
(g5
S'\x82\xa4\x8bW\x10\x19s@'
tRp1146
tp1147
a(S'YP_003043414.1'
p1148
g3
(g5
S't[E\x9f\xedRs@'
tRp1149
tp1150
a(S'YP_003046277.1'
p1151
g3
(g5
S'\x90q\x9a\xb7\x9aas@'
tRp1152
tp1153
a(S'YP_003047417.1'
p1154
g3
(g5
S'q\xb0\xa8\xa0\xf0cs@'
tRp1155
tp1156
a(S'YP_003044127.1'
p1157
g3
(g5
S'U\xe6\xc9\xef\xd7ms@'
tRp1158
tp1159
a(S'YP_003043657.1'
p1160
g3
(g5
S'_\xbfg\xc9I\x80s@'
tRp1161
tp1162
a(S'YP_003046668.1'
p1163
g3
(g5
S'v\x15N\xfbe\x92s@'
tRp1164
tp1165
a(S'YP_003046856.1'
p1166
g3
(g5
S'D\xc3\xee\xd1\x86\x97s@'
tRp1167
tp1168
a(S'YP_003047381.1'
p1169
g3
(g5
S'Sb_>h\xc9s@'
tRp1170
tp1171
a(S'YP_003045164.1'
p1172
g3
(g5
S'\xc1\xbe\x96AT\xdes@'
tRp1173
tp1174
a(S'YP_003047426.1'
p1175
g3
(g5
S'\xaa\x80\x99TA\xe4s@'
tRp1176
tp1177
a(S'YP_003046094.1'
p1178
g3
(g5
S'\x08p\xd37\t\x0ct@'
tRp1179
tp1180
a(S'YP_003047083.1'
p1181
g3
(g5
S'\xf8\xb4\xdb*\xc2\x1dt@'
tRp1182
tp1183
a(S'YP_003044851.1'
p1184
g3
(g5
S'5\xdc\xcc;\xa2"t@'
tRp1185
tp1186
a(S'YP_003043410.1'
p1187
g3
(g5
S'\xe94\x1aW\x8c#t@'
tRp1188
tp1189
a(S'YP_003046747.1'
p1190
g3
(g5
S'\xf9\xe10z\xca*t@'
tRp1191
tp1192
a(S'YP_003043967.1'
p1193
g3
(g5
S'}\xc3\n\x9a\xf4+t@'
tRp1194
tp1195
a(S'YP_003046992.1'
p1196
g3
(g5
S'U\x87\xbc\xe3\xcbGt@'
tRp1197
tp1198
a(S'YP_003046075.1'
p1199
g3
(g5
S'm\xe3\xb6\xda\xc5rt@'
tRp1200
tp1201
a(S'YP_003046280.1'
p1202
g3
(g5
S'\xcf\xfc\xba\xefast@'
tRp1203
tp1204
a(S'YP_003044112.1'
p1205
g3
(g5
S'\xac!\x9c\x00\x08ut@'
tRp1206
tp1207
a(S'YP_003046396.1'
p1208
g3
(g5
S'\xe7F-\xd6\xbb\x87t@'
tRp1209
tp1210
a(S'YP_003045502.1'
p1211
g3
(g5
S'\xd4\x1b:\xd0~\xa2t@'
tRp1212
tp1213
a(S'YP_003043968.1'
p1214
g3
(g5
S'\xa7\xbb\xcc\xd6\x0f\xb7t@'
tRp1215
tp1216
a(S'YP_003046788.1'
p1217
g3
(g5
S'4\xa5i\xaa#\xc7t@'
tRp1218
tp1219
a(S'YP_003046802.1'
p1220
g3
(g5
S'\xd6\xbeu\x03p\xfbt@'
tRp1221
tp1222
a(S'YP_003043535.1'
p1223
g3
(g5
S'@o\xab\x89\r\x0fu@'
tRp1224
tp1225
a(S'YP_003047045.1'
p1226
g3
(g5
S'\xdfU\xc3\\x\x13u@'
tRp1227
tp1228
a(S'YP_003046669.1'
p1229
g3
(g5
S"\xedb\x84b\x18'u@"
tRp1230
tp1231
a(S'YP_003043849.1'
p1232
g3
(g5
S'u\xc4q\xc8W,u@'
tRp1233
tp1234
a(S'YP_003047028.1'
p1235
g3
(g5
S'\x7f\xb4\xc2\xbc\xa8=u@'
tRp1236
tp1237
a(S'YP_003044511.1'
p1238
g3
(g5
S'\x90;\x01w9Fu@'
tRp1239
tp1240
a(S'YP_003044177.1'
p1241
g3
(g5
S'O\xfe\xe3x\xe2Ru@'
tRp1242
tp1243
a(S'YP_003044104.1'
p1244
g3
(g5
S'\xff\x01\x9c~\x1dau@'
tRp1245
tp1246
a(S'YP_003043830.1'
p1247
g3
(g5
S'\x81U\xe6N\xcd\x95u@'
tRp1248
tp1249
a(S'YP_003047272.1'
p1250
g3
(g5
S'\x87\x88\x8c\x8b\xba\xaeu@'
tRp1251
tp1252
a(S'YP_003045089.1'
p1253
g3
(g5
S'e\xa6,Q\xce\xb6u@'
tRp1254
tp1255
a(S'YP_003046763.1'
p1256
g3
(g5
S'\xd4\x86f\x18#\xb8u@'
tRp1257
tp1258
a(S'YP_003045854.1'
p1259
g3
(g5
S'\x82\xe2\x13\x10\xfa\xc0u@'
tRp1260
tp1261
a(S'YP_003046626.1'
p1262
g3
(g5
S'z\xc0{I\x0b\xd7u@'
tRp1263
tp1264
a(S'YP_003046866.1'
p1265
g3
(g5
S'h\xec\xbb\xc5\x97\xdfu@'
tRp1266
tp1267
a(S'YP_003043671.1'
p1268
g3
(g5
S'\x00\x7f\x0cL/\x15v@'
tRp1269
tp1270
a(S'YP_003043844.1'
p1271
g3
(g5
S'\xde\xf3UY+ v@'
tRp1272
tp1273
a(S'YP_003045291.1'
p1274
g3
(g5
S'\xdb\x0f\xb9\x1e@;v@'
tRp1275
tp1276
a(S'YP_003046837.1'
p1277
g3
(g5
S'<\xac\xffW[;v@'
tRp1278
tp1279
a(S'YP_003044561.1'
p1280
g3
(g5
S'nu\xe4\x88\xc6Ov@'
tRp1281
tp1282
a(S'YP_003044414.1'
p1283
g3
(g5
S'\x1fPj\xd1zrv@'
tRp1284
tp1285
a(S'YP_003046294.1'
p1286
g3
(g5
S'K\xdc\x91\xbf?\x89v@'
tRp1287
tp1288
a(S'YP_003045281.1'
p1289
g3
(g5
S'\xc0PwX\x0b\x98v@'
tRp1290
tp1291
a(S'YP_003045976.1'
p1292
g3
(g5
S'P\xd3\x1c\x95\xbd\x9fv@'
tRp1293
tp1294
a(S'YP_003043931.1'
p1295
g3
(g5
S'\x17\xb0\x01\x1c\xc4\xa5v@'
tRp1296
tp1297
a(S'YP_003043982.1'
p1298
g3
(g5
S'\xf5`\xba\xe6X\xabv@'
tRp1299
tp1300
a(S'YP_003045043.1'
p1301
g3
(g5
S'\x80_\x0ev\xbb\xe7v@'
tRp1302
tp1303
a(S'YP_003044458.1'
p1304
g3
(g5
S'3\x91r~\xe5\x1aw@'
tRp1305
tp1306
a(S'YP_003047062.1'
p1307
g3
(g5
S'\xcf\xc6\xc1\xec\xd6 w@'
tRp1308
tp1309
a(S'YP_003043852.1'
p1310
g3
(g5
S'lK\rn$Ow@'
tRp1311
tp1312
a(S'YP_003047093.1'
p1313
g3
(g5
S'\\q\xb5\xd3\xb5ww@'
tRp1314
tp1315
a(S'YP_003046606.1'
p1316
g3
(g5
S'\xab\xa5Z\xd1\x9e\x86w@'
tRp1317
tp1318
a(S'YP_003043661.1'
p1319
g3
(g5
S'5\x85.\x85/\x88w@'
tRp1320
tp1321
a(S'YP_003045584.1'
p1322
g3
(g5
S'\xaa\x9e\x92Zu\x8cw@'
tRp1323
tp1324
a(S'YP_003043434.1'
p1325
g3
(g5
S'2\x83\x15\x8c\x1a\x8dw@'
tRp1326
tp1327
a(S'YP_003046926.1'
p1328
g3
(g5
S'2\x02"x\x1b\x92w@'
tRp1329
tp1330
a(S'YP_003044108.1'
p1331
g3
(g5
S'R\x87\xac\xa0\xde\xa7w@'
tRp1332
tp1333
a(S'YP_003046464.1'
p1334
g3
(g5
S'\x85-d\xd3\xdd\xbcw@'
tRp1335
tp1336
a(S'YP_003045418.1'
p1337
g3
(g5
S'=\x88\x80Bf\xe9w@'
tRp1338
tp1339
a(S'YP_003046761.1'
p1340
g3
(g5
S'\x03X\xb6i\xd1\xf0w@'
tRp1341
tp1342
a(S'YP_003044953.1'
p1343
g3
(g5
S'\xfdq\r\xe9\xd0\xf6w@'
tRp1344
tp1345
a(S'YP_003044260.1'
p1346
g3
(g5
S'\xf2U\xd9\x10\x8b\xf7w@'
tRp1347
tp1348
a(S'YP_003043800.1'
p1349
g3
(g5
S'e\x00\xc2\x94\xf0\xf7w@'
tRp1350
tp1351
a(S'YP_003044132.1'
p1352
g3
(g5
S'Y\xb0\x16\xdeQ\x1dx@'
tRp1353
tp1354
a(S'YP_003047097.1'
p1355
g3
(g5
S'z\xe6\xbb\x1b\x1b-x@'
tRp1356
tp1357
a(S'YP_003045447.1'
p1358
g3
(g5
S'\xf8\x86\xccMZ1x@'
tRp1359
tp1360
a(S'YP_003047025.1'
p1361
g3
(g5
S'\xd0}{\x10\xe6Gx@'
tRp1362
tp1363
a(S'YP_003046757.1'
p1364
g3
(g5
S';\xfd\x19)QZx@'
tRp1365
tp1366
a(S'YP_003043630.1'
p1367
g3
(g5
S'\r\x0c\x1a\x1aq]x@'
tRp1368
tp1369
a(S'YP_003045697.1'
p1370
g3
(g5
S'\x11\xa0\xceA\xa7\xacx@'
tRp1371
tp1372
a(S'YP_003043916.1'
p1373
g3
(g5
S'R\x06)H\x80\xb0x@'
tRp1374
tp1375
a(S'YP_003043789.1'
p1376
g3
(g5
S'\xa3v\xe1\xc8\xa9\xbcx@'
tRp1377
tp1378
a(S'YP_003044109.1'
p1379
g3
(g5
S'\xe4<\xa7\xb0r\xe1x@'
tRp1380
tp1381
a(S'YP_003044752.1'
p1382
g3
(g5
S'\xc4\x8f\x82ym\xfdx@'
tRp1383
tp1384
a(S'YP_003044437.1'
p1385
g3
(g5
S'?%+\x82\\\xfex@'
tRp1386
tp1387
a(S'YP_003047164.1'
p1388
g3
(g5
S'F\xcd\x7fRH\x07y@'
tRp1389
tp1390
a(S'YP_003043340.1'
p1391
g3
(g5
S'FV\xf4z\xf6\x10y@'
tRp1392
tp1393
a(S'YP_003044433.1'
p1394
g3
(g5
S'-\x03\xc0\xdf\xb0\x14y@'
tRp1395
tp1396
a(S'YP_003047096.1'
p1397
g3
(g5
S'\xa6\x9b\xb7\x96\x06@y@'
tRp1398
tp1399
a(S'YP_003043588.1'
p1400
g3
(g5
S'\xe1y\xb6\xe7`My@'
tRp1401
tp1402
a(S'YP_003045029.1'
p1403
g3
(g5
S'\xeas~\xab@\xa5y@'
tRp1404
tp1405
a(S'YP_003045406.1'
p1406
g3
(g5
S'\xcc\x8aZ:W\xeby@'
tRp1407
tp1408
a(S'YP_003046686.1'
p1409
g3
(g5
S'\xf0YH|\xc0\xf1y@'
tRp1410
tp1411
a(S'YP_003045673.1'
p1412
g3
(g5
S'\xc3\xb0\xab\xfa}\x13z@'
tRp1413
tp1414
a(S'YP_003044948.1'
p1415
g3
(g5
S'\xb6\x1d\xfb\x86\x96\x14z@'
tRp1416
tp1417
a(S'YP_003045405.1'
p1418
g3
(g5
S'\x12c\xb2n\xf5\x18z@'
tRp1419
tp1420
a(S'YP_003046388.1'
p1421
g3
(g5
S'\xea"\xe7X\xdf8z@'
tRp1422
tp1423
a(S'YP_003046233.1'
p1424
g3
(g5
S'\xba\x80mN\xc9hz@'
tRp1425
tp1426
a(S'YP_003044434.1'
p1427
g3
(g5
S' M\xf71\x1diz@'
tRp1428
tp1429
a(S'YP_003046124.1'
p1430
g3
(g5
S'\x88\tt\xc4Glz@'
tRp1431
tp1432
a(S'YP_003044312.1'
p1433
g3
(g5
S'\t\xb2\xca>\x81nz@'
tRp1434
tp1435
a(S'YP_003043891.1'
p1436
g3
(g5
S'?WW\xd8\xe8\x91z@'
tRp1437
tp1438
a(S'YP_003045556.1'
p1439
g3
(g5
S'OV}w\x9b\x9dz@'
tRp1440
tp1441
a(S'YP_003045294.1'
p1442
g3
(g5
S'\xcb\xb9u"\xcd\xa0z@'
tRp1443
tp1444
a(S'YP_003047107.1'
p1445
g3
(g5
S'X\x0c\x94k\x9f\xb8z@'
tRp1446
tp1447
a(S'YP_003045028.1'
p1448
g3
(g5
S'\x03\x08h\x9f\x97\xc4z@'
tRp1449
tp1450
a(S'YP_003043597.1'
p1451
g3
(g5
S'0^H\xea\xcd\xd6z@'
tRp1452
tp1453
a(S'YP_003047409.1'
p1454
g3
(g5
S'F@_\x7f\x9e\xe9z@'
tRp1455
tp1456
a(S'YP_003047379.1'
p1457
g3
(g5
S'\x17zV\x82\t\xf3z@'
tRp1458
tp1459
a(S'YP_003045977.1'
p1460
g3
(g5
S'\xb8\x9fd\xb8\xec\x02{@'
tRp1461
tp1462
a(S'YP_003046949.1'
p1463
g3
(g5
S'\x80;^O\x8a\x1b{@'
tRp1464
tp1465
a(S'YP_003045983.1'
p1466
g3
(g5
S'{\xe7\xc5\x99i\x1c{@'
tRp1467
tp1468
a(S'YP_003046265.1'
p1469
g3
(g5
S'\xacS\xb0R+:{@'
tRp1470
tp1471
a(S'YP_003044777.1'
p1472
g3
(g5
S'\xda\x18_\x08j?{@'
tRp1473
tp1474
a(S'YP_003047433.1'
p1475
g3
(g5
S'\x07~2\xfd\xb0C{@'
tRp1476
tp1477
a(S'YP_003045784.1'
p1478
g3
(g5
S'[\x1a\xd1N\x04U{@'
tRp1479
tp1480
a(S'YP_003045920.1'
p1481
g3
(g5
S'\x8a\x9e\xe9\xc9\xf3_{@'
tRp1482
tp1483
a(S'YP_003043320.1'
p1484
g3
(g5
S'\x01\xd3\xed\xaa#|{@'
tRp1485
tp1486
a(S'YP_003045658.1'
p1487
g3
(g5
S'\x95 \xc7\xb5\x1e\xa8{@'
tRp1488
tp1489
a(S'YP_003046302.1'
p1490
g3
(g5
S'\xc0x!\xbb\xea\xbf{@'
tRp1491
tp1492
a(S'YP_003047081.1'
p1493
g3
(g5
S'\x99R\x17i\x94\xd1{@'
tRp1494
tp1495
a(S'YP_003045946.1'
p1496
g3
(g5
S'\xb9\x0bL\x01[\xe2{@'
tRp1497
tp1498
a(S'YP_003044136.1'
p1499
g3
(g5
S'>z\xd6\xafR\xfd{@'
tRp1500
tp1501
a(S'YP_003046524.1'
p1502
g3
(g5
S'4C\xd5\xe7\xb3\x04|@'
tRp1503
tp1504
a(S'YP_003046291.1'
p1505
g3
(g5
S'e\x1c~\xcb+\x0e|@'
tRp1506
tp1507
a(S'YP_003045603.1'
p1508
g3
(g5
S'Sz\xd6\xba\xa3 |@'
tRp1509
tp1510
a(S'YP_003046448.1'
p1511
g3
(g5
S'f\xc9\xb6\xe5\xa1)|@'
tRp1512
tp1513
a(S'YP_003043890.1'
p1514
g3
(g5
S'\x97K\x14\xc0\xd31|@'
tRp1515
tp1516
a(S'YP_003045740.1'
p1517
g3
(g5
S'\xa98t|\xe91|@'
tRp1518
tp1519
a(S'YP_003045604.1'
p1520
g3
(g5
S'X\x8e\x8c\x0c\x06?|@'
tRp1521
tp1522
a(S'YP_003047026.1'
p1523
g3
(g5
S'/\xee\x7f)\xef?|@'
tRp1524
tp1525
a(S'YP_003045445.1'
p1526
g3
(g5
S'\x84\xd9\xf9\xd82C|@'
tRp1527
tp1528
a(S'YP_003045519.1'
p1529
g3
(g5
S'\xf8=\x81;\xf4C|@'
tRp1530
tp1531
a(S'YP_003045546.1'
p1532
g3
(g5
S'\xb4\xb9b\x17$J|@'
tRp1533
tp1534
a(S'YP_003046637.1'
p1535
g3
(g5
S'\x13\xb5K\xec\x93R|@'
tRp1536
tp1537
a(S'YP_003044493.1'
p1538
g3
(g5
S'!\x11x\xeftY|@'
tRp1539
tp1540
a(S'YP_003044225.1'
p1541
g3
(g5
S'"\x0c\x0c\xc7\x95r|@'
tRp1542
tp1543
a(S'YP_003047248.1'
p1544
g3
(g5
S'\xae\xb5@\xa5zu|@'
tRp1545
tp1546
a(S'YP_003044146.1'
p1547
g3
(g5
S'l\x92L\xd5\xae\x7f|@'
tRp1548
tp1549
a(S'YP_003046811.1'
p1550
g3
(g5
S'Ii*\x1cO\x8e|@'
tRp1551
tp1552
a(S'YP_003043833.1'
p1553
g3
(g5
S'\x02\xf8O\xde\xa4\x9e|@'
tRp1554
tp1555
a(S'YP_003043262.1'
p1556
g3
(g5
S'\x07\xb7.\x94\xf8\xda|@'
tRp1557
tp1558
a(S'YP_003043829.1'
p1559
g3
(g5
S'EH\x81\x04\x90\n}@'
tRp1560
tp1561
a(S'YP_003044820.1'
p1562
g3
(g5
S'\x88L\xd8J\x05(}@'
tRp1563
tp1564
a(S'YP_003045941.1'
p1565
g3
(g5
S'\xb92\xd3\x04J*}@'
tRp1566
tp1567
a(S'YP_003045431.1'
p1568
g3
(g5
S'\x8a\x9ar\\a*}@'
tRp1569
tp1570
a(S'YP_003044463.1'
p1571
g3
(g5
S'1/{\x80\xb88}@'
tRp1572
tp1573
a(S'YP_003043341.1'
p1574
g3
(g5
S'|[4\x95\x0f:}@'
tRp1575
tp1576
a(S'YP_003044509.1'
p1577
g3
(g5
S'+\xcb\xafXOZ}@'
tRp1578
tp1579
a(S'YP_003044792.1'
p1580
g3
(g5
S'SV\xb0\xf1\x11f}@'
tRp1581
tp1582
a(S'YP_003044170.1'
p1583
g3
(g5
S'b\xa5RT\xea}}@'
tRp1584
tp1585
a(S'YP_003046687.1'
p1586
g3
(g5
S'\xd0\xcc\x80\x08K\x93}@'
tRp1587
tp1588
a(S'YP_003043928.1'
p1589
g3
(g5
S'M\xe5Q2\xad\xa4}@'
tRp1590
tp1591
a(S'YP_003044072.1'
p1592
g3
(g5
S'\x8e:\x03\x1ab\xaf}@'
tRp1593
tp1594
a(S'YP_003043337.1'
p1595
g3
(g5
S'\xd2\xa5\xd3\xb2\xba\xb6}@'
tRp1596
tp1597
a(S'YP_003044846.1'
p1598
g3
(g5
S'V\\\x89\x1b\x00\xba}@'
tRp1599
tp1600
a(S'YP_003046775.1'
p1601
g3
(g5
S'\xad\x85@Bi\xc8}@'
tRp1602
tp1603
a(S'YP_003047170.1'
p1604
g3
(g5
S'\x9e\xa1c\x04\xd0\xd4}@'
tRp1605
tp1606
a(S'YP_003044648.1'
p1607
g3
(g5
S'.\xee\xe2\xae\x83\xf2}@'
tRp1608
tp1609
a(S'YP_003043263.1'
p1610
g3
(g5
S'\x84\x96\xcad\xd8\xfd}@'
tRp1611
tp1612
a(S'YP_003044461.1'
p1613
g3
(g5
S'\x17\xf2\xc6\x9fg\x0c~@'
tRp1614
tp1615
a(S'YP_003043937.1'
p1616
g3
(g5
S'X7~[\xf9\x0e~@'
tRp1617
tp1618
a(S'YP_003046634.1'
p1619
g3
(g5
S'p\x08\xc2\xb6\xf5#~@'
tRp1620
tp1621
a(S'YP_003047080.1'
p1622
g3
(g5
S'\xd9U\x04\xf10Q~@'
tRp1623
tp1624
a(S'YP_003043538.1'
p1625
g3
(g5
S'\xe1\x95\xa3%AS~@'
tRp1626
tp1627
a(S'YP_003046076.1'
p1628
g3
(g5
S'Y\xa6\xb9\x03\t[~@'
tRp1629
tp1630
a(S'YP_003046232.1'
p1631
g3
(g5
S'\xf0i\x98\x01\xdb^~@'
tRp1632
tp1633
a(S'YP_003044492.1'
p1634
g3
(g5
S'7\x02\xdf\xc16w~@'
tRp1635
tp1636
a(S'YP_003046920.1'
p1637
g3
(g5
S'Z\xdb\xad\xa2B\x94~@'
tRp1638
tp1639
a(S'YP_003045379.1'
p1640
g3
(g5
S'\xff\xab\xff\x91\x1e\x98~@'
tRp1641
tp1642
a(S'YP_003046909.1'
p1643
g3
(g5
S'\x16\xb9\x8c\xb4\x8a\x9f~@'
tRp1644
tp1645
a(S'YP_003045964.1'
p1646
g3
(g5
S'\xa7R\xd6C\xd5\xbb~@'
tRp1647
tp1648
a(S'YP_003045265.1'
p1649
g3
(g5
S'\xc7\xb3\xe7\xb1V\x12\x7f@'
tRp1650
tp1651
a(S'YP_003045489.1'
p1652
g3
(g5
S'\xb0\xb6[\xe2\x08(\x7f@'
tRp1653
tp1654
a(S'YP_003045921.1'
p1655
g3
(g5
S'p\r\xe9\xcas(\x7f@'
tRp1656
tp1657
a(S'YP_003044932.1'
p1658
g3
(g5
S'\xf7\xce\xb5\xe2i/\x7f@'
tRp1659
tp1660
a(S'YP_003043608.1'
p1661
g3
(g5
S'WzR\xe7wI\x7f@'
tRp1662
tp1663
a(S'YP_003043281.1'
p1664
g3
(g5
S'\xc7\x0c\x98\xf6\xa2N\x7f@'
tRp1665
tp1666
a(S'YP_003044399.1'
p1667
g3
(g5
S'F#\xb1\xac-\\\x7f@'
tRp1668
tp1669
a(S'YP_003043855.1'
p1670
g3
(g5
S'\x98U\xb5HK\x8d\x7f@'
tRp1671
tp1672
a(S'YP_003045289.1'
p1673
g3
(g5
S'\xc6Y.\x13\x9f\xa7\x7f@'
tRp1674
tp1675
a(S'YP_003047410.1'
p1676
g3
(g5
S'\xca\xf7\x8a\x05<\xbe\x7f@'
tRp1677
tp1678
a(S'YP_003045460.1'
p1679
g3
(g5
S'!\xf6\xfbzA\xea\x7f@'
tRp1680
tp1681
a(S'YP_003046382.1'
p1682
g3
(g5
S'#\xaf/\x08x\xf1\x7f@'
tRp1683
tp1684
a(S'YP_003043285.1'
p1685
g3
(g5
S'\xb8`\x12v\xe1\xf7\x7f@'
tRp1686
tp1687
a(S'YP_003044808.1'
p1688
g3
(g5
S'r4\x7f\xf9\xce\xf9\x7f@'
tRp1689
tp1690
a(S'YP_003043854.1'
p1691
g3
(g5
S'm\xe8$\x136\n\x80@'
tRp1692
tp1693
a(S'YP_003045459.1'
p1694
g3
(g5
S'\xb7\xd2B\x11\xfc\x13\x80@'
tRp1695
tp1696
a(S'YP_003046582.1'
p1697
g3
(g5
S'\x8d\xd5\x1f\xdc\x7f!\x80@'
tRp1698
tp1699
a(S'YP_003045954.1'
p1700
g3
(g5
S'*\x1d\xc5\xa7\xb7.\x80@'
tRp1701
tp1702
a(S'YP_003046784.1'
p1703
g3
(g5
S'Z\x89\xf96\n3\x80@'
tRp1704
tp1705
a(S'YP_003044078.1'
p1706
g3
(g5
S'\xdcFP\xc3\x8aR\x80@'
tRp1707
tp1708
a(S'YP_003045829.1'
p1709
g3
(g5
S'\xc3XnW@U\x80@'
tRp1710
tp1711
a(S'YP_003043756.1'
p1712
g3
(g5
S'#\x05\x1bE@V\x80@'
tRp1713
tp1714
a(S'YP_003046069.1'
p1715
g3
(g5
S'\xf1\x1d\x97\x17\xbd[\x80@'
tRp1716
tp1717
a(S'YP_003045015.1'
p1718
g3
(g5
S'\xd5G`\xaeRf\x80@'
tRp1719
tp1720
a(S'YP_003046354.1'
p1721
g3
(g5
S'\xc0V\xa2W\xe9\x8a\x80@'
tRp1722
tp1723
a(S'YP_003044145.1'
p1724
g3
(g5
S'*\xd1\xad\xbb\xae\x91\x80@'
tRp1725
tp1726
a(S'YP_003044341.1'
p1727
g3
(g5
S'-\xbc\xa5\x1bC\x9f\x80@'
tRp1728
tp1729
a(S'YP_003045225.1'
p1730
g3
(g5
S'KR\xd2\xac,\xbe\x80@'
tRp1731
tp1732
a(S'YP_003045870.1'
p1733
g3
(g5
S'eS\xec\x00\x1c\xc3\x80@'
tRp1734
tp1735
a(S'YP_003046908.1'
p1736
g3
(g5
S'\xcdE\x87\x02{\xd0\x80@'
tRp1737
tp1738
a(S'YP_003044382.1'
p1739
g3
(g5
S'\xa7\xd0\xf8\xf9\xda\xec\x80@'
tRp1740
tp1741
a(S'YP_003043288.1'
p1742
g3
(g5
S"\x038\xc8'\xf7\xf1\x80@"
tRp1743
tp1744
a(S'YP_003043889.1'
p1745
g3
(g5
S'2\xb8\xeb\xcd|\x03\x81@'
tRp1746
tp1747
a(S'YP_003046953.1'
p1748
g3
(g5
S'8\x0e\x92F\x96\x0c\x81@'
tRp1749
tp1750
a(S'YP_003043259.1'
p1751
g3
(g5
S'\x17\x0f\x7f\x89*.\x81@'
tRp1752
tp1753
a(S'YP_003046089.1'
p1754
g3
(g5
S'\xa1?A\xc2\xec7\x81@'
tRp1755
tp1756
a(S'YP_003044844.1'
p1757
g3
(g5
S'Z\x16_H\xe29\x81@'
tRp1758
tp1759
a(S'YP_003043598.1'
p1760
g3
(g5
S'/&\xd6\x83\xed;\x81@'
tRp1761
tp1762
a(S'YP_003046085.1'
p1763
g3
(g5
S'\xa4\x00h)\x80D\x81@'
tRp1764
tp1765
a(S'YP_003046148.1'
p1766
g3
(g5
S'Q\xb2$^pI\x81@'
tRp1767
tp1768
a(S'YP_003045649.1'
p1769
g3
(g5
S'\xde\x05\x1er\xbfM\x81@'
tRp1770
tp1771
a(S'YP_003045987.1'
p1772
g3
(g5
S'\x18\xa6\xce\xa0\xd1Z\x81@'
tRp1773
tp1774
a(S'YP_003043639.1'
p1775
g3
(g5
S'\x92\xb4\x11\xf2Ph\x81@'
tRp1776
tp1777
a(S'YP_003043550.1'
p1778
g3
(g5
S'\xa4?\x84\xa6Rw\x81@'
tRp1779
tp1780
a(S'YP_003044278.1'
p1781
g3
(g5
S'\xfd\x00/\x9bcy\x81@'
tRp1782
tp1783
a(S'YP_003046583.1'
p1784
g3
(g5
S'u\xd3\xbd\x12\x08\x87\x81@'
tRp1785
tp1786
a(S'YP_003046923.1'
p1787
g3
(g5
S'\x86e\x9f\x1a#\x89\x81@'
tRp1788
tp1789
a(S'YP_003044579.1'
p1790
g3
(g5
S'"\xbb\x18\x15\x0b\x99\x81@'
tRp1791
tp1792
a(S'YP_003043758.1'
p1793
g3
(g5
S'\x9eG\xb0\xfc\xf8\x9e\x81@'
tRp1794
tp1795
a(S'YP_003043352.1'
p1796
g3
(g5
S'\xb4-d\xf3m\xa2\x81@'
tRp1797
tp1798
a(S'YP_003043569.1'
p1799
g3
(g5
S'\x1b\xbb)S*\xaa\x81@'
tRp1800
tp1801
a(S'YP_003044270.1'
p1802
g3
(g5
S'\x03\xaf\xc5%\xf8\xaf\x81@'
tRp1803
tp1804
a(S'YP_003047060.1'
p1805
g3
(g5
S'\xe8\x11\xeb\x13q\xce\x81@'
tRp1806
tp1807
a(S'YP_003043704.1'
p1808
g3
(g5
S'87\xc8X#\xde\x81@'
tRp1809
tp1810
a(S'YP_003045178.1'
p1811
g3
(g5
S'\x04\x04\xb3\x07\x96\xde\x81@'
tRp1812
tp1813
a(S'YP_003046474.1'
p1814
g3
(g5
S',\xd6\x93\xd6\x00\xe1\x81@'
tRp1815
tp1816
a(S'YP_003044812.1'
p1817
g3
(g5
S'\xc1\xb1\x95k\xf7\xe8\x81@'
tRp1818
tp1819
a(S'YP_003043910.1'
p1820
g3
(g5
S'\x9d\x0cc\x0b\xa1\xf1\x81@'
tRp1821
tp1822
a(S'YP_003043309.1'
p1823
g3
(g5
S'1\xbc\x9e\xe5\x8a\x02\x82@'
tRp1824
tp1825
a(S'YP_003046031.1'
p1826
g3
(g5
S'l\xaa/\x02\x95(\x82@'
tRp1827
tp1828
a(S'YP_003046227.1'
p1829
g3
(g5
S'\xeb\x82\xae\xb2\x0c<\x82@'
tRp1830
tp1831
a(S'YP_003046851.1'
p1832
g3
(g5
S'x\xbc\xc5u\xef=\x82@'
tRp1833
tp1834
a(S'YP_003044077.1'
p1835
g3
(g5
S'iO|\xc6\x01A\x82@'
tRp1836
tp1837
a(S'YP_003044439.1'
p1838
g3
(g5
S'[I\x06\xf10H\x82@'
tRp1839
tp1840
a(S'YP_003045558.1'
p1841
g3
(g5
S'\xfe\xdf\xa2XqP\x82@'
tRp1842
tp1843
a(S'YP_003045729.1'
p1844
g3
(g5
S'\xc0\x8cx\xff6V\x82@'
tRp1845
tp1846
a(S'YP_003043351.1'
p1847
g3
(g5
S'\xc5ek\x00\xf8\x84\x82@'
tRp1848
tp1849
a(S'YP_003046404.1'
p1850
g3
(g5
S'3\xfcf|\xfa\x88\x82@'
tRp1851
tp1852
a(S'YP_003046319.1'
p1853
g3
(g5
S'\x08*\x94dB\x8e\x82@'
tRp1854
tp1855
a(S'YP_003046675.1'
p1856
g3
(g5
S'\xc2\x81#g\xb9\x8f\x82@'
tRp1857
tp1858
a(S'YP_003045255.1'
p1859
g3
(g5
S'\xd8\xe3A\xb1\xb2\x92\x82@'
tRp1860
tp1861
a(S'YP_003046982.1'
p1862
g3
(g5
S',}m\x11\x8b\xa0\x82@'
tRp1863
tp1864
a(S'YP_003045925.1'
p1865
g3
(g5
S'\nP\x17\xf5\xaf\xa6\x82@'
tRp1866
tp1867
a(S'YP_003045113.1'
p1868
g3
(g5
S'w\xd78E\xcd\xad\x82@'
tRp1869
tp1870
a(S'YP_003047079.1'
p1871
g3
(g5
S'"\x04\xfa\x94D\xb2\x82@'
tRp1872
tp1873
a(S'YP_003047279.1'
p1874
g3
(g5
S'T\n\x88\x04z\xb5\x82@'
tRp1875
tp1876
a(S'YP_003045256.1'
p1877
g3
(g5
S'\xd5vBAr\xc7\x82@'
tRp1878
tp1879
a(S'YP_003047087.1'
p1880
g3
(g5
S'\xe0\x88\xd3\x06\x88\xd8\x82@'
tRp1881
tp1882
a(S'YP_003045073.1'
p1883
g3
(g5
S'B\x0b\xac\x8f\x93\xd8\x82@'
tRp1884
tp1885
a(S'YP_003045087.1'
p1886
g3
(g5
S'\x1f\xc7\xe5\x90\xf4\xe8\x82@'
tRp1887
tp1888
a(S'YP_003045180.1'
p1889
g3
(g5
S'%\x13\x8cq\xbb\xeb\x82@'
tRp1890
tp1891
a(S'YP_003045732.1'
p1892
g3
(g5
S'\x96\x10&\x00T\x0c\x83@'
tRp1893
tp1894
a(S'YP_003044998.1'
p1895
g3
(g5
S'\xd3P\x0cA\x80\x19\x83@'
tRp1896
tp1897
a(S'YP_003044294.1'
p1898
g3
(g5
S'\xfc\xfbO\xcd{+\x83@'
tRp1899
tp1900
a(S'YP_003047278.1'
p1901
g3
(g5
S'\xe6\x8cu\xac\xac5\x83@'
tRp1902
tp1903
a(S'YP_003046999.1'
p1904
g3
(g5
S"'\xd9mQoD\x83@"
tRp1905
tp1906
a(S'YP_003044645.1'
p1907
g3
(g5
S'\x91\xbd\xd4bpO\x83@'
tRp1908
tp1909
a(S'YP_003044810.1'
p1910
g3
(g5
S'\xce\xd11 %T\x83@'
tRp1911
tp1912
a(S'YP_003046838.1'
p1913
g3
(g5
S'\xf3(\xc7#+o\x83@'
tRp1914
tp1915
a(S'YP_003047424.1'
p1916
g3
(g5
S'\x80\xc5f\x1c\x12}\x83@'
tRp1917
tp1918
a(S'YP_003046289.1'
p1919
g3
(g5
S'\xf1s\xc5\x9d\xc7\x83\x83@'
tRp1920
tp1921
a(S'YP_003044822.1'
p1922
g3
(g5
S'\x99\x8b\xf2\xe2o\x9a\x83@'
tRp1923
tp1924
a(S'YP_003047286.1'
p1925
g3
(g5
S'\xd2.\x10\x0c?\xb1\x83@'
tRp1926
tp1927
a(S'YP_003045423.1'
p1928
g3
(g5
S'\xd9\xdc\x7f.#\xb9\x83@'
tRp1929
tp1930
a(S'YP_003044093.1'
p1931
g3
(g5
S'\xd4@\x8c\xe1n\xc7\x83@'
tRp1932
tp1933
a(S'YP_003047180.1'
p1934
g3
(g5
S'\x96\xd3\xcc\xa0\xac\xc7\x83@'
tRp1935
tp1936
a(S'YP_003044389.1'
p1937
g3
(g5
S'\x82\xb6\x93\x95\xdf\xce\x83@'
tRp1938
tp1939
a(S'YP_003046279.1'
p1940
g3
(g5
S'*\xecG!2\xd3\x83@'
tRp1941
tp1942
a(S'YP_003043823.1'
p1943
g3
(g5
S'\xe8\x07e4~\xd3\x83@'
tRp1944
tp1945
a(S'YP_003046066.1'
p1946
g3
(g5
S'\x04v\xadr\x19\xe1\x83@'
tRp1947
tp1948
a(S'YP_003045427.1'
p1949
g3
(g5
S'=\xad\xe1\x80r\xea\x83@'
tRp1950
tp1951
a(S'YP_003045432.1'
p1952
g3
(g5
S'\x87y\xd5\xaf\x19\xfc\x83@'
tRp1953
tp1954
a(S'YP_003044878.1'
p1955
g3
(g5
S'\t6\x89\xed\xf2\xff\x83@'
tRp1956
tp1957
a(S'YP_003047023.1'
p1958
g3
(g5
S'\xa6\xa1\xbb\\\r\t\x84@'
tRp1959
tp1960
a(S'YP_003043853.1'
p1961
g3
(g5
S'{KL\xd1x\x12\x84@'
tRp1962
tp1963
a(S'YP_003047187.1'
p1964
g3
(g5
S'\xda\xeb|\xb3\x175\x84@'
tRp1965
tp1966
a(S'YP_003044367.1'
p1967
g3
(g5
S'f\x83sp\xb87\x84@'
tRp1968
tp1969
a(S'YP_003045665.1'
p1970
g3
(g5
S'&\xa7\xf5\x1aq<\x84@'
tRp1971
tp1972
a(S'YP_003043595.1'
p1973
g3
(g5
S'_\xfb\xb8o\xa3>\x84@'
tRp1974
tp1975
a(S'YP_003045608.1'
p1976
g3
(g5
S'\xf7\x16<HxN\x84@'
tRp1977
tp1978
a(S'YP_003044979.1'
p1979
g3
(g5
S'\xf2\xa4\x81&\xfc~\x84@'
tRp1980
tp1981
a(S'YP_003046557.1'
p1982
g3
(g5
S'\xe9\xbf_\x97\xa3\x80\x84@'
tRp1983
tp1984
a(S'YP_003045408.1'
p1985
g3
(g5
S'!\xec\xef\x8f\xe6\x92\x84@'
tRp1986
tp1987
a(S'YP_003043582.1'
p1988
g3
(g5
S'Raz\xed\x9b\xa6\x84@'
tRp1989
tp1990
a(S'YP_003045668.1'
p1991
g3
(g5
S'Y\x13^\xedz\xa7\x84@'
tRp1992
tp1993
a(S'YP_003046839.1'
p1994
g3
(g5
S'\x13\xbf\xfb\x13`\xbd\x84@'
tRp1995
tp1996
a(S'YP_003043788.1'
p1997
g3
(g5
S'\xa1\x1c\x00\xe4\xf0\xc5\x84@'
tRp1998
tp1999
a(S'YP_003043371.1'
p2000
g3
(g5
S'\x9a\x1ce\x0b\xea\xcc\x84@'
tRp2001
tp2002
a(S'YP_003045828.1'
p2003
g3
(g5
S'\xb3\xfe\x12}\x9f\xd0\x84@'
tRp2004
tp2005
a(S'YP_003046241.1'
p2006
g3
(g5
S'\x88v\xdf\x9f\xc1\xd6\x84@'
tRp2007
tp2008
a(S'YP_003045140.1'
p2009
g3
(g5
S'\x00\xca\x9f\xd3\x0b\xe6\x84@'
tRp2010
tp2011
a(S'YP_003044717.1'
p2012
g3
(g5
S'\xf6\xcez\x01\xa8\xf9\x84@'
tRp2013
tp2014
a(S'YP_003046952.1'
p2015
g3
(g5
S'U\x19\xc6Z \x08\x85@'
tRp2016
tp2017
a(S'YP_003044741.1'
p2018
g3
(g5
S'%\x9c\xd9\x82T\x1b\x85@'
tRp2019
tp2020
a(S'YP_003043862.1'
p2021
g3
(g5
S'8\xa1\xa8\x9c\x06=\x85@'
tRp2022
tp2023
a(S'YP_003047419.1'
p2024
g3
(g5
S'bOZ\xcc\xcep\x85@'
tRp2025
tp2026
a(S'YP_003043930.1'
p2027
g3
(g5
S'\xff\x08\xa5M\xe6\x8d\x85@'
tRp2028
tp2029
a(S'YP_003045655.1'
p2030
g3
(g5
S'\xb6\x87\xeb\x8e\x1c\xae\x85@'
tRp2031
tp2032
a(S'YP_003043985.1'
p2033
g3
(g5
S'\xdeBc\xcfr\xbb\x85@'
tRp2034
tp2035
a(S'YP_003045545.1'
p2036
g3
(g5
S'\xc5\x82\xbd\xfcr\xc6\x85@'
tRp2037
tp2038
a(S'YP_003044853.1'
p2039
g3
(g5
S'+\xec\xf7p\xc1\xe8\x85@'
tRp2040
tp2041
a(S'YP_003046212.1'
p2042
g3
(g5
S'\x87\x1a\xe3{\x9a\xe9\x85@'
tRp2043
tp2044
a(S'YP_003044153.1'
p2045
g3
(g5
S'\x88}\xda\xa3\x02\xfa\x85@'
tRp2046
tp2047
a(S'YP_003045139.1'
p2048
g3
(g5
S'\xf4\xd0\xa7\xfa\x9d\xfa\x85@'
tRp2049
tp2050
a(S'YP_003047047.1'
p2051
g3
(g5
S'\x83\x83\xd1\x12\x1e\xfb\x85@'
tRp2052
tp2053
a(S'YP_003043316.1'
p2054
g3
(g5
S'\xbe\xc5]l\xef\xff\x85@'
tRp2055
tp2056
a(S'YP_003044394.1'
p2057
g3
(g5
S'\x8coL+\x04\x05\x86@'
tRp2058
tp2059
a(S'YP_003045913.1'
p2060
g3
(g5
S'.\xf6E\x93Y\r\x86@'
tRp2061
tp2062
a(S'YP_003046760.1'
p2063
g3
(g5
S"\x07'\xe1}+\x14\x86@"
tRp2064
tp2065
a(S'YP_003044124.1'
p2066
g3
(g5
S'\xb4\x7f\xfdeU\x16\x86@'
tRp2067
tp2068
a(S'YP_003046095.1'
p2069
g3
(g5
S'RH(\xa1\xa7\x17\x86@'
tRp2070
tp2071
a(S'YP_003046013.1'
p2072
g3
(g5
S'/\x05\xd7\x0e\x0b \x86@'
tRp2073
tp2074
a(S'YP_003044836.1'
p2075
g3
(g5
S'4\xae\x07MO!\x86@'
tRp2076
tp2077
a(S'YP_003045224.1'
p2078
g3
(g5
S'\xfab\xb1\x8e\xf5#\x86@'
tRp2079
tp2080
a(S'YP_003045523.1'
p2081
g3
(g5
S'\xc3\xac\xc3\x06\xfd)\x86@'
tRp2082
tp2083
a(S'YP_003046991.1'
p2084
g3
(g5
S'\x8b5\xa4I?<\x86@'
tRp2085
tp2086
a(S'YP_003044249.1'
p2087
g3
(g5
S'\x12\x9d\x8f\xd2\x8aB\x86@'
tRp2088
tp2089
a(S'YP_003044465.1'
p2090
g3
(g5
S'\x14Ff\xe7\x1dJ\x86@'
tRp2091
tp2092
a(S'YP_003046109.1'
p2093
g3
(g5
S'\xd5\x15\x9e\r\xd6K\x86@'
tRp2094
tp2095
a(S'YP_003043914.1'
p2096
g3
(g5
S'\xdbF\x05Y^\\\x86@'
tRp2097
tp2098
a(S'YP_003043318.1'
p2099
g3
(g5
S'\xdd\xab\xa6V2c\x86@'
tRp2100
tp2101
a(S'YP_003046110.1'
p2102
g3
(g5
S'1\xa7\x04o\xb9g\x86@'
tRp2103
tp2104
a(S'YP_003046852.1'
p2105
g3
(g5
S'm\xab\xb1p\xe5i\x86@'
tRp2106
tp2107
a(S'YP_003045236.1'
p2108
g3
(g5
S'\xdb\x88d\x01.\x94\x86@'
tRp2109
tp2110
a(S'YP_003045304.1'
p2111
g3
(g5
S'\x8e@c\xea\xa6\x94\x86@'
tRp2112
tp2113
a(S'YP_003045272.1'
p2114
g3
(g5
S'\xd2\xad\x1a\xe2[\x98\x86@'
tRp2115
tp2116
a(S'YP_003046843.1'
p2117
g3
(g5
S'?\xfbj1\x9a\xbd\x86@'
tRp2118
tp2119
a(S'YP_003046292.1'
p2120
g3
(g5
S'\x01\x8c\x87\x97}\xc9\x86@'
tRp2121
tp2122
a(S'YP_003044281.1'
p2123
g3
(g5
S')H\xe8\x1d7\xcd\x86@'
tRp2124
tp2125
a(S'YP_003044460.1'
p2126
g3
(g5
S'\xbd\x8a\x92E\xd7\xcd\x86@'
tRp2127
tp2128
a(S'YP_003044933.1'
p2129
g3
(g5
S'{\x1ef\xac\xb6\xd1\x86@'
tRp2130
tp2131
a(S'YP_003045044.1'
p2132
g3
(g5
S'T\xdb\x02\x1d\x07\xe1\x86@'
tRp2133
tp2134
a(S'YP_003043596.1'
p2135
g3
(g5
S'\x9fV\xc9\xa6q\xe8\x86@'
tRp2136
tp2137
a(S'YP_003044323.1'
p2138
g3
(g5
S'\x0b\xc6\xf5\x1c\xee\xfb\x86@'
tRp2139
tp2140
a(S'YP_003044377.1'
p2141
g3
(g5
S'\xe9\xf3Y\xc2o\x0b\x87@'
tRp2142
tp2143
a(S'YP_003047201.1'
p2144
g3
(g5
S'\n\xe7,c\x17\x0c\x87@'
tRp2145
tp2146
a(S'YP_003043398.1'
p2147
g3
(g5
S'\x059\xf6M\xd3"\x87@'
tRp2148
tp2149
a(S'YP_003043426.1'
p2150
g3
(g5
S'\xf2\xcd\xd7\x02\x1b#\x87@'
tRp2151
tp2152
a(S'YP_003044388.1'
p2153
g3
(g5
S'\x98L\x0b\x98\xe7C\x87@'
tRp2154
tp2155
a(S'YP_003046441.1'
p2156
g3
(g5
S'Z\x7f\xff\xb8\xa2L\x87@'
tRp2157
tp2158
a(S'YP_003046862.1'
p2159
g3
(g5
S'$\xb1WERZ\x87@'
tRp2160
tp2161
a(S'YP_003046002.1'
p2162
g3
(g5
S'\x9aLej\x94c\x87@'
tRp2163
tp2164
a(S'YP_003046810.1'
p2165
g3
(g5
S'or\xceg\xd4h\x87@'
tRp2166
tp2167
a(S'YP_003045166.1'
p2168
g3
(g5
S'\xcdx\xe4QTm\x87@'
tRp2169
tp2170
a(S'YP_003045368.1'
p2171
g3
(g5
S'n\x96\xfa\xf75n\x87@'
tRp2172
tp2173
a(S'YP_003044005.1'
p2174
g3
(g5
S'\x1f\x8a\x01\xedZt\x87@'
tRp2175
tp2176
a(S'YP_003046496.1'
p2177
g3
(g5
S'y`\xcc\xbc\xeft\x87@'
tRp2178
tp2179
a(S'YP_003045688.1'
p2180
g3
(g5
S'\xed\xa6\xa9\x86(\x86\x87@'
tRp2181
tp2182
a(S'YP_003044154.1'
p2183
g3
(g5
S'\xd7~8\xd0w\x88\x87@'
tRp2184
tp2185
a(S'YP_003044700.1'
p2186
g3
(g5
S'OI\x92\xdf\xbd\x90\x87@'
tRp2187
tp2188
a(S'YP_003047406.1'
p2189
g3
(g5
S'\xf6\xc2\x1b\xa2\xd9\x98\x87@'
tRp2190
tp2191
a(S'YP_003044176.1'
p2192
g3
(g5
S' f\xda\x90\xa3\x99\x87@'
tRp2193
tp2194
a(S'YP_003046208.1'
p2195
g3
(g5
S'\xb2\xdaEl\xb2\x9a\x87@'
tRp2196
tp2197
a(S'YP_003045659.1'
p2198
g3
(g5
S'\xee\xebXv\x16\xa9\x87@'
tRp2199
tp2200
a(S'YP_003046572.1'
p2201
g3
(g5
S'\xa3\xa8\x98\xd7E\xb4\x87@'
tRp2202
tp2203
a(S'YP_003043996.1'
p2204
g3
(g5
S'\xc1U\x86\xa0\x9e\xb5\x87@'
tRp2205
tp2206
a(S'YP_003046202.1'
p2207
g3
(g5
S'+:+\xd3\xe9\xd7\x87@'
tRp2208
tp2209
a(S'YP_003044459.1'
p2210
g3
(g5
S"'s\x1d\xc2\xb5\xe0\x87@"
tRp2211
tp2212
a(S'YP_003044618.1'
p2213
g3
(g5
S'\xf4S\x0b\x03\xec\xeb\x87@'
tRp2214
tp2215
a(S'YP_003046495.1'
p2216
g3
(g5
S'>\xd79\xfdQ\xfc\x87@'
tRp2217
tp2218
a(S'YP_003043997.1'
p2219
g3
(g5
S'\xf5\xf4t8O\x01\x88@'
tRp2220
tp2221
a(S'YP_003046680.1'
p2222
g3
(g5
S'\xfd\xda\xf2\xbd\x86\x14\x88@'
tRp2223
tp2224
a(S'YP_003045654.1'
p2225
g3
(g5
S'\xdeY\xc6\xe56\x19\x88@'
tRp2226
tp2227
a(S'YP_003043932.1'
p2228
g3
(g5
S'\xc3\xf1\x0c8\x02,\x88@'
tRp2229
tp2230
a(S'YP_003045928.1'
p2231
g3
(g5
S'\x01/aj\xe79\x88@'
tRp2232
tp2233
a(S'YP_003045205.1'
p2234
g3
(g5
S'\xfak5\xcd\xd4q\x88@'
tRp2235
tp2236
a(S'YP_003045165.1'
p2237
g3
(g5
S'\xa3\xe2Z\xd9Ts\x88@'
tRp2238
tp2239
a(S'YP_003046513.1'
p2240
g3
(g5
S'k\xbde\x1dV\x81\x88@'
tRp2241
tp2242
a(S'YP_003046282.1'
p2243
g3
(g5
S'E\xb6c\x1f\x99\x96\x88@'
tRp2244
tp2245
a(S'YP_003045824.1'
p2246
g3
(g5
S'\xab\xcbpBY\x9a\x88@'
tRp2247
tp2248
a(S'YP_003043391.1'
p2249
g3
(g5
S'Y\x87*\xc5\xfe\xac\x88@'
tRp2250
tp2251
a(S'YP_003043594.1'
p2252
g3
(g5
S'\x18K\xf3\xd2,\xad\x88@'
tRp2253
tp2254
a(S'YP_003045863.1'
p2255
g3
(g5
S')\x9d\xa1V^\xb2\x88@'
tRp2256
tp2257
a(S'YP_003047271.1'
p2258
g3
(g5
S"\xe6'6zc\xb2\x88@"
tRp2259
tp2260
a(S'YP_003046925.1'
p2261
g3
(g5
S'\x95\xb9my\x12\xb5\x88@'
tRp2262
tp2263
a(S'YP_003045382.1'
p2264
g3
(g5
S'U\xe7\x1av\x16\xc2\x88@'
tRp2265
tp2266
a(S'YP_003043428.1'
p2267
g3
(g5
S':\xa1\xcb\x02Z\xda\x88@'
tRp2268
tp2269
a(S'YP_003044462.1'
p2270
g3
(g5
S'\x9d\x8a\x02RQ\xde\x88@'
tRp2271
tp2272
a(S'YP_003045309.1'
p2273
g3
(g5
S'\xbe\x87s=h\xdf\x88@'
tRp2274
tp2275
a(S'YP_003044959.1'
p2276
g3
(g5
S'r9\xed\xda\xc7\xe6\x88@'
tRp2277
tp2278
a(S'YP_003046531.1'
p2279
g3
(g5
S'\xa4\x8fxJ\xaf\xf4\x88@'
tRp2280
tp2281
a(S'YP_003043863.1'
p2282
g3
(g5
S'+="\xc2\xa0\x02\x89@'
tRp2283
tp2284
a(S'YP_003046317.1'
p2285
g3
(g5
S'\xef\xd4X\xb94\n\x89@'
tRp2286
tp2287
a(S'YP_003043580.1'
p2288
g3
(g5
S'\xec/\x15r\xa9\x1f\x89@'
tRp2289
tp2290
a(S'YP_003044454.1'
p2291
g3
(g5
S'\xea\x1b\xa5\x9fFH\x89@'
tRp2292
tp2293
a(S'YP_003044365.1'
p2294
g3
(g5
S'\xed\x17\xb3\x9d\xe8S\x89@'
tRp2295
tp2296
a(S'YP_003044370.1'
p2297
g3
(g5
S'\xe6!\xce2\x8ek\x89@'
tRp2298
tp2299
a(S'YP_003045966.1'
p2300
g3
(g5
S'\xaa\xe6F\x01\xef\x81\x89@'
tRp2301
tp2302
a(S'YP_003044269.1'
p2303
g3
(g5
S'\xea\xd4.\xd5\xf7\x83\x89@'
tRp2304
tp2305
a(S'YP_003044931.1'
p2306
g3
(g5
S'\xfd\x8c\xbd\x02B\x84\x89@'
tRp2307
tp2308
a(S'YP_003044833.1'
p2309
g3
(g5
S'}\x8d\x95:\x8b\x9e\x89@'
tRp2310
tp2311
a(S'YP_003044930.1'
p2312
g3
(g5
S'\xcd\x8fQ\xe8\x1b\xa1\x89@'
tRp2313
tp2314
a(S'YP_003046840.1'
p2315
g3
(g5
S'\x04\xc1\xe9:\x03\xa3\x89@'
tRp2316
tp2317
a(S'YP_003045642.1'
p2318
g3
(g5
S'g_\xc7\xa6\x13\xb5\x89@'
tRp2319
tp2320
a(S'YP_003045446.1'
p2321
g3
(g5
S'\xbd\xd0rZM\xc1\x89@'
tRp2322
tp2323
a(S'YP_003047085.1'
p2324
g3
(g5
S'\x08\xb6\xb3In\xd4\x89@'
tRp2325
tp2326
a(S'YP_003043333.1'
p2327
g3
(g5
S'\xb9}\xdd\xb5v\xd6\x89@'
tRp2328
tp2329
a(S'YP_003046486.1'
p2330
g3
(g5
S'\xcfzW\x84q\xe9\x89@'
tRp2331
tp2332
a(S'YP_003047200.1'
p2333
g3
(g5
S'\nMt\x03s\xef\x89@'
tRp2334
tp2335
a(S'YP_003046854.1'
p2336
g3
(g5
S'\xf9\x1f\xdd\xdb\xbc\xf8\x89@'
tRp2337
tp2338
a(S'YP_003043799.1'
p2339
g3
(g5
S'\xdd3\xa4\xd1\x1e\r\x8a@'
tRp2340
tp2341
a(S'YP_003047024.1'
p2342
g3
(g5
S'\x17v\x02\xff]\x17\x8a@'
tRp2343
tp2344
a(S'YP_003045650.1'
p2345
g3
(g5
S'\xdf\x16\x8b\xceQ%\x8a@'
tRp2346
tp2347
a(S'YP_003046443.1'
p2348
g3
(g5
S'G{\xa0N\x1d=\x8a@'
tRp2349
tp2350
a(S'YP_003044024.1'
p2351
g3
(g5
S'\xa0\x1b\x0b\xce\xb9A\x8a@'
tRp2352
tp2353
a(S'YP_003046984.1'
p2354
g3
(g5
S'\x8d\xf9/|YC\x8a@'
tRp2355
tp2356
a(S'YP_003044088.1'
p2357
g3
(g5
S'\x08x\xedR\xf0C\x8a@'
tRp2358
tp2359
a(S'YP_003044343.1'
p2360
g3
(g5
S'\x8c%X\x14KM\x8a@'
tRp2361
tp2362
a(S'YP_003046001.1'
p2363
g3
(g5
S'^\x9a\xbav\xafO\x8a@'
tRp2364
tp2365
a(S'YP_003046998.1'
p2366
g3
(g5
S'm\x05_j\x17\x80\x8a@'
tRp2367
tp2368
a(S'YP_003044113.1'
p2369
g3
(g5
S'\xae\xcd&\x868\x95\x8a@'
tRp2370
tp2371
a(S'YP_003047318.1'
p2372
g3
(g5
S'R\x92\xe4\xe9:\xbb\x8a@'
tRp2373
tp2374
a(S'YP_003043416.1'
p2375
g3
(g5
S'\xf4\xe4.F\xcf\xc4\x8a@'
tRp2376
tp2377
a(S'YP_003047020.1'
p2378
g3
(g5
S',\x13\xb6A\x1e\xd2\x8a@'
tRp2379
tp2380
a(S'YP_003046670.1'
p2381
g3
(g5
S'\x0b9\xf1\x7f\x9d\xf5\x8a@'
tRp2382
tp2383
a(S'YP_003044782.1'
p2384
g3
(g5
S'\xa2\x11~\x92q\x0b\x8b@'
tRp2385
tp2386
a(S'YP_003044089.1'
p2387
g3
(g5
S'}[\xc2"\x8e\x12\x8b@'
tRp2388
tp2389
a(S'YP_003046252.1'
p2390
g3
(g5
S'Iz\x13\xc9\xad\x1c\x8b@'
tRp2391
tp2392
a(S'YP_003046971.1'
p2393
g3
(g5
S'b\x8f?E\x965\x8b@'
tRp2394
tp2395
a(S'YP_003045714.1'
p2396
g3
(g5
S'\xa8\xd7\x88e\x1fH\x8b@'
tRp2397
tp2398
a(S'YP_003044174.1'
p2399
g3
(g5
S'\xedX\xbe\xbc\xebP\x8b@'
tRp2400
tp2401
a(S'YP_003047249.1'
p2402
g3
(g5
S'\xa0\xbf\xb2>jv\x8b@'
tRp2403
tp2404
a(S'YP_003047359.1'
p2405
g3
(g5
S'd\xefO\xcf\xfa{\x8b@'
tRp2406
tp2407
a(S'YP_003046487.1'
p2408
g3
(g5
S'\xe9\xbe|9\xb3\x99\x8b@'
tRp2409
tp2410
a(S'YP_003045911.1'
p2411
g3
(g5
S'\x895V5\xb1\x9c\x8b@'
tRp2412
tp2413
a(S'YP_003044371.1'
p2414
g3
(g5
S'\xcd/\x0f\xa0\xf3\xa9\x8b@'
tRp2415
tp2416
a(S'YP_003043658.1'
p2417
g3
(g5
S':^\xbbHb\xc9\x8b@'
tRp2418
tp2419
a(S'YP_003044829.1'
p2420
g3
(g5
S'Zi:\xd3\xdd\xce\x8b@'
tRp2421
tp2422
a(S'YP_003044894.1'
p2423
g3
(g5
S'f\xc6u\xdc3\xe0\x8b@'
tRp2424
tp2425
a(S'YP_003045090.1'
p2426
g3
(g5
S'\xe3\xad\xba\xc9\x08\xef\x8b@'
tRp2427
tp2428
a(S'YP_003047420.1'
p2429
g3
(g5
S' J\rN\xd5\x05\x8c@'
tRp2430
tp2431
a(S'YP_003046273.1'
p2432
g3
(g5
S'\x13r\x12\x10l\x10\x8c@'
tRp2433
tp2434
a(S'YP_003046226.1'
p2435
g3
(g5
S'\x17\xe7\xc7X\xd8\x1e\x8c@'
tRp2436
tp2437
a(S'YP_003046891.1'
p2438
g3
(g5
S'\xa5\x0e,\x18:-\x8c@'
tRp2439
tp2440
a(S'YP_003043235.1'
p2441
g3
(g5
S'\xcf\xe5\xbf\x17`k\x8c@'
tRp2442
tp2443
a(S'YP_003046255.1'
p2444
g3
(g5
S'\x94=X\x9b\xafk\x8c@'
tRp2445
tp2446
a(S'YP_003044783.1'
p2447
g3
(g5
S';\x11\x90u\x98\x95\x8c@'
tRp2448
tp2449
a(S'YP_003045353.1'
p2450
g3
(g5
S' V\x9aO\x82\xa6\x8c@'
tRp2451
tp2452
a(S'YP_003043378.1'
p2453
g3
(g5
S'\xaao\x1fK\x9e\xe2\x8c@'
tRp2454
tp2455
a(S'YP_003045651.1'
p2456
g3
(g5
S'\x81K\x06\x19\xa3\x14\x8d@'
tRp2457
tp2458
a(S'YP_003046356.1'
p2459
g3
(g5
S'\x04\xd3E\t\x0f9\x8d@'
tRp2460
tp2461
a(S'YP_003043324.1'
p2462
g3
(g5
S'\xb0&\xb0\xa4\x0e\\\x8d@'
tRp2463
tp2464
a(S'YP_003046064.1'
p2465
g3
(g5
S'\x1eP\xd8s\xb8`\x8d@'
tRp2466
tp2467
a(S'YP_003043587.1'
p2468
g3
(g5
S'\xcdW\xa4\x0f(v\x8d@'
tRp2469
tp2470
a(S'YP_003046065.1'
p2471
g3
(g5
S'\x0f\x94S\x89\x88\x81\x8d@'
tRp2472
tp2473
a(S'YP_003044780.1'
p2474
g3
(g5
S'h&\x89R\xd9\x81\x8d@'
tRp2475
tp2476
a(S'YP_003045420.1'
p2477
g3
(g5
S'\xec\xe6}:;\x95\x8d@'
tRp2478
tp2479
a(S'YP_003047019.1'
p2480
g3
(g5
S'\xb9\x11\xe9\x8b\xea\xbd\x8d@'
tRp2481
tp2482
a(S'YP_003044916.1'
p2483
g3
(g5
S'o4\xed\n\xa4\xc2\x8d@'
tRp2484
tp2485
a(S'YP_003044521.1'
p2486
g3
(g5
S'\x93{}\x8a\xe5\xc3\x8d@'
tRp2487
tp2488
a(S'YP_003043927.1'
p2489
g3
(g5
S'\xbd5L\xfc@\xdb\x8d@'
tRp2490
tp2491
a(S'YP_003043921.1'
p2492
g3
(g5
S'@6\\\xaf\xe0\xe8\x8d@'
tRp2493
tp2494
a(S'YP_003045789.1'
p2495
g3
(g5
S'\xbd\x8c\x94o\xae\xfd\x8d@'
tRp2496
tp2497
a(S'YP_003047256.1'
p2498
g3
(g5
S'^\xe90\x9a\x03\x18\x8e@'
tRp2499
tp2500
a(S'YP_003045354.1'
p2501
g3
(g5
S'U\xfb\xe6\xd9\xa9\x1e\x8e@'
tRp2502
tp2503
a(S'YP_003046573.1'
p2504
g3
(g5
S'%?\xc8u\x0c-\x8e@'
tRp2505
tp2506
a(S'YP_003043649.1'
p2507
g3
(g5
S'\xc8\xd1\x18\xc6N7\x8e@'
tRp2508
tp2509
a(S'YP_003045069.1'
p2510
g3
(g5
S'\xba\x18\xce\xa4\x89S\x8e@'
tRp2511
tp2512
a(S'YP_003045610.1'
p2513
g3
(g5
S'\xa8\x87\t\r\xe1\x9f\x8e@'
tRp2514
tp2515
a(S'YP_003046756.1'
p2516
g3
(g5
S'\xf2+V:\x07\xaf\x8e@'
tRp2517
tp2518
a(S'YP_003045605.1'
p2519
g3
(g5
S'\xddo\x90>\xa4\xbf\x8e@'
tRp2520
tp2521
a(S'YP_003044472.1'
p2522
g3
(g5
S'(\xc3\xd6oC\xd5\x8e@'
tRp2523
tp2524
a(S'YP_003046433.1'
p2525
g3
(g5
S'\x1a\xe8\x8fJ\xba\x0f\x8f@'
tRp2526
tp2527
a(S'YP_003043467.1'
p2528
g3
(g5
S'\xd6\x1b@\xb5.\x10\x8f@'
tRp2529
tp2530
a(S'YP_003044861.1'
p2531
g3
(g5
S'\x08\x0b\xce\x9a+<\x8f@'
tRp2532
tp2533
a(S'YP_003044880.1'
p2534
g3
(g5
S'\x01\xbb\x1f\n\xfbj\x8f@'
tRp2535
tp2536
a(S'YP_003046214.1'
p2537
g3
(g5
S'\x84\xa7K\x98P\x8a\x8f@'
tRp2538
tp2539
a(S'YP_003044896.1'
p2540
g3
(g5
S'D\xcb\x02S\xf7\xb7\x8f@'
tRp2541
tp2542
a(S'YP_003047282.1'
p2543
g3
(g5
S'\x95\xd8Ry\xd2\xbb\x8f@'
tRp2544
tp2545
a(S'YP_003047273.1'
p2546
g3
(g5
S':\x0c!\xf8\x9a\xc1\x8f@'
tRp2547
tp2548
a(S'YP_003046254.1'
p2549
g3
(g5
S'\n$c\xe7\x84\xd9\x8f@'
tRp2550
tp2551
a(S'YP_003044870.1'
p2552
g3
(g5
S'\x1es\x1djJ\xe1\x8f@'
tRp2553
tp2554
a(S'YP_003043654.1'
p2555
g3
(g5
S'\x96\x11G\xc2\x8f\xe2\x8f@'
tRp2556
tp2557
a(S'YP_003046591.1'
p2558
g3
(g5
S'\xd9n\x11\x8c\x07\xe3\x8f@'
tRp2559
tp2560
a(S'YP_003044020.1'
p2561
g3
(g5
S'e\x9cA[\x0f\xec\x8f@'
tRp2562
tp2563
a(S'YP_003045437.1'
p2564
g3
(g5
S'2\x14\xdf\xbcZ\r\x90@'
tRp2565
tp2566
a(S'YP_003044872.1'
p2567
g3
(g5
S'k\x84N\x01\xec\x12\x90@'
tRp2568
tp2569
a(S'YP_003045918.1'
p2570
g3
(g5
S'\xc24t\xaa\xd1$\x90@'
tRp2571
tp2572
a(S'YP_003045843.1'
p2573
g3
(g5
S'\\\x0e\xb3bp4\x90@'
tRp2574
tp2575
a(S'YP_003045615.1'
p2576
g3
(g5
S'w\x85\x10\x8e\xe04\x90@'
tRp2577
tp2578
a(S'YP_003043321.1'
p2579
g3
(g5
S'\xbe\x80\x87\x83&7\x90@'
tRp2580
tp2581
a(S'YP_003043943.1'
p2582
g3
(g5
S'\xc5k\xdc\xf2\xfb>\x90@'
tRp2583
tp2584
a(S'YP_003043637.1'
p2585
g3
(g5
S'[\x0b\xa7\xa3\xe4]\x90@'
tRp2586
tp2587
a(S'YP_003043265.1'
p2588
g3
(g5
S'\xdeL1\x1f\x02_\x90@'
tRp2589
tp2590
a(S'YP_003045020.1'
p2591
g3
(g5
S'\x1d\x08\r\xf2\xc5s\x90@'
tRp2592
tp2593
a(S'YP_003044562.1'
p2594
g3
(g5
S'\x8b\xe9\xe6\x8b[{\x90@'
tRp2595
tp2596
a(S'YP_003046086.1'
p2597
g3
(g5
S'\xb4Q\xb8\xb4A\x81\x90@'
tRp2598
tp2599
a(S'YP_003045969.1'
p2600
g3
(g5
S'G\xda\x87\\\x19\x90\x90@'
tRp2601
tp2602
a(S'YP_003045436.1'
p2603
g3
(g5
S'\x86\x92\rj\xd6\xa5\x90@'
tRp2604
tp2605
a(S'YP_003044985.1'
p2606
g3
(g5
S'\xf2\xaa\x06\xed\xc5\xb3\x90@'
tRp2607
tp2608
a(S'YP_003047321.1'
p2609
g3
(g5
S'I2\xe8+N\xb4\x90@'
tRp2610
tp2611
a(S'YP_003046425.1'
p2612
g3
(g5
S'4\x9a\x80O\xc2\xb8\x90@'
tRp2613
tp2614
a(S'YP_003044185.1'
p2615
g3
(g5
S'\xa902\x04Z\xbc\x90@'
tRp2616
tp2617
a(S'YP_003044169.1'
p2618
g3
(g5
S'\xe7\x91\xc8\x14\x84\xdf\x90@'
tRp2619
tp2620
a(S'YP_003043286.1'
p2621
g3
(g5
S"'\xf2C\x05\xeb\xee\x90@"
tRp2622
tp2623
a(S'YP_003043315.1'
p2624
g3
(g5
S'2\xdc\x94\x02\xb2\xef\x90@'
tRp2625
tp2626
a(S'YP_003045350.1'
p2627
g3
(g5
S'\xfb\x0eR\x13\xd9\xfb\x90@'
tRp2628
tp2629
a(S'YP_003043584.1'
p2630
g3
(g5
S'\xda\x8efY[\x02\x91@'
tRp2631
tp2632
a(S'YP_003043847.1'
p2633
g3
(g5
S',8\xa4[^\x04\x91@'
tRp2634
tp2635
a(S'YP_003043330.1'
p2636
g3
(g5
S'l\x01\x10&Z\x12\x91@'
tRp2637
tp2638
a(S'YP_003045032.1'
p2639
g3
(g5
S'b\x0f\x93R\x05\x13\x91@'
tRp2640
tp2641
a(S'YP_003045652.1'
p2642
g3
(g5
S'\xe4y\x0e\x00t$\x91@'
tRp2643
tp2644
a(S'YP_003043361.1'
p2645
g3
(g5
S'\xf5,CS\xd6-\x91@'
tRp2646
tp2647
a(S'YP_003046679.1'
p2648
g3
(g5
S'8\xa3\x8f\xa8\xe25\x91@'
tRp2649
tp2650
a(S'YP_003044012.1'
p2651
g3
(g5
S'\xbd\x97\xfadu@\x91@'
tRp2652
tp2653
a(S'YP_003043546.1'
p2654
g3
(g5
S'\x10\x95\xe5\xfa\xa6E\x91@'
tRp2655
tp2656
a(S'YP_003046900.1'
p2657
g3
(g5
S'\x1a\xab"\xf1\xafM\x91@'
tRp2658
tp2659
a(S'YP_003045022.1'
p2660
g3
(g5
S'\xa1\xf8v\x13\xd3M\x91@'
tRp2661
tp2662
a(S'YP_003043818.1'
p2663
g3
(g5
S'\x85\x921\x9b\x01O\x91@'
tRp2664
tp2665
a(S'YP_003046005.1'
p2666
g3
(g5
S'\x16Q\xc7\xf5XS\x91@'
tRp2667
tp2668
a(S'YP_003044412.1'
p2669
g3
(g5
S'\xb3!\x1e\x9f\xafY\x91@'
tRp2670
tp2671
a(S'YP_003043796.1'
p2672
g3
(g5
S'2k\xf8\xc7Wk\x91@'
tRp2673
tp2674
a(S'YP_003044366.1'
p2675
g3
(g5
S':kh|$l\x91@'
tRp2676
tp2677
a(S'YP_003045597.1'
p2678
g3
(g5
S'\xfc\xa0\xcf\x85\xfal\x91@'
tRp2679
tp2680
a(S'YP_003045554.1'
p2681
g3
(g5
S'q\x9a6k\xd5t\x91@'
tRp2682
tp2683
a(S'YP_003044467.1'
p2684
g3
(g5
S'\xba\xb1\x19\xb1\xca|\x91@'
tRp2685
tp2686
a(S'YP_003045513.1'
p2687
g3
(g5
S'\xee\x89\xc6f:~\x91@'
tRp2688
tp2689
a(S'YP_003047289.1'
p2690
g3
(g5
S'~\x00\x18\xebB\x82\x91@'
tRp2691
tp2692
a(S'YP_003046219.1'
p2693
g3
(g5
S'\xb5=\xb4c\xcb\x82\x91@'
tRp2694
tp2695
a(S'YP_003045410.1'
p2696
g3
(g5
S'P\xad\x94\xaa\xbd\x87\x91@'
tRp2697
tp2698
a(S'YP_003045635.1'
p2699
g3
(g5
S'\x84\xf0\xd4l\xa5\x89\x91@'
tRp2700
tp2701
a(S'YP_003044167.1'
p2702
g3
(g5
S'6\xd8\xec\x92O\x8a\x91@'
tRp2703
tp2704
a(S'YP_003045034.1'
p2705
g3
(g5
S'E\x9d#\xc8\xd9\xa3\x91@'
tRp2706
tp2707
a(S'YP_003044781.1'
p2708
g3
(g5
S'\x0e\x00\xddT<\xa5\x91@'
tRp2709
tp2710
a(S'YP_003044140.1'
p2711
g3
(g5
S'0\xa4`\xc9\x10\xbd\x91@'
tRp2712
tp2713
a(S'YP_003045007.1'
p2714
g3
(g5
S'\xfb6\xc2\x81\xc7\xc1\x91@'
tRp2715
tp2716
a(S'YP_003044149.1'
p2717
g3
(g5
S'\xb9\xb7\xd9\xa5}\xd2\x91@'
tRp2718
tp2719
a(S'YP_003043705.1'
p2720
g3
(g5
S'\x00\\\xa9\x90\xf2\xd5\x91@'
tRp2721
tp2722
a(S'YP_003045955.1'
p2723
g3
(g5
S'\xcd\xe6\x97@\xee\xda\x91@'
tRp2724
tp2725
a(S'YP_003044984.1'
p2726
g3
(g5
S'\xa2\xeb[\x1b\x0c\xec\x91@'
tRp2727
tp2728
a(S'YP_003045416.1'
p2729
g3
(g5
S'"\x7f\x16\xa1\xa5\xf4\x91@'
tRp2730
tp2731
a(S'YP_003045016.1'
p2732
g3
(g5
S'\x94\x1cv\x0c\x19\xf9\x91@'
tRp2733
tp2734
a(S'YP_003043562.1'
p2735
g3
(g5
S'|\xe2q\xc0!\xfa\x91@'
tRp2736
tp2737
a(S'YP_003046881.1'
p2738
g3
(g5
S'\xde\xccA\xae\xb0\x00\x92@'
tRp2739
tp2740
a(S'YP_003044250.1'
p2741
g3
(g5
S'\xcc\x86\x9b\x04\x00\x02\x92@'
tRp2742
tp2743
a(S'YP_003044856.1'
p2744
g3
(g5
S'4\xc8\x84\x1ex\x0c\x92@'
tRp2745
tp2746
a(S'YP_003047280.1'
p2747
g3
(g5
S'+\xc5\x0co\x19\x1e\x92@'
tRp2748
tp2749
a(S'YP_003046832.1'
p2750
g3
(g5
S'\xac\xd5\x13\x14\x8e-\x92@'
tRp2751
tp2752
a(S'YP_003043864.1'
p2753
g3
(g5
S'z\xad\x98\xe9\xb6C\x92@'
tRp2754
tp2755
a(S'YP_003045400.1'
p2756
g3
(g5
S'zb\x05\x10-O\x92@'
tRp2757
tp2758
a(S'YP_003044997.1'
p2759
g3
(g5
S"\xe2\x1e&'K[\x92@"
tRp2760
tp2761
a(S'YP_003045664.1'
p2762
g3
(g5
S'Z\xf6\xb9\x81\xbcg\x92@'
tRp2763
tp2764
a(S'YP_003046646.1'
p2765
g3
(g5
S'\xa5\xad\n\x99kp\x92@'
tRp2766
tp2767
a(S'YP_003045678.1'
p2768
g3
(g5
S'o1\xeb\xc9\x14z\x92@'
tRp2769
tp2770
a(S'YP_003043408.1'
p2771
g3
(g5
S'\xc9\x95\xd73\xd4\x85\x92@'
tRp2772
tp2773
a(S'YP_003047376.1'
p2774
g3
(g5
S'l\x8d\x19\xf3\xb0\x92\x92@'
tRp2775
tp2776
a(S'YP_003045980.1'
p2777
g3
(g5
S'\xd0\x9f\xf8xa\x9c\x92@'
tRp2778
tp2779
a(S'YP_003045874.1'
p2780
g3
(g5
S'buo\xbb[\xa2\x92@'
tRp2781
tp2782
a(S'YP_003044296.1'
p2783
g3
(g5
S'\xe0\xc0/\x1a\x9c\xac\x92@'
tRp2784
tp2785
a(S'YP_003046323.1'
p2786
g3
(g5
S'\x12\xb5\x1f\xe98\xc9\x92@'
tRp2787
tp2788
a(S'YP_003046122.1'
p2789
g3
(g5
S'Qo\x83\xfd\x0b\xcb\x92@'
tRp2790
tp2791
a(S'YP_003046813.1'
p2792
g3
(g5
S'N:\x94f\x90\xd0\x92@'
tRp2793
tp2794
a(S'YP_003046997.1'
p2795
g3
(g5
S'\xef\xb9\xd5\xb14\xd2\x92@'
tRp2796
tp2797
a(S'YP_003046604.1'
p2798
g3
(g5
S'd\x1e\xbc\xf4\x0c\xd6\x92@'
tRp2799
tp2800
a(S'YP_003044297.1'
p2801
g3
(g5
S'\x10\xf3\x90I\xc2\xeb\x92@'
tRp2802
tp2803
a(S'YP_003045398.1'
p2804
g3
(g5
S'\x1b\xed\x11\x1a\x9e\xf8\x92@'
tRp2805
tp2806
a(S'YP_003045396.1'
p2807
g3
(g5
S'=\x80\xfd\x11\xb7\x06\x93@'
tRp2808
tp2809
a(S'YP_003043560.1'
p2810
g3
(g5
S'\xde0\x9b\x95\x81\t\x93@'
tRp2811
tp2812
a(S'YP_003046673.1'
p2813
g3
(g5
S'y\x1a\xfb\xd4\x10\x12\x93@'
tRp2814
tp2815
a(S'YP_003043702.1'
p2816
g3
(g5
S'\x1fnK\x0c\xf0\x14\x93@'
tRp2817
tp2818
a(S'YP_003045306.1'
p2819
g3
(g5
S'H\x95b\x03\xd1&\x93@'
tRp2820
tp2821
a(S'YP_003047436.1'
p2822
g3
(g5
S'\x8177\xd2#K\x93@'
tRp2823
tp2824
a(S'YP_003045965.1'
p2825
g3
(g5
S'n#;{vM\x93@'
tRp2826
tp2827
a(S'YP_003046731.1'
p2828
g3
(g5
S'(\xeb_XaN\x93@'
tRp2829
tp2830
a(S'YP_003044139.1'
p2831
g3
(g5
S'\xc3u\xc9N3V\x93@'
tRp2832
tp2833
a(S'YP_003046452.1'
p2834
g3
(g5
S'{\xf8\xa0\xd3\xa4a\x93@'
tRp2835
tp2836
a(S'YP_003046424.1'
p2837
g3
(g5
S'9\xc9\xc9\xc0k\x80\x93@'
tRp2838
tp2839
a(S'YP_003046437.1'
p2840
g3
(g5
S'\xaev\x1b\x0c\xef\x87\x93@'
tRp2841
tp2842
a(S'YP_003043466.1'
p2843
g3
(g5
S'%\x82\xda\xb4e\x88\x93@'
tRp2844
tp2845
a(S'YP_003045120.1'
p2846
g3
(g5
S'\xc8|j5i\xbd\x93@'
tRp2847
tp2848
a(S'YP_003044806.1'
p2849
g3
(g5
S'"N\x01O\xff\xcf\x93@'
tRp2850
tp2851
a(S'YP_003043832.1'
p2852
g3
(g5
S'\xdd\xe1\xfc\xafJ\xd4\x93@'
tRp2853
tp2854
a(S'YP_003046676.1'
p2855
g3
(g5
S'\xb3\x04\x17*\xf8\xd7\x93@'
tRp2856
tp2857
a(S'YP_003044345.1'
p2858
g3
(g5
S'\xb1%{\xd5\xf1\xe9\x93@'
tRp2859
tp2860
a(S'YP_003047001.1'
p2861
g3
(g5
S'\x85m=\x00\xd3\xef\x93@'
tRp2862
tp2863
a(S'YP_003043822.1'
p2864
g3
(g5
S'\xe1\xec*\xa2\x07\xf7\x93@'
tRp2865
tp2866
a(S'YP_003047063.1'
p2867
g3
(g5
S'~\xa8-\xba\xf5\xf8\x93@'
tRp2868
tp2869
a(S'YP_003043611.1'
p2870
g3
(g5
S'Yu%a\x02#\x94@'
tRp2871
tp2872
a(S'YP_003046974.1'
p2873
g3
(g5
S'_\x1f|NL;\x94@'
tRp2874
tp2875
a(S'YP_003045796.1'
p2876
g3
(g5
S'\x03IG\x05\x9cI\x94@'
tRp2877
tp2878
a(S'YP_003045404.1'
p2879
g3
(g5
S'\xdf\xf4\x9c\x1dlJ\x94@'
tRp2880
tp2881
a(S'YP_003044248.1'
p2882
g3
(g5
S'x\xf2U9uK\x94@'
tRp2883
tp2884
a(S'YP_003046721.1'
p2885
g3
(g5
S'\xea\xc0*\x02\x8dP\x94@'
tRp2886
tp2887
a(S'YP_003044845.1'
p2888
g3
(g5
S'\x0f\xd7\xcd\x7f\xc3V\x94@'
tRp2889
tp2890
a(S'YP_003046529.1'
p2891
g3
(g5
S'\xdcE\xf1B\x95k\x94@'
tRp2892
tp2893
a(S'YP_003045956.1'
p2894
g3
(g5
S'\xb4\xb3h\xf8\xf2p\x94@'
tRp2895
tp2896
a(S'YP_003043590.1'
p2897
g3
(g5
S')\x8c_\x1a\x8du\x94@'
tRp2898
tp2899
a(S'YP_003045577.1'
p2900
g3
(g5
S'rp=Gp\x81\x94@'
tRp2901
tp2902
a(S'YP_003046758.1'
p2903
g3
(g5
S'!P\x96E\x98\x86\x94@'
tRp2904
tp2905
a(S'YP_003046393.1'
p2906
g3
(g5
S'\x04\xb3C\xd5B\x8a\x94@'
tRp2907
tp2908
a(S'YP_003044346.1'
p2909
g3
(g5
S'U\x90\xbd\xe8\xda\x9b\x94@'
tRp2910
tp2911
a(S'YP_003043856.1'
p2912
g3
(g5
S'\xf5\xd4\xb1\xbd\xe2\xa8\x94@'
tRp2913
tp2914
a(S'YP_003045923.1'
p2915
g3
(g5
S'v\x97;\x17\xad\xc0\x94@'
tRp2916
tp2917
a(S'YP_003047270.1'
p2918
g3
(g5
S'\x8e\x94=u1\xcf\x94@'
tRp2919
tp2920
a(S'YP_003047427.1'
p2921
g3
(g5
S'\x85j% (\xd2\x94@'
tRp2922
tp2923
a(S'YP_003043960.1'
p2924
g3
(g5
S'\xac\x85O\xa1\xce\xd6\x94@'
tRp2925
tp2926
a(S'YP_003044087.1'
p2927
g3
(g5
S'\xa0bJ\x92x\xd8\x94@'
tRp2928
tp2929
a(S'YP_003045613.1'
p2930
g3
(g5
S'bB\x8aE\xe7\x00\x95@'
tRp2931
tp2932
a(S'YP_003045121.1'
p2933
g3
(g5
S'\xb5?\xec\xb5&\x06\x95@'
tRp2934
tp2935
a(S'YP_003044314.1'
p2936
g3
(g5
S'\x8d5\x86\x15`\x16\x95@'
tRp2937
tp2938
a(S'YP_003046384.1'
p2939
g3
(g5
S'{\xb7\x84\xe2C)\x95@'
tRp2940
tp2941
a(S'YP_003046421.1'
p2942
g3
(g5
S'\xc9r&T\xd8/\x95@'
tRp2943
tp2944
a(S'YP_003045115.1'
p2945
g3
(g5
S'|\xae\xad\xb7 [\x95@'
tRp2946
tp2947
a(S'YP_003043406.1'
p2948
g3
(g5
S'\x0f\xf1\x1bw\xfbk\x95@'
tRp2949
tp2950
a(S'YP_003047212.1'
p2951
g3
(g5
S'Z\xeab*\xccq\x95@'
tRp2952
tp2953
a(S'YP_003045403.1'
p2954
g3
(g5
S'\x88\xe3\x10=\xc1s\x95@'
tRp2955
tp2956
a(S'YP_003045060.1'
p2957
g3
(g5
S'=>b\xda>\x80\x95@'
tRp2958
tp2959
a(S'YP_003046322.1'
p2960
g3
(g5
S'\x84\xa7q\xed\n\x8a\x95@'
tRp2961
tp2962
a(S'YP_003045785.1'
p2963
g3
(g5
S'\x0b\xdb\xe9r`\x91\x95@'
tRp2964
tp2965
a(S'YP_003046315.1'
p2966
g3
(g5
S'\xb7\xff\xe1\xe9\xf4\x91\x95@'
tRp2967
tp2968
a(S'YP_003047281.1'
p2969
g3
(g5
S'\tZw,F\x9a\x95@'
tRp2970
tp2971
a(S'YP_003046638.1'
p2972
g3
(g5
S'_h\xa6\x85j\xa0\x95@'
tRp2973
tp2974
a(S'YP_003046828.1'
p2975
g3
(g5
S'S\xe37&\xda\xb0\x95@'
tRp2976
tp2977
a(S'YP_003044023.1'
p2978
g3
(g5
S'\xea]\xa2\xfc^\xc0\x95@'
tRp2979
tp2980
a(S'YP_003043518.1'
p2981
g3
(g5
S'\xa3\xf6a,\xfb\xda\x95@'
tRp2982
tp2983
a(S'YP_003045512.1'
p2984
g3
(g5
S'\xf9\x8f\xb5\xee\xe5\xfd\x95@'
tRp2985
tp2986
a(S'YP_003045116.1'
p2987
g3
(g5
S'\xf4L\xf4\xee\x8c\x17\x96@'
tRp2988
tp2989
a(S'YP_003043459.1'
p2990
g3
(g5
S'\x1e(\xef\xf3\xc5\x1b\x96@'
tRp2991
tp2992
a(S'YP_003044887.1'
p2993
g3
(g5
S'A\x9c[\xba\xeaO\x96@'
tRp2994
tp2995
a(S'YP_003044273.1'
p2996
g3
(g5
S'\xe6\xbf\x12F\xcb]\x96@'
tRp2997
tp2998
a(S'YP_003043619.1'
p2999
g3
(g5
S's~f\xb7\xf6c\x96@'
tRp3000
tp3001
a(S'YP_003046231.1'
p3002
g3
(g5
S'-#T\xf3;p\x96@'
tRp3003
tp3004
a(S'YP_003044890.1'
p3005
g3
(g5
S'\x81\xafQ\x1bt\x81\x96@'
tRp3006
tp3007
a(S'YP_003043353.1'
p3008
g3
(g5
S'?i\xc7\xfe\x89\x8d\x96@'
tRp3009
tp3010
a(S'YP_003043646.1'
p3011
g3
(g5
S'\xcc~\xe6\x88\x97\x90\x96@'
tRp3012
tp3013
a(S'YP_003043328.1'
p3014
g3
(g5
S'BW\xb6h\x1b\x98\x96@'
tRp3015
tp3016
a(S'YP_003043920.1'
p3017
g3
(g5
S'\x01\xb53\xb5!\x9f\x96@'
tRp3018
tp3019
a(S'YP_003047293.1'
p3020
g3
(g5
S'\x83\xdd\xa7\xf0W\xab\x96@'
tRp3021
tp3022
a(S'YP_003045647.1'
p3023
g3
(g5
S'yr\t\x03\x8a\xc0\x96@'
tRp3024
tp3025
a(S'YP_003045814.1'
p3026
g3
(g5
S')\n\xbb\x0c.\xc2\x96@'
tRp3027
tp3028
a(S'YP_003044469.1'
p3029
g3
(g5
S'\xcb\x18.\x96\xda\xc6\x96@'
tRp3030
tp3031
a(S'YP_003043349.1'
p3032
g3
(g5
S'\xcd\xa7\xde\xed.\xcf\x96@'
tRp3033
tp3034
a(S'YP_003043583.1'
p3035
g3
(g5
S'\xd8E.e\xbb\xd3\x96@'
tRp3036
tp3037
a(S'YP_003045671.1'
p3038
g3
(g5
S'\xf8\x9f\xcc\xf2\x12\xf3\x96@'
tRp3039
tp3040
a(S'YP_003044293.1'
p3041
g3
(g5
S'\x95&J\xf0\xa7\x16\x97@'
tRp3042
tp3043
a(S'YP_003044151.1'
p3044
g3
(g5
S'\xf5o\xcf\x99\xf4\x17\x97@'
tRp3045
tp3046
a(S'YP_003045118.1'
p3047
g3
(g5
S'\x1f\xda\x90\xa3\xf1\x1b\x97@'
tRp3048
tp3049
a(S'YP_003046585.1'
p3050
g3
(g5
S'\xb7_\xd4\xfe}"\x97@'
tRp3051
tp3052
a(S'YP_003043772.1'
p3053
g3
(g5
S'\xdemF`\x0f.\x97@'
tRp3054
tp3055
a(S'YP_003045582.1'
p3056
g3
(g5
S'[\x04\xdd\xf8\x9bA\x97@'
tRp3057
tp3058
a(S'YP_003044307.1'
p3059
g3
(g5
S'\x18IG\xbb\xdcB\x97@'
tRp3060
tp3061
a(S'YP_003046422.1'
p3062
g3
(g5
S'\xa7\x173\xfd!C\x97@'
tRp3063
tp3064
a(S'YP_003044771.1'
p3065
g3
(g5
S'\xc9%R\xd4\xa1X\x97@'
tRp3066
tp3067
a(S'YP_003046790.1'
p3068
g3
(g5
S'\xf9 \xb5+P\\\x97@'
tRp3069
tp3070
a(S'YP_003043343.1'
p3071
g3
(g5
S']h\xd5\x8bdr\x97@'
tRp3072
tp3073
a(S'YP_003047103.1'
p3074
g3
(g5
S'\xcc\x8c\\%\x83w\x97@'
tRp3075
tp3076
a(S'YP_003044322.1'
p3077
g3
(g5
S'\xdbn-\xe8;z\x97@'
tRp3078
tp3079
a(S'YP_003047260.1'
p3080
g3
(g5
S'\xdb;a\x85\xb9\x9c\x97@'
tRp3081
tp3082
a(S'YP_003046645.1'
p3083
g3
(g5
S'\xfcb\xe9<\x14\xb1\x97@'
tRp3084
tp3085
a(S'YP_003045915.1'
p3086
g3
(g5
S'\x93\xb14\x8a\xe7\xca\x97@'
tRp3087
tp3088
a(S'YP_003043362.1'
p3089
g3
(g5
S'\x9f\xba\x13\xa7\x96\xcb\x97@'
tRp3090
tp3091
a(S'YP_003044598.1'
p3092
g3
(g5
S'\x9c\xcc\xeeL3\xd1\x97@'
tRp3093
tp3094
a(S'YP_003043244.1'
p3095
g3
(g5
S'>\x13SpL\xe4\x97@'
tRp3096
tp3097
a(S'YP_003046918.1'
p3098
g3
(g5
S'\xb5\x00\n\xafP\xe5\x97@'
tRp3099
tp3100
a(S'YP_003044298.1'
p3101
g3
(g5
S'\xe5l\x9e\xcfB\xf7\x97@'
tRp3102
tp3103
a(S'YP_003045141.1'
p3104
g3
(g5
S'\xd2\xc3\xa5\x9c\xcc\xfc\x97@'
tRp3105
tp3106
a(S'YP_003043669.1'
p3107
g3
(g5
S'od\xa7\x87\x93\x05\x98@'
tRp3108
tp3109
a(S'YP_003045910.1'
p3110
g3
(g5
S'\x03\xff\xfb]\x817\x98@'
tRp3111
tp3112
a(S'YP_003043850.1'
p3113
g3
(g5
S'n\xa5V^\xa5L\x98@'
tRp3114
tp3115
a(S'YP_003045497.1'
p3116
g3
(g5
S'9\xe3\x1d\x02\xb8k\x98@'
tRp3117
tp3118
a(S'YP_003045237.1'
p3119
g3
(g5
S'\xfcZ\x04c\x8d\x96\x98@'
tRp3120
tp3121
a(S'YP_003046912.1'
p3122
g3
(g5
S'\x9f\xbe\xb8+\x93\x9c\x98@'
tRp3123
tp3124
a(S'YP_003045433.1'
p3125
g3
(g5
S'\xe2T\xa2O\xda\xa8\x98@'
tRp3126
tp3127
a(S'YP_003046239.1'
p3128
g3
(g5
S'iJ\xc36M\xa9\x98@'
tRp3129
tp3130
a(S'YP_003047069.1'
p3131
g3
(g5
S'\x8d>]\x0b`\xbf\x98@'
tRp3132
tp3133
a(S'YP_003045677.1'
p3134
g3
(g5
S'\x05\xa6<\x9e\xad\xef\x98@'
tRp3135
tp3136
a(S'YP_003046237.1'
p3137
g3
(g5
S'\x19\x9c\x82\x8f5\xfa\x98@'
tRp3138
tp3139
a(S'YP_003045595.1'
p3140
g3
(g5
S'\xeb\x9fCs\t\x1d\x99@'
tRp3141
tp3142
a(S'YP_003046298.1'
p3143
g3
(g5
S'UY\xc3oy!\x99@'
tRp3144
tp3145
a(S'YP_003043905.1'
p3146
g3
(g5
S'\n\xa8(\x88\x04)\x99@'
tRp3147
tp3148
a(S'YP_003043902.1'
p3149
g3
(g5
S'\xa3<\xeb\x0b);\x99@'
tRp3150
tp3151
a(S'YP_003043640.1'
p3152
g3
(g5
S'\xc8[\x9e^IK\x99@'
tRp3153
tp3154
a(S'YP_003045790.1'
p3155
g3
(g5
S'\xbf\xd1\x89\xf0\x17j\x99@'
tRp3156
tp3157
a(S'YP_003043615.1'
p3158
g3
(g5
S'\x8dP\\\xce[\x85\x99@'
tRp3159
tp3160
a(S'YP_003046825.1'
p3161
g3
(g5
S'\x1f\xf1\xdb\x8ez\x8a\x99@'
tRp3162
tp3163
a(S'YP_003044449.1'
p3164
g3
(g5
S"\xe2'\x0f\x0bj\x94\x99@"
tRp3165
tp3166
a(S'YP_003043267.1'
p3167
g3
(g5
S'\xed\x97h\xc6\x06\xa4\x99@'
tRp3168
tp3169
a(S'YP_003044701.1'
p3170
g3
(g5
S'_\xf3\x8d\xf0\xc3\xb0\x99@'
tRp3171
tp3172
a(S'YP_003044292.1'
p3173
g3
(g5
S'\xb8\x141\x88t\xcf\x99@'
tRp3174
tp3175
a(S'YP_003046592.1'
p3176
g3
(g5
S'\xfcaX\x01r\xde\x99@'
tRp3177
tp3178
a(S'YP_003045738.1'
p3179
g3
(g5
S'L\xb3\x99|\xe6\xf7\x99@'
tRp3180
tp3181
a(S'YP_003047058.1'
p3182
g3
(g5
S'c\x9a\xd22-\xfa\x99@'
tRp3183
tp3184
a(S'YP_003045417.1'
p3185
g3
(g5
S"\x9d\x13\xe8D\xb7'\x9a@"
tRp3186
tp3187
a(S'YP_003044338.1'
p3188
g3
(g5
S'B\xd1\x07T\xef\x7f\x9a@'
tRp3189
tp3190
a(S'YP_003046295.1'
p3191
g3
(g5
S'\xc5\xe6\xc0\x91n\x95\x9a@'
tRp3192
tp3193
a(S'YP_003047078.1'
p3194
g3
(g5
S'\xaf%GV:\xa8\x9a@'
tRp3195
tp3196
a(S'YP_003045508.1'
p3197
g3
(g5
S'\x11.\xfb9\x9b\xa9\x9a@'
tRp3198
tp3199
a(S'YP_003046098.1'
p3200
g3
(g5
S'\x1btI\xa0\xf5\xda\x9a@'
tRp3201
tp3202
a(S'YP_003043698.1'
p3203
g3
(g5
S'\xb2\x98\xe6[ \xe6\x9a@'
tRp3204
tp3205
a(S'YP_003046833.1'
p3206
g3
(g5
S't\x9a\xc6\xb4,\xe6\x9a@'
tRp3207
tp3208
a(S'YP_003046230.1'
p3209
g3
(g5
S'\xaae[\x9a\xd7\x1b\x9b@'
tRp3210
tp3211
a(S'YP_003045596.1'
p3212
g3
(g5
S'\xd2 \x00\x0e(j\x9b@'
tRp3213
tp3214
a(S'YP_003044474.1'
p3215
g3
(g5
S'\xfc(2\x04\x91\x90\x9b@'
tRp3216
tp3217
a(S'YP_003047098.1'
p3218
g3
(g5
S'C\x12K\xdfP\xaa\x9b@'
tRp3219
tp3220
a(S'YP_003045589.1'
p3221
g3
(g5
S'gj\x16\xb7\x11\xb2\x9b@'
tRp3222
tp3223
a(S'YP_003045694.1'
p3224
g3
(g5
S'\x8a ~\xc8\x03\xb5\x9b@'
tRp3225
tp3226
a(S'YP_003044291.1'
p3227
g3
(g5
S'\x10s\x19\xfe\xc5\xc8\x9b@'
tRp3228
tp3229
a(S'YP_003046746.1'
p3230
g3
(g5
S'%\x11\x81\xcd\x12\xd4\x9b@'
tRp3231
tp3232
a(S'YP_003044451.1'
p3233
g3
(g5
S']\xcf\xc8\xcbH\xe6\x9b@'
tRp3234
tp3235
a(S'YP_003043600.1'
p3236
g3
(g5
S'\xd3\x1e\xadB\xe8\xf2\x9b@'
tRp3237
tp3238
a(S'YP_003044882.1'
p3239
g3
(g5
S' \xec\x1f\xb7\x04\x06\x9c@'
tRp3240
tp3241
a(S'YP_003045516.1'
p3242
g3
(g5
S'~\x88c\x93\x06\x1a\x9c@'
tRp3243
tp3244
a(S'YP_003043888.1'
p3245
g3
(g5
S'\xde\xab+\xa8|,\x9c@'
tRp3246
tp3247
a(S'YP_003043963.1'
p3248
g3
(g5
S'"\xb6\x8ah\xd5T\x9c@'
tRp3249
tp3250
a(S'YP_003043399.1'
p3251
g3
(g5
S'\xdci\xba\x88\xfad\x9c@'
tRp3252
tp3253
a(S'YP_003044086.1'
p3254
g3
(g5
S'\xb6z\xb6\xb6\xb2f\x9c@'
tRp3255
tp3256
a(S'YP_003045607.1'
p3257
g3
(g5
S'\x96\xe1RS\xedw\x9c@'
tRp3258
tp3259
a(S'YP_003045401.1'
p3260
g3
(g5
S'\x8c\xe9z\xebM\x8d\x9c@'
tRp3261
tp3262
a(S'YP_003043260.1'
p3263
g3
(g5
S'Q\x0b\xb7\xb9Z\x94\x9c@'
tRp3264
tp3265
a(S'YP_003043308.1'
p3266
g3
(g5
S'\xd7l\xbc>\xd6\xa2\x9c@'
tRp3267
tp3268
a(S'YP_003045429.1'
p3269
g3
(g5
S"/9\x05'\x0c\xbb\x9c@"
tRp3270
tp3271
a(S'YP_003045351.1'
p3272
g3
(g5
S'\xa5\xd0\xa2\xf6+\xdb\x9c@'
tRp3273
tp3274
a(S'YP_003046221.1'
p3275
g3
(g5
S'lS\xb1\xee\xe3\xe6\x9c@'
tRp3276
tp3277
a(S'YP_003044881.1'
p3278
g3
(g5
S'\x1c\xd0\xb1\x9d{\xe7\x9c@'
tRp3279
tp3280
a(S'YP_003043846.1'
p3281
g3
(g5
S'\xb0\x9e:T\xee\xea\x9c@'
tRp3282
tp3283
a(S'YP_003043904.1'
p3284
g3
(g5
S'\xd6\xe4m<\x80\xef\x9c@'
tRp3285
tp3286
a(S'YP_003046225.1'
p3287
g3
(g5
S'\x07\xebY\xae(\x16\x9d@'
tRp3288
tp3289
a(S'YP_003044317.1'
p3290
g3
(g5
S'\x15d-\x99\xed(\x9d@'
tRp3291
tp3292
a(S'YP_003044405.1'
p3293
g3
(g5
S'\x89\x821M\x7f1\x9d@'
tRp3294
tp3295
a(S'YP_003045117.1'
p3296
g3
(g5
S'\xd7/x\x04\xed;\x9d@'
tRp3297
tp3298
a(S'YP_003046793.1'
p3299
g3
(g5
S' \xf4!#U>\x9d@'
tRp3300
tp3301
a(S'YP_003043395.1'
p3302
g3
(g5
S'|\x97F\x8e\xb6E\x9d@'
tRp3303
tp3304
a(S'YP_003043412.1'
p3305
g3
(g5
S'\xa2\x81\xce7^R\x9d@'
tRp3306
tp3307
a(S'YP_003043651.1'
p3308
g3
(g5
S'\x07\xd31=\xcdS\x9d@'
tRp3309
tp3310
a(S'YP_003045018.1'
p3311
g3
(g5
S'\x04u9\xc9\nW\x9d@'
tRp3312
tp3313
a(S'YP_003047068.1'
p3314
g3
(g5
S'\xef\x98\x14M\x7f\x84\x9d@'
tRp3315
tp3316
a(S'YP_003046989.1'
p3317
g3
(g5
S'\xd0G\xca^\xb0\x95\x9d@'
tRp3318
tp3319
a(S'YP_003044428.1'
p3320
g3
(g5
S'\x0e\x85\x85l\xea\xd7\x9d@'
tRp3321
tp3322
a(S'YP_003045791.1'
p3323
g3
(g5
S'\xd8q\r\xb0\xa0\xfa\x9d@'
tRp3324
tp3325
a(S'YP_003045414.1'
p3326
g3
(g5
S'\x9b\xb4ew\xb1\x0c\x9e@'
tRp3327
tp3328
a(S'YP_003046399.1'
p3329
g3
(g5
S'\xe49<\xa0!\r\x9e@'
tRp3330
tp3331
a(S'YP_003043648.1'
p3332
g3
(g5
S'\\\x1fW\xd4x\x1b\x9e@'
tRp3333
tp3334
a(S'YP_003044125.1'
p3335
g3
(g5
S'\t0\x069L$\x9e@'
tRp3336
tp3337
a(S'YP_003046584.1'
p3338
g3
(g5
S'\x83\xbai+\r2\x9e@'
tRp3339
tp3340
a(S'YP_003044393.1'
p3341
g3
(g5
S'\xb7FQB\x97F\x9e@'
tRp3342
tp3343
a(S'YP_003043650.1'
p3344
g3
(g5
S'\xe2$\xc1\xe4\xd8X\x9e@'
tRp3345
tp3346
a(S'YP_003045123.1'
p3347
g3
(g5
S'\x8f.p\xda\x9cf\x9e@'
tRp3348
tp3349
a(S'YP_003044315.1'
p3350
g3
(g5
S';6\xd9\x9a\x9ci\x9e@'
tRp3351
tp3352
a(S'YP_003043926.1'
p3353
g3
(g5
S'\xcf\x80\x0e\xbd\x15\xc3\x9e@'
tRp3354
tp3355
a(S'YP_003046216.1'
p3356
g3
(g5
S'\xe3\xf2r\xf8\x0e\xed\x9e@'
tRp3357
tp3358
a(S'YP_003047036.1'
p3359
g3
(g5
S'\x8e\xdbz\xeb9\x1e\x9f@'
tRp3360
tp3361
a(S'YP_003043231.1'
p3362
g3
(g5
S'\x96\xf8\xe9\xff\xee:\x9f@'
tRp3363
tp3364
a(S'YP_003046803.1'
p3365
g3
(g5
S'\xb3p\xcb\x96\xe7H\x9f@'
tRp3366
tp3367
a(S'YP_003046490.1'
p3368
g3
(g5
S'\x16\xfc]o\x8eZ\x9f@'
tRp3369
tp3370
a(S'YP_003044276.1'
p3371
g3
(g5
S"\xbd\xc1\x82\x17'd\x9f@"
tRp3372
tp3373
a(S'YP_003046420.1'
p3374
g3
(g5
S'\xfcM\r\xe6\x07}\x9f@'
tRp3375
tp3376
a(S'YP_003044421.1'
p3377
g3
(g5
S'f\xbcg\xfaA\x80\x9f@'
tRp3378
tp3379
a(S'YP_003044907.1'
p3380
g3
(g5
S'W\xf9\xbc\x18\xc3\x98\x9f@'
tRp3381
tp3382
a(S'YP_003044999.1'
p3383
g3
(g5
S'\x0f\x8d\x13\xddN\xd7\x9f@'
tRp3384
tp3385
a(S'YP_003046648.1'
p3386
g3
(g5
S'Kqn9\xe4\x01\xa0@'
tRp3387
tp3388
a(S'YP_003045562.1'
p3389
g3
(g5
S'+\xd9\x84\t\x02\t\xa0@'
tRp3390
tp3391
a(S'YP_003044807.1'
p3392
g3
(g5
S'\xe1\xf2a/Y\x16\xa0@'
tRp3393
tp3394
a(S'YP_003045736.1'
p3395
g3
(g5
S'B\x19\x08\xdcC*\xa0@'
tRp3396
tp3397
a(S'YP_003044115.1'
p3398
g3
(g5
S'a\xa4\xf9\xd6\xaa6\xa0@'
tRp3399
tp3400
a(S'YP_003046274.1'
p3401
g3
(g5
S'\xed_\r\x98sH\xa0@'
tRp3402
tp3403
a(S'YP_003045797.1'
p3404
g3
(g5
S'\xc1\xc5\xc9\x1a\xe8S\xa0@'
tRp3405
tp3406
a(S'YP_003045580.1'
p3407
g3
(g5
S'\x82\x84\xf7\x85\x02`\xa0@'
tRp3408
tp3409
a(S'YP_003044450.1'
p3410
g3
(g5
S'>\xfcr\x01,i\xa0@'
tRp3411
tp3412
a(S'YP_003047322.1'
p3413
g3
(g5
S'\xef\x85x\xac\x10p\xa0@'
tRp3414
tp3415
a(S'YP_003045559.1'
p3416
g3
(g5
S'i\xa2\x9c\xe7\xfd\x80\xa0@'
tRp3417
tp3418
a(S'YP_003044430.1'
p3419
g3
(g5
S'\xa6y\x1a\x82m\x84\xa0@'
tRp3420
tp3421
a(S'YP_003043446.1'
p3422
g3
(g5
S'\xd4\x1c\xe0\xc8\xc0\x98\xa0@'
tRp3423
tp3424
a(S'YP_003046299.1'
p3425
g3
(g5
S'Nv\xb7\xbdP\xa4\xa0@'
tRp3426
tp3427
a(S'YP_003045561.1'
p3428
g3
(g5
S'\xcb\xdb\xfd\x00\xe2\xa6\xa0@'
tRp3429
tp3430
a(S'YP_003044083.1'
p3431
g3
(g5
S'\xfd\xa5\x061M\xab\xa0@'
tRp3432
tp3433
a(S'YP_003044425.1'
p3434
g3
(g5
S'\xba(\x10\xbaJ\xb4\xa0@'
tRp3435
tp3436
a(S'YP_003046351.1'
p3437
g3
(g5
S'0Cg\xe0\x98\xd8\xa0@'
tRp3438
tp3439
a(S'YP_003046259.1'
p3440
g3
(g5
S'C2\xf8\xf7\x90\xdc\xa0@'
tRp3441
tp3442
a(S'YP_003045426.1'
p3443
g3
(g5
S'}\xc1CHN\xf1\xa0@'
tRp3444
tp3445
a(S'YP_003044302.1'
p3446
g3
(g5
S'\xd6&\xd6\x90\xd1\xf7\xa0@'
tRp3447
tp3448
a(S'YP_003045119.1'
p3449
g3
(g5
S'\x84\x86\x96,s\x0f\xa1@'
tRp3450
tp3451
a(S'YP_003043903.1'
p3452
g3
(g5
S'\xacl\xaa\x97\x90+\xa1@'
tRp3453
tp3454
a(S'YP_003046092.1'
p3455
g3
(g5
S'\x05\x1aRy:1\xa1@'
tRp3456
tp3457
a(S'YP_003046892.1'
p3458
g3
(g5
S'\x89\xf4:\xc3\xa8A\xa1@'
tRp3459
tp3460
a(S'YP_003046649.1'
p3461
g3
(g5
S'\x16\xdf:\x0b\x85i\xa1@'
tRp3462
tp3463
a(S'YP_003043743.1'
p3464
g3
(g5
S'\x91\x1dz\xdd\x03o\xa1@'
tRp3465
tp3466
a(S'YP_003046337.1'
p3467
g3
(g5
S'\xd1&\xf2\x8ds|\xa1@'
tRp3468
tp3469
a(S'YP_003043382.1'
p3470
g3
(g5
S"\x93\xde\x042'\x90\xa1@"
tRp3471
tp3472
a(S'YP_003045125.1'
p3473
g3
(g5
S"\xcd\x07\xfe'\xb3\x97\xa1@"
tRp3474
tp3475
a(S'YP_003045611.1'
p3476
g3
(g5
S'\x0b\xab^P\xb6\xb0\xa1@'
tRp3477
tp3478
a(S'YP_003045684.1'
p3479
g3
(g5
S'\xe5\xc6\x80V\x80\xbd\xa1@'
tRp3480
tp3481
a(S'YP_003047056.1'
p3482
g3
(g5
S'\x16\xeb>\x87\xb0\xc7\xa1@'
tRp3483
tp3484
a(S'YP_003046453.1'
p3485
g3
(g5
S'\xe8\x8dJ\xea\xa8\xe8\xa1@'
tRp3486
tp3487
a(S'YP_003046220.1'
p3488
g3
(g5
S'\x1e!\xda\xec\xbe\xef\xa1@'
tRp3489
tp3490
a(S'YP_003046338.1'
p3491
g3
(g5
S'\x8c\xff\xb8\x7fC\xf1\xa1@'
tRp3492
tp3493
a(S'YP_003046383.1'
p3494
g3
(g5
S'\xa9\\=\xcaU\xfc\xa1@'
tRp3495
tp3496
a(S'YP_003043860.1'
p3497
g3
(g5
S'\x8a\x0e\x12\x146\x11\xa2@'
tRp3498
tp3499
a(S'YP_003045691.1'
p3500
g3
(g5
S'I)\xacK\x93-\xa2@'
tRp3501
tp3502
a(S'YP_003044946.1'
p3503
g3
(g5
S'\\\xf5\xf6l5.\xa2@'
tRp3504
tp3505
a(S'YP_003045679.1'
p3506
g3
(g5
S'\xbaT\xe3\xd9;2\xa2@'
tRp3507
tp3508
a(S'YP_003046345.1'
p3509
g3
(g5
S'\x8e\xb5E\xe437\xa2@'
tRp3510
tp3511
a(S'YP_003044305.1'
p3512
g3
(g5
S'(g\xde\x12@8\xa2@'
tRp3513
tp3514
a(S'YP_003045122.1'
p3515
g3
(g5
S'L\x81\xdeHrL\xa2@'
tRp3516
tp3517
a(S'YP_003046809.1'
p3518
g3
(g5
S'\xe0z\xd6\x8a\xe6b\xa2@'
tRp3519
tp3520
a(S'YP_003046262.1'
p3521
g3
(g5
S'_tY\\+e\xa2@'
tRp3522
tp3523
a(S'YP_003043346.1'
p3524
g3
(g5
S'\xd0\x91[\x9fbx\xa2@'
tRp3525
tp3526
a(S'YP_003047295.1'
p3527
g3
(g5
S'9\x90\x91:\xf9}\xa2@'
tRp3528
tp3529
a(S'YP_003047211.1'
p3530
g3
(g5
S' \x86$\x17\xee\x85\xa2@'
tRp3531
tp3532
a(S'YP_003046340.1'
p3533
g3
(g5
S'+MG\xee\xfe\x87\xa2@'
tRp3534
tp3535
a(S'YP_003046223.1'
p3536
g3
(g5
S'\x15o\x9auy\xaa\xa2@'
tRp3537
tp3538
a(S'YP_003043427.1'
p3539
g3
(g5
S'\xca\xa0/\xb3\xf0\xb6\xa2@'
tRp3540
tp3541
a(S'YP_003043348.1'
p3542
g3
(g5
S'\xd5G\xb4\xa2\x82\xc0\xa2@'
tRp3543
tp3544
a(S'YP_003044134.1'
p3545
g3
(g5
S'\x88\r\x86\xba \xc9\xa2@'
tRp3546
tp3547
a(S'YP_003043999.1'
p3548
g3
(g5
S'\x19\xe45\x01\xb2\xcc\xa2@'
tRp3549
tp3550
a(S'YP_003044111.1'
p3551
g3
(g5
S'$\xf4\xff\x1a\xd5\xd3\xa2@'
tRp3552
tp3553
a(S'YP_003044772.1'
p3554
g3
(g5
S'\xc9\x90,\x0ef\xd9\xa2@'
tRp3555
tp3556
a(S'YP_003043918.1'
p3557
g3
(g5
S'\xab\x8e\xce\xb6\xc4\xe9\xa2@'
tRp3558
tp3559
a(S'YP_003046967.1'
p3560
g3
(g5
S'*\x14\xc1\x9b(\xec\xa2@'
tRp3561
tp3562
a(S'YP_003046812.1'
p3563
g3
(g5
S'?\nw\xea\xde\xfd\xa2@'
tRp3564
tp3565
a(S'YP_003046732.1'
p3566
g3
(g5
S'e\xdaze\xc9\x03\xa3@'
tRp3567
tp3568
a(S'YP_003043424.1'
p3569
g3
(g5
S'\x0eL\xb4\xacI/\xa3@'
tRp3570
tp3571
a(S'YP_003046797.1'
p3572
g3
(g5
S'\xf2\x15\xa1N\x95/\xa3@'
tRp3573
tp3574
a(S'YP_003043919.1'
p3575
g3
(g5
S'\x8e\xc9]+!@\xa3@'
tRp3576
tp3577
a(S'YP_003046263.1'
p3578
g3
(g5
S'Qd\xaeq\x98L\xa3@'
tRp3579
tp3580
a(S'YP_003047031.1'
p3581
g3
(g5
S'X\xc9\xe4\xbb\xf7\x83\xa3@'
tRp3582
tp3583
a(S'YP_003045456.1'
p3584
g3
(g5
S'\xc1\x01\x86^\xf1\x9b\xa3@'
tRp3585
tp3586
a(S'YP_003047214.1'
p3587
g3
(g5
S'D\x94B\xc2\r\xbf\xa3@'
tRp3588
tp3589
a(S'YP_003045798.1'
p3590
g3
(g5
S'\xf7\xbdbA\xd2\xc5\xa3@'
tRp3591
tp3592
a(S'YP_003045442.1'
p3593
g3
(g5
S'\xcf-\x02\xe5>\xe1\xa3@'
tRp3594
tp3595
a(S'YP_003043325.1'
p3596
g3
(g5
S'6\xcb\x06\xf5J\xeb\xa3@'
tRp3597
tp3598
a(S'YP_003043422.1'
p3599
g3
(g5
S'\x04PN\x15s\xee\xa3@'
tRp3600
tp3601
a(S'YP_003043898.1'
p3602
g3
(g5
S'C\xb2S\xe7\xbc\x17\xa4@'
tRp3603
tp3604
a(S'YP_003045929.1'
p3605
g3
(g5
S'.\x00H\xaf\xcc\x1a\xa4@'
tRp3606
tp3607
a(S'YP_003046765.1'
p3608
g3
(g5
S'%\x1fo\x8d&(\xa4@'
tRp3609
tp3610
a(S'YP_003045017.1'
p3611
g3
(g5
S'\xa7k\x933-0\xa4@'
tRp3612
tp3613
a(S'YP_003046789.1'
p3614
g3
(g5
S'\x1b\xe3\xff\x00\xd70\xa4@'
tRp3615
tp3616
a(S'YP_003043901.1'
p3617
g3
(g5
S'/\xa5^0$3\xa4@'
tRp3618
tp3619
a(S'YP_003044476.1'
p3620
g3
(g5
S'\x10\xe4\xf0f\x95V\xa4@'
tRp3621
tp3622
a(S'YP_003043842.1'
p3623
g3
(g5
S's\xce\xbc`\x01]\xa4@'
tRp3624
tp3625
a(S'YP_003045503.1'
p3626
g3
(g5
S'\xa9\x94\xf9:g\x96\xa4@'
tRp3627
tp3628
a(S'YP_003047015.1'
p3629
g3
(g5
S'Z\xfa\xb6\xcd\xd4\xa3\xa4@'
tRp3630
tp3631
a(S'YP_003047014.1'
p3632
g3
(g5
S'\x16zh\x13\x97\xa8\xa4@'
tRp3633
tp3634
a(S'YP_003047055.1'
p3635
g3
(g5
S'\xc9Q0/\xe8\xb5\xa4@'
tRp3636
tp3637
a(S'YP_003044074.1'
p3638
g3
(g5
S'\xfc\xce\x06\xc3\xbe\xdd\xa4@'
tRp3639
tp3640
a(S'YP_003043821.1'
p3641
g3
(g5
S'\x04[\x9d\xb1\x9c\xe6\xa4@'
tRp3642
tp3643
a(S'YP_003045411.1'
p3644
g3
(g5
S'CvBg\xb6\x11\xa5@'
tRp3645
tp3646
a(S'YP_003044826.1'
p3647
g3
(g5
S'}\xd6C\xed\x12@\xa5@'
tRp3648
tp3649
a(S'YP_003046835.1'
p3650
g3
(g5
S'\xe7@K\x12}M\xa5@'
tRp3651
tp3652
a(S'YP_003045563.1'
p3653
g3
(g5
S'\x84\xe2|@\x87c\xa5@'
tRp3654
tp3655
a(S'YP_003046275.1'
p3656
g3
(g5
S'J\xfd (\x10d\xa5@'
tRp3657
tp3658
a(S'YP_003044150.1'
p3659
g3
(g5
S'\xfc\x97\xdc\xbet\xb5\xa5@'
tRp3660
tp3661
a(S'YP_003043342.1'
p3662
g3
(g5
S'Y\xed\n\x1c\xb0\xb6\xa5@'
tRp3663
tp3664
a(S'YP_003045560.1'
p3665
g3
(g5
S'F\x8a\xfe\xd4\xb4\xd3\xa5@'
tRp3666
tp3667
a(S'YP_003046385.1'
p3668
g3
(g5
S'{\xa6\xa0_;\xd9\xa5@'
tRp3669
tp3670
a(S'YP_003047017.1'
p3671
g3
(g5
S'\x9b\x95x\x89)\xec\xa5@'
tRp3672
tp3673
a(S'YP_003046824.1'
p3674
g3
(g5
S'\x1f~]\x05\xce\x0f\xa6@'
tRp3675
tp3676
a(S'YP_003043232.1'
p3677
g3
(g5
S'4BvmV\x15\xa6@'
tRp3678
tp3679
a(S'YP_003046795.1'
p3680
g3
(g5
S'\xebh\x03Z+!\xa6@'
tRp3681
tp3682
a(S'YP_003043407.1'
p3683
g3
(g5
S'\xe9\x94]b\xb2=\xa6@'
tRp3684
tp3685
a(S'YP_003044130.1'
p3686
g3
(g5
S'\x1c\xc0N2\xfaf\xa6@'
tRp3687
tp3688
a(S'YP_003047000.1'
p3689
g3
(g5
S'z?\x9b\x08\x1a~\xa6@'
tRp3690
tp3691
a(S'YP_003043266.1'
p3692
g3
(g5
S'\xb5\xf5\xf0\x18\x8e\xe4\xa6@'
tRp3693
tp3694
a(S'YP_003047209.1'
p3695
g3
(g5
S'~\xe0R\x11"\xf0\xa6@'
tRp3696
tp3697
a(S'YP_003046333.1'
p3698
g3
(g5
S'\xb6\x0b]\x81\xb5\xf4\xa6@'
tRp3699
tp3700
a(S'YP_003044447.1'
p3701
g3
(g5
S'pF\xc9\xa2\x1c\x1a\xa7@'
tRp3702
tp3703
a(S'YP_003047037.1'
p3704
g3
(g5
S"M\x92\x14\xe9\x0e'\xa7@"
tRp3705
tp3706
a(S'YP_003046647.1'
p3707
g3
(g5
S'\x19\xdev\xd6\x9f3\xa7@'
tRp3708
tp3709
a(S'YP_003043389.1'
p3710
g3
(g5
S'\xce\x15@S\xaf<\xa7@'
tRp3711
tp3712
a(S'YP_003043237.1'
p3713
g3
(g5
S'\xf3\x04\xe3\xf1De\xa7@'
tRp3714
tp3715
a(S'YP_003047018.1'
p3716
g3
(g5
S'w\xb0\x016\xdfq\xa7@'
tRp3717
tp3718
a(S'YP_003045440.1'
p3719
g3
(g5
S'VRBb\rw\xa7@'
tRp3720
tp3721
a(S'YP_003045933.1'
p3722
g3
(g5
S'\xf6\xb0j\xed\xb5\xac\xa7@'
tRp3723
tp3724
a(S'YP_003044284.1'
p3725
g3
(g5
S'\xd9>\t\xaf~\xcf\xa7@'
tRp3726
tp3727
a(S'YP_003046348.1'
p3728
g3
(g5
S"\xe6V'\x08\xed\xfa\xa7@"
tRp3729
tp3730
a(S'YP_003045639.1'
p3731
g3
(g5
S'\x05\x08!\xfe\xe7.\xa8@'
tRp3732
tp3733
a(S'YP_003046395.1'
p3734
g3
(g5
S"~'B\xab\xefI\xa8@"
tRp3735
tp3736
a(S'YP_003047265.1'
p3737
g3
(g5
S'{Q\xee\xcbB\x83\xa8@'
tRp3738
tp3739
a(S'YP_003047016.1'
p3740
g3
(g5
S'J\xe8\xbb\xf9]\x8c\xa8@'
tRp3741
tp3742
a(S'YP_003043618.1'
p3743
g3
(g5
S'f\xe5\xda\x84s\x96\xa8@'
tRp3744
tp3745
a(S'YP_003043986.1'
p3746
g3
(g5
S'\xdc9W=\x91\x9f\xa8@'
tRp3747
tp3748
a(S'YP_003044129.1'
p3749
g3
(g5
S'L\xa6?Vt\xac\xa8@'
tRp3750
tp3751
a(S'YP_003045413.1'
p3752
g3
(g5
S'0\xe0\x03d\x83\xfb\xa8@'
tRp3753
tp3754
a(S'YP_003045581.1'
p3755
g3
(g5
S'\xf2\x18\x80\xc3\x10@\xa9@'
tRp3756
tp3757
a(S'YP_003046827.1'
p3758
g3
(g5
S'\x82\x01\x8d6aG\xa9@'
tRp3759
tp3760
a(S'YP_003044289.1'
p3761
g3
(g5
S'e\xb5\xbb%\xec\x9d\xa9@'
tRp3762
tp3763
a(S'YP_003043701.1'
p3764
g3
(g5
S'\xa7\x0b7\xb2\xf6\xa2\xa9@'
tRp3765
tp3766
a(S'YP_003044448.1'
p3767
g3
(g5
S'\x82\xb22\xd2)\xb3\xa9@'
tRp3768
tp3769
a(S'YP_003045590.1'
p3770
g3
(g5
S'\xb3H\x1d\x007\xb7\xa9@'
tRp3771
tp3772
a(S'YP_003043305.1'
p3773
g3
(g5
S'\x9d\xd0$\xc3\x19\\\xaa@'
tRp3774
tp3775
a(S'YP_003046794.1'
p3776
g3
(g5
S'`I\xc0\r{\x9e\xaa@'
tRp3777
tp3778
a(S'YP_003044106.1'
p3779
g3
(g5
S'\xf6q\x8d\r>\xc6\xaa@'
tRp3780
tp3781
a(S'YP_003043906.1'
p3782
g3
(g5
S'?\xc7a\x03\xef\xf0\xaa@'
tRp3783
tp3784
a(S'YP_003046357.1'
p3785
g3
(g5
S'p\xd3V\xf8\xc6+\xab@'
tRp3786
tp3787
a(S'YP_003046576.1'
p3788
g3
(g5
S'y\x17\xbdFKU\xab@'
tRp3789
tp3790
a(S'YP_003043859.1'
p3791
g3
(g5
S'\x13\xb6\x01\xd8v\x87\xab@'
tRp3792
tp3793
a(S'YP_003046355.1'
p3794
g3
(g5
S'\xc1\xe4\x8a\xb9\x0e\x89\xab@'
tRp3795
tp3796
a(S'YP_003043614.1'
p3797
g3
(g5
S"'\xb0\xeb\\\x91\xd7\xab@"
tRp3798
tp3799
a(S'YP_003047184.1'
p3800
g3
(g5
S'KC\x96\xc4z\xdc\xab@'
tRp3801
tp3802
a(S'YP_003043393.1'
p3803
g3
(g5
S'N\xeb\x16\xd2}>\xac@'
tRp3804
tp3805
a(S'YP_003046818.1'
p3806
g3
(g5
S'\xf84\x0cn\x1f\xeb\xac@'
tRp3807
tp3808
a(S'YP_003045507.1'
p3809
g3
(g5
S'\xba\x8d\xef\x0f\xef\xf5\xac@'
tRp3810
tp3811
a(S'YP_003046341.1'
p3812
g3
(g5
S'\x99\xc3\x97f%g\xad@'
tRp3813
tp3814
a(S'YP_003046278.1'
p3815
g3
(g5
S'i\xae\xd2$\x01|\xad@'
tRp3816
tp3817
a(S'YP_003045402.1'
p3818
g3
(g5
S'a\xfe\xc4\xd3\xcf\xa2\xad@'
tRp3819
tp3820
a(S'YP_003046342.1'
p3821
g3
(g5
S'\x95\x01\x80#\xc6\xe7\xad@'
tRp3822
tp3823
a(S'YP_003045953.1'
p3824
g3
(g5
S'c\xfdIET\x03\xae@'
tRp3825
tp3826
a(S'YP_003046349.1'
p3827
g3
(g5
S'\x01|!\x9bI#\xae@'
tRp3828
tp3829
a(S'YP_003046587.1'
p3830
g3
(g5
S'\xe8oQ{*4\xae@'
tRp3831
tp3832
a(S'YP_003043425.1'
p3833
g3
(g5
S'\xba\xf4\xa9\xfd\xb04\xae@'
tRp3834
tp3835
a(S'YP_003044285.1'
p3836
g3
(g5
S'\xa1n\xf6D\x96v\xae@'
tRp3837
tp3838
a(S'YP_003047239.1'
p3839
g3
(g5
S'\xb6\x1d\xaf\x01\xd3\x93\xae@'
tRp3840
tp3841
a(S'YP_003044179.1'
p3842
g3
(g5
S'\x8e\x99B\x9d\xfd\x16\xaf@'
tRp3843
tp3844
a(S'YP_003046929.1'
p3845
g3
(g5
S'c\x95\x1cL\xb9X\xaf@'
tRp3846
tp3847
a(S'YP_003046685.1'
p3848
g3
(g5
S'\xa8\xa1\x0c\x14\x8b\xb9\xaf@'
tRp3849
tp3850
a(S'YP_003043827.1'
p3851
g3
(g5
S'\x1a\n\xd6\xa5U\xe4\xaf@'
tRp3852
tp3853
a(S'YP_003044927.1'
p3854
g3
(g5
S'h\xe4\x1d\xaf\xfa\xe4\xaf@'
tRp3855
tp3856
a(S'YP_003043613.1'
p3857
g3
(g5
S'\xe9\x15BL\x04\xe9\xaf@'
tRp3858
tp3859
a(S'YP_003046343.1'
p3860
g3
(g5
S'v\rI\x19\x8d\x01\xb0@'
tRp3861
tp3862
a(S'YP_003044308.1'
p3863
g3
(g5
S'\x01K\xb9\xcf\x95U\xb0@'
tRp3864
tp3865
a(S'YP_003044306.1'
p3866
g3
(g5
S'\xbb\xbf\xbe\x86\x12p\xb0@'
tRp3867
tp3868
a(S'YP_003044133.1'
p3869
g3
(g5
S'D7\xd8\x8dS\xbe\xb0@'
tRp3870
tp3871
a(S'YP_003044290.1'
p3872
g3
(g5
S'\xa1H@~\xb8\xdf\xb0@'
tRp3873
tp3874
a(S'YP_003045308.1'
p3875
g3
(g5
S'\xce\xb0\xd4\xf78\xee\xb0@'
tRp3876
tp3877
a(S'YP_003046304.1'
p3878
g3
(g5
S'K\xd3B\x9e\x8f\xf5\xb0@'
tRp3879
tp3880
a(S'YP_003047034.1'
p3881
g3
(g5
S'\xe238\xf47\x0b\xb1@'
tRp3882
tp3883
a(S'YP_003043925.1'
p3884
g3
(g5
S'M\x93\xe08\xa2#\xb1@'
tRp3885
tp3886
a(S'YP_003043233.1'
p3887
g3
(g5
S'O\x87j1\x16-\xb1@'
tRp3888
tp3889
a(S'YP_003046526.1'
p3890
g3
(g5
S'm\x99\x19io0\xb1@'
tRp3891
tp3892
a(S'YP_003044886.1'
p3893
g3
(g5
S'\xaaN\xc3F&8\xb1@'
tRp3894
tp3895
a(S'YP_003045600.1'
p3896
g3
(g5
S'\x96\xd3/k4N\xb1@'
tRp3897
tp3898
a(S'YP_003043699.1'
p3899
g3
(g5
S'I\x81-}\x87b\xb1@'
tRp3900
tp3901
a(S'YP_003046672.1'
p3902
g3
(g5
S'D\xbf\xd2D\xb9y\xb1@'
tRp3903
tp3904
a(S'YP_003046281.1'
p3905
g3
(g5
S'\xf5e\xeew\x9e\xcf\xb1@'
tRp3906
tp3907
a(S'YP_003047033.1'
p3908
g3
(g5
S'|\xfe\x01\xc2_\xf2\xb1@'
tRp3909
tp3910
a(S'YP_003043302.1'
p3911
g3
(g5
S'\r\xfc\x066m0\xb2@'
tRp3912
tp3913
a(S'YP_003046468.1'
p3914
g3
(g5
S'$l\xc2\x81Q7\xb2@'
tRp3915
tp3916
a(S'YP_003047032.1'
p3917
g3
(g5
S'EK\xd1.\x18A\xb2@'
tRp3918
tp3919
a(S'YP_003046377.1'
p3920
g3
(g5
S'i\x92\\\xda\xb6T\xb2@'
tRp3921
tp3922
a(S'YP_003046791.1'
p3923
g3
(g5
S'-\x07\x87\x17\x82w\xb2@'
tRp3924
tp3925
a(S'YP_003044512.1'
p3926
g3
(g5
S'T\x02\xc0\x06\xd8\xc9\xb2@'
tRp3927
tp3928
a(S'YP_003043795.1'
p3929
g3
(g5
S'\xc8\xf7\x95c\xdc\xd9\xb2@'
tRp3930
tp3931
a(S'YP_003046792.1'
p3932
g3
(g5
S'\xff\xf8Y\xc0\x06\x0b\xb3@'
tRp3933
tp3934
a(S'YP_003047050.1'
p3935
g3
(g5
S'\xb0\xdc\xc5\x00\xea\x1f\xb3@'
tRp3936
tp3937
a(S'YP_003044110.1'
p3938
g3
(g5
S'\x1c\x9f\xa5\x06\xb6$\xb3@'
tRp3939
tp3940
a(S'YP_003046347.1'
p3941
g3
(g5
S'\xf9\xe3u~\xfd2\xb3@'
tRp3942
tp3943
a(S'YP_003044811.1'
p3944
g3
(g5
S'\xc0\x1de\xa4\xba\xa1\xb3@'
tRp3945
tp3946
a(S'YP_003044426.1'
p3947
g3
(g5
S'&\x82@\xb8\x91\xa6\xb3@'
tRp3948
tp3949
a(S'YP_003046796.1'
p3950
g3
(g5
S'\xc9\x88\xfb\x14\xdd\xc1\xb3@'
tRp3951
tp3952
a(S'YP_003045104.1'
p3953
g3
(g5
S'M(d\x9en \xb4@'
tRp3954
tp3955
a(S'YP_003045932.1'
p3956
g3
(g5
S'M<\xfd\x92\x142\xb4@'
tRp3957
tp3958
a(S'YP_003045275.1'
p3959
g3
(g5
S'\x82a\x1a\xdf\xa4\x8f\xb4@'
tRp3960
tp3961
a(S'YP_003046353.1'
p3962
g3
(g5
S'\xb3X\x179}Q\xb5@'
tRp3963
tp3964
a(S'YP_003043243.1'
p3965
g3
(g5
S'\x16e\x00:\xf3Y\xb5@'
tRp3966
tp3967
a(S'YP_003045960.1'
p3968
g3
(g5
S'\xd4\xf7\xbcy\xa4\x9b\xb5@'
tRp3969
tp3970
a(S'YP_003043304.1'
p3971
g3
(g5
S'F\xaa:u\x11\xd7\xb5@'
tRp3972
tp3973
a(S'YP_003046004.1'
p3974
g3
(g5
S'\x00\x8d\xc0\xc3v\xf0\xb5@'
tRp3975
tp3976
a(S'YP_003045945.1'
p3977
g3
(g5
S'\x8aF~IB3\xb6@'
tRp3978
tp3979
a(S'YP_003043303.1'
p3980
g3
(g5
S'o\x9c"\xday5\xb6@'
tRp3981
tp3982
a(S'YP_003045944.1'
p3983
g3
(g5
S'\x95h\xc6$*u\xb6@'
tRp3984
tp3985
a(S'YP_003045633.1'
p3986
g3
(g5
S'-\xad\xff\x84\xde\xe0\xb6@'
tRp3987
tp3988
a(S'YP_003045687.1'
p3989
g3
(g5
S'\n\xc9\x19\xff\xfe\xe9\xb6@'
tRp3990
tp3991
a(S'YP_003043373.1'
p3992
g3
(g5
S'\xd0q\xcdB%\xef\xb7@'
tRp3993
tp3994
a(S'YP_003046492.1'
p3995
g3
(g5
S'Q\xde\x98&=#\xb8@'
tRp3996
tp3997
a(S'YP_003043359.1'
p3998
g3
(g5
S'y\xfd\x13\x04\xc7+\xb8@'
tRp3999
tp4000
a(S'YP_003046378.1'
p4001
g3
(g5
S'\x05\x8den\x88;\xb8@'
tRp4002
tp4003
a(S'YP_003046344.1'
p4004
g3
(g5
S'/{i\x02\xe2\xb4\xb8@'
tRp4005
tp4006
a(S'YP_003046217.1'
p4007
g3
(g5
S'\xd4\xed\xbb\xcf\x9c\x06\xb9@'
tRp4008
tp4009
a(S'YP_003046350.1'
p4010
g3
(g5
S'\x02\x11.\x15\xb2@\xb9@'
tRp4011
tp4012
a(S'YP_003046346.1'
p4013
g3
(g5
S'\xfc\xc6 _\x04\x7f\xb9@'
tRp4014
tp4015
a(S'YP_003046331.1'
p4016
g3
(g5
S'?\xdf\xddf]\xad\xb9@'
tRp4017
tp4018
a(S'YP_003043397.1'
p4019
g3
(g5
S'<\xdd\xb3\xab\xe2\x86\xba@'
tRp4020
tp4021
a(S'YP_003046977.1'
p4022
g3
(g5
S'n\\Z\x8dJ\x83\xbb@'
tRp4023
tp4024
a(S'YP_003047237.1'
p4025
g3
(g5
S'u|Z\xfe\xfd\x84\xbb@'
tRp4026
tp4027
a(S'YP_003043581.1'
p4028
g3
(g5
S'\x8eA-\xa0_\xa4\xbb@'
tRp4029
tp4030
a(S'YP_003044152.1'
p4031
g3
(g5
S'6\xbf\xf5\xac-\xc8\xbb@'
tRp4032
tp4033
a(S'YP_003043396.1'
p4034
g3
(g5
S'S\x13t\xc1\xf3\xc2\xbc@'
tRp4035
tp4036
a(S'YP_003046334.1'
p4037
g3
(g5
S'\xca`w\xba\xd2\xd4\xbc@'
tRp4038
tp4039
a(S'YP_003046882.1'
p4040
g3
(g5
S'\x93\xcd\xe0\x0e\xd9,\xbd@'
tRp4041
tp4042
a(S'YP_003046376.1'
p4043
g3
(g5
S'{\xc2\x08\x95\xe8\xea\xbd@'
tRp4044
tp4045
a(S'YP_003044438.1'
p4046
g3
(g5
S'\x13\xe6\x06b\x9a\x17\xbe@'
tRp4047
tp4048
a(S'YP_003045813.1'
p4049
g3
(g5
S'\x03u\xd2g\xc6\xd0\xbe@'
tRp4050
tp4051
a(S'YP_003044309.1'
p4052
g3
(g5
S'\xc2\xb5\x1a\xa0\xab3\xc0@'
tRp4053
tp4054
a(S'YP_003047240.1'
p4055
g3
(g5
S'`<\xa3\xb9]K\xc0@'
tRp4056
tp4057
a(S'YP_003046823.1'
p4058
g3
(g5
S'\xe2\x7f\xb7xR\xa8\xc0@'
tRp4059
tp4060
a(S'YP_003045109.1'
p4061
g3
(g5
S'\r=Q\xc3]\xaa\xc1@'
tRp4062
tp4063
a(S'YP_003046332.1'
p4064
g3
(g5
S'\x8a4\xc7\xc7]\x9f\xc2@'
tRp4065
tp4066
a(S'YP_003045505.1'
p4067
g3
(g5
S'EBc\x05\xa1\xb7\xc2@'
tRp4068
tp4069
a(S'YP_003045506.1'
p4070
g3
(g5
S'o\xfbj\xf3\n\xb9\xc3@'
tRp4071
tp4072
a(S'YP_003044303.1'
p4073
g3
(g5
S'\x1f\xd4c@\xe3[\xc4@'
tRp4074
tp4075
a(S'YP_003043257.1'
p4076
g3
(g5
S'\xd3r\xa3K\xc8\x7f\xc4@'
tRp4077
tp4078
a(S'YP_003043609.1'
p4079
g3
(g5
S'\xf5\x00\xb3\x1f\xab\xc4\xc5@'
tRp4080
tp4081
a(S'YP_003046352.1'
p4082
g3
(g5
S'\xf3\xe9\xca\x05E\xf6\xc5@'
tRp4083
tp4084
a(S'YP_003044990.1'
p4085
g3
(g5
S'\xd2\x7f\x9d\xe0\xb4\xc5\xcb@'
tRp4086
tp4087
a(S'YP_003044945.1'
p4088
g3
(g5
S'\x9cfI\x05\xf8\x10\xcd@'
tRp4089
tp4090
a(S'YP_003046339.1'
p4091
g3
(g5
S'W\x97\x9a\xdb\xc3\x9b\xce@'
tRp4092
tp4093
a(S'YP_003047035.1'
p4094
g3
(g5
S'\x99\xab\x0ef\x85\x8e\xcf@'
tRp4095
tp4096
a(S'YP_003046994.1'
p4097
g3
(g5
S'\xbc\xc0\x07\xfd\nU\xd1@'
tRp4098
tp4099
a(S'YP_003047029.1'
p4100
g3
(g5
S'\xbeTX\x10\x82\xf6\xd2@'
tRp4101
tp4102
a(S'YP_003046375.1'
p4103
g3
(g5
S'\x87\xa6\x91\x03\xa0s\xd4@'
tRp4104
tp4105
a.