(lp1
(S'YP_003047377.1'
p2
cnumpy.core.multiarray
scalar
p3
(cnumpy
dtype
p4
(S'f8'
I0
I1
tRp5
(I3
S'<'
NNNI-1
I-1
I0
tbS'\xb4\x82\xf5G2q\x10@'
tRp6
tp7
a(S'YP_003045899.1'
p8
g3
(g5
S'\x17\xc2\xaf\xbb~$\x15@'
tRp9
tp10
a(S'YP_003045326.1'
p11
g3
(g5
S'4GT\x1c\x0e\x95\x16@'
tRp12
tp13
a(S'YP_003044823.1'
p14
g3
(g5
S'\xf5\xb3\x17\xb4\xfe?\x18@'
tRp15
tp16
a(S'YP_003047288.1'
p17
g3
(g5
S'E}\xdfc\x0c\xa1\x18@'
tRp18
tp19
a(S'YP_003043984.1'
p20
g3
(g5
S'K\x92\xf0\xfa]\xa9\x18@'
tRp21
tp22
a(S'YP_003044634.1'
p23
g3
(g5
S'\xd14 \x07[o\x1b@'
tRp24
tp25
a(S'YP_003043314.1'
p26
g3
(g5
S'R{o\xc1]\xd8\x1b@'
tRp27
tp28
a(S'YP_003043617.1'
p29
g3
(g5
S'\xf9\xd6\x91\x06\x01-\x1d@'
tRp30
tp31
a(S'YP_003045330.1'
p32
g3
(g5
S'M\xdet\xd7g\xcc @'
tRp33
tp34
a(S'YP_003043394.1'
p35
g3
(g5
S'S\xdaF_\x92\xec @'
tRp36
tp37
a(S'YP_003044194.1'
p38
g3
(g5
S'\xc2\xaa\x14=6?!@'
tRp39
tp40
a(S'YP_003045855.1'
p41
g3
(g5
S'zo\x02g\x18\xe4!@'
tRp42
tp43
a(S'YP_003046514.1'
p44
g3
(g5
S'$NM\xda\xd1Y#@'
tRp45
tp46
a(S'YP_003045856.1'
p47
g3
(g5
S'#\xf5\x9cu\\I$@'
tRp48
tp49
a(S'YP_003043754.1'
p50
g3
(g5
S'\xa7\xd0Zl,\x13%@'
tRp51
tp52
a(S'YP_003047006.1'
p53
g3
(g5
S'*}\xde\xd3\xcc_&@'
tRp54
tp55
a(S'YP_003047009.1'
p56
g3
(g5
S'\x85\xab\xc7|q\xb0&@'
tRp57
tp58
a(S'YP_003045755.1'
p59
g3
(g5
S'\xe7M\xac\xc1\x0f\xc1&@'
tRp60
tp61
a(S'YP_003047113.1'
p62
g3
(g5
S"/\x9eRX\xfd\xb6'@"
tRp63
tp64
a(S'YP_003045693.1'
p65
g3
(g5
S'\xff\x9f\xa3O{\r(@'
tRp66
tp67
a(S'YP_003043494.1'
p68
g3
(g5
S'\xc2\xf0\xe9\x13\xd5+(@'
tRp69
tp70
a(S'YP_003045631.1'
p71
g3
(g5
S'P\xf3\xd6\x9b\x08\x90(@'
tRp72
tp73
a(S'YP_003043979.1'
p74
g3
(g5
S'\x97u\x1b\x9bkc)@'
tRp75
tp76
a(S'YP_003046374.1'
p77
g3
(g5
S'Y\xfacu\xbb\xbc)@'
tRp78
tp79
a(S'YP_003045167.1'
p80
g3
(g5
S'\x0f\x99\x12dQ\xc3*@'
tRp81
tp82
a(S'YP_003045887.1'
p83
g3
(g5
S'\x14\xcc\x18q\x0cC,@'
tRp84
tp85
a(S'YP_003043692.1'
p86
g3
(g5
S'G%\xda\xa1\xfdf,@'
tRp87
tp88
a(S'YP_003043503.1'
p89
g3
(g5
S' \xec\xb9j\xb6\xe2,@'
tRp90
tp91
a(S'YP_003044235.1'
p92
g3
(g5
S'\tp\xab\xbdY\x8c-@'
tRp93
tp94
a(S'YP_003043376.1'
p95
g3
(g5
S'4\xe5\xcc~[\x8f-@'
tRp96
tp97
a(S'YP_003045239.1'
p98
g3
(g5
S'\xdc\xf9\x8f\xa4\xed\xe4-@'
tRp99
tp100
a(S'YP_003047010.1'
p101
g3
(g5
S"\xbc'\x96\x9a_\xee-@"
tRp102
tp103
a(S'YP_003046551.1'
p104
g3
(g5
S'\xf7\x96\x92\xb4b\x9c.@'
tRp105
tp106
a(S'YP_003043673.1'
p107
g3
(g5
S'\xa3\xee\xc5\x19\x0f\n/@'
tRp108
tp109
a(S'YP_003047381.1'
p110
g3
(g5
S'\x7f\xcc\xfbS?#/@'
tRp111
tp112
a(S'YP_003045471.1'
p113
g3
(g5
S'\xb7\x9c\xc5\x88g=/@'
tRp114
tp115
a(S'YP_003045075.1'
p116
g3
(g5
S'\xb4<\x86X\x97p/@'
tRp117
tp118
a(S'YP_003044415.1'
p119
g3
(g5
S'S\x04k\x1d\xf6\xe0/@'
tRp120
tp121
a(S'YP_003044932.1'
p122
g3
(g5
S'\xf8r\xc4\x1e\xf5\xb40@'
tRp123
tp124
a(S'YP_003043736.1'
p125
g3
(g5
S's\xa1K\xd5\xe0\xc10@'
tRp126
tp127
a(S'YP_003044537.1'
p128
g3
(g5
S'\xaf\x17\x970\x94S1@'
tRp129
tp130
a(S'YP_003046759.1'
p131
g3
(g5
S'\x9c-\xf49\xf1\xa01@'
tRp132
tp133
a(S'YP_003043825.1'
p134
g3
(g5
S'\r6\x1b(0\x112@'
tRp135
tp136
a(S'YP_003046729.1'
p137
g3
(g5
S'\xa1H\xc3\xc5\xaf\xa22@'
tRp138
tp139
a(S'YP_003044960.1'
p140
g3
(g5
S'\x95\xc0h\xbbr)3@'
tRp141
tp142
a(S'YP_003045013.1'
p143
g3
(g5
S'\x90c\t\xc7z83@'
tRp144
tp145
a(S'YP_003043708.1'
p146
g3
(g5
S';K\x15(V\x883@'
tRp147
tp148
a(S'YP_003043388.1'
p149
g3
(g5
S'\nvNl364@'
tRp150
tp151
a(S'YP_003047223.1'
p152
g3
(g5
S'=F\x99\xd6\xb0r4@'
tRp153
tp154
a(S'YP_003046603.1'
p155
g3
(g5
S'\xb2\xfe\x93|\xa7\xc64@'
tRp156
tp157
a(S'YP_003044607.1'
p158
g3
(g5
S'\xeeMg\xcf8\xec4@'
tRp159
tp160
a(S'YP_003046549.1'
p161
g3
(g5
S'\xf6C\xff\xb5\xc4\x0c5@'
tRp162
tp163
a(S'YP_003045247.1'
p164
g3
(g5
S'\x1d\xe9\xd6\x8fc\xb75@'
tRp165
tp166
a(S'YP_003044498.1'
p167
g3
(g5
S'\x8e\xf6\xd9B\x1f\xfa5@'
tRp168
tp169
a(S'YP_003045299.1'
p170
g3
(g5
S'\x8bK\x95\x7f~&6@'
tRp171
tp172
a(S'YP_003047108.1'
p173
g3
(g5
S'\x9b3\x19\x92\xb0\xf36@'
tRp174
tp175
a(S'YP_003045527.1'
p176
g3
(g5
S'\xe7(\xf9\x9a\xfe\xfe6@'
tRp177
tp178
a(S'YP_003045740.1'
p179
g3
(g5
S'@[p\x86W\x047@'
tRp180
tp181
a(S'YP_003044640.1'
p182
g3
(g5
S'\x16\xea\xf3m\xf5<7@'
tRp183
tp184
a(S'YP_003046394.1'
p185
g3
(g5
S'\x96e\xc4Bm|7@'
tRp186
tp187
a(S'YP_003045107.1'
p188
g3
(g5
S'\xf6\t\x98/3\xba7@'
tRp189
tp190
a(S'YP_003043830.1'
p191
g3
(g5
S'E\x17{\x18\xc8\xc97@'
tRp192
tp193
a(S'YP_003043871.1'
p194
g3
(g5
S'\x87\xe6\xa0\x97m\xd47@'
tRp195
tp196
a(S'YP_003045300.1'
p197
g3
(g5
S'\xdb\x9fA\xe0\x10\xdd8@'
tRp198
tp199
a(S'YP_003044417.1'
p200
g3
(g5
S'Zk\x07\xe9\xb2\x1b9@'
tRp201
tp202
a(S'YP_003046077.1'
p203
g3
(g5
S'2plb\xaf@9@'
tRp204
tp205
a(S'YP_003047373.1'
p206
g3
(g5
S'-[|t}\xc99@'
tRp207
tp208
a(S'YP_003044107.1'
p209
g3
(g5
S'||\x14w\x16l:@'
tRp210
tp211
a(S'YP_003044112.1'
p212
g3
(g5
S'\x1e\xca\xafg\x8cI<@'
tRp213
tp214
a(S'YP_003045344.1'
p215
g3
(g5
S'Q\xfa\x10S\xc3j<@'
tRp216
tp217
a(S'YP_003047375.1'
p218
g3
(g5
S's\xfaU#\\\xce<@'
tRp219
tp220
a(S'YP_003046781.1'
p221
g3
(g5
S'\x8b\x98\xb2C\xad\xd8<@'
tRp222
tp223
a(S'YP_003044971.1'
p224
g3
(g5
S'\xeb\x11\x80,\x9d\xe8<@'
tRp225
tp226
a(S'YP_003044522.1'
p227
g3
(g5
S'b~#\x1c>R?@'
tRp228
tp229
a(S'YP_003044779.1'
p230
g3
(g5
S'\xbdg\xf4\xcfO\xd8?@'
tRp231
tp232
a(S'YP_003045177.1'
p233
g3
(g5
S'\xb4=\xb6\xb2C\x0b@@'
tRp234
tp235
a(S'YP_003044392.1'
p236
g3
(g5
S'Ashnsl@@'
tRp237
tp238
a(S'YP_003046501.1'
p239
g3
(g5
S'\xd5\x1c\xa1\xf3;\x8b@@'
tRp240
tp241
a(S'YP_003045872.1'
p242
g3
(g5
S'\x04\xd2t\xe1\xcb\x93@@'
tRp243
tp244
a(S'YP_003044216.1'
p245
g3
(g5
S'c\xa7\x17\xb0\xcc\x9e@@'
tRp246
tp247
a(S'YP_003046902.1'
p248
g3
(g5
S'\xbb\xbc\xbeb\xa2\xd9@@'
tRp249
tp250
a(S'YP_003043951.1'
p251
g3
(g5
S'L\xa9*ku\x0eA@'
tRp252
tp253
a(S'YP_003046166.1'
p254
g3
(g5
S'B\xe9\x195Z\x93A@'
tRp255
tp256
a(S'YP_003043385.1'
p257
g3
(g5
S'\xc9\xaa\x85\x95,\xe2A@'
tRp258
tp259
a(S'YP_003044391.1'
p260
g3
(g5
S'\x1c\x91\xff\xff"\xe8A@'
tRp261
tp262
a(S'YP_003047413.1'
p263
g3
(g5
S'\xa4\x13\x0eZw\x14B@'
tRp264
tp265
a(S'YP_003045311.1'
p266
g3
(g5
S'\xa9+\xa1\x933\x1bB@'
tRp267
tp268
a(S'YP_003045709.1'
p269
g3
(g5
S'\x8f\x15\x14W\xa1>B@'
tRp270
tp271
a(S'YP_003044070.1'
p272
g3
(g5
S'\x08\x83SY\x0biB@'
tRp273
tp274
a(S'YP_003046643.1'
p275
g3
(g5
S'\x82K\xb3~\xbbnB@'
tRp276
tp277
a(S'YP_003046493.1'
p278
g3
(g5
S'\x95s\xea\t\x07\xf8B@'
tRp279
tp280
a(S'YP_003044092.1'
p281
g3
(g5
S'\xa4p\xf1\xbe\x90\x84C@'
tRp282
tp283
a(S'YP_003047244.1'
p284
g3
(g5
S'\xfe[\x1a\x83E\xdbC@'
tRp285
tp286
a(S'YP_003044910.1'
p287
g3
(g5
S'\xf2\xa5p\x17\xf0;D@'
tRp288
tp289
a(S'YP_003045338.1'
p290
g3
(g5
S'\x1dSRnd\xfcD@'
tRp291
tp292
a(S'YP_003047409.1'
p293
g3
(g5
S'\xbda\x1e^\xfc\xffD@'
tRp294
tp295
a(S'YP_003044787.1'
p296
g3
(g5
S'\xec,\xe3-\xbf\x96E@'
tRp297
tp298
a(S'YP_003044344.1'
p299
g3
(g5
S'\xcc|\xeb\x8b\x86\x00F@'
tRp300
tp301
a(S'YP_003044138.1'
p302
g3
(g5
S'y!BG\x17LF@'
tRp303
tp304
a(S'YP_003045988.1'
p305
g3
(g5
S'6A\xdd\x19\xc6WF@'
tRp306
tp307
a(S'YP_003046260.1'
p308
g3
(g5
S'\x08\xeb\xc8\xb0\x19fF@'
tRp309
tp310
a(S'YP_003043506.1'
p311
g3
(g5
S'e\x16\xd8k\x97\xf0F@'
tRp312
tp313
a(S'YP_003044479.1'
p314
g3
(g5
S'\xe8\xaf\xda\xf2\x8c\xfbF@'
tRp315
tp316
a(S'YP_003045981.1'
p317
g3
(g5
S'd-;\x91y\x13G@'
tRp318
tp319
a(S'YP_003047251.1'
p320
g3
(g5
S'2\xd9\x12\xbf?HG@'
tRp321
tp322
a(S'YP_003046726.1'
p323
g3
(g5
S'b3\xc1\xf4,SG@'
tRp324
tp325
a(S'YP_003044687.1'
p326
g3
(g5
S'\xa5\xc9Sx\x1b;H@'
tRp327
tp328
a(S'YP_003046090.1'
p329
g3
(g5
S'\xd3\xc6:\x9b\xebbH@'
tRp330
tp331
a(S'YP_003044335.1'
p332
g3
(g5
S'f5;z\xf6\x80H@'
tRp333
tp334
a(S'YP_003046416.1'
p335
g3
(g5
S'\x13\xd7)\x82\x81\x91H@'
tRp336
tp337
a(S'YP_003046830.1'
p338
g3
(g5
S'\xbb\xe4\x86s\x14\xd9H@'
tRp339
tp340
a(S'YP_003043845.1'
p341
g3
(g5
S'D\\_Wv\xd9H@'
tRp342
tp343
a(S'YP_003045534.1'
p344
g3
(g5
S"\xb8'FC\x7f\xf2H@"
tRp345
tp346
a(S'YP_003046651.1'
p347
g3
(g5
S'\x02\x1f\xd97\xd2\x1bI@'
tRp348
tp349
a(S'YP_003046667.1'
p350
g3
(g5
S'o\xb7,\x9b\xa1 I@'
tRp351
tp352
a(S'YP_003043249.1'
p353
g3
(g5
S'p\xb4\xe4\xcaa\xc4I@'
tRp354
tp355
a(S'YP_003043573.1'
p356
g3
(g5
S'?@\xa4\xbal\xc8I@'
tRp357
tp358
a(S'YP_003044014.1'
p359
g3
(g5
S'\x99\xb9\xcd\xef\xd0\x1cJ@'
tRp360
tp361
a(S'YP_003045049.1'
p362
g3
(g5
S'\xdf\xb4\xf6\xc6\xe3TJ@'
tRp363
tp364
a(S'YP_003047354.1'
p365
g3
(g5
S'\xf8\x83\xbf\xa4B\x88J@'
tRp366
tp367
a(S'YP_003045002.1'
p368
g3
(g5
S'.\xd2\xd6\x86U\xfdJ@'
tRp369
tp370
a(S'YP_003044763.1'
p371
g3
(g5
S'\x0e!\xa3\x89\xcd#K@'
tRp372
tp373
a(S'YP_003047061.1'
p374
g3
(g5
S'\x0b\xd9)\xccwUK@'
tRp375
tp376
a(S'YP_003045435.1'
p377
g3
(g5
S'~\x90*T?[K@'
tRp378
tp379
a(S'YP_003044400.1'
p380
g3
(g5
S'gU\x8f\xf2\x05mK@'
tRp381
tp382
a(S'YP_003045858.1'
p383
g3
(g5
S'q\x90\x81!:\xf7K@'
tRp384
tp385
a(S'YP_003046559.1'
p386
g3
(g5
S'\x00&J\x88\xb2\x87L@'
tRp387
tp388
a(S'YP_003046488.1'
p389
g3
(g5
S'i6\xe9\xbb\xe5\xa9L@'
tRp390
tp391
a(S'YP_003043959.1'
p392
g3
(g5
S'\x86\x81\x13k\xe5\xb0L@'
tRp393
tp394
a(S'YP_003047275.1'
p395
g3
(g5
S'\x81V\x06#\x8a\xcdL@'
tRp396
tp397
a(S'YP_003045642.1'
p398
g3
(g5
S'*\x05\xd2\x9d\t\xfaL@'
tRp399
tp400
a(S'YP_003044294.1'
p401
g3
(g5
S'}\x96/\xc5\x93\x10M@'
tRp402
tp403
a(S'YP_003046658.1'
p404
g3
(g5
S'\xbb\xd4\xab\x0ca\x12M@'
tRp405
tp406
a(S'YP_003044102.1'
p407
g3
(g5
S'\xba\x0c\xa6\xf4cbM@'
tRp408
tp409
a(S'YP_003045438.1'
p410
g3
(g5
S'`g\x11\xb1\x94~M@'
tRp411
tp412
a(S'YP_003045820.1'
p413
g3
(g5
S'4W\xfd\x1e\x84\xa0M@'
tRp414
tp415
a(S'YP_003044617.1'
p416
g3
(g5
S'\x9d\xbdu\xa5\xdd\x01N@'
tRp417
tp418
a(S'YP_003047132.1'
p419
g3
(g5
S'\x9cN:i\xc8NN@'
tRp420
tp421
a(S'YP_003044144.1'
p422
g3
(g5
S'Rd(\xe8\xe9rN@'
tRp423
tp424
a(S'YP_003044215.1'
p425
g3
(g5
S'\xbe\xbd0\xda\xda\xc7N@'
tRp426
tp427
a(S'YP_003046666.1'
p428
g3
(g5
S"B\x9ew'S\x9eO@"
tRp429
tp430
a(S'YP_003045388.1'
p431
g3
(g5
S'\xc9\xe8\xf8\xbc\x0f\xa9O@'
tRp432
tp433
a(S'YP_003043418.1'
p434
g3
(g5
S'\xffP\xa1i\xae\xe7O@'
tRp435
tp436
a(S'YP_003046970.1'
p437
g3
(g5
S'\x95Z~8\x98\x02P@'
tRp438
tp439
a(S'YP_003044470.1'
p440
g3
(g5
S'}\x1d\x0b$\x1c P@'
tRp441
tp442
a(S'YP_003045670.1'
p443
g3
(g5
S'\x1e|\xdfl\xefoP@'
tRp444
tp445
a(S'YP_003047398.1'
p446
g3
(g5
S'<\xdf\x19/\xbdqP@'
tRp447
tp448
a(S'YP_003046125.1'
p449
g3
(g5
S'\t\xb7\xf3\x19+\xe3P@'
tRp450
tp451
a(S'YP_003045663.1'
p452
g3
(g5
S'j&zo\xa2\x14Q@'
tRp453
tp454
a(S'YP_003045220.1'
p455
g3
(g5
S'\\\xe9\xd1\x80@KQ@'
tRp456
tp457
a(S'YP_003046195.1'
p458
g3
(g5
S'\xec\xf2e\r\xfcmQ@'
tRp459
tp460
a(S'YP_003045092.1'
p461
g3
(g5
S'\x9a\xdeZ\xb6\x8a\x9fQ@'
tRp462
tp463
a(S'YP_003045550.1'
p464
g3
(g5
S'\xc1\x11\xf1\xb0\x96\xafQ@'
tRp465
tp466
a(S'YP_003046459.1'
p467
g3
(g5
S'\x06\x05\x01R\x83\xd1Q@'
tRp468
tp469
a(S'YP_003045657.1'
p470
g3
(g5
S'\x9ch\xb3\x0f\x03\xdfQ@'
tRp471
tp472
a(S'YP_003045638.1'
p473
g3
(g5
S'zV\xaea\x17\xeaQ@'
tRp474
tp475
a(S'YP_003045591.1'
p476
g3
(g5
S'F}\x8d\x8b\xcf\xfbQ@'
tRp477
tp478
a(S'YP_003045003.1'
p479
g3
(g5
S'\xca\x85\\S\xa9)R@'
tRp480
tp481
a(S'YP_003044788.1'
p482
g3
(g5
S'\xe9hC\x91\x172R@'
tRp483
tp484
a(S'YP_003044874.1'
p485
g3
(g5
S'O"\xdc\xd3u<R@'
tRp486
tp487
a(S'YP_003045343.1'
p488
g3
(g5
S'\xad\xe7\x80"\x98BR@'
tRp489
tp490
a(S'YP_003044379.1'
p491
g3
(g5
S'\xc0\x183\xda\xefOR@'
tRp492
tp493
a(S'YP_003043526.1'
p494
g3
(g5
S'$N4\xa1\xeeUR@'
tRp495
tp496
a(S'YP_003046772.1'
p497
g3
(g5
S'\x8f-)\xd3\x02eR@'
tRp498
tp499
a(S'YP_003043411.1'
p500
g3
(g5
S"c\xf1&V'}R@"
tRp501
tp502
a(S'YP_003045766.1'
p503
g3
(g5
S'\x04/g\x87B\xc6R@'
tRp504
tp505
a(S'YP_003043977.1'
p506
g3
(g5
S'\x87.\x165\xb5\xcfR@'
tRp507
tp508
a(S'YP_003046145.1'
p509
g3
(g5
S'\xa3\x01\x0f\x8d_\xd3R@'
tRp510
tp511
a(S'YP_003046499.1'
p512
g3
(g5
S'`\xb1\x9a|\xb2\xf4R@'
tRp513
tp514
a(S'YP_003045065.1'
p515
g3
(g5
S'\xce\xd2\x8f\xaf\x0b\xf6R@'
tRp516
tp517
a(S'YP_003046863.1'
p518
g3
(g5
S'\x11\xdf\x8aN\x9b\x07S@'
tRp519
tp520
a(S'YP_003045089.1'
p521
g3
(g5
S"\x98\x86'\x18\x04\x11S@"
tRp522
tp523
a(S'YP_003045914.1'
p524
g3
(g5
S')\xfb[N\xe5:S@'
tRp525
tp526
a(S'YP_003046696.1'
p527
g3
(g5
S'\xca\xe6Y\x97TOS@'
tRp528
tp529
a(S'YP_003046215.1'
p530
g3
(g5
S'\xb2)\x87\xbe9QS@'
tRp531
tp532
a(S'YP_003045425.1'
p533
g3
(g5
S'\xa4g\x12AIXS@'
tRp534
tp535
a(S'YP_003045649.1'
p536
g3
(g5
S'g\xae(\x07\xa6\xccS@'
tRp537
tp538
a(S'YP_003043572.1'
p539
g3
(g5
S'P\x17Ur\xa9\xe6S@'
tRp540
tp541
a(S'YP_003046943.1'
p542
g3
(g5
S'\x93N\xd2{u\xefS@'
tRp543
tp544
a(S'YP_003043593.1'
p545
g3
(g5
S':\x85DI\xd6\xf6S@'
tRp546
tp547
a(S'YP_003045672.1'
p548
g3
(g5
S'L\x15mP\x16\x1bT@'
tRp549
tp550
a(S'YP_003044753.1'
p551
g3
(g5
S'^lw\xd8A)T@'
tRp552
tp553
a(S'YP_003046587.1'
p554
g3
(g5
S'\x83\xb3\r\xa0\x8c,T@'
tRp555
tp556
a(S'YP_003044261.1'
p557
g3
(g5
S'X8\xc5\xd4\x91GT@'
tRp558
tp559
a(S'YP_003044889.1'
p560
g3
(g5
S'\xbc\x81\x82\x15\xa8NT@'
tRp561
tp562
a(S'YP_003047120.1'
p563
g3
(g5
S'k\xcb;\xcb\xee\\T@'
tRp564
tp565
a(S'YP_003045445.1'
p566
g3
(g5
S'\xdd\x94\xf3\xd9PiT@'
tRp567
tp568
a(S'YP_003046466.1'
p569
g3
(g5
S'\xd1~m_\x91\x9cT@'
tRp570
tp571
a(S'YP_003046625.1'
p572
g3
(g5
S'\x10R\xac\xf5t\xb3T@'
tRp573
tp574
a(S'YP_003045278.1'
p575
g3
(g5
S'\xba_\x17@\x1f\xbbT@'
tRp576
tp577
a(S'YP_003047374.1'
p578
g3
(g5
S'\xd1\xc6f*\xd5\xc4T@'
tRp579
tp580
a(S'YP_003043443.1'
p581
g3
(g5
S'\x9d\xcd\xce\xd4\xb1\xefT@'
tRp582
tp583
a(S'YP_003047207.1'
p584
g3
(g5
S'\x87\xdfN\xfcW*U@'
tRp585
tp586
a(S'YP_003046853.1'
p587
g3
(g5
S'\x95BW\x13\xc65U@'
tRp588
tp589
a(S'YP_003045197.1'
p590
g3
(g5
S'\xf2e4_\xcedU@'
tRp591
tp592
a(S'YP_003044291.1'
p593
g3
(g5
S'\xd6\x8a\xc6\xd0\xb3iU@'
tRp594
tp595
a(S'YP_003045148.1'
p596
g3
(g5
S'J$0\xeaGmU@'
tRp597
tp598
a(S'YP_003045847.1'
p599
g3
(g5
S'\xd9\xf5q\xce[wU@'
tRp600
tp601
a(S'YP_003046129.1'
p602
g3
(g5
S'\x04\xff\x04\xde\xd7wU@'
tRp603
tp604
a(S'YP_003046121.1'
p605
g3
(g5
S'\x88\x95\x814\xe0\x81U@'
tRp606
tp607
a(S'YP_003043937.1'
p608
g3
(g5
S'\xa1s\xbeK\xcb\xb9U@'
tRp609
tp610
a(S'YP_003046467.1'
p611
g3
(g5
S'M\xfd\xa3\xb1@\xd4U@'
tRp612
tp613
a(S'YP_003043759.1'
p614
g3
(g5
S'+>\xaf\xbak\xd4U@'
tRp615
tp616
a(S'YP_003043447.1'
p617
g3
(g5
S'\xb6\x82\xe9V\xc8\xf7U@'
tRp618
tp619
a(S'YP_003044546.1'
p620
g3
(g5
S'\xd3\xf8 m\xe5\x02V@'
tRp621
tp622
a(S'YP_003046992.1'
p623
g3
(g5
S'o\x86\x1d\x9d4\x0cV@'
tRp624
tp625
a(S'YP_003047422.1'
p626
g3
(g5
S'd\x16L\x90+\x1eV@'
tRp627
tp628
a(S'YP_003045159.1'
p629
g3
(g5
S'X\xd1\xa83\xa8:V@'
tRp630
tp631
a(S'YP_003045431.1'
p632
g3
(g5
S'\x91\xbf\x13\x98\x8eYV@'
tRp633
tp634
a(S'YP_003043641.1'
p635
g3
(g5
S'\x1e\xb5R\x07\xf7\x8dV@'
tRp636
tp637
a(S'YP_003047083.1'
p638
g3
(g5
S'l\xcf=\x91l\x8fV@'
tRp639
tp640
a(S'YP_003044381.1'
p641
g3
(g5
S'\x9c\x07\xa27\xc7\xa6V@'
tRp642
tp643
a(S'YP_003045046.1'
p644
g3
(g5
S'\xbc\xe18\xe4\xf1\xbdV@'
tRp645
tp646
a(S'YP_003046915.1'
p647
g3
(g5
S'\xd1\xbb&\xdf\xfc\xdbV@'
tRp648
tp649
a(S'YP_003045296.1'
p650
g3
(g5
S'\xb2\xe5\xc6jWzW@'
tRp651
tp652
a(S'YP_003043647.1'
p653
g3
(g5
S'\xfd\\\x1cN\x93\x88W@'
tRp654
tp655
a(S'YP_003045927.1'
p656
g3
(g5
S'o_\xc9\x1b*\x96W@'
tRp657
tp658
a(S'YP_003047378.1'
p659
g3
(g5
S'\x1b*\x98T\xe8\x9dW@'
tRp660
tp661
a(S'YP_003043794.1'
p662
g3
(g5
S'\xb0\x11N\x07l\xafW@'
tRp663
tp664
a(S'YP_003046519.1'
p665
g3
(g5
S'\x07eQ\xb2\xb7\xc3W@'
tRp666
tp667
a(S'YP_003045163.1'
p668
g3
(g5
S'\xffA;\xcd8\xcbW@'
tRp669
tp670
a(S'YP_003047287.1'
p671
g3
(g5
S'\x1f\xe5\\\xd6\xe0\x0cX@'
tRp672
tp673
a(S'YP_003047027.1'
p674
g3
(g5
S'\xec\xaf\xea\xa5*xX@'
tRp675
tp676
a(S'YP_003045290.1'
p677
g3
(g5
S' )p\xda,\xbcX@'
tRp678
tp679
a(S'YP_003044171.1'
p680
g3
(g5
S'\t\xe2\x1e\xd7\x83\xcfX@'
tRp681
tp682
a(S'YP_003043430.1'
p683
g3
(g5
S'\xdaE\x05B\xcf\xdaX@'
tRp684
tp685
a(S'YP_003044936.1'
p686
g3
(g5
S'\x01\x9b\xed@z\xf3X@'
tRp687
tp688
a(S'YP_003043921.1'
p689
g3
(g5
S'E\xfc\x119s\x00Y@'
tRp690
tp691
a(S'YP_003044304.1'
p692
g3
(g5
S'H0\xdbdq\tY@'
tRp693
tp694
a(S'YP_003046138.1'
p695
g3
(g5
S'P\xcb\xa6\xcd\xad\x14Y@'
tRp696
tp697
a(S'YP_003044998.1'
p698
g3
(g5
S'#@\xaa\xc1Q\x17Y@'
tRp699
tp700
a(S'YP_003045051.1'
p701
g3
(g5
S'"\xee\xe6\x84R_Y@'
tRp702
tp703
a(S'YP_003045578.1'
p704
g3
(g5
S'pk\xa0\xb0t}Y@'
tRp705
tp706
a(S'YP_003044478.1'
p707
g3
(g5
S'R\xfeC\n\x8c\xb2Y@'
tRp708
tp709
a(S'YP_003044468.1'
p710
g3
(g5
S'D\x85\xee\xb5\x9b\xb6Y@'
tRp711
tp712
a(S'YP_003044597.1'
p713
g3
(g5
S'*\x99A<,\x17Z@'
tRp714
tp715
a(S'YP_003047004.1'
p716
g3
(g5
S'\xe2\x88\x8e|5\x1cZ@'
tRp717
tp718
a(S'YP_003046329.1'
p719
g3
(g5
S'\xd4\x95\xcbVCbZ@'
tRp720
tp721
a(S'YP_003044123.1'
p722
g3
(g5
S'\xcf5Y\xe9\xf8sZ@'
tRp723
tp724
a(S'YP_003043527.1'
p725
g3
(g5
S'\xe2i\xce\x93+\xa1Z@'
tRp726
tp727
a(S'YP_003044791.1'
p728
g3
(g5
S'\x1b\xc1\xa6\xa9\xe4\xd0Z@'
tRp729
tp730
a(S'YP_003043671.1'
p731
g3
(g5
S'\xe9\xc74\xa3\xe1\x02[@'
tRp732
tp733
a(S'YP_003043552.1'
p734
g3
(g5
S'\xda3\x1b\xc8\xd1\x12[@'
tRp735
tp736
a(S'YP_003043929.1'
p737
g3
(g5
S'\xb1C\\\xddu![@'
tRp738
tp739
a(S'YP_003044104.1'
p740
g3
(g5
S'\xb6\xd5\xe0\xf2(*[@'
tRp741
tp742
a(S'YP_003044589.1'
p743
g3
(g5
S'\x0fx\x95\xf7\xefx[@'
tRp744
tp745
a(S'YP_003046627.1'
p746
g3
(g5
S'\xe0\xe6\x9d\x86\xea\x80[@'
tRp747
tp748
a(S'YP_003045880.1'
p749
g3
(g5
S'\x0c\xe2\xa5\x9by\xb4[@'
tRp750
tp751
a(S'YP_003045511.1'
p752
g3
(g5
S'\xf3\x91]/\xad\xd5[@'
tRp753
tp754
a(S'YP_003046146.1'
p755
g3
(g5
S'k\xa4O\x9f\xc1\xf8[@'
tRp756
tp757
a(S'YP_003044091.1'
p758
g3
(g5
S'\x87\x8c\n\x1fS\xa8\\@'
tRp759
tp760
a(S'YP_003045791.1'
p761
g3
(g5
S'\xf5\x89\x99\x8c\x99\xbc\\@'
tRp762
tp763
a(S'YP_003046860.1'
p764
g3
(g5
S'\x88a\x00\t\x9b\xd5\\@'
tRp765
tp766
a(S'YP_003046669.1'
p767
g3
(g5
S'\xa6oA\xa2FT]@'
tRp768
tp769
a(S'YP_003047208.1'
p770
g3
(g5
S'\x05\t\x132xp]@'
tRp771
tp772
a(S'YP_003044025.1'
p773
g3
(g5
S'\xec\xda\xc7\xb1\x7f\x80]@'
tRp774
tp775
a(S'YP_003046847.1'
p776
g3
(g5
S'&*\x86\xe6[\xb0]@'
tRp777
tp778
a(S'YP_003044835.1'
p779
g3
(g5
S'\xb9\xedF\xcc\xbd-^@'
tRp780
tp781
a(S'YP_003044761.1'
p782
g3
(g5
S'>\x92\x7f\xc6\xc0\xa1^@'
tRp783
tp784
a(S'YP_003044137.1'
p785
g3
(g5
S'\x8fH\xe6m\xab\xb7^@'
tRp786
tp787
a(S'YP_003046558.1'
p788
g3
(g5
S'kC\x11\t\xba\xd7^@'
tRp789
tp790
a(S'YP_003046802.1'
p791
g3
(g5
S'\xa2\xbch\xf5;/_@'
tRp792
tp793
a(S'YP_003045091.1'
p794
g3
(g5
S'R\xf8G\xbf\xf2=_@'
tRp795
tp796
a(S'YP_003046294.1'
p797
g3
(g5
S'amqNJx_@'
tRp798
tp799
a(S'YP_003043982.1'
p800
g3
(g5
S'\x1a\xe7\xcb\r\\\x8f_@'
tRp801
tp802
a(S'YP_003044920.1'
p803
g3
(g5
S'\x9a\x9cQ*\x84\xab_@'
tRp804
tp805
a(S'YP_003046949.1'
p806
g3
(g5
S'\xd2\xd8\x08\xbf\xc2\xe1_@'
tRp807
tp808
a(S'YP_003043289.1'
p809
g3
(g5
S'D\x10\xc20C\x11`@'
tRp810
tp811
a(S'YP_003047404.1'
p812
g3
(g5
S'\xc7\xab\x8e\x0eZM`@'
tRp813
tp814
a(S'YP_003046325.1'
p815
g3
(g5
S'\x1bD}\xe1#_`@'
tRp816
tp817
a(S'YP_003043410.1'
p818
g3
(g5
S'sQc\xc7>\x8e`@'
tRp819
tp820
a(S'YP_003047227.1'
p821
g3
(g5
S'\x15\xef\xc8\xd0\xf4\x9d`@'
tRp822
tp823
a(S'YP_003046687.1'
p824
g3
(g5
S'\xa8\xb8|V7\xda`@'
tRp825
tp826
a(S'YP_003046436.1'
p827
g3
(g5
S'0X,\x0c\xa9\x1da@'
tRp828
tp829
a(S'YP_003046087.1'
p830
g3
(g5
S'+L\x81\x11j)a@'
tRp831
tp832
a(S'YP_003046952.1'
p833
g3
(g5
S'\x0b\xf4\xa3.cKa@'
tRp834
tp835
a(S'YP_003045276.1'
p836
g3
(g5
S'\xac\xe6Z\x85kra@'
tRp837
tp838
a(S'YP_003047408.1'
p839
g3
(g5
S'\x11\xa1P\xf0\x81ua@'
tRp840
tp841
a(S'YP_003045986.1'
p842
g3
(g5
S'\xc4r\xa3\xf0\xd4\x85a@'
tRp843
tp844
a(S'YP_003046973.1'
p845
g3
(g5
S'\xe1\xbd\xb9\xde\xec\xd5a@'
tRp846
tp847
a(S'YP_003046523.1'
p848
g3
(g5
S'J\x8e\xdf\x8b\xa2\x01b@'
tRp849
tp850
a(S'YP_003045513.1'
p851
g3
(g5
S'HK\xc9\x8b\x0b7b@'
tRp852
tp853
a(S'YP_003046831.1'
p854
g3
(g5
S'I\xa4@\xe7\xd28b@'
tRp855
tp856
a(S'YP_003044280.1'
p857
g3
(g5
S'\x15\x14\xc1\xed\x08Qb@'
tRp858
tp859
a(S'YP_003045028.1'
p860
g3
(g5
S'\xad\xaeX\x9d\xd0Tb@'
tRp861
tp862
a(S'YP_003045281.1'
p863
g3
(g5
S'\xd7\x9ey\xaa\x17_b@'
tRp864
tp865
a(S'YP_003045864.1'
p866
g3
(g5
S'v\x9fnaC_b@'
tRp867
tp868
a(S'YP_003046064.1'
p869
g3
(g5
S'4\xce9\xff|_b@'
tRp870
tp871
a(S'YP_003046556.1'
p872
g3
(g5
S"'|\x92W\xe1zb@"
tRp873
tp874
a(S'YP_003043820.1'
p875
g3
(g5
S']}3\xba\xe6\x81b@'
tRp876
tp877
a(S'YP_003044269.1'
p878
g3
(g5
S'\x010\xb6\x99\x0b\x84b@'
tRp879
tp880
a(S'YP_003043992.1'
p881
g3
(g5
S'\xe3l\xd7\xac\xaf\xa1b@'
tRp882
tp883
a(S'YP_003047025.1'
p884
g3
(g5
S'2\xcf}\x17+\xdeb@'
tRp885
tp886
a(S'YP_003046396.1'
p887
g3
(g5
S'b\x82<\xef\xa9\xe3b@'
tRp888
tp889
a(S'YP_003047170.1'
p890
g3
(g5
S'\x0c\xf3?*K\xf5b@'
tRp891
tp892
a(S'YP_003044035.1'
p893
g3
(g5
S'\x14\xbfyS\xa6\xf6b@'
tRp894
tp895
a(S'YP_003043964.1'
p896
g3
(g5
S'\x08\xe7\x06\x0e\xbc\xfeb@'
tRp897
tp898
a(S'YP_003044143.1'
p899
g3
(g5
S'"\xe3in\xbf;c@'
tRp900
tp901
a(S'YP_003043591.1'
p902
g3
(g5
S'T\x960_qIc@'
tRp903
tp904
a(S'YP_003046159.1'
p905
g3
(g5
S'D?\xd7\x83\x95ac@'
tRp906
tp907
a(S'YP_003046864.1'
p908
g3
(g5
S'\xd3\x8d\xdc\x11\xd3fc@'
tRp909
tp910
a(S'YP_003044427.1'
p911
g3
(g5
S'\x064-\x04\x04mc@'
tRp912
tp913
a(S'YP_003045019.1'
p914
g3
(g5
S'AZ\xc79\xd2\xa6c@'
tRp915
tp916
a(S'YP_003045014.1'
p917
g3
(g5
S'\xdaE\x0c\xf1\xe8\xb2c@'
tRp918
tp919
a(S'YP_003044661.1'
p920
g3
(g5
S'h\xddl\x80\xd0\xd8c@'
tRp921
tp922
a(S'YP_003046481.1'
p923
g3
(g5
S'H\x85g\xd4$\xe7c@'
tRp924
tp925
a(S'YP_003046841.1'
p926
g3
(g5
S'\xaezH]e>d@'
tRp927
tp928
a(S'YP_003043282.1'
p929
g3
(g5
S'=\xb2\xed\xf7\xa3hd@'
tRp930
tp931
a(S'YP_003046701.1'
p932
g3
(g5
S'`0DIrzd@'
tRp933
tp934
a(S'YP_003044380.1'
p935
g3
(g5
S'\x02RYy\xed\x86d@'
tRp936
tp937
a(S'YP_003043461.1'
p938
g3
(g5
S'\x81u\x98\xa4\x1d\x8dd@'
tRp939
tp940
a(S'YP_003045279.1'
p941
g3
(g5
S'\xd1F\xa3\xc1\xc9\x98d@'
tRp942
tp943
a(S'YP_003043550.1'
p944
g3
(g5
S'4\x9d\xb4h\x85\x99d@'
tRp945
tp946
a(S'YP_003045971.1'
p947
g3
(g5
S'\x98O\xa2p}\xa3d@'
tRp948
tp949
a(S'YP_003046668.1'
p950
g3
(g5
S'H\x96\xcc\xa6\x9a\xb6d@'
tRp951
tp952
a(S'YP_003045697.1'
p953
g3
(g5
S'.!o6V\xcfd@'
tRp954
tp955
a(S'YP_003047297.1'
p956
g3
(g5
S'\xae\x81\x1dE\xb9\x13e@'
tRp957
tp958
a(S'YP_003043355.1'
p959
g3
(g5
S'\xbb\xc6\xa6\x1bf\x18e@'
tRp960
tp961
a(S'YP_003043415.1'
p962
g3
(g5
S'nH\xcd\xeb\x1d1e@'
tRp963
tp964
a(S'YP_003047197.1'
p965
g3
(g5
S'U`\x8f\xa3\x08\x80e@'
tRp966
tp967
a(S'YP_003044313.1'
p968
g3
(g5
S'\xa0\x81\xbd)7\xa0e@'
tRp969
tp970
a(S'YP_003046005.1'
p971
g3
(g5
S'\xec\x1ds\xba0\xa2e@'
tRp972
tp973
a(S'YP_003045658.1'
p974
g3
(g5
S'\x9d\x1dS\x1b\x9f\xade@'
tRp975
tp976
a(S'YP_003044173.1'
p977
g3
(g5
S'\xc2t|\xdc\x9a\xb4e@'
tRp978
tp979
a(S'YP_003045721.1'
p980
g3
(g5
S'\x99\x9d\x19\xc9\xa9\xb8e@'
tRp981
tp982
a(S'YP_003043852.1'
p983
g3
(g5
S'\x1f\xf3\x88\x19(\xece@'
tRp984
tp985
a(S'YP_003046946.1'
p986
g3
(g5
S'w\xcb\x99\x17\x82\xf8e@'
tRp987
tp988
a(S'YP_003043664.1'
p989
g3
(g5
S'\xbe\xb7\xd4~\x9f\x08f@'
tRp990
tp991
a(S'YP_003044085.1'
p992
g3
(g5
S'*\xbc\xd8\xda\x9d#f@'
tRp993
tp994
a(S'YP_003044099.1'
p995
g3
(g5
S'\x82\x12vk\xbb+f@'
tRp996
tp997
a(S'YP_003046075.1'
p998
g3
(g5
S'zB\xf8\xd2\xe9Af@'
tRp999
tp1000
a(S'YP_003045108.1'
p1001
g3
(g5
S'\xfa\xa8\xd1\xdcGFf@'
tRp1002
tp1003
a(S'YP_003045602.1'
p1004
g3
(g5
S'\x15@q\xc3pKf@'
tRp1005
tp1006
a(S'YP_003045096.1'
p1007
g3
(g5
S'\x95UZ\xcf\x1bzf@'
tRp1008
tp1009
a(S'YP_003045854.1'
p1010
g3
(g5
S'\xea@\x92\xb95\x82f@'
tRp1011
tp1012
a(S'YP_003045685.1'
p1013
g3
(g5
S'M\x1e\x88\nR\x86f@'
tRp1014
tp1015
a(S'YP_003045818.1'
p1016
g3
(g5
S'\xc7\x1b\x148\xd6\x87f@'
tRp1017
tp1018
a(S'YP_003043934.1'
p1019
g3
(g5
S'\xe7\x01\x8fXl\xb2f@'
tRp1020
tp1021
a(S'YP_003044146.1'
p1022
g3
(g5
S'\xc9\xda^%\x81\xf9f@'
tRp1023
tp1024
a(S'YP_003043579.1'
p1025
g3
(g5
S'I\xb6\xe6\xa4\x14+g@'
tRp1026
tp1027
a(S'YP_003046983.1'
p1028
g3
(g5
S'\xf8\x15\x16N\xbe6g@'
tRp1029
tp1030
a(S'YP_003044002.1'
p1031
g3
(g5
S'\x1e\xf1w^\xb0?g@'
tRp1032
tp1033
a(S'YP_003045821.1'
p1034
g3
(g5
S'\x98\xd5\xa5\xcfh\\g@'
tRp1035
tp1036
a(S'YP_003045583.1'
p1037
g3
(g5
S'J]3\xfb\xa0\xcfg@'
tRp1038
tp1039
a(S'YP_003047286.1'
p1040
g3
(g5
S'\xa6\xcfi\xd0\xaa\x06h@'
tRp1041
tp1042
a(S'YP_003046975.1'
p1043
g3
(g5
S'*V}+\xeaLh@'
tRp1044
tp1045
a(S'YP_003044981.1'
p1046
g3
(g5
S'\xc2\xc6\x08[8jh@'
tRp1047
tp1048
a(S'YP_003047153.1'
p1049
g3
(g5
S'\nQ\xc9\xdfO|h@'
tRp1050
tp1051
a(S'YP_003044191.1'
p1052
g3
(g5
S'k8\xd2\x86\x1b\x92h@'
tRp1053
tp1054
a(S'YP_003047259.1'
p1055
g3
(g5
S'_O^(\xf0\x94h@'
tRp1056
tp1057
a(S'YP_003044854.1'
p1058
g3
(g5
S'\xb6g\xfeN\xf1\xbah@'
tRp1059
tp1060
a(S'YP_003043561.1'
p1061
g3
(g5
S'(\x90o\x06N\xc1h@'
tRp1062
tp1063
a(S'YP_003046108.1'
p1064
g3
(g5
S'EO3\xd8\x05\xc7h@'
tRp1065
tp1066
a(S'YP_003045849.1'
p1067
g3
(g5
S'\xbc\xaf\x16Mm\xd7h@'
tRp1068
tp1069
a(S'YP_003043263.1'
p1070
g3
(g5
S'7\x8c/\x8bE\xdch@'
tRp1071
tp1072
a(S'YP_003046277.1'
p1073
g3
(g5
S'.\x80\x0fZ\x93\xebh@'
tRp1074
tp1075
a(S'YP_003045428.1'
p1076
g3
(g5
S'\x9a\x90\x04\xe6\x06\xf4h@'
tRp1077
tp1078
a(S'YP_003046657.1'
p1079
g3
(g5
S'\xf5\x0f\xbc\x1cE%i@'
tRp1080
tp1081
a(S'YP_003043670.1'
p1082
g3
(g5
S'J\xf2\xc84i?i@'
tRp1083
tp1084
a(S'YP_003045246.1'
p1085
g3
(g5
S'\x08kC"\x90Di@'
tRp1086
tp1087
a(S'YP_003045789.1'
p1088
g3
(g5
S'\xa4\xc7\x8fQ\xd0Ei@'
tRp1089
tp1090
a(S'YP_003043436.1'
p1091
g3
(g5
S'\xe5\x9a\\\xbd\xf4\xaci@'
tRp1092
tp1093
a(S'YP_003045313.1'
p1094
g3
(g5
S'?\xaf\x80#\xb6\xbei@'
tRp1095
tp1096
a(S'YP_003046686.1'
p1097
g3
(g5
S'\xdb4\xc3V\x0c\xcbi@'
tRp1098
tp1099
a(S'YP_003043915.1'
p1100
g3
(g5
S'\x93\x0c\x1f\xdd\x97\xfei@'
tRp1101
tp1102
a(S'YP_003046785.1'
p1103
g3
(g5
S'\xa9\xef,\xeb9\x03j@'
tRp1104
tp1105
a(S'YP_003044433.1'
p1106
g3
(g5
S'\xd0\x7f5\x8d\xa9Aj@'
tRp1107
tp1108
a(S'YP_003044127.1'
p1109
g3
(g5
S'\xb6U\xef\x15uej@'
tRp1110
tp1111
a(S'YP_003045584.1'
p1112
g3
(g5
S'\xde\xc0\xca\xe0\x8b\x9fj@'
tRp1113
tp1114
a(S'YP_003047077.1'
p1115
g3
(g5
S'\xa7\xbc\x86\xc7A\xacj@'
tRp1116
tp1117
a(S'YP_003044615.1'
p1118
g3
(g5
S'3M\xa5qM\xb9j@'
tRp1119
tp1120
a(S'YP_003046472.1'
p1121
g3
(g5
S'z\x9a~\xfd\xd8\xb9j@'
tRp1122
tp1123
a(S'YP_003043781.1'
p1124
g3
(g5
S'\xa0a\xbc\x97\xc3\xbej@'
tRp1125
tp1126
a(S'YP_003044177.1'
p1127
g3
(g5
S'7\xa5;A\x0f\xc6j@'
tRp1128
tp1129
a(S'YP_003046840.1'
p1130
g3
(g5
S'9\xd5\xb6S\x9d\x12k@'
tRp1131
tp1132
a(S'YP_003045977.1'
p1133
g3
(g5
S'\xab\xfa\x83\xa9e\x1ck@'
tRp1134
tp1135
a(S'YP_003045026.1'
p1136
g3
(g5
S'e=<\xbe+-k@'
tRp1137
tp1138
a(S'YP_003043409.1'
p1139
g3
(g5
S'\x13k\xaa\xc0\xd8lk@'
tRp1140
tp1141
a(S'YP_003046671.1'
p1142
g3
(g5
S'\xed\xa8\xf8e\xb3\xcfk@'
tRp1143
tp1144
a(S'YP_003046354.1'
p1145
g3
(g5
S'p\x1e\xb6x\xd3\xd1k@'
tRp1146
tp1147
a(S'YP_003047294.1'
p1148
g3
(g5
S'G^\x80U\x8d\xdfk@'
tRp1149
tp1150
a(S'YP_003046976.1'
p1151
g3
(g5
S'q\xff:D/\x1el@'
tRp1152
tp1153
a(S'YP_003047355.1'
p1154
g3
(g5
S'\xd5\x8b\x84\xc8\x1c-l@'
tRp1155
tp1156
a(S'YP_003047049.1'
p1157
g3
(g5
S'\xe1\xc1h!\xf86l@'
tRp1158
tp1159
a(S'YP_003043969.1'
p1160
g3
(g5
S'\x82\x93n\xffjBl@'
tRp1161
tp1162
a(S'YP_003043789.1'
p1163
g3
(g5
S'\xfc\xe6)L4_l@'
tRp1164
tp1165
a(S'YP_003047062.1'
p1166
g3
(g5
S'\x1d}m\x82{_l@'
tRp1167
tp1168
a(S'YP_003045224.1'
p1169
g3
(g5
S'\x1dP\xa6\xb1\x8d|l@'
tRp1170
tp1171
a(S'YP_003046463.1'
p1172
g3
(g5
S'\xc8V\xf1\xb7\xa3\x94l@'
tRp1173
tp1174
a(S'YP_003046775.1'
p1175
g3
(g5
S"\xaf'\x931\x0c\xf2l@"
tRp1176
tp1177
a(S'YP_003046606.1'
p1178
g3
(g5
S'\xf5\xdc"\x90\xad\x18m@'
tRp1179
tp1180
a(S'YP_003045827.1'
p1181
g3
(g5
S'\xf1]q\x15\xbfjm@'
tRp1182
tp1183
a(S'YP_003043758.1'
p1184
g3
(g5
S'\x14\x8dF\x9f\xccsm@'
tRp1185
tp1186
a(S'YP_003044297.1'
p1187
g3
(g5
S'\x81\xb8\x86\xb1\xac\xdbm@'
tRp1188
tp1189
a(S'YP_003045637.1'
p1190
g3
(g5
S'2\xad8\x97\xd5\xe6m@'
tRp1191
tp1192
a(S'YP_003046991.1'
p1193
g3
(g5
S'\x16\x80su\xea\xfdm@'
tRp1194
tp1195
a(S'YP_003044515.1'
p1196
g3
(g5
S'R\xa5\x82\x88\xf6\x1an@'
tRp1197
tp1198
a(S'YP_003046252.1'
p1199
g3
(g5
S'\x91\xd6\xf6\x17\x8e,n@'
tRp1200
tp1201
a(S'YP_003046874.1'
p1202
g3
(g5
S'\x1czq\xa2\x99On@'
tRp1203
tp1204
a(S'YP_003045405.1'
p1205
g3
(g5
S'\x96\x91\x1f\xcc*\x81n@'
tRp1206
tp1207
a(S'YP_003046497.1'
p1208
g3
(g5
S'\xd5>|jm\x8dn@'
tRp1209
tp1210
a(S'YP_003043450.1'
p1211
g3
(g5
S'\xb9gl\xfd\xd8\xc2n@'
tRp1212
tp1213
a(S'YP_003043652.1'
p1214
g3
(g5
S'\x90w\xfbo,\xc3n@'
tRp1215
tp1216
a(S'YP_003046909.1'
p1217
g3
(g5
S'\nN\xe7--\xc7n@'
tRp1218
tp1219
a(S'YP_003046561.1'
p1220
g3
(g5
S'\xbb\x9f\x95\xd2\x87\xc8n@'
tRp1221
tp1222
a(S'YP_003044458.1'
p1223
g3
(g5
S'\xd9U/_\xd9\xe7n@'
tRp1224
tp1225
a(S'YP_003046233.1'
p1226
g3
(g5
S',\xcf\xbf\xaaR\xecn@'
tRp1227
tp1228
a(S'YP_003046214.1'
p1229
g3
(g5
S'\x84Vy|\x8b\xfdn@'
tRp1230
tp1231
a(S'YP_003046626.1'
p1232
g3
(g5
S'zD\x08\x19GKo@'
tRp1233
tp1234
a(S'YP_003044510.1'
p1235
g3
(g5
S'bz\xc4\x96Ero@'
tRp1236
tp1237
a(S'YP_003046747.1'
p1238
g3
(g5
S'\x9c.\xd9]\x9d\x87o@'
tRp1239
tp1240
a(S'YP_003044109.1'
p1241
g3
(g5
S'\xa2\xb7\xb5O1\xaao@'
tRp1242
tp1243
a(S'YP_003045781.1'
p1244
g3
(g5
S'S\x11\x1c\x90\xc3\xaao@'
tRp1245
tp1246
a(S'YP_003043644.1'
p1247
g3
(g5
S'\x9f\xf0\x00\x14>\xado@'
tRp1248
tp1249
a(S'YP_003044328.1'
p1250
g3
(g5
S'd\x81\xf4ui\xdco@'
tRp1251
tp1252
a(S'YP_003046953.1'
p1253
g3
(g5
S'\x0fk\xf3\x8cQ\xe0o@'
tRp1254
tp1255
a(S'YP_003044365.1'
p1256
g3
(g5
S'\xa4\x85M2\xd6\xefo@'
tRp1257
tp1258
a(S'YP_003043861.1'
p1259
g3
(g5
S'\xff\xdb\xfb\xae\xaa\x06p@'
tRp1260
tp1261
a(S'YP_003047407.1'
p1262
g3
(g5
S'\xf0\xd5\xa4\x1d\x0b\x1bp@'
tRp1263
tp1264
a(S'YP_003044007.1'
p1265
g3
(g5
S'\x0e\xe5\xecY!+p@'
tRp1266
tp1267
a(S'YP_003047026.1'
p1268
g3
(g5
S'\xdf\x0f\xcby\x1c,p@'
tRp1269
tp1270
a(S'YP_003045236.1'
p1271
g3
(g5
S'gp\xe7\xafn8p@'
tRp1272
tp1273
a(S'YP_003045021.1'
p1274
g3
(g5
S'\xe2B\x94\x8cz:p@'
tRp1275
tp1276
a(S'YP_003047028.1'
p1277
g3
(g5
S'\xe29\x0e\xd1 Fp@'
tRp1278
tp1279
a(S'YP_003043597.1'
p1280
g3
(g5
S'm\xd4.\r\xb0yp@'
tRp1281
tp1282
a(S'YP_003043899.1'
p1283
g3
(g5
S'\x12\xc3\x06\xcfK\x90p@'
tRp1284
tp1285
a(S'YP_003046494.1'
p1286
g3
(g5
S'\xb1!\xc9\x8e~\x90p@'
tRp1287
tp1288
a(S'YP_003043682.1'
p1289
g3
(g5
S'\xcb,\xb5]2\x9fp@'
tRp1290
tp1291
a(S'YP_003044912.1'
p1292
g3
(g5
S'0\xafI@9\xa1p@'
tRp1293
tp1294
a(S'YP_003044685.1'
p1295
g3
(g5
S'\x9f>\xfa-\xd0\xa4p@'
tRp1296
tp1297
a(S'YP_003043429.1'
p1298
g3
(g5
S'\xee\x93\x12\xd9\xdc\xbep@'
tRp1299
tp1300
a(S'YP_003045976.1'
p1301
g3
(g5
S'\xc9)\xee\x9c\x94\xc4p@'
tRp1302
tp1303
a(S'YP_003046388.1'
p1304
g3
(g5
S'r\x1fk\x8f\x88\xcep@'
tRp1305
tp1306
a(S'YP_003046382.1'
p1307
g3
(g5
S'\xd3\x97N5T\xe5p@'
tRp1308
tp1309
a(S'YP_003047353.1'
p1310
g3
(g5
S'{\xc1/\x1d\xdc\x0eq@'
tRp1311
tp1312
a(S'YP_003046927.1'
p1313
g3
(g5
S'\xd3\xe7\xd8\xb7\xf9\x1aq@'
tRp1314
tp1315
a(S'YP_003045772.1'
p1316
g3
(g5
S'MT\xaf\x1e\xcc\x1bq@'
tRp1317
tp1318
a(S'YP_003043570.1'
p1319
g3
(g5
S'\xcd\xec\x027<,q@'
tRp1320
tp1321
a(S'YP_003046692.1'
p1322
g3
(g5
S'\x02\xd3\x18n?<q@'
tRp1323
tp1324
a(S'YP_003043891.1'
p1325
g3
(g5
S'\xed\x9c\x17,&Oq@'
tRp1326
tp1327
a(S'YP_003047045.1'
p1328
g3
(g5
S'!\x17\x11\x97\xa9rq@'
tRp1329
tp1330
a(S'YP_003045756.1'
p1331
g3
(g5
S'\xe0\xb6o\xab\xc7\x8aq@'
tRp1332
tp1333
a(S'YP_003046392.1'
p1334
g3
(g5
S'\xe7\xa26\xec\xd5\x8fq@'
tRp1335
tp1336
a(S'YP_003045734.1'
p1337
g3
(g5
S'\x0c\xeeU\xb6\xf3\xbaq@'
tRp1338
tp1339
a(S'YP_003043916.1'
p1340
g3
(g5
S'\xcfK\xa3\xac]\xbeq@'
tRp1341
tp1342
a(S'YP_003044341.1'
p1343
g3
(g5
S'\x94@GF\xc0\tr@'
tRp1344
tp1345
a(S'YP_003046582.1'
p1346
g3
(g5
S"\xbb\xe2Hj\xdc'r@"
tRp1347
tp1348
a(S'YP_003043574.1'
p1349
g3
(g5
S'l\xa8N_\xc54r@'
tRp1350
tp1351
a(S'YP_003043434.1'
p1352
g3
(g5
S'\xac\x0e2\xa8u_r@'
tRp1353
tp1354
a(S'YP_003044401.1'
p1355
g3
(g5
S'\xadu\xeb\xebUer@'
tRp1356
tp1357
a(S'YP_003047093.1'
p1358
g3
(g5
S'\xdc6\xe0\xde\xf0nr@'
tRp1359
tp1360
a(S'YP_003047164.1'
p1361
g3
(g5
S'\x14\xc2\xa6\xcb\xf2ur@'
tRp1362
tp1363
a(S'YP_003045458.1'
p1364
g3
(g5
S'\xe4\xcbR\xd5\xc6\x93r@'
tRp1365
tp1366
a(S'YP_003046265.1'
p1367
g3
(g5
S'\\\xa4\x9f\x19\xaa\xb0r@'
tRp1368
tp1369
a(S'YP_003047097.1'
p1370
g3
(g5
S'\xd1V>\xec\xc2\xbdr@'
tRp1371
tp1372
a(S'YP_003045467.1'
p1373
g3
(g5
S'\xf2\x80\xc3\xe6W\xc0r@'
tRp1374
tp1375
a(S'YP_003047255.1'
p1376
g3
(g5
S'w\xe2.P\xaa\xc3r@'
tRp1377
tp1378
a(S'YP_003047426.1'
p1379
g3
(g5
S'\xe5L\xcf\x1d\xce\xcfr@'
tRp1380
tp1381
a(S'YP_003046761.1'
p1382
g3
(g5
S'Y\xc2\xac\xb1\xa7\x12s@'
tRp1383
tp1384
a(S'YP_003045509.1'
p1385
g3
(g5
S'\xa5\xfa\x7f\xd4\xe9\x1es@'
tRp1386
tp1387
a(S'YP_003045909.1'
p1388
g3
(g5
S"t\x05$'$%s@"
tRp1389
tp1390
a(S'YP_003045060.1'
p1391
g3
(g5
S'`R\x0cL\xcf8s@'
tRp1392
tp1393
a(S'YP_003046218.1'
p1394
g3
(g5
S')\x92\x86\x11\x19Bs@'
tRp1395
tp1396
a(S'YP_003043371.1'
p1397
g3
(g5
S'\xcaN\xb37\xcdFs@'
tRp1398
tp1399
a(S'YP_003045073.1'
p1400
g3
(g5
S'Y6\x8e\xec\x90`s@'
tRp1401
tp1402
a(S'YP_003043704.1'
p1403
g3
(g5
S'\xc2\xf3\xc5x\xe4fs@'
tRp1404
tp1405
a(S'YP_003043931.1'
p1406
g3
(g5
S'\xc6;\x1c\x02\x93hs@'
tRp1407
tp1408
a(S'YP_003044434.1'
p1409
g3
(g5
S's\xf0F:hks@'
tRp1410
tp1411
a(S'YP_003045180.1'
p1412
g3
(g5
S'\x88S\x9a\x19zzs@'
tRp1413
tp1414
a(S'YP_003047196.1'
p1415
g3
(g5
S'3\x84\x98\xa9u}s@'
tRp1416
tp1417
a(S'YP_003043788.1'
p1418
g3
(g5
S'\xac\xb0\xe2n\xcf\x81s@'
tRp1419
tp1420
a(S'YP_003046524.1'
p1421
g3
(g5
S'\xc78!%\t\x85s@'
tRp1422
tp1423
a(S'YP_003043849.1'
p1424
g3
(g5
S'\xd1g`\x12\xf3\xaas@'
tRp1425
tp1426
a(S'YP_003044145.1'
p1427
g3
(g5
S'S\xc0k\xc6L\xbds@'
tRp1428
tp1429
a(S'YP_003046907.1'
p1430
g3
(g5
S't\x97\xb1"\xb6\xbfs@'
tRp1431
tp1432
a(S'YP_003043889.1'
p1433
g3
(g5
S'QeK\xd3\x89\xccs@'
tRp1434
tp1435
a(S'YP_003047399.1'
p1436
g3
(g5
S'\xf5\x1e\x03\r@\xcfs@'
tRp1437
tp1438
a(S'YP_003045164.1'
p1439
g3
(g5
S'\xe5\xda\xc6;\xde\xdds@'
tRp1440
tp1441
a(S'YP_003044221.1'
p1442
g3
(g5
S'\x14\x99\xe2\xb8\xa2\xe6s@'
tRp1443
tp1444
a(S'YP_003044893.1'
p1445
g3
(g5
S'Z\xe5g\xc1\x0e\xf9s@'
tRp1446
tp1447
a(S'YP_003043337.1'
p1448
g3
(g5
S't)y\xdc=\xfcs@'
tRp1449
tp1450
a(S'YP_003046811.1'
p1451
g3
(g5
S'\xea\xe3A=O\x07t@'
tRp1452
tp1453
a(S'YP_003044660.1'
p1454
g3
(g5
S'\xc4N\xbc\x8d\xcb/t@'
tRp1455
tp1456
a(S'YP_003047096.1'
p1457
g3
(g5
S'@\xfc\x01\x9asat@'
tRp1458
tp1459
a(S'YP_003043968.1'
p1460
g3
(g5
S'\x9fT[\xd0)kt@'
tRp1461
tp1462
a(S'YP_003044342.1'
p1463
g3
(g5
S'buD\xfe\x89kt@'
tRp1464
tp1465
a(S'YP_003047418.1'
p1466
g3
(g5
S'\x00\x9a:\x80\xbcwt@'
tRp1467
tp1468
a(S'YP_003043844.1'
p1469
g3
(g5
S"\xb5]\x7f'7xt@"
tRp1470
tp1471
a(S'YP_003044852.1'
p1472
g3
(g5
S'\xe205 \xe1\x84t@'
tRp1473
tp1474
a(S'YP_003043837.1'
p1475
g3
(g5
S'\x94\x80\x01{w\x90t@'
tRp1476
tp1477
a(S'YP_003045946.1'
p1478
g3
(g5
S'.i\xf8\x99\xf1\x94t@'
tRp1479
tp1480
a(S'YP_003044465.1'
p1481
g3
(g5
S'\x88\xfc\x8f\xc2\x98\x98t@'
tRp1482
tp1483
a(S'YP_003043495.1'
p1484
g3
(g5
S';3{\xc4&\xb0t@'
tRp1485
tp1486
a(S'YP_003046391.1'
p1487
g3
(g5
S'%\x0e\xa5\x8eM\xb8t@'
tRp1488
tp1489
a(S'YP_003046763.1'
p1490
g3
(g5
S'\x9azbG\xe4\xbet@'
tRp1491
tp1492
a(S'YP_003045482.1'
p1493
g3
(g5
S'\xb9\xea\rvF\xc2t@'
tRp1494
tp1495
a(S'YP_003044521.1'
p1496
g3
(g5
S'ze\x19`\x1d\xc9t@'
tRp1497
tp1498
a(S'YP_003043584.1'
p1499
g3
(g5
S'\xf75\xc3\x83i\xe9t@'
tRp1500
tp1501
a(S'YP_003046076.1'
p1502
g3
(g5
S'\xcc\xcc+*\x00\xedt@'
tRp1503
tp1504
a(S'YP_003044136.1'
p1505
g3
(g5
S'\xed\xcc\xef\x10\x9c\x13u@'
tRp1506
tp1507
a(S'YP_003045609.1'
p1508
g3
(g5
S'\xaf\x05\x9f\xd8\xdc\x1bu@'
tRp1509
tp1510
a(S'YP_003045983.1'
p1511
g3
(g5
S'V\x06\xf6\x9c#(u@'
tRp1512
tp1513
a(S'YP_003046655.1'
p1514
g3
(g5
S'\xe5p\xc3&\xb0Zu@'
tRp1515
tp1516
a(S'YP_003043332.1'
p1517
g3
(g5
S'\x18\xf0\xc4\xee#eu@'
tRp1518
tp1519
a(S'YP_003047107.1'
p1520
g3
(g5
S'\xf8\x1f\x0e\xbe\x11\x84u@'
tRp1521
tp1522
a(S'YP_003044997.1'
p1523
g3
(g5
S';[d\xb8\x11\x8cu@'
tRp1524
tp1525
a(S'YP_003047410.1'
p1526
g3
(g5
S'%\x84\xdd\xcd\xf4\x8cu@'
tRp1527
tp1528
a(S'YP_003044777.1'
p1529
g3
(g5
S'<\x02\x81\xf3\x87\xadu@'
tRp1530
tp1531
a(S'YP_003044463.1'
p1532
g3
(g5
S'[\xb5\xdc\t6\xc4u@'
tRp1533
tp1534
a(S'YP_003043535.1'
p1535
g3
(g5
S'\xd7\xec\xa5\xb1\x02\xd0u@'
tRp1536
tp1537
a(S'YP_003046990.1'
p1538
g3
(g5
S'\xcc5\xd3\xbd\x7f\xebu@'
tRp1539
tp1540
a(S'YP_003044312.1'
p1541
g3
(g5
S'_euC\xd9\xf3u@'
tRp1542
tp1543
a(S'YP_003043598.1'
p1544
g3
(g5
S'\x94\xfd\x8bZ\xa8\xfcu@'
tRp1545
tp1546
a(S'YP_003043377.1'
p1547
g3
(g5
S'\xfbP\xa5\xb8\xf1\x02v@'
tRp1548
tp1549
a(S'YP_003043285.1'
p1550
g3
(g5
S'\xc6\xa5e\x99\x1b\x1av@'
tRp1551
tp1552
a(S'YP_003044513.1'
p1553
g3
(g5
S'Mj9\xa6\xbf\x1dv@'
tRp1554
tp1555
a(S'YP_003045457.1'
p1556
g3
(g5
S'L\x88,s\x9e%v@'
tRp1557
tp1558
a(S'YP_003043649.1'
p1559
g3
(g5
S'S\xd5\xc9\x06\x002v@'
tRp1560
tp1561
a(S'YP_003046859.1'
p1562
g3
(g5
S'\xedK\xb0l\xafFv@'
tRp1563
tp1564
a(S'YP_003045043.1'
p1565
g3
(g5
S'\tr9\xab]Ov@'
tRp1566
tp1567
a(S'YP_003043326.1'
p1568
g3
(g5
S'\xa1J\xa0r\xb6sv@'
tRp1569
tp1570
a(S'YP_003044277.1'
p1571
g3
(g5
S':\x855\x98\x00vv@'
tRp1572
tp1573
a(S'YP_003045964.1'
p1574
g3
(g5
S'\x8fT\xd2\xec\xcd}v@'
tRp1575
tp1576
a(S'YP_003045226.1'
p1577
g3
(g5
S'\xe8\xd1\x81\x1a5\x98v@'
tRp1578
tp1579
a(S'YP_003044822.1'
p1580
g3
(g5
S'y\x9a\xcb\xa6J\x9dv@'
tRp1581
tp1582
a(S'YP_003044995.1'
p1583
g3
(g5
S'\xf9\x9a\x045\x87\xa3v@'
tRp1584
tp1585
a(S'YP_003045517.1'
p1586
g3
(g5
S'\xe6\xe7\x87\x12\xfa\xcev@'
tRp1587
tp1588
a(S'YP_003044108.1'
p1589
g3
(g5
S'\x82\xfb)"1\xddv@'
tRp1590
tp1591
a(S'YP_003043800.1'
p1592
g3
(g5
S'\xfd\xf0\x8d\xf4\x99\xdfv@'
tRp1593
tp1594
a(S'YP_003044517.1'
p1595
g3
(g5
S'\xb9\xc1\xb4\xed\xd4\x05w@'
tRp1596
tp1597
a(S'YP_003044170.1'
p1598
g3
(g5
S'\x0f\x1b$\x91\x10\x12w@'
tRp1599
tp1600
a(S'YP_003047102.1'
p1601
g3
(g5
S'\n\x92,|j\x15w@'
tRp1602
tp1603
a(S'YP_003045519.1'
p1604
g3
(g5
S'M[\xa7\x9d\xbe?w@'
tRp1605
tp1606
a(S'YP_003043637.1'
p1607
g3
(g5
S'1F\x9cP\x00Cw@'
tRp1608
tp1609
a(S'YP_003046944.1'
p1610
g3
(g5
S'\xfa\xe6\x1d\x10\x8eCw@'
tRp1611
tp1612
a(S'YP_003045423.1'
p1613
g3
(g5
S'\xea\xc9\x1a\xe1PDw@'
tRp1614
tp1615
a(S'YP_003045782.1'
p1616
g3
(g5
S'=\x8a\x199\x00Gw@'
tRp1617
tp1618
a(S'YP_003045784.1'
p1619
g3
(g5
S'e\r\xcc\xf6\xe1mw@'
tRp1620
tp1621
a(S'YP_003045673.1'
p1622
g3
(g5
S'E7\xb4\x17&~w@'
tRp1623
tp1624
a(S'YP_003046748.1'
p1625
g3
(g5
S'\x03\xea[\xaa\xe2\x7fw@'
tRp1626
tp1627
a(S'YP_003046065.1'
p1628
g3
(g5
S'P\xb3\xceM\x12\x97w@'
tRp1629
tp1630
a(S'YP_003044275.1'
p1631
g3
(g5
S'e+\xb4\x910\x99w@'
tRp1632
tp1633
a(S'YP_003047379.1'
p1634
g3
(g5
S'\xd8\xa10\xa4]\xa2w@'
tRp1635
tp1636
a(S'YP_003045502.1'
p1637
g3
(g5
S'\xba!4\x9d:\xcaw@'
tRp1638
tp1639
a(S'YP_003043414.1'
p1640
g3
(g5
S'P\xcbX\x85u\xd0w@'
tRp1641
tp1642
a(S'YP_003047278.1'
p1643
g3
(g5
S'\xbdA\x92\x87y\xd9w@'
tRp1644
tp1645
a(S'YP_003045256.1'
p1646
g3
(g5
S'\xb2\x8c\xefc%\xefw@'
tRp1647
tp1648
a(S'YP_003044933.1'
p1649
g3
(g5
S'\x14+\x0b+\x9f\x01x@'
tRp1650
tp1651
a(S'YP_003044896.1'
p1652
g3
(g5
S'<\xfe\x19\x80Z\x07x@'
tRp1653
tp1654
a(S'YP_003044292.1'
p1655
g3
(g5
S'b\xbd\x9c\xb6\xcc\x11x@'
tRp1656
tp1657
a(S'YP_003044414.1'
p1658
g3
(g5
S'\x03p\xc1\x82\xae"x@'
tRp1659
tp1660
a(S'YP_003046839.1'
p1661
g3
(g5
S'X\x94t\xf45Ex@'
tRp1662
tp1663
a(S'YP_003046690.1'
p1664
g3
(g5
S'H\x0c\xad_\xf7Ix@'
tRp1665
tp1666
a(S'YP_003046148.1'
p1667
g3
(g5
S'/<\x92\x88\xabLx@'
tRp1668
tp1669
a(S'YP_003044717.1'
p1670
g3
(g5
S'>\xee\xe5\xb8\xa0ax@'
tRp1671
tp1672
a(S'YP_003044820.1'
p1673
g3
(g5
S'\xfe\x8f\x921\xeb{x@'
tRp1674
tp1675
a(S'YP_003047298.1'
p1676
g3
(g5
S'u\x13\xde\x01\xdc\xadx@'
tRp1677
tp1678
a(S'YP_003044509.1'
p1679
g3
(g5
S'\x15\x95\xc3:\xe5\xb5x@'
tRp1680
tp1681
a(S'YP_003047087.1'
p1682
g3
(g5
S'\xda\xee\xce\xfd\x9e\xc7x@'
tRp1683
tp1684
a(S'YP_003043379.1'
p1685
g3
(g5
S'\x12X\xd12F\xc8x@'
tRp1686
tp1687
a(S'YP_003045139.1'
p1688
g3
(g5
S'\xe9{\x02T\x8d\xc9x@'
tRp1689
tp1690
a(S'YP_003046881.1'
p1691
g3
(g5
S'\x85\xf7\xadY\xf6\xc9x@'
tRp1692
tp1693
a(S'YP_003045358.1'
p1694
g3
(g5
S'6~\xa7\xd6!\xf6x@'
tRp1695
tp1696
a(S'YP_003044270.1'
p1697
g3
(g5
S'\x1c\xdfK\xad\xed\x04y@'
tRp1698
tp1699
a(S'YP_003043259.1'
p1700
g3
(g5
S'\xd7l*\x8f\x93\x9cy@'
tRp1701
tp1702
a(S'YP_003044020.1'
p1703
g3
(g5
S'D56F\x0b\xa0y@'
tRp1704
tp1705
a(S'YP_003043960.1'
p1706
g3
(g5
S'\xd7>\x8c\xae+\xa0y@'
tRp1707
tp1708
a(S'YP_003046843.1'
p1709
g3
(g5
S'\x93X\xd7\xdf\t\xa3y@'
tRp1710
tp1711
a(S'YP_003046212.1'
p1712
g3
(g5
S'\xc9\x16\x16\x85:\xa4y@'
tRp1713
tp1714
a(S'YP_003045920.1'
p1715
g3
(g5
S'\x19\xe0w\xef\xcb\xa5y@'
tRp1716
tp1717
a(S'YP_003044078.1'
p1718
g3
(g5
S'.\x81\x08\x9b\x03\xc3y@'
tRp1719
tp1720
a(S'YP_003045729.1'
p1721
g3
(g5
S'P*\xae\x99\x18\xc4y@'
tRp1722
tp1723
a(S'YP_003045826.1'
p1724
g3
(g5
S'\xdc4\xc3V\x0c\xcby@'
tRp1725
tp1726
a(S'YP_003045447.1'
p1727
g3
(g5
S"\x16^\xfdX'\xe7y@"
tRp1728
tp1729
a(S'YP_003044437.1'
p1730
g3
(g5
S'\xab\x07\xd2@\r\xf6y@'
tRp1731
tp1732
a(S'YP_003043588.1'
p1733
g3
(g5
S'f\x17oK$\xfay@'
tRp1734
tp1735
a(S'YP_003043980.1'
p1736
g3
(g5
S'\xbd>F\xffP\tz@'
tRp1737
tp1738
a(S'YP_003043320.1'
p1739
g3
(g5
S'\xd1\x14\xfe\x00\x15\x0bz@'
tRp1740
tp1741
a(S'YP_003043445.1'
p1742
g3
(g5
S'\x0fk\xea8\x990z@'
tRp1743
tp1744
a(S'YP_003045289.1'
p1745
g3
(g5
S'\xd9\x82SK\xba4z@'
tRp1746
tp1747
a(S'YP_003044979.1'
p1748
g3
(g5
S'\xba\x1c\xc0\xad5Ez@'
tRp1749
tp1750
a(S'YP_003046109.1'
p1751
g3
(g5
S'][?\tUZz@'
tRp1752
tp1753
a(S'YP_003046999.1'
p1754
g3
(g5
S'\xda~n\xb3\xc9`z@'
tRp1755
tp1756
a(S'YP_003043910.1'
p1757
g3
(g5
S'B\xa3\xcf\x18\xf4fz@'
tRp1758
tp1759
a(S'YP_003044808.1'
p1760
g3
(g5
S'\xb4P\xa2O\xfbqz@'
tRp1761
tp1762
a(S'YP_003046232.1'
p1763
g3
(g5
S'\xd6\x12_\xf1\xc0\x8az@'
tRp1764
tp1765
a(S'YP_003045271.1'
p1766
g3
(g5
S'\x12\xc2\xbc\x87\xab\x8bz@'
tRp1767
tp1768
a(S'YP_003044511.1'
p1769
g3
(g5
S'DAg\xdf\xa4\x9cz@'
tRp1770
tp1771
a(S'YP_003045613.1'
p1772
g3
(g5
S'\x15O\xe6v\xa7\xa2z@'
tRp1773
tp1774
a(S'YP_003043890.1'
p1775
g3
(g5
S'\xb46?\xb7\x8f\xc7z@'
tRp1776
tp1777
a(S'YP_003046448.1'
p1778
g3
(g5
S'\x1f\x80\xf3\xca\xb1\xe0z@'
tRp1779
tp1780
a(S'YP_003047210.1'
p1781
g3
(g5
S'\x8aK\xaf\r\x03\xfcz@'
tRp1782
tp1783
a(S'YP_003044382.1'
p1784
g3
(g5
S'\xc9\x87\xcdlO\x03{@'
tRp1785
tp1786
a(S'YP_003045406.1'
p1787
g3
(g5
S'\x84\x90!\xf5\x93#{@'
tRp1788
tp1789
a(S'YP_003046760.1'
p1790
g3
(g5
S"\xa6\xdb'\xf2\x08h{@"
tRp1791
tp1792
a(S'YP_003046289.1'
p1793
g3
(g5
S'_\xc4\x9d@\xe9\x91{@'
tRp1794
tp1795
a(S'YP_003046095.1'
p1796
g3
(g5
S'\xc5\xeb\x07\xd8.\x98{@'
tRp1797
tp1798
a(S'YP_003046654.1'
p1799
g3
(g5
S'\x02\xc5ULk\xec{@'
tRp1800
tp1801
a(S'YP_003046404.1'
p1802
g3
(g5
S'G\x88\x9f\xf3\xab\x1a|@'
tRp1803
tp1804
a(S'YP_003045294.1'
p1805
g3
(g5
S'#\xae"tLe|@'
tRp1806
tp1807
a(S'YP_003044850.1'
p1808
g3
(g5
S'\x88\xd4N\xc3\xc1\x81|@'
tRp1809
tp1810
a(S'YP_003045291.1'
p1811
g3
(g5
S'\xac\xd2\xfa\xe1\xc2\x8a|@'
tRp1812
tp1813
a(S'YP_003045668.1'
p1814
g3
(g5
S'\x8d|B\xde\x0b\x96|@'
tRp1815
tp1816
a(S'YP_003045304.1'
p1817
g3
(g5
S'h\x86\xc9\xbd\xd2\xb4|@'
tRp1818
tp1819
a(S'YP_003046302.1'
p1820
g3
(g5
S'I\xf3L\x1b=\xb9|@'
tRp1821
tp1822
a(S'YP_003044844.1'
p1823
g3
(g5
S'\x8e\x83\xe2`g\xcd|@'
tRp1824
tp1825
a(S'YP_003044958.1'
p1826
g3
(g5
S'\x8c\xb9\x8a\xde\xe9\xf6|@'
tRp1827
tp1828
a(S'YP_003043994.1'
p1829
g3
(g5
S'3D*\x15t\x08}@'
tRp1830
tp1831
a(S'YP_003047376.1'
p1832
g3
(g5
S'\xe4\x06\xfa\xfa\xd1\x17}@'
tRp1833
tp1834
a(S'YP_003045225.1'
p1835
g3
(g5
S'\xecm?\xdd39}@'
tRp1836
tp1837
a(S'YP_003046282.1'
p1838
g3
(g5
S'\x144\xbf\xbe\xaa=}@'
tRp1839
tp1840
a(S'YP_003045547.1'
p1841
g3
(g5
S'}\xb4.7+l}@'
tRp1842
tp1843
a(S'YP_003045432.1'
p1844
g3
(g5
S'\xdf\xa6El:l}@'
tRp1845
tp1846
a(S'YP_003043928.1'
p1847
g3
(g5
S'^|A\xcd\xd8|}@'
tRp1848
tp1849
a(S'YP_003043262.1'
p1850
g3
(g5
S'\x0f`\xba\xad\x8c\x8f}@'
tRp1851
tp1852
a(S'YP_003046969.1'
p1853
g3
(g5
S'\r\xd9\x90\xd8"\x9c}@'
tRp1854
tp1855
a(S'YP_003043428.1'
p1856
g3
(g5
S'\x8e\x08\xa5\xc1\x8b\xae}@'
tRp1857
tp1858
a(S'YP_003044579.1'
p1859
g3
(g5
S'\xa2\xdfE\x15\xbf\xb5}@'
tRp1860
tp1861
a(S'YP_003043370.1'
p1862
g3
(g5
S'e\xe3{\xb0\xb2\xb8}@'
tRp1863
tp1864
a(S'YP_003043630.1'
p1865
g3
(g5
S'\x1d\x06\xbc\xf6\xa7\xc6}@'
tRp1866
tp1867
a(S'YP_003043661.1'
p1868
g3
(g5
S'\xc2\x88-\xa8\xc2\x00~@'
tRp1869
tp1870
a(S'YP_003046175.1'
p1871
g3
(g5
S'\xb0:\xc7\xf5F\x1b~@'
tRp1872
tp1873
a(S'YP_003045140.1'
p1874
g3
(g5
S'\xd1[\xb8\xf5\xf6A~@'
tRp1875
tp1876
a(S'YP_003046089.1'
p1877
g3
(g5
S'\x08\xbc\xd4Wx\xb5~@'
tRp1878
tp1879
a(S'YP_003046908.1'
p1880
g3
(g5
S'X\xf8\x1f\x12\x89\xcb~@'
tRp1881
tp1882
a(S'YP_003043970.1'
p1883
g3
(g5
S'VXK\x08X\xf6~@'
tRp1884
tp1885
a(S'YP_003046923.1'
p1886
g3
(g5
S'\xd6\xadT\x89i\x06\x7f@'
tRp1887
tp1888
a(S'YP_003046721.1'
p1889
g3
(g5
S'\xbb\x07\x97\xb9L\x07\x7f@'
tRp1890
tp1891
a(S'YP_003047424.1'
p1892
g3
(g5
S'\x9eAs\xfc\xa6:\x7f@'
tRp1893
tp1894
a(S'YP_003045029.1'
p1895
g3
(g5
S'\xe3\xbb\xc3*!M\x7f@'
tRp1896
tp1897
a(S'YP_003046837.1'
p1898
g3
(g5
S'\xaa\x9d\xf9\xe8\x1eZ\x7f@'
tRp1899
tp1900
a(S'YP_003043822.1'
p1901
g3
(g5
S'F\x1ehv:\xa1\x7f@'
tRp1902
tp1903
a(S'YP_003046141.1'
p1904
g3
(g5
S'\xb4SU4E\xa8\x7f@'
tRp1905
tp1906
a(S'YP_003044377.1'
p1907
g3
(g5
S'Dg\xa8}\x0b\xbe\x7f@'
tRp1908
tp1909
a(S'YP_003044439.1'
p1910
g3
(g5
S'\x92\xaa\xdb\x8e\xdf\xdd\x7f@'
tRp1911
tp1912
a(S'YP_003043340.1'
p1913
g3
(g5
S'\x9f\xdcw\xdf%\xec\x7f@'
tRp1914
tp1915
a(S'YP_003043989.1'
p1916
g3
(g5
S'k\xd7\xc5\xfd\x11\xf5\x7f@'
tRp1917
tp1918
a(S'YP_003046066.1'
p1919
g3
(g5
S't\xb0?\xf2\x84\xf9\x7f@'
tRp1920
tp1921
a(S'YP_003043818.1'
p1922
g3
(g5
S'\xf7\x1c)#\x85\x00\x80@'
tRp1923
tp1924
a(S'YP_003045921.1'
p1925
g3
(g5
S'\xc3*\x00\xb8\x9d \x80@'
tRp1926
tp1927
a(S'YP_003045418.1'
p1928
g3
(g5
S'\x7f}b\x83\xa6!\x80@'
tRp1929
tp1930
a(S'YP_003045654.1'
p1931
g3
(g5
S"\x1cL\x8c\r\xc1'\x80@"
tRp1932
tp1933
a(S'YP_003044836.1'
p1934
g3
(g5
S'\x84\x991k\x821\x80@'
tRp1935
tp1936
a(S'YP_003046013.1'
p1937
g3
(g5
S'p\xa5\x83\xe1uP\x80@'
tRp1938
tp1939
a(S'YP_003044925.1'
p1940
g3
(g5
S'`\x0e\xcccgQ\x80@'
tRp1941
tp1942
a(S'YP_003043538.1'
p1943
g3
(g5
S'j6pK\xd2R\x80@'
tRp1944
tp1945
a(S'YP_003044378.1'
p1946
g3
(g5
S'\xe8P.Z\xefS\x80@'
tRp1947
tp1948
a(S'YP_003046152.1'
p1949
g3
(g5
S'\x1c\x85=\xc0\x06W\x80@'
tRp1950
tp1951
a(S'YP_003043608.1'
p1952
g3
(g5
S'\xbc\xbf\x08GXh\x80@'
tRp1953
tp1954
a(S'YP_003043341.1'
p1955
g3
(g5
S'S\x97O\x89,n\x80@'
tRp1956
tp1957
a(S'YP_003045747.1'
p1958
g3
(g5
S'b\xd87d\x17\x85\x80@'
tRp1959
tp1960
a(S'YP_003046673.1'
p1961
g3
(g5
S'd\xfe\xfb\x81:\x88\x80@'
tRp1962
tp1963
a(S'YP_003046998.1'
p1964
g3
(g5
S'g2 r\xd0\x8c\x80@'
tRp1965
tp1966
a(S'YP_003044394.1'
p1967
g3
(g5
S'\xf0X\xe8\xc6R\x9a\x80@'
tRp1968
tp1969
a(S'YP_003045556.1'
p1970
g3
(g5
S'\xc2\xd8\xd8g\x0b\xb2\x80@'
tRp1971
tp1972
a(S'YP_003047429.1'
p1973
g3
(g5
S'\xfbA\xacw\xc3\xb2\x80@'
tRp1974
tp1975
a(S'YP_003046085.1'
p1976
g3
(g5
S'.\x9aG\xa0\xb3\xb3\x80@'
tRp1977
tp1978
a(S'YP_003045656.1'
p1979
g3
(g5
S'\x86\xa5\xf4\x1a\x19\xb7\x80@'
tRp1980
tp1981
a(S'YP_003043594.1'
p1982
g3
(g5
S'\xfe\xea\x18\xba\xdc\xba\x80@'
tRp1983
tp1984
a(S'YP_003044323.1'
p1985
g3
(g5
S'^\x91\x16\xc9\x1c\xe2\x80@'
tRp1986
tp1987
a(S'YP_003044645.1'
p1988
g3
(g5
S'\xd0a\xe1[\xa4\xe2\x80@'
tRp1989
tp1990
a(S'YP_003044851.1'
p1991
g3
(g5
S'\xfb\xf8\xe4\n\xfa\xe5\x80@'
tRp1992
tp1993
a(S'YP_003044806.1'
p1994
g3
(g5
S'\x90T\xbb\xae\x02\xf0\x80@'
tRp1995
tp1996
a(S'YP_003045489.1'
p1997
g3
(g5
S'\xa8\x02*8\x98\xfa\x80@'
tRp1998
tp1999
a(S'YP_003046925.1'
p2000
g3
(g5
S'\xbd\xec\x7f\x93\x12\xfc\x80@'
tRp2001
tp2002
a(S'YP_003044124.1'
p2003
g3
(g5
S'p$\xb3$`\xff\x80@'
tRp2004
tp2005
a(S'YP_003045554.1'
p2006
g3
(g5
S'\xb9$\xcd2\xe3\x02\x81@'
tRp2007
tp2008
a(S'YP_003045558.1'
p2009
g3
(g5
S'\xca\x86\xbc\x90\xe2\x03\x81@'
tRp2010
tp2011
a(S'YP_003043347.1'
p2012
g3
(g5
S'U\x82(\xa5\xf7\x03\x81@'
tRp2013
tp2014
a(S'YP_003044296.1'
p2015
g3
(g5
S'c\xdd>Y\x03\x08\x81@'
tRp2016
tp2017
a(S'YP_003045604.1'
p2018
g3
(g5
S'ui\x95\x81$\n\x81@'
tRp2019
tp2020
a(S'YP_003046982.1'
p2021
g3
(g5
S'1\x19#x\xc4\x17\x81@'
tRp2022
tp2023
a(S'YP_003046433.1'
p2024
g3
(g5
S'-\x02\xf65\x7f\x1b\x81@'
tRp2025
tp2026
a(S'YP_003046788.1'
p2027
g3
(g5
S'S\xdf/\x8d\x955\x81@'
tRp2028
tp2029
a(S'YP_003043426.1'
p2030
g3
(g5
S'f\xe9\x9a\xfe\xa0?\x81@'
tRp2031
tp2032
a(S'YP_003043654.1'
p2033
g3
(g5
S'P\x9bI\xb2\xad?\x81@'
tRp2034
tp2035
a(S'YP_003046280.1'
p2036
g3
(g5
S'Q,sR\x85@\x81@'
tRp2037
tp2038
a(S'YP_003045954.1'
p2039
g3
(g5
S'\xd9\x7f5\xc1\x1eS\x81@'
tRp2040
tp2041
a(S'YP_003045408.1'
p2042
g3
(g5
S'l\xd2:T\x1fc\x81@'
tRp2043
tp2044
a(S'YP_003046495.1'
p2045
g3
(g5
S'\xb6\xb1\x92\xc5|g\x81@'
tRp2046
tp2047
a(S'YP_003045910.1'
p2048
g3
(g5
S'Cd\xb7\xc0Lh\x81@'
tRp2049
tp2050
a(S'YP_003045608.1'
p2051
g3
(g5
S'6t\xe3\x9e\x88\x92\x81@'
tRp2052
tp2053
a(S'YP_003044810.1'
p2054
g3
(g5
S'\xbc\xeb\x04ok\xb1\x81@'
tRp2055
tp2056
a(S'YP_003043863.1'
p2057
g3
(g5
S'&\x99Y\xc1\x15\xb4\x81@'
tRp2058
tp2059
a(S'YP_003044132.1'
p2060
g3
(g5
S'\x80s\x12t\xc4\xbf\x81@'
tRp2061
tp2062
a(S'YP_003043705.1'
p2063
g3
(g5
S'\\n\x12\xc0@\xc0\x81@'
tRp2064
tp2065
a(S'YP_003046757.1'
p2066
g3
(g5
S'\x15L\x8b0a\xc4\x81@'
tRp2067
tp2068
a(S'YP_003043316.1'
p2069
g3
(g5
S'T\xa8\xef\xaf \xc5\x81@'
tRp2070
tp2071
a(S'YP_003044856.1'
p2072
g3
(g5
S'J\xaf\xce4\xf3\xc6\x81@'
tRp2073
tp2074
a(S'YP_003046273.1'
p2075
g3
(g5
S'\xa8\x1b\x15\xbfK\xcf\x81@'
tRp2076
tp2077
a(S'YP_003043657.1'
p2078
g3
(g5
S'\x8bN\xc5zm\xcf\x81@'
tRp2079
tp2080
a(S'YP_003044986.1'
p2081
g3
(g5
S'\xdb\xc5\xfb\xbcq\xd0\x81@'
tRp2082
tp2083
a(S'YP_003043756.1'
p2084
g3
(g5
S'4\x0c:W\xb6\xf5\x81@'
tRp2085
tp2086
a(S'YP_003046443.1'
p2087
g3
(g5
S'\x82\x93\xa6\xd5\x9c\xfc\x81@'
tRp2088
tp2089
a(S'YP_003043639.1'
p2090
g3
(g5
S'E\xb9i\xe9\xdd\x15\x82@'
tRp2091
tp2092
a(S'YP_003045659.1'
p2093
g3
(g5
S'\x81\xc6x\xf0\xfa\x1c\x82@'
tRp2094
tp2095
a(S'YP_003046222.1'
p2096
g3
(g5
S'\xbb\x7fA+(4\x82@'
tRp2097
tp2098
a(S'YP_003044884.1'
p2099
g3
(g5
S'\x10F\x16i16\x82@'
tRp2100
tp2101
a(S'YP_003045828.1'
p2102
g3
(g5
S'\x8d\xcc\xfb`\x0eO\x82@'
tRp2103
tp2104
a(S'YP_003043587.1'
p2105
g3
(g5
S'[S\x94d/Q\x82@'
tRp2106
tp2107
a(S'YP_003045786.1'
p2108
g3
(g5
S'\xe8\x19=\xa4P\x9f\x82@'
tRp2109
tp2110
a(S'YP_003043958.1'
p2111
g3
(g5
S']\xcc\x12\xa4"\xa9\x82@'
tRp2112
tp2113
a(S'YP_003046291.1'
p2114
g3
(g5
S'\xc9\xb31<\xd4\xaa\x82@'
tRp2115
tp2116
a(S'YP_003045178.1'
p2117
g3
(g5
S'\xa0\xfa\x8a()\xc1\x82@'
tRp2118
tp2119
a(S'YP_003043351.1'
p2120
g3
(g5
S':\x06\xf8\x8e\x7f\xc8\x82@'
tRp2121
tp2122
a(S'YP_003045688.1'
p2123
g3
(g5
S'\xc8\xcf4M\x1e\xd3\x82@'
tRp2124
tp2125
a(S'YP_003046684.1'
p2126
g3
(g5
S'\xb4nbv\xe2\xdd\x82@'
tRp2127
tp2128
a(S'YP_003043967.1'
p2129
g3
(g5
S'@3\xef\xcdh\xe5\x82@'
tRp2130
tp2131
a(S'YP_003045706.1'
p2132
g3
(g5
S'\x97\xf8Zm\xd4\xfa\x82@'
tRp2133
tp2134
a(S'YP_003046461.1'
p2135
g3
(g5
S'C\xdc\xca:\x88\x03\x83@'
tRp2136
tp2137
a(S'YP_003046801.1'
p2138
g3
(g5
S'&\xb6\x1a\x10\xd4\x0c\x83@'
tRp2139
tp2140
a(S'YP_003043580.1'
p2141
g3
(g5
S'\x8b\xe1{\t\x9b)\x83@'
tRp2142
tp2143
a(S'YP_003043283.1'
p2144
g3
(g5
S'\x9b\x127\x17~;\x83@'
tRp2145
tp2146
a(S'YP_003046838.1'
p2147
g3
(g5
S'$\x8d\xb8p\xe3`\x83@'
tRp2148
tp2149
a(S'YP_003044459.1'
p2150
g3
(g5
S'J\x19!\xcepd\x83@'
tRp2151
tp2152
a(S'YP_003044174.1'
p2153
g3
(g5
S'\x9d\x00`\xf0@\x8a\x83@'
tRp2154
tp2155
a(S'YP_003044005.1'
p2156
g3
(g5
S'\x05\xce\xc2F\xcf\x8b\x83@'
tRp2157
tp2158
a(S'YP_003046675.1'
p2159
g3
(g5
S'C\xb2V\xb77\x96\x83@'
tRp2160
tp2161
a(S'YP_003046156.1'
p2162
g3
(g5
S'\xcf\xde\xfd#\xc1\xb6\x83@'
tRp2163
tp2164
a(S'YP_003045421.1'
p2165
g3
(g5
S'\xf3&\x88\xfch\xcb\x83@'
tRp2166
tp2167
a(S'YP_003043288.1'
p2168
g3
(g5
S'!\xc5\xcd\xe3\xbb\xcb\x83@'
tRp2169
tp2170
a(S'YP_003046866.1'
p2171
g3
(g5
S'\xdd\x0e\xfa\xb6\x9e\xd6\x83@'
tRp2172
tp2173
a(S'YP_003045841.1'
p2174
g3
(g5
S'=\xb0O\xddT\xde\x83@'
tRp2175
tp2176
a(S'YP_003046851.1'
p2177
g3
(g5
S'\xf9\x8e"Q\xa5\xe0\x83@'
tRp2178
tp2179
a(S'YP_003045379.1'
p2180
g3
(g5
S'=\xe67DE\xe3\x83@'
tRp2181
tp2182
a(S'YP_003045863.1'
p2183
g3
(g5
S'\xb1\x86p\xbc-\xea\x83@'
tRp2184
tp2185
a(S'YP_003045309.1'
p2186
g3
(g5
S'\xae?\xc0\x0bs\xf7\x83@'
tRp2187
tp2188
a(S'YP_003044388.1'
p2189
g3
(g5
S'R&\xd2\xf1\x16\x05\x84@'
tRp2190
tp2191
a(S'YP_003047272.1'
p2192
g3
(g5
S'ZBi\x027\x08\x84@'
tRp2193
tp2194
a(S'YP_003046572.1'
p2195
g3
(g5
S'\x98\x18\xc7\x10\x80B\x84@'
tRp2196
tp2197
a(S'YP_003046069.1'
p2198
g3
(g5
S'\xdf\x1f\x0f!\x03K\x84@'
tRp2199
tp2200
a(S'YP_003045255.1'
p2201
g3
(g5
S'\n\x95\xc2M\xfaP\x84@'
tRp2202
tp2203
a(S'YP_003043932.1'
p2204
g3
(g5
S'\x10\xa8F\xa30X\x84@'
tRp2205
tp2206
a(S'YP_003046911.1'
p2207
g3
(g5
S'\xe5d\x1b\x04\xd0[\x84@'
tRp2208
tp2209
a(S'YP_003046464.1'
p2210
g3
(g5
S'v\x9f\xc1\xd4;c\x84@'
tRp2211
tp2212
a(S'YP_003046338.1'
p2213
g3
(g5
S'\xcb\x9e\x93J\x1dn\x84@'
tRp2214
tp2215
a(S'YP_003046900.1'
p2216
g3
(g5
S'd\xc6\xdb\xc0cp\x84@'
tRp2217
tp2218
a(S'YP_003045420.1'
p2219
g3
(g5
S'\x1ds\xb2\xd7\xafw\x84@'
tRp2220
tp2221
a(S'YP_003044464.1'
p2222
g3
(g5
S'\x18X\x80\x974}\x84@'
tRp2223
tp2224
a(S'YP_003047023.1'
p2225
g3
(g5
S'\x1d\\\x10zr\x7f\x84@'
tRp2226
tp2227
a(S'YP_003044151.1'
p2228
g3
(g5
S'3\x92K\x8a\x9b\x85\x84@'
tRp2229
tp2230
a(S'YP_003045655.1'
p2231
g3
(g5
S'O7\x88\xe5C\x91\x84@'
tRp2232
tp2233
a(S'YP_003044093.1'
p2234
g3
(g5
S'\xd7v\x116\x9a\x95\x84@'
tRp2235
tp2236
a(S'YP_003043398.1'
p2237
g3
(g5
S'\x1b\xab\xaae\x9c\x9d\x84@'
tRp2238
tp2239
a(S'YP_003046496.1'
p2240
g3
(g5
S'\x9d\xc6@*D\x9e\x84@'
tRp2241
tp2242
a(S'YP_003047279.1'
p2243
g3
(g5
S'\xd5"\x0230\xa4\x84@'
tRp2244
tp2245
a(S'YP_003044973.1'
p2246
g3
(g5
S'\x83\xad\xab\xd4\x0b\xaa\x84@'
tRp2247
tp2248
a(S'YP_003047195.1'
p2249
g3
(g5
S'\xc7CK\xbc\x87\xc1\x84@'
tRp2250
tp2251
a(S'YP_003045442.1'
p2252
g3
(g5
S'\x97\x13}w\x92\xc5\x84@'
tRp2253
tp2254
a(S'YP_003043562.1'
p2255
g3
(g5
S'\xba&\x95\xb0\x9f\xc8\x84@'
tRp2256
tp2257
a(S'YP_003043854.1'
p2258
g3
(g5
S'C[\xbb\xc6\xc7\xca\x84@'
tRp2259
tp2260
a(S'YP_003043582.1'
p2261
g3
(g5
S'&\xf6\\;?\xfa\x84@'
tRp2262
tp2263
a(S'YP_003045396.1'
p2264
g3
(g5
S'\x80\xac\xa3\x14\x88\x03\x85@'
tRp2265
tp2266
a(S'YP_003047432.1'
p2267
g3
(g5
S'C\x8e\xbb\x13m\x0f\x85@'
tRp2268
tp2269
a(S'YP_003044367.1'
p2270
g3
(g5
S'sz\xdd\xeb\x18\x13\x85@'
tRp2271
tp2272
a(S'YP_003045166.1'
p2273
g3
(g5
S' \x0f\xa9\xb4\x96S\x85@'
tRp2274
tp2275
a(S'YP_003047201.1'
p2276
g3
(g5
S'\x1f^\xd8h\xc3_\x85@'
tRp2277
tp2278
a(S'YP_003046227.1'
p2279
g3
(g5
S'\xa6\x17E\xd9\x0eh\x85@'
tRp2280
tp2281
a(S'YP_003046573.1'
p2282
g3
(g5
S'\x85ch\xc7\xd1j\x85@'
tRp2283
tp2284
a(S'YP_003043777.1'
p2285
g3
(g5
S'\xa1\xcea^\x9an\x85@'
tRp2286
tp2287
a(S'YP_003045113.1'
p2288
g3
(g5
S'\x0cXqB\xbdx\x85@'
tRp2289
tp2290
a(S'YP_003045546.1'
p2291
g3
(g5
S'\xe7\x1c\x16fs\x81\x85@'
tRp2292
tp2293
a(S'YP_003043569.1'
p2294
g3
(g5
S'P\xc2\x82h\xea\x91\x85@'
tRp2295
tp2296
a(S'YP_003047047.1'
p2297
g3
(g5
S'\x83)\xfeV\xd4\x97\x85@'
tRp2298
tp2299
a(S'YP_003047019.1'
p2300
g3
(g5
S'\xa2\x06\xcc\x1fO\xad\x85@'
tRp2301
tp2302
a(S'YP_003044278.1'
p2303
g3
(g5
S'\xa0\nz7s\xb1\x85@'
tRp2304
tp2305
a(S'YP_003044561.1'
p2306
g3
(g5
S'\x88\xa2+-\xfe\xc9\x85@'
tRp2307
tp2308
a(S'YP_003045732.1'
p2309
g3
(g5
S'\xbas\xf7\xfd=\xd0\x85@'
tRp2310
tp2311
a(S'YP_003043473.1'
p2312
g3
(g5
S'Pp\xa9\xbfs\xd3\x85@'
tRp2313
tp2314
a(S'YP_003046098.1'
p2315
g3
(g5
S'\xe12\xe830\xd8\x85@'
tRp2316
tp2317
a(S'YP_003044462.1'
p2318
g3
(g5
S'5R\x9b/\x12\xee\x85@'
tRp2319
tp2320
a(S'YP_003044679.1'
p2321
g3
(g5
S'dR\x16\x8c1\t\x86@'
tRp2322
tp2323
a(S'YP_003046001.1'
p2324
g3
(g5
S'\x9a\xb4\xf8\x1f\x1d\x1a\x86@'
tRp2325
tp2326
a(S'YP_003044493.1'
p2327
g3
(g5
S'W\xc2c\xf5j\x1f\x86@'
tRp2328
tp2329
a(S'YP_003045650.1'
p2330
g3
(g5
S'X\x00\x00P\x93%\x86@'
tRp2331
tp2332
a(S'YP_003044072.1'
p2333
g3
(g5
S'\xe1Q=\xdf\x14S\x86@'
tRp2334
tp2335
a(S'YP_003045610.1'
p2336
g3
(g5
S'\xacWAK\xb4u\x86@'
tRp2337
tp2338
a(S'YP_003045044.1'
p2339
g3
(g5
S'\xb9\xcb~a\xbf{\x86@'
tRp2340
tp2341
a(S'YP_003046465.1'
p2342
g3
(g5
S'\xe2\x16\x97\x81\xda{\x86@'
tRp2343
tp2344
a(S'YP_003043460.1'
p2345
g3
(g5
S'#\xe0\xa7\xd4F~\x86@'
tRp2346
tp2347
a(S'YP_003044846.1'
p2348
g3
(g5
S'3\x84Eh\x9e\x85\x86@'
tRp2349
tp2350
a(S'YP_003043823.1'
p2351
g3
(g5
S'\xdf\x98k},\x8b\x86@'
tRp2352
tp2353
a(S'YP_003046856.1'
p2354
g3
(g5
S'\x95\x0c`\x82\xf0\x99\x86@'
tRp2355
tp2356
a(S'YP_003046746.1'
p2357
g3
(g5
S'\xcc$\n\xcd_\xab\x86@'
tRp2358
tp2359
a(S'YP_003044829.1'
p2360
g3
(g5
S'%B\x9a\xabH\xb6\x86@'
tRp2361
tp2362
a(S'YP_003044878.1'
p2363
g3
(g5
S'\x14\xbft\xed1\xb7\x86@'
tRp2364
tp2365
a(S'YP_003044176.1'
p2366
g3
(g5
S'e\nBVl\xbf\x86@'
tRp2367
tp2368
a(S'YP_003044833.1'
p2369
g3
(g5
S'P<\xb0\xd9\xa5\xeb\x86@'
tRp2370
tp2371
a(S'YP_003045306.1'
p2372
g3
(g5
S'\xad;\xe3\xac\xa6\xec\x86@'
tRp2373
tp2374
a(S'YP_003043315.1'
p2375
g3
(g5
S'\x9e\x81R\xb8\x1a\x02\x87@'
tRp2376
tp2377
a(S'YP_003045651.1'
p2378
g3
(g5
S'\xa7Z7K\x89\n\x87@'
tRp2379
tp2380
a(S'YP_003043333.1'
p2381
g3
(g5
S'\x93\xdf\xc5\xad*1\x87@'
tRp2382
tp2383
a(S'YP_003043595.1'
p2384
g3
(g5
S'\xb9-\x05\xce\xf2;\x87@'
tRp2385
tp2386
a(S'YP_003045597.1'
p2387
g3
(g5
S'\xc1\xa1\xdd\x91\xedN\x87@'
tRp2388
tp2389
a(S'YP_003047085.1'
p2390
g3
(g5
S'\x8f:p\xd5?O\x87@'
tRp2391
tp2392
a(S'YP_003045679.1'
p2393
g3
(g5
S'\xca\x82\xb0\xe1\x95O\x87@'
tRp2394
tp2395
a(S'YP_003046002.1'
p2396
g3
(g5
S'<\x96W\x9d\x0cR\x87@'
tRp2397
tp2398
a(S'YP_003043829.1'
p2399
g3
(g5
S')Mh\xd1\xe4g\x87@'
tRp2400
tp2401
a(S'YP_003047406.1'
p2402
g3
(g5
S'A\xf4\xe6\xd9\x18o\x87@'
tRp2403
tp2404
a(S'YP_003046672.1'
p2405
g3
(g5
S'\xa07\xfd\x04\xc8o\x87@'
tRp2406
tp2407
a(S'YP_003044752.1'
p2408
g3
(g5
S'\x8d\x89Pjr{\x87@'
tRp2409
tp2410
a(S'YP_003046784.1'
p2411
g3
(g5
S'D\xd8\xb0_\x8b|\x87@'
tRp2412
tp2413
a(S'YP_003046862.1'
p2414
g3
(g5
S'\xd0\xfd\xd2\xd2\xab\x8d\x87@'
tRp2415
tp2416
a(S'YP_003044370.1'
p2417
g3
(g5
S'\xc7\x1a^(\x97\xa3\x87@'
tRp2418
tp2419
a(S'YP_003044472.1'
p2420
g3
(g5
S'\xc3i\xb4\x81\x1b\xb0\x87@'
tRp2421
tp2422
a(S'YP_003045987.1'
p2423
g3
(g5
S'\xe1\x9c\xcc1,\xb1\x87@'
tRp2424
tp2425
a(S'YP_003047359.1'
p2426
g3
(g5
S'0?\xb6\xb1\xb2\xba\x87@'
tRp2427
tp2428
a(S'YP_003047271.1'
p2429
g3
(g5
S'\xbd\x89\xc2\xdb\x88\xc4\x87@'
tRp2430
tp2431
a(S'YP_003044915.1'
p2432
g3
(g5
S'\xa17\xb2\x1b\xc4\xd3\x87@'
tRp2433
tp2434
a(S'YP_003046030.1'
p2435
g3
(g5
S'>NGX\xfe\xe1\x87@'
tRp2436
tp2437
a(S'YP_003044094.1'
p2438
g3
(g5
S'l)Y\xb0\t\xe6\x87@'
tRp2439
tp2440
a(S'YP_003045605.1'
p2441
g3
(g5
S'\x80\xbd#\x04g\xe7\x87@'
tRp2442
tp2443
a(S'YP_003046378.1'
p2444
g3
(g5
S'\xc9\xec\xbe\xafy\xec\x87@'
tRp2445
tp2446
a(S'YP_003047318.1'
p2447
g3
(g5
S's\x9e=\xc7\x88\xf3\x87@'
tRp2448
tp2449
a(S'YP_003043507.1'
p2450
g3
(g5
S'\xc2\x82\x9dU\x8f\xfb\x87@'
tRp2451
tp2452
a(S'YP_003044293.1'
p2453
g3
(g5
S'?\x10\\\x9a\x14\x03\x88@'
tRp2454
tp2455
a(S'YP_003043927.1'
p2456
g3
(g5
S'4\xbe$\xddQ\x0c\x88@'
tRp2457
tp2458
a(S'YP_003043309.1'
p2459
g3
(g5
S'\xd0yc\xea\xe9\x0f\x88@'
tRp2460
tp2461
a(S'YP_003045615.1'
p2462
g3
(g5
S'\xf5:=\xb2@\x16\x88@'
tRp2463
tp2464
a(S'YP_003047249.1'
p2465
g3
(g5
S';\x8c\x13\x83\xdc%\x88@'
tRp2466
tp2467
a(S'YP_003043799.1'
p2468
g3
(g5
S'1\xbc\x8e\xf2W(\x88@'
tRp2469
tp2470
a(S'YP_003043853.1'
p2471
g3
(g5
S'\xa8\xc6X\x97$/\x88@'
tRp2472
tp2473
a(S'YP_003044792.1'
p2474
g3
(g5
S'\xbcXd\x07\x032\x88@'
tRp2475
tp2476
a(S'YP_003044460.1'
p2477
g3
(g5
S'.&\x9ak\xa32\x88@'
tRp2478
tp2479
a(S'YP_003047080.1'
p2480
g3
(g5
S'n\x19-\x84\xa6I\x88@'
tRp2481
tp2482
a(S'YP_003046487.1'
p2483
g3
(g5
S'\x84\x8b\xc1g\x11P\x88@'
tRp2484
tp2485
a(S'YP_003043930.1'
p2486
g3
(g5
S'PGIP\xf3b\x88@'
tRp2487
tp2488
a(S'YP_003043235.1'
p2489
g3
(g5
S'\xde\xacE\x17\xf7e\x88@'
tRp2490
tp2491
a(S'YP_003044916.1'
p2492
g3
(g5
S'\xcd\x88\xa8\x9e\xb6p\x88@'
tRp2493
tp2494
a(S'YP_003043324.1'
p2495
g3
(g5
S'\x16\x95!\x80\x80v\x88@'
tRp2496
tp2497
a(S'YP_003044167.1'
p2498
g3
(g5
S'\x0e1\xcd\xc0\xfb\x82\x88@'
tRp2499
tp2500
a(S'YP_003046110.1'
p2501
g3
(g5
S'\x9e\xe0>\xdb\xe8\x86\x88@'
tRp2502
tp2503
a(S'YP_003045829.1'
p2504
g3
(g5
S'+\x19\xc6\x0f\xd9\x88\x88@'
tRp2505
tp2506
a(S'YP_003047079.1'
p2507
g3
(g5
S'\xde*\xe6E\xe7\xa8\x88@'
tRp2508
tp2509
a(S'YP_003043352.1'
p2510
g3
(g5
S'\xe4v\x80\x19\x05\xc7\x88@'
tRp2511
tp2512
a(S'YP_003046393.1'
p2513
g3
(g5
S'\xf6\xce\xb3m\xb3\xd2\x88@'
tRp2514
tp2515
a(S'YP_003046474.1'
p2516
g3
(g5
S':\td\xb9\xb0\xe2\x88@'
tRp2517
tp2518
a(S'YP_003043321.1'
p2519
g3
(g5
S'\x00\x9f2f\n\xf0\x88@'
tRp2520
tp2521
a(S'YP_003045106.1'
p2522
g3
(g5
S"T\x08\x19\xbb'\xf8\x88@"
tRp2523
tp2524
a(S'YP_003047200.1'
p2525
g3
(g5
S'_C\xd5\x92:\x00\x89@'
tRp2526
tp2527
a(S'YP_003046531.1'
p2528
g3
(g5
S'\xed\xade$]\x07\x89@'
tRp2529
tp2530
a(S'YP_003047282.1'
p2531
g3
(g5
S'\xf4\x7f\xf0\x1a2\x0f\x89@'
tRp2532
tp2533
a(S'YP_003045398.1'
p2534
g3
(g5
S'\xf8i\xee:G+\x89@'
tRp2535
tp2536
a(S'YP_003043796.1'
p2537
g3
(g5
S'\xe3\xaa\xf7\xdd\x840\x89@'
tRp2538
tp2539
a(S'YP_003044812.1'
p2540
g3
(g5
S'<\xb5A\xd7\xf2F\x89@'
tRp2541
tp2542
a(S'YP_003044140.1'
p2543
g3
(g5
S'&_\x91\x05\x15J\x89@'
tRp2544
tp2545
a(S'YP_003046337.1'
p2546
g3
(g5
S'\x9c\xa8]\xde\x00N\x89@'
tRp2547
tp2548
a(S'YP_003045368.1'
p2549
g3
(g5
S'q\xd26\xc6\xb0V\x89@'
tRp2550
tp2551
a(S'YP_003045955.1'
p2552
g3
(g5
S'\xc8\xf15k\xeaw\x89@'
tRp2553
tp2554
a(S'YP_003046486.1'
p2555
g3
(g5
S'\x9c~H@\xc4\x8b\x89@'
tRp2556
tp2557
a(S'YP_003044580.1'
p2558
g3
(g5
S'T\xfc\xe9\xc5o\x99\x89@'
tRp2559
tp2560
a(S'YP_003046330.1'
p2561
g3
(g5
S'a\x04:t\x07\xb2\x89@'
tRp2562
tp2563
a(S'YP_003046345.1'
p2564
g3
(g5
S'\xd1\x9d\xa6\xec\xea\xb8\x89@'
tRp2565
tp2566
a(S'YP_003046124.1'
p2567
g3
(g5
S'\xc0\xc6Im\xfd\xc4\x89@'
tRp2568
tp2569
a(S'YP_003043862.1'
p2570
g3
(g5
S'\x90\xe7\xf9\xaes\xc8\x89@'
tRp2571
tp2572
a(S'YP_003044399.1'
p2573
g3
(g5
S'\xd4\x00\x82\xba\xd9\xf4\x89@'
tRp2574
tp2575
a(S'YP_003047248.1'
p2576
g3
(g5
S'\x97\xcd>!\x92\x19\x8a@'
tRp2577
tp2578
a(S'YP_003047433.1'
p2579
g3
(g5
S'\xa32\x18\xc7\xc9&\x8a@'
tRp2580
tp2581
a(S'YP_003045545.1'
p2582
g3
(g5
S'5<\x90\x14\xd5(\x8a@'
tRp2583
tp2584
a(S'YP_003045353.1'
p2585
g3
(g5
S'\xa2\xa4\\\xbc\x853\x8a@'
tRp2586
tp2587
a(S'YP_003044700.1'
p2588
g3
(g5
S';-\xe2\x86j@\x8a@'
tRp2589
tp2590
a(S'YP_003044249.1'
p2591
g3
(g5
S'\xd9G\xfe\xdb\x05F\x8a@'
tRp2592
tp2593
a(S'YP_003046279.1'
p2594
g3
(g5
S'\xca\x81m\xc7rM\x8a@'
tRp2595
tp2596
a(S'YP_003045913.1'
p2597
g3
(g5
S'\x84l\xd6\x0elS\x8a@'
tRp2598
tp2599
a(S'YP_003045911.1'
p2600
g3
(g5
S'B\x87\xd6\x8b\xe0T\x8a@'
tRp2601
tp2602
a(S'YP_003046240.1'
p2603
g3
(g5
S'\xe4XR\x86\x1df\x8a@'
tRp2604
tp2605
a(S'YP_003045595.1'
p2606
g3
(g5
S'\x9f\x8a\xb4\x89<\xa4\x8a@'
tRp2607
tp2608
a(S'YP_003045205.1'
p2609
g3
(g5
S'\xb0\xa5\x95x\xcf\xa4\x8a@'
tRp2610
tp2611
a(S'YP_003045437.1'
p2612
g3
(g5
S'*\x1d\x0b\n\x8d\xad\x8a@'
tRp2613
tp2614
a(S'YP_003046292.1'
p2615
g3
(g5
S'\xb0\xdd?3\xa3\xad\x8a@'
tRp2616
tp2617
a(S'YP_003043615.1'
p2618
g3
(g5
S'\xe5\xd1PH&\xb1\x8a@'
tRp2619
tp2620
a(S'YP_003045925.1'
p2621
g3
(g5
S'\xb2dH\x9f\xff\xb6\x8a@'
tRp2622
tp2623
a(S'YP_003044782.1'
p2624
g3
(g5
S'jE\x8a\x1a0\xc7\x8a@'
tRp2625
tp2626
a(S'YP_003045404.1'
p2627
g3
(g5
S'f\x06yu\r\xc9\x8a@'
tRp2628
tp2629
a(S'YP_003047175.1'
p2630
g3
(g5
S'\x96\xc4\xcb\xd8\xc9\xc9\x8a@'
tRp2631
tp2632
a(S'YP_003044894.1'
p2633
g3
(g5
S'\xb5`P\xf4\xed\xda\x8a@'
tRp2634
tp2635
a(S'YP_003045652.1'
p2636
g3
(g5
S'\x8c\xc9?\x85h\xde\x8a@'
tRp2637
tp2638
a(S'YP_003043467.1'
p2639
g3
(g5
S'\xa9\xde\xb2\xefk\xe9\x8a@'
tRp2640
tp2641
a(S'YP_003047266.1'
p2642
g3
(g5
S'\xadf\xa3\xdd\xc4\xef\x8a@'
tRp2643
tp2644
a(S'YP_003047179.1'
p2645
g3
(g5
S'G\xc86\xbc_\xfe\x8a@'
tRp2646
tp2647
a(S'YP_003046852.1'
p2648
g3
(g5
S"\xca'\xa1\xf2\xf1\xff\x8a@"
tRp2649
tp2650
a(S'YP_003044492.1'
p2651
g3
(g5
S'\xd0W\xa37\xb3\x1d\x8b@'
tRp2652
tp2653
a(S'YP_003046583.1'
p2654
g3
(g5
S's\xff\x91\x11i>\x8b@'
tRp2655
tp2656
a(S'YP_003045714.1'
p2657
g3
(g5
S' \xcf4w&M\x8b@'
tRp2658
tp2659
a(S'YP_003046756.1'
p2660
g3
(g5
S'\\18\xee\xb4W\x8b@'
tRp2661
tp2662
a(S'YP_003046854.1'
p2663
g3
(g5
S"\x0b'\xc3\x9c9b\x8b@"
tRp2664
tp2665
a(S'YP_003044290.1'
p2666
g3
(g5
S'\x92\x944\xa9\xd7v\x8b@'
tRp2667
tp2668
a(S'YP_003047273.1'
p2669
g3
(g5
S'3-C\xe0\xf6\xc3\x8b@'
tRp2670
tp2671
a(S'YP_003046425.1'
p2672
g3
(g5
S'A\xd6\xc7\xb3\x1c\xc7\x8b@'
tRp2673
tp2674
a(S'YP_003046254.1'
p2675
g3
(g5
S'\xecE\x1f\x98X\xd9\x8b@'
tRp2676
tp2677
a(S'YP_003044948.1'
p2678
g3
(g5
S'Y@\x15\x0b\xfc\x08\x8c@'
tRp2679
tp2680
a(S'YP_003044783.1'
p2681
g3
(g5
S'>6tj\x0f\x14\x8c@'
tRp2682
tp2683
a(S'YP_003045678.1'
p2684
g3
(g5
S'\x87HH\xa8\x00\x17\x8c@'
tRp2685
tp2686
a(S'YP_003047180.1'
p2687
g3
(g5
S'\xef}\x05A:\x1f\x8c@'
tRp2688
tp2689
a(S'YP_003045523.1'
p2690
g3
(g5
S'\xbe\x03(\x87\xbf.\x8c@'
tRp2691
tp2692
a(S'YP_003046424.1'
p2693
g3
(g5
S'@BRY\xbf5\x8c@'
tRp2694
tp2695
a(S'YP_003046832.1'
p2696
g3
(g5
S':\x964\x9a\\8\x8c@'
tRp2697
tp2698
a(S'YP_003045710.1'
p2699
g3
(g5
S'\x00|\xd2\t\xc4:\x8c@'
tRp2700
tp2701
a(S'YP_003047417.1'
p2702
g3
(g5
S'^\xde9\x88\xcaN\x8c@'
tRp2703
tp2704
a(S'YP_003046236.1'
p2705
g3
(g5
S'}f\xa6\x13~S\x8c@'
tRp2706
tp2707
a(S'YP_003043361.1'
p2708
g3
(g5
S'\xe9D\xbe\xa8\xa6]\x8c@'
tRp2709
tp2710
a(S'YP_003045382.1'
p2711
g3
(g5
S'\xa9\x97\x84\xbc\x0ec\x8c@'
tRp2712
tp2713
a(S'YP_003043855.1'
p2714
g3
(g5
S'21\xd9($n\x8c@'
tRp2715
tp2716
a(S'YP_003044985.1'
p2717
g3
(g5
S'b_\xadK\x1f\x8a\x8c@'
tRp2718
tp2719
a(S'YP_003046255.1'
p2720
g3
(g5
S'\xbb\x8f\xb6\x0ek\x8c\x8c@'
tRp2721
tp2722
a(S'YP_003045121.1'
p2723
g3
(g5
S'?~K\xc9\x19\xa4\x8c@'
tRp2724
tp2725
a(S'YP_003047321.1'
p2726
g3
(g5
S'\x87\xccW\x98,\xab\x8c@'
tRp2727
tp2728
a(S'YP_003046127.1'
p2729
g3
(g5
S'\x87\xfc\xf0Q\xd2\xe5\x8c@'
tRp2730
tp2731
a(S'YP_003043318.1'
p2732
g3
(g5
S'\xb1\xdf\x07\x9f\x19\x04\x8d@'
tRp2733
tp2734
a(S'YP_003043265.1'
p2735
g3
(g5
S'i\x86\x0f#\x81\x18\x8d@'
tRp2736
tp2737
a(S'YP_003044861.1'
p2738
g3
(g5
S'1\xe0\x98\xda\x16:\x8d@'
tRp2739
tp2740
a(S'YP_003045446.1'
p2741
g3
(g5
S'\x80\xf0W\xa9e:\x8d@'
tRp2742
tp2743
a(S'YP_003045350.1'
p2744
g3
(g5
S"'|2\xa3\x08K\x8d@"
tRp2745
tp2746
a(S'YP_003046810.1'
p2747
g3
(g5
S"\xdc'\xc1\xba\xb3M\x8d@"
tRp2748
tp2749
a(S'YP_003045824.1'
p2750
g3
(g5
S'\x1br\x19\xc6\xa3g\x8d@'
tRp2751
tp2752
a(S'YP_003044154.1'
p2753
g3
(g5
S'l\xd0t\xf3Ap\x8d@'
tRp2754
tp2755
a(S'YP_003046920.1'
p2756
g3
(g5
S'\t\xa4-f\xd9|\x8d@'
tRp2757
tp2758
a(S'YP_003043546.1'
p2759
g3
(g5
S'a\x8f\xd3\xbf\x13\x8e\x8d@'
tRp2760
tp2761
a(S'YP_003046635.1'
p2762
g3
(g5
S'\x04o\xf1\xd7\x9a\x9b\x8d@'
tRp2763
tp2764
a(S'YP_003047020.1'
p2765
g3
(g5
S'~Y\xf6\xb4\x97\xc9\x8d@'
tRp2766
tp2767
a(S'YP_003045032.1'
p2768
g3
(g5
S'\xcc\x84\x9c"\xe7\xd6\x8d@'
tRp2769
tp2770
a(S'YP_003047419.1'
p2771
g3
(g5
S'\\1\x88\x01\x85\x15\x8e@'
tRp2772
tp2773
a(S'YP_003045400.1'
p2774
g3
(g5
S'\xf3V:\xdb\xc4\x1d\x8e@'
tRp2775
tp2776
a(S'YP_003043775.1'
p2777
g3
(g5
S'Q\xa8X\x05\xea\x1d\x8e@'
tRp2778
tp2779
a(S'YP_003044467.1'
p2780
g3
(g5
S'G\x9f\xa6B\tM\x8e@'
tRp2781
tp2782
a(S'YP_003044849.1'
p2783
g3
(g5
S'\x17Z\xad\xb0UU\x8e@'
tRp2784
tp2785
a(S'YP_003043943.1'
p2786
g3
(g5
S'$O\xdd\xe22X\x8e@'
tRp2787
tp2788
a(S'YP_003045635.1'
p2789
g3
(g5
S'D@a\x8b\x94_\x8e@'
tRp2790
tp2791
a(S'YP_003045087.1'
p2792
g3
(g5
S'\xf8[\x17\xearh\x8e@'
tRp2793
tp2794
a(S'YP_003044872.1'
p2795
g3
(g5
S'\xa8\x1ej\xcb]\x85\x8e@'
tRp2796
tp2797
a(S'YP_003046219.1'
p2798
g3
(g5
S'\x9a-\xc0@\xc6\x99\x8e@'
tRp2799
tp2800
a(S'YP_003044314.1'
p2801
g3
(g5
S'\n1\x82\xd1\xa5\xaf\x8e@'
tRp2802
tp2803
a(S'YP_003046680.1'
p2804
g3
(g5
S'\xe0\xe8\xc7\x12\x0e\xc9\x8e@'
tRp2805
tp2806
a(S'YP_003046317.1'
p2807
g3
(g5
S'\x16Qp\x9a\xbd\xf5\x8e@'
tRp2808
tp2809
a(S'YP_003046604.1'
p2810
g3
(g5
S'\x81\xd6\x0e\xef\xa3\x0b\x8f@'
tRp2811
tp2812
a(S'YP_003045665.1'
p2813
g3
(g5
S'\xee\xf8\xb22l\x19\x8f@'
tRp2814
tp2815
a(S'YP_003043596.1'
p2816
g3
(g5
S'\x041\x1f\ta\x1b\x8f@'
tRp2817
tp2818
a(S'YP_003045874.1'
p2819
g3
(g5
S'u\xb8Qi\x111\x8f@'
tRp2820
tp2821
a(S'YP_003044389.1'
p2822
g3
(g5
S'\xbe\xb2S\xe4\xc8_\x8f@'
tRp2823
tp2824
a(S'YP_003045707.1'
p2825
g3
(g5
S'\x0b*\x1e?G`\x8f@'
tRp2826
tp2827
a(S'YP_003045553.1'
p2828
g3
(g5
S'\xb0\xa8\\ g\xbb\x8f@'
tRp2829
tp2830
a(S'YP_003046758.1'
p2831
g3
(g5
S'\x15a9;\xca\xdd\x8f@'
tRp2832
tp2833
a(S'YP_003044149.1'
p2834
g3
(g5
S'\x0e\xf0\x93i\x08\xef\x8f@'
tRp2835
tp2836
a(S'YP_003046333.1'
p2837
g3
(g5
S'\xafr+\xbf\x07\xf3\x8f@'
tRp2838
tp2839
a(S'YP_003047063.1'
p2840
g3
(g5
S'\xed\xa0U\x9eN\x07\x90@'
tRp2841
tp2842
a(S'YP_003046828.1'
p2843
g3
(g5
S'E|\xa9n\xaf3\x90@'
tRp2844
tp2845
a(S'YP_003046241.1'
p2846
g3
(g5
S'\x04\xd0\xc0E\xe4`\x90@'
tRp2847
tp2848
a(S'YP_003044461.1'
p2849
g3
(g5
S'\xda>\xcb\x9c\x9ce\x90@'
tRp2850
tp2851
a(S'YP_003044250.1'
p2852
g3
(g5
S'\xd2\xf7,}Pg\x90@'
tRp2853
tp2854
a(S'YP_003047289.1'
p2855
g3
(g5
S'/\xe0G\xbb\xb1g\x90@'
tRp2856
tp2857
a(S'YP_003044343.1'
p2858
g3
(g5
S'<D\xe5\xe5\x1e{\x90@'
tRp2859
tp2860
a(S'YP_003043518.1'
p2861
g3
(g5
S'\xd8hu\xdeu{\x90@'
tRp2862
tp2863
a(S'YP_003044169.1'
p2864
g3
(g5
S'\xc6\xa8\x85\x95N\x85\x90@'
tRp2865
tp2866
a(S'YP_003045118.1'
p2867
g3
(g5
S'\xe9\x84\xabD\xc7\x91\x90@'
tRp2868
tp2869
a(S'YP_003044781.1'
p2870
g3
(g5
S'x\xd2b\x8f\x9a\x94\x90@'
tRp2871
tp2872
a(S'YP_003046557.1'
p2873
g3
(g5
S'T\xe0\xdd \xeb\x95\x90@'
tRp2874
tp2875
a(S'YP_003045512.1'
p2876
g3
(g5
S'\x85\x9b\xe1\x9e\xb2\x9a\x90@'
tRp2877
tp2878
a(S'YP_003045928.1'
p2879
g3
(g5
S'\x82\xa5\xb6\x9e\x02\xa3\x90@'
tRp2880
tp2881
a(S'YP_003044930.1'
p2882
g3
(g5
S'\x16\x1d\xf2\xf3\xce\xc5\x90@'
tRp2883
tp2884
a(S'YP_003045966.1'
p2885
g3
(g5
S'\xc1;\xc6\xba;\xd2\x90@'
tRp2886
tp2887
a(S'YP_003044931.1'
p2888
g3
(g5
S'*\x83\xfd\x0b\x0f\xe7\x90@'
tRp2889
tp2890
a(S'YP_003043832.1'
p2891
g3
(g5
S'Z\xbd\xe4p\x7f\x03\x91@'
tRp2892
tp2893
a(S'YP_003046421.1'
p2894
g3
(g5
S'w\xb8\x07\x99\x94\n\x91@'
tRp2895
tp2896
a(S'YP_003044077.1'
p2897
g3
(g5
S'\x9e\xf3\x98)\xce\n\x91@'
tRp2898
tp2899
a(S'YP_003045141.1'
p2900
g3
(g5
S' \xf6y=5\x19\x91@'
tRp2901
tp2902
a(S'YP_003046311.1'
p2903
g3
(g5
S'y`OG\xc3\x19\x91@'
tRp2904
tp2905
a(S'YP_003045870.1'
p2906
g3
(g5
S'\xc0\xb7\xf3\xfa\x8e#\x91@'
tRp2907
tp2908
a(S'YP_003045090.1'
p2909
g3
(g5
S'\xedRK\x10\x99,\x91@'
tRp2910
tp2911
a(S'YP_003046437.1'
p2912
g3
(g5
S'\xcd\xb3\xed]\xcf.\x91@'
tRp2913
tp2914
a(S'YP_003046226.1'
p2915
g3
(g5
S'(\x9f<("@\x91@'
tRp2916
tp2917
a(S'YP_003045969.1'
p2918
g3
(g5
S'\xf9jE\xad\x8aC\x91@'
tRp2919
tp2920
a(S'YP_003045020.1'
p2921
g3
(g5
S'f\x9b\x8a~CG\x91@'
tRp2922
tp2923
a(S'YP_003043281.1'
p2924
g3
(g5
S'o\x92\x90\x9b<P\x91@'
tRp2925
tp2926
a(S'YP_003045354.1'
p2927
g3
(g5
S',^\x1c\x16I^\x91@'
tRp2928
tp2929
a(S'YP_003046239.1'
p2930
g3
(g5
S'\x04\xd5\xce\xb0]^\x91@'
tRp2931
tp2932
a(S'YP_003045403.1'
p2933
g3
(g5
S'\x85>\xc3V-d\x91@'
tRp2934
tp2935
a(S'YP_003044393.1'
p2936
g3
(g5
S'\xf5\x19\rg\x07h\x91@'
tRp2937
tp2938
a(S'YP_003047281.1'
p2939
g3
(g5
S'\xb6\xaf\x9e\xea\xeeo\x91@'
tRp2940
tp2941
a(S'YP_003045265.1'
p2942
g3
(g5
S'\xc0W\xa6\x0e\xfes\x91@'
tRp2943
tp2944
a(S'YP_003044449.1'
p2945
g3
(g5
S't\x9e\xf9\x02\x9bu\x91@'
tRp2946
tp2947
a(S'YP_003045664.1'
p2948
g3
(g5
S'?\xbd\x8a\xc9\x81x\x91@'
tRp2949
tp2950
a(S'YP_003046452.1'
p2951
g3
(g5
S'\n\x93\xba\xe7\x9c~\x91@'
tRp2952
tp2953
a(S'YP_003043466.1'
p2954
g3
(g5
S'\xa8\xa8\xac\xe3\xe6\x83\x91@'
tRp2955
tp2956
a(S'YP_003045459.1'
p2957
g3
(g5
S'\xdfK]\xb87\x8b\x91@'
tRp2958
tp2959
a(S'YP_003045120.1'
p2960
g3
(g5
S"*'\xf2\x93@\x92\x91@"
tRp2961
tp2962
a(S'YP_003047024.1'
p2963
g3
(g5
S'\x833\xfb\xef\x82\x92\x91@'
tRp2964
tp2965
a(S'YP_003046646.1'
p2966
g3
(g5
S'\x91\xf3\x8a\xe4\xc7\x97\x91@'
tRp2967
tp2968
a(S'YP_003043590.1'
p2969
g3
(g5
S']\xb0C\xa4\xca\xa7\x91@'
tRp2970
tp2971
a(S'YP_003043963.1'
p2972
g3
(g5
S'7\x04\xa73,\xae\x91@'
tRp2973
tp2974
a(S'YP_003046825.1'
p2975
g3
(g5
S'\xbb\xee\xc4\xd6z\xc5\x91@'
tRp2976
tp2977
a(S'YP_003045436.1'
p2978
g3
(g5
S'aE\xa6!y\xc7\x91@'
tRp2979
tp2980
a(S'YP_003044366.1'
p2981
g3
(g5
S'\xb6\xa0\xcd\x912\xc9\x91@'
tRp2982
tp2983
a(S'YP_003047270.1'
p2984
g3
(g5
S'\xf98\xc9b\xc6\xd7\x91@'
tRp2985
tp2986
a(S'YP_003044959.1'
p2987
g3
(g5
S'!\x84\xb2\xcf\t\xe0\x91@'
tRp2988
tp2989
a(S'YP_003046349.1'
p2990
g3
(g5
S'\xc4\xa0A\xe4\xa5\xe9\x91@'
tRp2991
tp2992
a(S'YP_003047101.1'
p2993
g3
(g5
S'%![\x93&\xef\x91@'
tRp2994
tp2995
a(S'YP_003046679.1'
p2996
g3
(g5
S'o\xb1\xbd\x8a\xc0\xf4\x91@'
tRp2997
tp2998
a(S'YP_003044701.1'
p2999
g3
(g5
S'\xdde\x9c\xa9\x8e\xf7\x91@'
tRp3000
tp3001
a(S'YP_003045022.1'
p3002
g3
(g5
S'A\xe7\xc6\xcaY\xf8\x91@'
tRp3003
tp3004
a(S'YP_003046891.1'
p3005
g3
(g5
S'u\xfe\x18\x8a\xff\xfe\x91@'
tRp3006
tp3007
a(S'YP_003044012.1'
p3008
g3
(g5
S'(\x92\xa0\xae\xf1\n\x92@'
tRp3009
tp3010
a(S'YP_003045416.1'
p3011
g3
(g5
S'\xd0v\xb2\xfe\x81\x11\x92@'
tRp3012
tp3013
a(S'YP_003046315.1'
p3014
g3
(g5
S'\x92\\\x11P\xcd\x14\x92@'
tRp3015
tp3016
a(S'YP_003043856.1'
p3017
g3
(g5
S'g\xa5\xe6:_\x1e\x92@'
tRp3018
tp3019
a(S'YP_003043847.1'
p3020
g3
(g5
S'\x012]NC8\x92@'
tRp3021
tp3022
a(S'YP_003046813.1'
p3023
g3
(g5
S'+\xed\xbf\x0789\x92@'
tRp3024
tp3025
a(S'YP_003043611.1'
p3026
g3
(g5
S'\xccj\xd5b\x94b\x92@'
tRp3027
tp3028
a(S'YP_003043395.1'
p3029
g3
(g5
S'a_\xe6\x04\xb3d\x92@'
tRp3030
tp3031
a(S'YP_003045677.1'
p3032
g3
(g5
S'\x03\xd4\xf3iF~\x92@'
tRp3033
tp3034
a(S'YP_003044023.1'
p3035
g3
(g5
S'mq\\\xe7:\x7f\x92@'
tRp3036
tp3037
a(S'YP_003044024.1'
p3038
g3
(g5
S'y!"*\xf5\x88\x92@'
tRp3039
tp3040
a(S'YP_003046670.1'
p3041
g3
(g5
S'\xd6\r\xad]{\x8e\x92@'
tRp3042
tp3043
a(S'YP_003046971.1'
p3044
g3
(g5
S'uM\xcb\x8cS\x90\x92@'
tRp3045
tp3046
a(S'YP_003044089.1'
p3047
g3
(g5
S'\xdb\xdb\n\x0ch\x95\x92@'
tRp3048
tp3049
a(S'YP_003045796.1'
p3050
g3
(g5
S'\x13\xeb\xbb,^\x99\x92@'
tRp3051
tp3052
a(S'YP_003045007.1'
p3053
g3
(g5
S'\xb4\x93c\xe2\xd7\xa7\x92@'
tRp3054
tp3055
a(S'YP_003044316.1'
p3056
g3
(g5
S'T\x10\x10t\xf8\xb0\x92@'
tRp3057
tp3058
a(S'YP_003044474.1'
p3059
g3
(g5
S'41\xf5\xe4\xf8\xb8\x92@'
tRp3060
tp3061
a(S'YP_003045923.1'
p3062
g3
(g5
S'\\=o~c\xbd\x92@'
tRp3063
tp3064
a(S'YP_003043920.1'
p3065
g3
(g5
S'\xb5\xbb94\x8a\xc3\x92@'
tRp3066
tp3067
a(S'YP_003044853.1'
p3068
g3
(g5
S'\xb6\xe7\xb1\x83\xda\xc6\x92@'
tRp3069
tp3070
a(S'YP_003046231.1'
p3071
g3
(g5
S'P\xa7\xd5\xad\x96\xcd\x92@'
tRp3072
tp3073
a(S'YP_003047059.1'
p3074
g3
(g5
S'\x1dP\xec\xd3\xd9\xd0\x92@'
tRp3075
tp3076
a(S'YP_003045015.1'
p3077
g3
(g5
S'{\x06\xc0\xf9\x0f\xd1\x92@'
tRp3078
tp3079
a(S'YP_003045034.1'
p3080
g3
(g5
S'A\xa8\x98\x1c\xe9\xd9\x92@'
tRp3081
tp3082
a(S'YP_003044972.1'
p3083
g3
(g5
S'\x9c95\xdd~\xfc\x92@'
tRp3084
tp3085
a(S'YP_003044771.1'
p3086
g3
(g5
S'T\xdc\xbd\x1aG\x11\x93@'
tRp3087
tp3088
a(S'YP_003043846.1'
p3089
g3
(g5
S'\xab=\xe5\x0e\xad\x1c\x93@'
tRp3090
tp3091
a(S'YP_003045814.1'
p3092
g3
(g5
S'\xcd\x97\xe7\xc2\r*\x93@'
tRp3093
tp3094
a(S'YP_003044113.1'
p3095
g3
(g5
S'\xf2\xa4\x886g/\x93@'
tRp3096
tp3097
a(S'YP_003046202.1'
p3098
g3
(g5
S'P\xaa\xb0\xb1\x1d7\x93@'
tRp3099
tp3100
a(S'YP_003045915.1'
p3101
g3
(g5
S'\xa1\x08\x01\xad\xbaB\x93@'
tRp3102
tp3103
a(S'YP_003046322.1'
p3104
g3
(g5
S'\x1b\x07\xce\xac C\x93@'
tRp3105
tp3106
a(S'YP_003043286.1'
p3107
g3
(g5
S'7t\xf2\x8f\xc1U\x93@'
tRp3108
tp3109
a(S'YP_003044741.1'
p3110
g3
(g5
S'\xe8\xb3\x7f$\x0bZ\x93@'
tRp3111
tp3112
a(S'YP_003046591.1'
p3113
g3
(g5
S'\xf4\xa0\x157\xc0j\x93@'
tRp3114
tp3115
a(S'YP_003046803.1'
p3116
g3
(g5
S'<9\xcc\x1f\xd8j\x93@'
tRp3117
tp3118
a(S'YP_003043619.1'
p3119
g3
(g5
S'\x8b\x89}\x0e*m\x93@'
tRp3120
tp3121
a(S'YP_003045069.1'
p3122
g3
(g5
S'\xc78!%\t\x85\x93@'
tRp3123
tp3124
a(S'YP_003047112.1'
p3125
g3
(g5
S'\xf3\x82%@\xa4\xa2\x93@'
tRp3126
tp3127
a(S'YP_003044870.1'
p3128
g3
(g5
S'\x12%\xbe]H\xa7\x93@'
tRp3129
tp3130
a(S'YP_003043996.1'
p3131
g3
(g5
S'n\x04\x0e\x87t\xbc\x93@'
tRp3132
tp3133
a(S'YP_003043362.1'
p3134
g3
(g5
S'7;\x7fp\x8f\xbe\x93@'
tRp3135
tp3136
a(S'YP_003045456.1'
p3137
g3
(g5
S'I\xfb\x9f\x11\t\xc5\x93@'
tRp3138
tp3139
a(S'YP_003045603.1'
p3140
g3
(g5
S'\r\xe9\xb8l\x97\xca\x93@'
tRp3141
tp3142
a(S'YP_003046323.1'
p3143
g3
(g5
S'w\xe9\xd6\xadl\xcd\x93@'
tRp3144
tp3145
a(S'YP_003043353.1'
p3146
g3
(g5
S'\x16\xd6<\x07\x80\xcf\x93@'
tRp3147
tp3148
a(S'YP_003046441.1'
p3149
g3
(g5
S'\x1c\x93`\xba\x86\xd2\x93@'
tRp3150
tp3151
a(S'YP_003043244.1'
p3152
g3
(g5
S'\x1bB;\xa7N\xdb\x93@'
tRp3153
tp3154
a(S'YP_003044273.1'
p3155
g3
(g5
S'.E&\xd1\x85\xfa\x93@'
tRp3156
tp3157
a(S'YP_003047098.1'
p3158
g3
(g5
S'\xe4\x95\xdfs\xfd\x06\x94@'
tRp3159
tp3160
a(S'YP_003044345.1'
p3161
g3
(g5
S'7\xe2\x00y\x8b\x07\x94@'
tRp3162
tp3163
a(S'YP_003043631.1'
p3164
g3
(g5
S'\x05\x87\xf2(\x964\x94@'
tRp3165
tp3166
a(S'YP_003045956.1'
p3167
g3
(g5
S'^X\xe09\x98J\x94@'
tRp3168
tp3169
a(S'YP_003047001.1'
p3170
g3
(g5
S'\xc5\xa7\xea\xba\xaao\x94@'
tRp3171
tp3172
a(S'YP_003046645.1'
p3173
g3
(g5
S'\xf5j\x04)hs\x94@'
tRp3174
tp3175
a(S'YP_003044260.1'
p3176
g3
(g5
S'\xe6\x02\xf9\xa2\x94\x94\x94@'
tRp3177
tp3178
a(S'YP_003044284.1'
p3179
g3
(g5
S'\xc3!\xa8\x8c\x9d\xa2\x94@'
tRp3180
tp3181
a(S'YP_003043349.1'
p3182
g3
(g5
S'\xf0\xb2b\xc6N\xa7\x94@'
tRp3183
tp3184
a(S'YP_003045941.1'
p3185
g3
(g5
S'\xe7!\xc6\xc1y\xca\x94@'
tRp3186
tp3187
a(S'YP_003045410.1'
p3188
g3
(g5
S'\x841\xd1\x08\xf2\xd1\x94@'
tRp3189
tp3190
a(S'YP_003047280.1'
p3191
g3
(g5
S'\x85@k\xf1\xa3\xd3\x94@'
tRp3192
tp3193
a(S'YP_003046343.1'
p3194
g3
(g5
S'\x08O\xc1\xab_\xe0\x94@'
tRp3195
tp3196
a(S'YP_003046529.1'
p3197
g3
(g5
S'^Z\x97j&\x0f\x95@'
tRp3198
tp3199
a(S'YP_003043408.1'
p3200
g3
(g5
S'\x94Y\x1c\xc1\x0c\x10\x95@'
tRp3201
tp3202
a(S'YP_003044307.1'
p3203
g3
(g5
S'\xbb{V\xa6V\x17\x95@'
tRp3204
tp3205
a(S'YP_003045165.1'
p3206
g3
(g5
S'\x80M%s\xea\x1a\x95@'
tRp3207
tp3208
a(S'YP_003045427.1'
p3209
g3
(g5
S'.5\xef_}!\x95@'
tRp3210
tp3211
a(S'YP_003044281.1'
p3212
g3
(g5
S'\xcb\xee\xd3]\xd9^\x95@'
tRp3213
tp3214
a(S'YP_003047058.1'
p3215
g3
(g5
S'*\xc5aA\x00_\x95@'
tRp3216
tp3217
a(S'YP_003044087.1'
p3218
g3
(g5
S'\x03%\xe1\x00aj\x95@'
tRp3219
tp3220
a(S'YP_003046275.1'
p3221
g3
(g5
S'@Ak\xd2it\x95@'
tRp3222
tp3223
a(S'YP_003043905.1'
p3224
g3
(g5
S'\xbaZ\x84\xb9\nw\x95@'
tRp3225
tp3226
a(S'YP_003047427.1'
p3227
g3
(g5
S'\xaa\xd0\xcb\xce\xcb{\x95@'
tRp3228
tp3229
a(S'YP_003043864.1'
p3230
g3
(g5
S'\x19\xfc^\x864\x99\x95@'
tRp3231
tp3232
a(S'YP_003046230.1'
p3233
g3
(g5
S'\x07\xdb\x87\xbe\xdb\x9c\x95@'
tRp3234
tp3235
a(S'YP_003045918.1'
p3236
g3
(g5
S'i\xbf}7G\xa4\x95@'
tRp3237
tp3238
a(S'YP_003044887.1'
p3239
g3
(g5
S'gcQ\xdf\xc6\xa4\x95@'
tRp3240
tp3241
a(S'YP_003043583.1'
p3242
g3
(g5
S'{\xa4\x94k\xc0\xa5\x95@'
tRp3243
tp3244
a(S'YP_003044469.1'
p3245
g3
(g5
S'Z\xd5\xceS?\xaf\x95@'
tRp3246
tp3247
a(S'YP_003046790.1'
p3248
g3
(g5
S'`\xd3\xe9\x96&\xbe\x95@'
tRp3249
tp3250
a(S'YP_003047420.1'
p3251
g3
(g5
S'\xf0\xca\xba\x82\xa0\xd4\x95@'
tRp3252
tp3253
a(S'YP_003044139.1'
p3254
g3
(g5
S'\xdc\x1d\xa9\x0c\xfe\x01\x96@'
tRp3255
tp3256
a(S'YP_003045115.1'
p3257
g3
(g5
S'-vg X\x06\x96@'
tRp3258
tp3259
a(S'YP_003045460.1'
p3260
g3
(g5
S'^S\xc2\x9cX\x0e\x96@'
tRp3261
tp3262
a(S'YP_003043646.1'
p3263
g3
(g5
S'\xac\x0c\xbb\x96;\x1d\x96@'
tRp3264
tp3265
a(S'YP_003045429.1'
p3266
g3
(g5
S'\x9bu\xc0\x88?1\x96@'
tRp3267
tp3268
a(S'YP_003045497.1'
p3269
g3
(g5
S'\xb3{\x8a\xb8\x114\x96@'
tRp3270
tp3271
a(S'YP_003043783.1'
p3272
g3
(g5
S'+\xd9\x1fsE[\x96@'
tRp3273
tp3274
a(S'YP_003047212.1'
p3275
g3
(g5
S'\x1b\xb3\xae;\x08^\x96@'
tRp3276
tp3277
a(S'YP_003043850.1'
p3278
g3
(g5
S'5\x08Ni\xd0a\x96@'
tRp3279
tp3280
a(S'YP_003046237.1'
p3281
g3
(g5
S'\xa3\x9f\xed\xb2\xa5o\x96@'
tRp3282
tp3283
a(S'YP_003046585.1'
p3284
g3
(g5
S'j\xfa\xbf\xd9\xd2r\x96@'
tRp3285
tp3286
a(S'YP_003043658.1'
p3287
g3
(g5
S'\xdb\xe1,-_u\x96@'
tRp3288
tp3289
a(S'YP_003044562.1'
p3290
g3
(g5
S'W\x84\xb4\xf2\xc0u\x96@'
tRp3291
tp3292
a(S'YP_003044346.1'
p3293
g3
(g5
S'\xce\xab\x85L\x9f\x93\x96@'
tRp3294
tp3295
a(S'YP_003046584.1'
p3296
g3
(g5
S'p\xf5\xda\xbbi\xac\x96@'
tRp3297
tp3298
a(S'YP_003043702.1'
p3299
g3
(g5
S't\x06\x1d\x1e\xa4\xdd\x96@'
tRp3300
tp3301
a(S'YP_003043782.1'
p3302
g3
(g5
S"\xc8\xee\xcf#'\xff\x96@"
tRp3303
tp3304
a(S'YP_003045589.1'
p3305
g3
(g5
S'\x872\x02*$\x02\x97@'
tRp3306
tp3307
a(S'YP_003046974.1'
p3308
g3
(g5
S"'\x92\xdf\xe3\x0eI\x97@"
tRp3309
tp3310
a(S'YP_003046984.1'
p3311
g3
(g5
S'\xa8M\x18z~O\x97@'
tRp3312
tp3313
a(S'YP_003043378.1'
p3314
g3
(g5
S'\xf3\xfb\x80$\xdcP\x97@'
tRp3315
tp3316
a(S'YP_003044882.1'
p3317
g3
(g5
S'[\x93\x02\xa61S\x97@'
tRp3318
tp3319
a(S'YP_003044845.1'
p3320
g3
(g5
S'_\xa4\xda\x14tU\x97@'
tRp3321
tp3322
a(S'YP_003045785.1'
p3323
g3
(g5
S'\x84"\xce\x0e\x8bU\x97@'
tRp3324
tp3325
a(S'YP_003045582.1'
p3326
g3
(g5
S'\x8bn/\xab\x00q\x97@'
tRp3327
tp3328
a(S'YP_003044412.1'
p3329
g3
(g5
S'\xdce\x91\x8eS\x81\x97@'
tRp3330
tp3331
a(S'YP_003045965.1'
p3332
g3
(g5
S'>\xdf\xf1\xdeN\x8e\x97@'
tRp3333
tp3334
a(S'YP_003046086.1'
p3335
g3
(g5
S'Ix\xf0\xfa\xd5\x95\x97@'
tRp3336
tp3337
a(S'YP_003043328.1'
p3338
g3
(g5
S'\x84=\xb8\xcf\xad\xac\x97@'
tRp3339
tp3340
a(S'YP_003045117.1'
p3341
g3
(g5
S'\xf9\xc5b\xb9\x1b\xb1\x97@'
tRp3342
tp3343
a(S'YP_003044248.1'
p3344
g3
(g5
S'\xe5\xe9\xc5\x19B\xb6\x97@'
tRp3345
tp3346
a(S'YP_003045433.1'
p3347
g3
(g5
S'\x17\xa4\xc2\xef\x9f\xd8\x97@'
tRp3348
tp3349
a(S'YP_003045401.1'
p3350
g3
(g5
S'\x0b\x10\xbd\x1c\x14\xeb\x97@'
tRp3351
tp3352
a(S'YP_003043985.1'
p3353
g3
(g5
S'\x1a\t[$\x13\x17\x98@'
tRp3354
tp3355
a(S'YP_003046319.1'
p3356
g3
(g5
S'\xe8P\xb2Q\xf8\x1c\x98@'
tRp3357
tp3358
a(S'YP_003043416.1'
p3359
g3
(g5
S'\xe9\xe4\x98\x9cx&\x98@'
tRp3360
tp3361
a(S'YP_003045797.1'
p3362
g3
(g5
S'\x03q#>\xdd?\x98@'
tRp3363
tp3364
a(S'YP_003045237.1'
p3365
g3
(g5
S'\xa2\xf8\x1cl\x19j\x98@'
tRp3366
tp3367
a(S'YP_003044984.1'
p3368
g3
(g5
S'\x91\xd0\xe1\x10\xcb\x88\x98@'
tRp3369
tp3370
a(S'YP_003045122.1'
p3371
g3
(g5
S'Fr\x12\xd8\xf5\x88\x98@'
tRp3372
tp3373
a(S'YP_003043343.1'
p3374
g3
(g5
S'\xb5\n}?;\xb6\x98@'
tRp3375
tp3376
a(S'YP_003045980.1'
p3377
g3
(g5
S"'\xca\xe90-\xb7\x98@"
tRp3378
tp3379
a(S'YP_003043902.1'
p3380
g3
(g5
S'$n\xd42\xff\xb7\x98@'
tRp3381
tp3382
a(S'YP_003045596.1'
p3383
g3
(g5
S'\x9c\xfd\x7f\x8bp\xd2\x98@'
tRp3384
tp3385
a(S'YP_003043698.1'
p3386
g3
(g5
S'\xb3\xe7\xf4\t\x8c\xf8\x98@'
tRp3387
tp3388
a(S'YP_003044454.1'
p3389
g3
(g5
S'\x05\x97T \x85\xfa\x98@'
tRp3390
tp3391
a(S'YP_003046592.1'
p3392
g3
(g5
S'8\xcd\xb43\x9a\x00\x99@'
tRp3393
tp3394
a(S'YP_003046356.1'
p3395
g3
(g5
S'\x9eu\xa9\x7f\xb4-\x99@'
tRp3396
tp3397
a(S'YP_003047293.1'
p3398
g3
(g5
S'\xe8p\xd90\xd00\x99@'
tRp3399
tp3400
a(S'YP_003046262.1'
p3401
g3
(g5
S'\x1bBlN3<\x99@'
tRp3402
tp3403
a(S'YP_003043669.1'
p3404
g3
(g5
S'\xcc\xd9\x1d]\xc7A\x99@'
tRp3405
tp3406
a(S'YP_003046122.1'
p3407
g3
(g5
S'{|9\x9cTP\x99@'
tRp3408
tp3409
a(S'YP_003043267.1'
p3410
g3
(g5
S'\xff\x0b\x9d\x13z\xad\x99@'
tRp3411
tp3412
a(S'YP_003044451.1'
p3413
g3
(g5
S'\x03\xb8\xe3\xda\xe8\xc0\x99@'
tRp3414
tp3415
a(S'YP_003043560.1'
p3416
g3
(g5
S'zF6\xb1\x12\xe4\x99@'
tRp3417
tp3418
a(S'YP_003045116.1'
p3419
g3
(g5
S'\x9c\x144\rK\xf7\x99@'
tRp3420
tp3421
a(S'YP_003044892.1'
p3422
g3
(g5
S'+\xa1\x90\xecG6\x9a@'
tRp3423
tp3424
a(S'YP_003045647.1'
p3425
g3
(g5
S'\xb5\x05\xac\x99\x14@\x9a@'
tRp3426
tp3427
a(S'YP_003043459.1'
p3428
g3
(g5
S'\xde\xfc\xd5\xceqk\x9a@'
tRp3429
tp3430
a(S'YP_003045351.1'
p3431
g3
(g5
S'\xbf\x10\xc0\xda!\x7f\x9a@'
tRp3432
tp3433
a(S'YP_003046263.1'
p3434
g3
(g5
S'\xd32\xd9X\x9a\x80\x9a@'
tRp3435
tp3436
a(S'YP_003046372.1'
p3437
g3
(g5
S'7&\xdb\x0b\xc7\x8f\x9a@'
tRp3438
tp3439
a(S'YP_003045798.1'
p3440
g3
(g5
S'\x19\xc4Z1\xa0\x9a\x9a@'
tRp3441
tp3442
a(S'YP_003046918.1'
p3443
g3
(g5
S'7\xea\xc0\x95\xda\xa6\x9a@'
tRp3444
tp3445
a(S'YP_003046989.1'
p3446
g3
(g5
S'L\x83\x80^\xb9\xae\x9a@'
tRp3447
tp3448
a(S'YP_003044289.1'
p3449
g3
(g5
S'M\x07\x0c\xae\xbf\xb0\x9a@'
tRp3450
tp3451
a(S'YP_003043330.1'
p3452
g3
(g5
S'\x8d\x97?\xbcS\xbe\x9a@'
tRp3453
tp3454
a(S'YP_003043827.1'
p3455
g3
(g5
S'H\xaa\x81O\xc1\xe4\x9a@'
tRp3456
tp3457
a(S'YP_003044298.1'
p3458
g3
(g5
S'\xec\x97\x8c\x86\xe0\xeb\x9a@'
tRp3459
tp3460
a(S'YP_003045684.1'
p3461
g3
(g5
S'\r\xac>\xb4\xa3\xfc\x9a@'
tRp3462
tp3463
a(S'YP_003045736.1'
p3464
g3
(g5
S'\x8dh?\xe4\xf7\x19\x9b@'
tRp3465
tp3466
a(S'YP_003046353.1'
p3467
g3
(g5
S"\x81'0\xd8+%\x9b@"
tRp3468
tp3469
a(S'YP_003046997.1'
p3470
g3
(g5
S'\r\x94\x06\x13\xbc)\x9b@'
tRp3471
tp3472
a(S'YP_003046274.1'
p3473
g3
(g5
S' xv)\xe4A\x9b@'
tRp3474
tp3475
a(S'YP_003043406.1'
p3476
g3
(g5
S'\x8bj\xb2<4r\x9b@'
tRp3477
tp3478
a(S'YP_003043821.1'
p3479
g3
(g5
S'S\xa3\xb8"\xd9\x7f\x9b@'
tRp3480
tp3481
a(S'YP_003043640.1'
p3482
g3
(g5
S'\x12\x1d\x8b\x15\x9f\x95\x9b@'
tRp3483
tp3484
a(S'YP_003046420.1'
p3485
g3
(g5
S'/\xb1\xdb\xf9\xcb\xa9\x9b@'
tRp3486
tp3487
a(S'YP_003044999.1'
p3488
g3
(g5
S'e\xa3\xfa\xf7d\xd0\x9b@'
tRp3489
tp3490
a(S'YP_003047068.1'
p3491
g3
(g5
S'\xab@S\xfb`\xed\x9b@'
tRp3492
tp3493
a(S'YP_003045580.1'
p3494
g3
(g5
S'\xc5L\x81K\x01\xf0\x9b@'
tRp3495
tp3496
a(S'YP_003043260.1'
p3497
g3
(g5
S'nwN\xf9\x08\xff\x9b@'
tRp3498
tp3499
a(S'YP_003044450.1'
p3500
g3
(g5
S'\x0f\r\xd8\xb2+\x05\x9c@'
tRp3501
tp3502
a(S'YP_003044421.1'
p3503
g3
(g5
S'g\xf7wH\x92\x14\x9c@'
tRp3504
tp3505
a(S'YP_003044881.1'
p3506
g3
(g5
S'K\x10\x15|\x07 \x9c@'
tRp3507
tp3508
a(S'YP_003043308.1'
p3509
g3
(g5
S"b\xdb\xd7\x9a\x9e'\x9c@"
tRp3510
tp3511
a(S'YP_003047411.1'
p3512
g3
(g5
S'\xab-\xaa\xb6\xba9\x9c@'
tRp3513
tp3514
a(S'YP_003045611.1'
p3515
g3
(g5
S'>\x07\xeb#\x9cA\x9c@'
tRp3516
tp3517
a(S'YP_003047260.1'
p3518
g3
(g5
S'<\xc0lE\xeaV\x9c@'
tRp3519
tp3520
a(S'YP_003044371.1'
p3521
g3
(g5
S'\xea\xfb\x10\xc6t\\\x9c@'
tRp3522
tp3523
a(S'YP_003044405.1'
p3524
g3
(g5
S'==\x1e\xc9\x87f\x9c@'
tRp3525
tp3526
a(S'YP_003043346.1'
p3527
g3
(g5
S'\xd0{\xb6\xce\x16g\x9c@'
tRp3528
tp3529
a(S'YP_003044185.1'
p3530
g3
(g5
S'iW\xde\x84\x11k\x9c@'
tRp3531
tp3532
a(S'YP_003046912.1'
p3533
g3
(g5
S'g\x1fk\xf1Qq\x9c@'
tRp3534
tp3535
a(S'YP_003047069.1'
p3536
g3
(g5
S'\xc1\x87\xce\xe7\xb5\x85\x9c@'
tRp3537
tp3538
a(S'YP_003046225.1'
p3539
g3
(g5
S'lo\x82\xacP\xb8\x9c@'
tRp3540
tp3541
a(S'YP_003047239.1'
p3542
g3
(g5
S'\xd4\x16\x8btU\xbe\x9c@'
tRp3543
tp3544
a(S'YP_003044305.1'
p3545
g3
(g5
S'd\x1a\xa8\tZ\xc1\x9c@'
tRp3546
tp3547
a(S'YP_003045123.1'
p3548
g3
(g5
S'\x9e\xdb\x98cI\xef\x9c@'
tRp3549
tp3550
a(S'YP_003046295.1'
p3551
g3
(g5
S'\xa0T\xad<\x10\xfb\x9c@'
tRp3552
tp3553
a(S'YP_003044890.1'
p3554
g3
(g5
S'c\xa5\xfc\x12\x9e\x08\x9d@'
tRp3555
tp3556
a(S'YP_003044223.1'
p3557
g3
(g5
S'\xda3\x91w\xef\t\x9d@'
tRp3558
tp3559
a(S'YP_003043888.1'
p3560
g3
(g5
S'\x84\x85\xc0F\xa2\x16\x9d@'
tRp3561
tp3562
a(S'YP_003046485.1'
p3563
g3
(g5
S'\x8edB3\xd7&\x9d@'
tRp3564
tp3565
a(S'YP_003045559.1'
p3566
g3
(g5
S'\x0f\xac\x07\x10\xc5c\x9d@'
tRp3567
tp3568
a(S'YP_003046731.1'
p3569
g3
(g5
S'|\xae\xee\x17mj\x9d@'
tRp3570
tp3571
a(S'YP_003046208.1'
p3572
g3
(g5
S'\xce\xed\xea\x96I\x9f\x9d@'
tRp3573
tp3574
a(S'YP_003043231.1'
p3575
g3
(g5
S'e\x0b\xed\xbaZ\xb3\x9d@'
tRp3576
tp3577
a(S'YP_003046342.1'
p3578
g3
(g5
S'L_m\xcf\xc9\xb6\x9d@'
tRp3579
tp3580
a(S'YP_003045561.1'
p3581
g3
(g5
S'oi=\x1f\x81\xd8\x9d@'
tRp3582
tp3583
a(S'YP_003046638.1'
p3584
g3
(g5
S'T-?\xccv\xf4\x9d@'
tRp3585
tp3586
a(S'YP_003043650.1'
p3587
g3
(g5
S'\x0e9\xc1\xb9\xbf*\x9e@'
tRp3588
tp3589
a(S'YP_003043382.1'
p3590
g3
(g5
S'\xf7\xb1\xd5\xc4\xc1S\x9e@'
tRp3591
tp3592
a(S'YP_003046299.1'
p3593
g3
(g5
S'\xb9\xc2\x8eF\x17y\x9e@'
tRp3594
tp3595
a(S'YP_003044322.1'
p3596
g3
(g5
S'7}\xf8H\xe8\x88\x9e@'
tRp3597
tp3598
a(S'YP_003045671.1'
p3599
g3
(g5
S'_\xa7]~\x9f\x90\x9e@'
tRp3600
tp3601
a(S'YP_003045125.1'
p3602
g3
(g5
S'\xde\xd0\x8a6\x0e\xaa\x9e@'
tRp3603
tp3604
a(S'YP_003043325.1'
p3605
g3
(g5
S'\x10\xa4\x9cB"\xb5\x9e@'
tRp3606
tp3607
a(S'YP_003043784.1'
p3608
g3
(g5
S'\xc1\x94\x1a\xf3\xcc\xde\x9e@'
tRp3609
tp3610
a(S'YP_003044115.1'
p3611
g3
(g5
S'5\xec\xf7]G\xe1\x9e@'
tRp3612
tp3613
a(S'YP_003046031.1'
p3614
g3
(g5
S'v\x92\x84G\xe7\xe5\x9e@'
tRp3615
tp3616
a(S'YP_003045417.1'
p3617
g3
(g5
S'\x14\\b\xfeL\xed\x9e@'
tRp3618
tp3619
a(S'YP_003044276.1'
p3620
g3
(g5
S'\xc9\xea\xccT!\xee\x9e@'
tRp3621
tp3622
a(S'YP_003043600.1'
p3623
g3
(g5
S'3\xf3\xca\xc9W\xf0\x9e@'
tRp3624
tp3625
a(S'YP_003046340.1'
p3626
g3
(g5
S'\xf8X\xa9;r\n\x9f@'
tRp3627
tp3628
a(S'YP_003043427.1'
p3629
g3
(g5
S'\xf1m\x9am\x17\x0f\x9f@'
tRp3630
tp3631
a(S'YP_003045607.1'
p3632
g3
(g5
S'>\x14\xb3\x0e\x80"\x9f@'
tRp3633
tp3634
a(S'YP_003044315.1'
p3635
g3
(g5
S'\x89\xa9\xc0\xda6\x8a\x9f@'
tRp3636
tp3637
a(S'YP_003046824.1'
p3638
g3
(g5
S'B\x12y%\x97\x97\x9f@'
tRp3639
tp3640
a(S'YP_003046216.1'
p3641
g3
(g5
S'J\xdd|b\xd1\xc8\x9f@'
tRp3642
tp3643
a(S'YP_003045929.1'
p3644
g3
(g5
S'|\xc8\x91\x1a_\xcc\x9f@'
tRp3645
tp3646
a(S'YP_003046892.1'
p3647
g3
(g5
S'\xb1{\xf7\xd5\xef\xd9\x9f@'
tRp3648
tp3649
a(S'YP_003045577.1'
p3650
g3
(g5
S'\x8b\xa7\x8a\x15\xf2\x02\xa0@'
tRp3651
tp3652
a(S'YP_003046637.1'
p3653
g3
(g5
S'\xf8\xa3\x1d\xe4\xe0\x0b\xa0@'
tRp3654
tp3655
a(S'YP_003046384.1'
p3656
g3
(g5
S'w\x8dy\xfb\xde\x1d\xa0@'
tRp3657
tp3658
a(S'YP_003044807.1'
p3659
g3
(g5
S'\x00\xfa[\x01r1\xa0@'
tRp3660
tp3661
a(S'YP_003043903.1'
p3662
g3
(g5
S'}u\xc5\xfe\xc61\xa0@'
tRp3663
tp3664
a(S'YP_003044338.1'
p3665
g3
(g5
S'k[l\x01r8\xa0@'
tRp3666
tp3667
a(S'YP_003046910.1'
p3668
g3
(g5
S'\x05\xe11\xb50L\xa0@'
tRp3669
tp3670
a(S'YP_003044111.1'
p3671
g3
(g5
S'e\x0fW\xa6@S\xa0@'
tRp3672
tp3673
a(S'YP_003044083.1'
p3674
g3
(g5
S'\xae\n\xfc\x16\xac[\xa0@'
tRp3675
tp3676
a(S'YP_003045687.1'
p3677
g3
(g5
S'\x94o2Mio\xa0@'
tRp3678
tp3679
a(S'YP_003045516.1'
p3680
g3
(g5
S'\x88\xa2\xa4\x8d\x8ev\xa0@'
tRp3681
tp3682
a(S'YP_003045738.1'
p3683
g3
(g5
S';\x9a\x92\xde\xa4x\xa0@'
tRp3684
tp3685
a(S'YP_003046980.1'
p3686
g3
(g5
S'e\xd1Z\x0e%\x85\xa0@'
tRp3687
tp3688
a(S'YP_003045414.1'
p3689
g3
(g5
S'C\xa5y\xc7O\x87\xa0@'
tRp3690
tp3691
a(S'YP_003043904.1'
p3692
g3
(g5
S'?i&\xf9\xdd\x8f\xa0@'
tRp3693
tp3694
a(S'YP_003043651.1'
p3695
g3
(g5
S'\x08\n&\xd1F\xa4\xa0@'
tRp3696
tp3697
a(S'YP_003046298.1'
p3698
g3
(g5
S'\x9a\xd2\xf3\x83s\xa9\xa0@'
tRp3699
tp3700
a(S'YP_003044088.1'
p3701
g3
(g5
S'x{c\x18D\xaa\xa0@'
tRp3702
tp3703
a(S'YP_003046334.1'
p3704
g3
(g5
S'\xa1\xe0\xcf\xb4\x14\xc3\xa0@'
tRp3705
tp3706
a(S'YP_003045119.1'
p3707
g3
(g5
S'g\xf5\xff\xd7\x18\xc6\xa0@'
tRp3708
tp3709
a(S'YP_003046220.1'
p3710
g3
(g5
S'\xa0\xcfL\x93A\xd0\xa0@'
tRp3711
tp3712
a(S'YP_003044074.1'
p3713
g3
(g5
S'\xb7\x07\xec\x96\xef\xd4\xa0@'
tRp3714
tp3715
a(S'YP_003044618.1'
p3716
g3
(g5
S'\xc8\xc3]*\xdd\xd7\xa0@'
tRp3717
tp3718
a(S'YP_003044130.1'
p3719
g3
(g5
S'>\x02I\xc2\xd1\xd9\xa0@'
tRp3720
tp3721
a(S'YP_003047211.1'
p3722
g3
(g5
S'u)Dgj\xda\xa0@'
tRp3723
tp3724
a(S'YP_003047036.1'
p3725
g3
(g5
S'\x8cI=O1\xe1\xa0@'
tRp3726
tp3727
a(S'YP_003043412.1'
p3728
g3
(g5
S'L\xab]\xf4\x9a\xe3\xa0@'
tRp3729
tp3730
a(S'YP_003046399.1'
p3731
g3
(g5
S"Q'\xaep\xba\x12\xa1@"
tRp3732
tp3733
a(S'YP_003044648.1'
p3734
g3
(g5
S'Q\xea\xf8\xd7\x8f\x17\xa1@'
tRp3735
tp3736
a(S'YP_003045018.1'
p3737
g3
(g5
S'eBE\x05T\x1c\xa1@'
tRp3738
tp3739
a(S'YP_003043393.1'
p3740
g3
(g5
S'fQA\xdb\xe7.\xa1@'
tRp3741
tp3742
a(S'YP_003044285.1'
p3743
g3
(g5
S'\xb6S\x08\xda\xd41\xa1@'
tRp3744
tp3745
a(S'YP_003044755.1'
p3746
g3
(g5
S'A\x83E\xe0E:\xa1@'
tRp3747
tp3748
a(S'YP_003043391.1'
p3749
g3
(g5
S'\xb7i\xc6\xc8^?\xa1@'
tRp3750
tp3751
a(S'YP_003046221.1'
p3752
g3
(g5
S'\xb3p\x1e\xf1\x0bV\xa1@'
tRp3753
tp3754
a(S'YP_003046223.1'
p3755
g3
(g5
S'\xb3\x97\xe3&\x06b\xa1@'
tRp3756
tp3757
a(S'YP_003046732.1'
p3758
g3
(g5
S'?\xb6\xf3\xd4-f\xa1@'
tRp3759
tp3760
a(S'YP_003045562.1'
p3761
g3
(g5
S'0\x10\x99\xe3\xe9n\xa1@'
tRp3762
tp3763
a(S'YP_003044907.1'
p3764
g3
(g5
S'\x9a\x81^EAy\xa1@'
tRp3765
tp3766
a(S'YP_003044428.1'
p3767
g3
(g5
S'\xcc\xa3\xc6R\xb6\x80\xa1@'
tRp3768
tp3769
a(S'YP_003047103.1'
p3770
g3
(g5
S"P\xd1\x96'\xa1\x8c\xa1@"
tRp3771
tp3772
a(S'YP_003044224.1'
p3773
g3
(g5
S'\xf9J\x16\xde\x0c\xaa\xa1@'
tRp3774
tp3775
a(S'YP_003047214.1'
p3776
g3
(g5
S'\xfd\x99\xa3\xc4\xca\xdc\xa1@'
tRp3777
tp3778
a(S'YP_003046634.1'
p3779
g3
(g5
S'\xa7\x8d\x1a\xf2H\xe9\xa1@'
tRp3780
tp3781
a(S'YP_003043305.1'
p3782
g3
(g5
S'A\x8a\x18\xf8\x01\xf6\xa1@'
tRp3783
tp3784
a(S'YP_003046347.1'
p3785
g3
(g5
S'\x92\x1c3\xd4s\x08\xa2@'
tRp3786
tp3787
a(S'YP_003044302.1'
p3788
g3
(g5
S'K\xfb.\x02T\n\xa2@'
tRp3789
tp3790
a(S'YP_003043924.1'
p3791
g3
(g5
S':\xa0\xac\xa2\xa5\x1c\xa2@'
tRp3792
tp3793
a(S'YP_003046649.1'
p3794
g3
(g5
S'<\xbc\xa9F\x94W\xa2@'
tRp3795
tp3796
a(S'YP_003046422.1'
p3797
g3
(g5
S'\x86\x9b,/H\x8d\xa2@'
tRp3798
tp3799
a(S'YP_003045843.1'
p3800
g3
(g5
S'\x14#\xe8\xf7\xc8\x92\xa2@'
tRp3801
tp3802
a(S'YP_003045272.1'
p3803
g3
(g5
S'\xa5\xa7\x91\xab=\x9d\xa2@'
tRp3804
tp3805
a(S'YP_003043918.1'
p3806
g3
(g5
S'\x1d\xd5\xa5\x18\xf0\xa8\xa2@'
tRp3807
tp3808
a(S'YP_003045017.1'
p3809
g3
(g5
S'A\x04\x19\xe1,\xac\xa2@'
tRp3810
tp3811
a(S'YP_003047436.1'
p3812
g3
(g5
S'H\xfa\x8f\x1a\x10\xb5\xa2@'
tRp3813
tp3814
a(S'YP_003045694.1'
p3815
g3
(g5
S"\x19'B\xf5^\xdb\xa2@"
tRp3816
tp3817
a(S'YP_003046453.1'
p3818
g3
(g5
S'\x87.\xbc<=\xe3\xa2@'
tRp3819
tp3820
a(S'YP_003047031.1'
p3821
g3
(g5
S'\xda\x9c\x84dZ\xe6\xa2@'
tRp3822
tp3823
a(S'YP_003046259.1'
p3824
g3
(g5
S'2\x17\xe5*d\xe8\xa2@'
tRp3825
tp3826
a(S'YP_003046276.1'
p3827
g3
(g5
S'\xf1I(\x15\x11\xed\xa2@'
tRp3828
tp3829
a(S'YP_003045308.1'
p3830
g3
(g5
S'\xf5\x05\x17O\xca\x08\xa3@'
tRp3831
tp3832
a(S'YP_003046797.1'
p3833
g3
(g5
S'\xc3:\xa69\xf3\x0f\xa3@'
tRp3834
tp3835
a(S'YP_003047056.1'
p3836
g3
(g5
S'\x801\xeb\x9b<!\xa3@'
tRp3837
tp3838
a(S'YP_003043422.1'
p3839
g3
(g5
S'\x98\x98$\x88\x90$\xa3@'
tRp3840
tp3841
a(S'YP_003043399.1'
p3842
g3
(g5
S'}bCIl-\xa3@'
tRp3843
tp3844
a(S'YP_003044425.1'
p3845
g3
(g5
S'\x89\x88\x1c\x80u^\xa3@'
tRp3846
tp3847
a(S'YP_003046789.1'
p3848
g3
(g5
S'\xd0 \xf9\x10|j\xa3@'
tRp3849
tp3850
a(S'YP_003044430.1'
p3851
g3
(g5
S'\x8d\xcf\x9c\xeb{p\xa3@'
tRp3852
tp3853
a(S'YP_003047015.1'
p3854
g3
(g5
S'3{\x1f\xdf\x86r\xa3@'
tRp3855
tp3856
a(S'YP_003047055.1'
p3857
g3
(g5
S'j\xe7IZ\x0cx\xa3@'
tRp3858
tp3859
a(S'YP_003043407.1'
p3860
g3
(g5
S'\xa8\x97\xee[\xae\x93\xa3@'
tRp3861
tp3862
a(S'YP_003047060.1'
p3863
g3
(g5
S'\xd2/Aw\x02\x98\xa3@'
tRp3864
tp3865
a(S'YP_003044826.1'
p3866
g3
(g5
S'\xb0nt\x97\xd7\x98\xa3@'
tRp3867
tp3868
a(S'YP_003043612.1'
p3869
g3
(g5
S'\xbf1 !D\xa7\xa3@'
tRp3870
tp3871
a(S'YP_003043348.1'
p3872
g3
(g5
S'x\x9c4\xba\x87\xb4\xa3@'
tRp3873
tp3874
a(S'YP_003046793.1'
p3875
g3
(g5
S'\xa6\xe1\xdf\xa9\xb0\xbe\xa3@'
tRp3876
tp3877
a(S'YP_003044086.1'
p3878
g3
(g5
S'(h7VQ\xc0\xa3@'
tRp3879
tp3880
a(S'YP_003043833.1'
p3881
g3
(g5
S'_"$0\xbb\xc1\xa3@'
tRp3882
tp3883
a(S'YP_003044125.1'
p3884
g3
(g5
S'\xc8\xd4\xdc1\xc4\xd5\xa3@'
tRp3885
tp3886
a(S'YP_003046795.1'
p3887
g3
(g5
S'\xb0 .s\xc9\xf6\xa3@'
tRp3888
tp3889
a(S'YP_003047014.1'
p3890
g3
(g5
S'\xc9\xd7\x9b.\xbc\x0e\xa4@'
tRp3891
tp3892
a(S'YP_003046348.1'
p3893
g3
(g5
S'\xa1\xa6\xe6\xb418\xa4@'
tRp3894
tp3895
a(S'YP_003044946.1'
p3896
g3
(g5
S'0\r\xef\x05\xc3;\xa4@'
tRp3897
tp3898
a(S'YP_003046490.1'
p3899
g3
(g5
S'18\xd7b#@\xa4@'
tRp3900
tp3901
a(S'YP_003046765.1'
p3902
g3
(g5
S'|\x0e\x96x\xd1O\xa4@'
tRp3903
tp3904
a(S'YP_003043266.1'
p3905
g3
(g5
S'\x17\xcd\xe9\x06.U\xa4@'
tRp3906
tp3907
a(S'YP_003043257.1'
p3908
g3
(g5
S'\x1e\x87w.Xm\xa4@'
tRp3909
tp3910
a(S'YP_003046092.1'
p3911
g3
(g5
S'\x8d\xde\x89\x0f\x18\x8b\xa4@'
tRp3912
tp3913
a(S'YP_003045503.1'
p3914
g3
(g5
S'\x89#\xd9\xfe\xad\x93\xa4@'
tRp3915
tp3916
a(S'YP_003044780.1'
p3917
g3
(g5
S'!\x81\xef\xe8(\xad\xa4@'
tRp3918
tp3919
a(S'YP_003047017.1'
p3920
g3
(g5
S'^\x7f\x92yj\xad\xa4@'
tRp3921
tp3922
a(S'YP_003046383.1'
p3923
g3
(g5
S'\xac3l\xc4\xf1\xb9\xa4@'
tRp3924
tp3925
a(S'YP_003046833.1'
p3926
g3
(g5
S'\xcf\xde\x84\xf3D\xe0\xa4@'
tRp3927
tp3928
a(S'YP_003043901.1'
p3929
g3
(g5
S'\x1a\xaa\xf3!\xe3\x0b\xa5@'
tRp3930
tp3931
a(S'YP_003044476.1'
p3932
g3
(g5
S'\tm\x05\xe9^\x11\xa5@'
tRp3933
tp3934
a(S'YP_003046647.1'
p3935
g3
(g5
S'\x8c\xd4\xd2\x0eK\x18\xa5@'
tRp3936
tp3937
a(S'YP_003046004.1'
p3938
g3
(g5
S'>\x01\x1bq;1\xa5@'
tRp3939
tp3940
a(S'YP_003047018.1'
p3941
g3
(g5
S"\xcf4'\xfcgL\xa5@"
tRp3942
tp3943
a(S'YP_003043926.1'
p3944
g3
(g5
S'\x1a\x97\xcfBNR\xa5@'
tRp3945
tp3946
a(S'YP_003044150.1'
p3947
g3
(g5
S'q\xb7\x04#Iw\xa5@'
tRp3948
tp3949
a(S'YP_003044880.1'
p3950
g3
(g5
S'7\xd7\xeaa\x9f\xab\xa5@'
tRp3951
tp3952
a(S'YP_003044303.1'
p3953
g3
(g5
S'#\x17\xee\xeb\x15\xc4\xa5@'
tRp3954
tp3955
a(S'YP_003047295.1'
p3956
g3
(g5
S'\xe7\xffN\x91\\\xc8\xa5@'
tRp3957
tp3958
a(S'YP_003047000.1'
p3959
g3
(g5
S'\x8e\xcd\xc2Y\xef\xca\xa5@'
tRp3960
tp3961
a(S'YP_003046357.1'
p3962
g3
(g5
S'\xe2\x89#\xc3\x1e\xf5\xa5@'
tRp3963
tp3964
a(S'YP_003046385.1'
p3965
g3
(g5
S'4\xc09c\x9d\x15\xa6@'
tRp3966
tp3967
a(S'YP_003047016.1'
p3968
g3
(g5
S'9U\x8b\xee\xe56\xa6@'
tRp3969
tp3970
a(S'YP_003044225.1'
p3971
g3
(g5
S'\xfb\x1f\xd9\x97\xa1i\xa6@'
tRp3972
tp3973
a(S'YP_003044772.1'
p3974
g3
(g5
S'\xf2\xec\x1fv\xc6p\xa6@'
tRp3975
tp3976
a(S'YP_003043743.1'
p3977
g3
(g5
S'\xd6\x90\x831bu\xa6@'
tRp3978
tp3979
a(S'YP_003046835.1'
p3980
g3
(g5
S'\xb9\x9f\xa7V\xc5\x85\xa6@'
tRp3981
tp3982
a(S'YP_003043359.1'
p3983
g3
(g5
S'\xa1[.1\xe1\x98\xa6@'
tRp3984
tp3985
a(S'YP_003045560.1'
p3986
g3
(g5
S'/\x86\x8bn\xca\xb6\xa6@'
tRp3987
tp3988
a(S'YP_003043342.1'
p3989
g3
(g5
S'\xdd\xdf~%\xab\xc5\xa6@'
tRp3990
tp3991
a(S'YP_003045691.1'
p3992
g3
(g5
S'\xf62d\x12\xbb\xce\xa6@'
tRp3993
tp3994
a(S'YP_003045581.1'
p3995
g3
(g5
S'\x1e)i\xc7\xad\xf1\xa6@'
tRp3996
tp3997
a(S'YP_003043237.1'
p3998
g3
(g5
S'^c\xa0\xc5\xe2\xfa\xa6@'
tRp3999
tp4000
a(S'YP_003045639.1'
p4001
g3
(g5
S'~\x9aP\xd6%\x00\xa7@'
tRp4002
tp4003
a(S'YP_003046794.1'
p4004
g3
(g5
S'\xc4\x1b#\xe9w$\xa7@'
tRp4005
tp4006
a(S'YP_003043389.1'
p4007
g3
(g5
S'\xbb\xa09\xcf\x1a)\xa7@'
tRp4008
tp4009
a(S'YP_003043860.1'
p4010
g3
(g5
S'\x91\x9aa\x87I7\xa7@'
tRp4011
tp4012
a(S'YP_003046676.1'
p4013
g3
(g5
S'=L\x02\xddA;\xa7@'
tRp4014
tp4015
a(S'YP_003046648.1'
p4016
g3
(g5
S'S\x84\xb6\x88\x8a\xa7\xa7@'
tRp4017
tp4018
a(S'YP_003043232.1'
p4019
g3
(g5
S'\x9e\xf6\x1d\xd7\xa1\xcd\xa7@'
tRp4020
tp4021
a(S'YP_003043898.1'
p4022
g3
(g5
S'a\xa7`p<\xe9\xa7@'
tRp4023
tp4024
a(S'YP_003044129.1'
p4025
g3
(g5
S'd\xdfg\xdb\x8c\xf5\xa7@'
tRp4026
tp4027
a(S'YP_003045411.1'
p4028
g3
(g5
S'\xa1Ry\xa1>\x17\xa8@'
tRp4029
tp4030
a(S'YP_003046395.1'
p4031
g3
(g5
S' \xc3iO\xf6)\xa8@'
tRp4032
tp4033
a(S'YP_003047078.1'
p4034
g3
(g5
S'm\xdd\xa2\x92**\xa8@'
tRp4035
tp4036
a(S'YP_003046377.1'
p4037
g3
(g5
S'\xcc\x0b\xceG\x1b4\xa8@'
tRp4038
tp4039
a(S'YP_003043648.1'
p4040
g3
(g5
S'\x0e\xa3\xdc\xba\x1cX\xa8@'
tRp4041
tp4042
a(S'YP_003047209.1'
p4043
g3
(g5
S':\xad\xf8a\x18f\xa8@'
tRp4044
tp4045
a(S'YP_003047037.1'
p4046
g3
(g5
S'\xd7\xe4~\x89~o\xa8@'
tRp4047
tp4048
a(S'YP_003045933.1'
p4049
g3
(g5
S'\x8dOSk~\xe9\xa8@'
tRp4050
tp4051
a(S'YP_003045402.1'
p4052
g3
(g5
S'\xeb;\xbf\tP\xf1\xa8@'
tRp4053
tp4054
a(S'YP_003043302.1'
p4055
g3
(g5
S'~\xbd\xd2\xfd<\x19\xa9@'
tRp4056
tp4057
a(S'YP_003043986.1'
p4058
g3
(g5
S'\x00\xed\xab\xf6\xb2,\xa9@'
tRp4059
tp4060
a(S'YP_003045508.1'
p4061
g3
(g5
S'$\x07\xd6\xb9\xf8N\xa9@'
tRp4062
tp4063
a(S'YP_003043906.1'
p4064
g3
(g5
S'\xfb\x9e_\x93\xfc\xa0\xa9@'
tRp4065
tp4066
a(S'YP_003045426.1'
p4067
g3
(g5
S'\x14\xcd\x0e\xa4Q\xa5\xa9@'
tRp4068
tp4069
a(S'YP_003046967.1'
p4070
g3
(g5
S'\xeb\xd4\xd4\xe9\xde\xd9\xa9@'
tRp4071
tp4072
a(S'YP_003046827.1'
p4073
g3
(g5
S'\xd4\xf5\xb7\xc7\xed\xf2\xa9@'
tRp4074
tp4075
a(S'YP_003043999.1'
p4076
g3
(g5
S'\x9f\x86\xf3\xc2}\x0f\xaa@'
tRp4077
tp4078
a(S'YP_003044317.1'
p4079
g3
(g5
S'\x0fI!\xbb\x89\x0f\xaa@'
tRp4080
tp4081
a(S'YP_003046355.1'
p4082
g3
(g5
S'\x95\x98\xf3<\x98\x1c\xaa@'
tRp4083
tp4084
a(S'YP_003045563.1'
p4085
g3
(g5
S'\x83\xe7d\xbe8\x1d\xaa@'
tRp4086
tp4087
a(S'YP_003043446.1'
p4088
g3
(g5
S'zg\xfe\xaf\x0cT\xaa@'
tRp4089
tp4090
a(S'YP_003045590.1'
p4091
g3
(g5
S'\xb0h\xa4\x87\x91\xa3\xaa@'
tRp4092
tp4093
a(S'YP_003044448.1'
p4094
g3
(g5
S' \xc2i\xd4f\xa8\xaa@'
tRp4095
tp4096
a(S'YP_003047265.1'
p4097
g3
(g5
S'w"\x9d\xd5\xc3\xb2\xaa@'
tRp4098
tp4099
a(S'YP_003045440.1'
p4100
g3
(g5
S'Q\xd8YM8\xc3\xaa@'
tRp4101
tp4102
a(S'YP_003044557.1'
p4103
g3
(g5
S'E\xb5\xfc\xb4\x8a\xd1\xaa@'
tRp4104
tp4105
a(S'YP_003045413.1'
p4106
g3
(g5
S'"\x95|?\xe8\xdf\xaa@'
tRp4107
tp4108
a(S'YP_003044447.1'
p4109
g3
(g5
S'\xb3\x0e\xdd\x92\x0b\x0e\xab@'
tRp4110
tp4111
a(S'YP_003044133.1'
p4112
g3
(g5
S'\x16\xd2\xf2\xff\xc5=\xab@'
tRp4113
tp4114
a(S'YP_003044308.1'
p4115
g3
(g5
S'q\xfb/\x0b\x07D\xab@'
tRp4116
tp4117
a(S'YP_003046341.1'
p4118
g3
(g5
S'\xe7\xbd\xecK\xaf|\xab@'
tRp4119
tp4120
a(S'YP_003043424.1'
p4121
g3
(g5
S'\xbe\x1d\xc1=\x9c\xaa\xab@'
tRp4122
tp4123
a(S'YP_003045109.1'
p4124
g3
(g5
S'\xea\xf8\x01X\x92\x08\xac@'
tRp4125
tp4126
a(S'YP_003043303.1'
p4127
g3
(g5
S'3h]G\xc0%\xac@'
tRp4128
tp4129
a(S'YP_003045277.1'
p4130
g3
(g5
S'\xd3\x0f\xc6\x10q(\xac@'
tRp4131
tp4132
a(S'YP_003045507.1'
p4133
g3
(g5
S'\xb90\xb4\xf34\\\xac@'
tRp4134
tp4135
a(S'YP_003046278.1'
p4136
g3
(g5
S'\xeaM\xe0Y\xdc\xe3\xac@'
tRp4137
tp4138
a(S'YP_003047256.1'
p4139
g3
(g5
S'\xcb\x98S\xed\x07\x10\xad@'
tRp4140
tp4141
a(S'YP_003045953.1'
p4142
g3
(g5
S'E\x04\xa6\xca\xa5<\xad@'
tRp4143
tp4144
a(S'YP_003044134.1'
p4145
g3
(g5
S'\x82\xa1\x0bD\xbfB\xad@'
tRp4146
tp4147
a(S'YP_003043233.1'
p4148
g3
(g5
S'r\x16\xf0J\xb9\x99\xad@'
tRp4149
tp4150
a(S'YP_003043859.1'
p4151
g3
(g5
S'\n\xb5\x122\xe6\xeb\xad@'
tRp4152
tp4153
a(S'YP_003046352.1'
p4154
g3
(g5
S'?Y\xc8\xbd\x86-\xae@'
tRp4155
tp4156
a(S'YP_003046818.1'
p4157
g3
(g5
S'\x1d]7\xda\x13\x9d\xae@'
tRp4158
tp4159
a(S'YP_003047322.1'
p4160
g3
(g5
S'"L\'\xebu\xe2\xaf@'
tRp4161
tp4162
a(S'YP_003047033.1'
p4163
g3
(g5
S'0a8\x83Q:\xb0@'
tRp4164
tp4165
a(S'YP_003047034.1'
p4166
g3
(g5
S'=a\xdc\xf9\xe7T\xb0@'
tRp4167
tp4168
a(S'YP_003043925.1'
p4169
g3
(g5
S'Vk\xd7\xd6\xdeU\xb0@'
tRp4170
tp4171
a(S'YP_003047032.1'
p4172
g3
(g5
S'\x05\xb8i\xd8ia\xb0@'
tRp4173
tp4174
a(S'YP_003046929.1'
p4175
g3
(g5
S'\xaf+)8\x13f\xb0@'
tRp4176
tp4177
a(S'YP_003044927.1'
p4178
g3
(g5
S'\x97\xef<\x7f\xcd}\xb0@'
tRp4179
tp4180
a(S'YP_003043919.1'
p4181
g3
(g5
S'\xc3\xe2\xf63\xf1\xb0\xb0@'
tRp4182
tp4183
a(S'YP_003046576.1'
p4184
g3
(g5
S'\n\xce+\xd9\x99\xc1\xb0@'
tRp4185
tp4186
a(S'YP_003043304.1'
p4187
g3
(g5
S'%\x04\xe6mB\x16\xb1@'
tRp4188
tp4189
a(S'YP_003043511.1'
p4190
g3
(g5
S'\xab\xec\xbc9.\x17\xb1@'
tRp4191
tp4192
a(S'YP_003043699.1'
p4193
g3
(g5
S'\xb2\xe9o\xd9C\xc2\xb1@'
tRp4194
tp4195
a(S'YP_003044106.1'
p4196
g3
(g5
S'GN\x07\xeb:\xc3\xb1@'
tRp4197
tp4198
a(S'YP_003047184.1'
p4199
g3
(g5
S'M\r\xf0\xec=\xcd\xb1@'
tRp4200
tp4201
a(S'YP_003043997.1'
p4202
g3
(g5
S'\x19\xef\x9ew\x98\xf2\xb1@'
tRp4203
tp4204
a(S'YP_003046468.1'
p4205
g3
(g5
S'\xb7\xbb\x05^`\xf8\xb1@'
tRp4206
tp4207
a(S'YP_003043795.1'
p4208
g3
(g5
S'|\x00??\x03*\xb2@'
tRp4209
tp4210
a(S'YP_003043397.1'
p4211
g3
(g5
S'\x93z\xa4\x9c\t\x92\xb2@'
tRp4212
tp4213
a(S'YP_003044886.1'
p4214
g3
(g5
S"\x14d\xf1\x1f'\xa9\xb2@"
tRp4215
tp4216
a(S'YP_003043613.1'
p4217
g3
(g5
S'"\x8b\x82z\xd3\xae\xb2@'
tRp4218
tp4219
a(S'YP_003043701.1'
p4220
g3
(g5
S',a]\xa3\\\xc5\xb2@'
tRp4221
tp4222
a(S'YP_003046685.1'
p4223
g3
(g5
S'\x17`\xe8\xfb\xdb\xd4\xb2@'
tRp4224
tp4225
a(S'YP_003046346.1'
p4226
g3
(g5
S'\xc3.\\\xa9\xcb\xde\xb2@'
tRp4227
tp4228
a(S'YP_003044598.1'
p4229
g3
(g5
S'qK\xe9g\x96,\xb3@'
tRp4230
tp4231
a(S'YP_003046351.1'
p4232
g3
(g5
S'\xc5\xf4\xc9\xd2\xbbO\xb3@'
tRp4233
tp4234
a(S'YP_003044306.1'
p4235
g3
(g5
S'\x9fz~`\x1fs\xb3@'
tRp4236
tp4237
a(S'YP_003044110.1'
p4238
g3
(g5
S'\x014/\xa8\xc4s\xb3@'
tRp4239
tp4240
a(S'YP_003043425.1'
p4241
g3
(g5
S'-e\xbcr-\x95\xb3@'
tRp4242
tp4243
a(S'YP_003046792.1'
p4244
g3
(g5
S'\xff<\xfd\x9f\x8c\xe3\xb3@'
tRp4245
tp4246
a(S'YP_003046809.1'
p4247
g3
(g5
S'\xe1\xaa{^6\xec\xb3@'
tRp4248
tp4249
a(S'YP_003045275.1'
p4250
g3
(g5
S'"H(T\xd6\xfc\xb3@'
tRp4251
tp4252
a(S'YP_003046331.1'
p4253
g3
(g5
S'\x06\x86E%\xae\x00\xb4@'
tRp4254
tp4255
a(S'YP_003043396.1'
p4256
g3
(g5
S'\xe4\xca\xde\xea\xff\t\xb4@'
tRp4257
tp4258
a(S'YP_003045600.1'
p4259
g3
(g5
S'\x85\xa1p\xe5E!\xb4@'
tRp4260
tp4261
a(S'YP_003046791.1'
p4262
g3
(g5
S'\x85\xf5\xb8\xb6\xdbd\xb4@'
tRp4263
tp4264
a(S'YP_003046344.1'
p4265
g3
(g5
S'\xc4\t\x9c\x86:{\xb4@'
tRp4266
tp4267
a(S'YP_003045960.1'
p4268
g3
(g5
S',\xa8\xac\x9b\xfa\x87\xb4@'
tRp4269
tp4270
a(S'YP_003044990.1'
p4271
g3
(g5
S'\x99c-\x03_\x9c\xb4@'
tRp4272
tp4273
a(S'YP_003043614.1'
p4274
g3
(g5
S'\xa9\xdfT\x0c\xd9\xab\xb4@'
tRp4275
tp4276
a(S'YP_003045932.1'
p4277
g3
(g5
S'\x17\xde0TPF\xb5@'
tRp4278
tp4279
a(S'YP_003044512.1'
p4280
g3
(g5
S'C\x81|\xdbpX\xb5@'
tRp4281
tp4282
a(S'YP_003046332.1'
p4283
g3
(g5
S'_\xb6\xbeq\x18c\xb5@'
tRp4284
tp4285
a(S'YP_003043618.1'
p4286
g3
(g5
S'\xdb\x06\xca.\xb7\x7f\xb5@'
tRp4287
tp4288
a(S'YP_003046350.1'
p4289
g3
(g5
S'$j\x91O_\xb6\xb5@'
tRp4290
tp4291
a(S'YP_003047240.1'
p4292
g3
(g5
S'\xb4=\xb0\x12z\xe1\xb5@'
tRp4293
tp4294
a(S'YP_003043842.1'
p4295
g3
(g5
S'\x85j\xc9\xe3Q6\xb6@'
tRp4296
tp4297
a(S'YP_003046217.1'
p4298
g3
(g5
S'\xbb\xcaM\x83\x99Z\xb7@'
tRp4299
tp4300
a(S'YP_003044811.1'
p4301
g3
(g5
S'\x05\x85\xcet5h\xb8@'
tRp4302
tp4303
a(S'YP_003046281.1'
p4304
g3
(g5
S'\xda\x8c\x01\x94\xb5V\xb9@'
tRp4305
tp4306
a(S'YP_003043581.1'
p4307
g3
(g5
S'\xca]U\x7f\xc6a\xb9@'
tRp4308
tp4309
a(S'YP_003045944.1'
p4310
g3
(g5
S'&\x10\x88\xb7\xaf\xa6\xb9@'
tRp4311
tp4312
a(S'YP_003046304.1'
p4313
g3
(g5
S'u\x06B\xd0\x8e%\xba@'
tRp4314
tp4315
a(S'YP_003046994.1'
p4316
g3
(g5
S'\xffH\x90f\xec\x8e\xba@'
tRp4317
tp4318
a(S'YP_003046812.1'
p4319
g3
(g5
S'\xbft\xa2B4\xa1\xba@'
tRp4320
tp4321
a(S'YP_003046977.1'
p4322
g3
(g5
S'$G\xb5\xcd\x88\xa6\xba@'
tRp4323
tp4324
a(S'YP_003044152.1'
p4325
g3
(g5
S'.\xe9^\xe4:\xd1\xba@'
tRp4326
tp4327
a(S'YP_003043243.1'
p4328
g3
(g5
S'\x97\xef$\xb0a\x0f\xbb@'
tRp4329
tp4330
a(S'YP_003045633.1'
p4331
g3
(g5
S'B\xaeY\xde\x91o\xbb@'
tRp4332
tp4333
a(S'YP_003047050.1'
p4334
g3
(g5
S'\xcc\x14\x9c7o\x00\xbc@'
tRp4335
tp4336
a(S'YP_003045945.1'
p4337
g3
(g5
S'@n\xf5\xef\xbb\x17\xbc@'
tRp4338
tp4339
a(S'YP_003045104.1'
p4340
g3
(g5
S'\xd5\x9b\xaf\xec\xbb)\xbc@'
tRp4341
tp4342
a(S'YP_003046796.1'
p4343
g3
(g5
S'\xee,K\x08\xa1B\xbc@'
tRp4344
tp4345
a(S'YP_003046823.1'
p4346
g3
(g5
S'\xc3\xa7\xba\xf3\xf6@\xbd@'
tRp4347
tp4348
a(S'YP_003046526.1'
p4349
g3
(g5
S'r\xd05kHB\xbd@'
tRp4350
tp4351
a(S'YP_003046376.1'
p4352
g3
(g5
S'\xf3\xfc\x14\x86\xc0S\xbd@'
tRp4353
tp4354
a(S'YP_003044426.1'
p4355
g3
(g5
S'\xdf\xd0(m\xb8\xbc\xbd@'
tRp4356
tp4357
a(S'YP_003046492.1'
p4358
g3
(g5
S'{\xa9\xabQf\x0b\xbe@'
tRp4359
tp4360
a(S'YP_003044179.1'
p4361
g3
(g5
S'\x8a4\xa6_Mn\xbe@'
tRp4362
tp4363
a(S'YP_003044309.1'
p4364
g3
(g5
S'\r\xe61\xedS&\xc0@'
tRp4365
tp4366
a(S'YP_003046882.1'
p4367
g3
(g5
S'd\x7fE|\xacF\xc0@'
tRp4368
tp4369
a(S'YP_003047237.1'
p4370
g3
(g5
S'x\xed\xd9\xd2UU\xc1@'
tRp4371
tp4372
a(S'YP_003045813.1'
p4373
g3
(g5
S'E\x07\x8a\x04\x17\x0c\xc2@'
tRp4374
tp4375
a(S'YP_003043772.1'
p4376
g3
(g5
S'\xdc72\xe6\xb5\xa2\xc2@'
tRp4377
tp4378
a(S'YP_003043609.1'
p4379
g3
(g5
S'S\xcc\xc9?\xfc\xe1\xc2@'
tRp4380
tp4381
a(S'YP_003043373.1'
p4382
g3
(g5
S'\x9dx\xd1\x1f\xa9\xcd\xc3@'
tRp4383
tp4384
a(S'YP_003045506.1'
p4385
g3
(g5
S'\x05\x9d{\xf3\xca\x81\xc5@'
tRp4386
tp4387
a(S'YP_003046339.1'
p4388
g3
(g5
S'&\xf5\xce\xf1\xa0\xb0\xc6@'
tRp4389
tp4390
a(S'YP_003045505.1'
p4391
g3
(g5
S'/\xbd\x99\xd7?\x86\xc8@'
tRp4392
tp4393
a(S'YP_003047035.1'
p4394
g3
(g5
S'@\xdc\xc9\xeb\xdb\x95\xcf@'
tRp4395
tp4396
a(S'YP_003044945.1'
p4397
g3
(g5
S'x6\xbb\x90J\xde\xd1@'
tRp4398
tp4399
a(S'YP_003047029.1'
p4400
g3
(g5
S'\x85\x86\xe7\x0b\xa6.\xd7@'
tRp4401
tp4402
a(S'YP_003046375.1'
p4403
g3
(g5
S'\xeb^\x8e\x81\x9fP\xd7@'
tRp4404
tp4405
a(S'YP_003044438.1'
p4406
g3
(g5
S'\xff\xcd?\x96)\xc5\xd7@'
tRp4407
tp4408
a.