(lp1
(S'YP_003047377.1'
p2
cnumpy.core.multiarray
scalar
p3
(cnumpy
dtype
p4
(S'f8'
I0
I1
tRp5
(I3
S'<'
NNNI-1
I-1
I0
tbS'\xe5&\x19\x89\x1cn\x0b@'
tRp6
tp7
a(S'YP_003045899.1'
p8
g3
(g5
S'\xb6\x1eZ3\x99\x85\x10@'
tRp9
tp10
a(S'YP_003045239.1'
p11
g3
(g5
S'\xfa\xe2\x91\x07\x9c^\x15@'
tRp12
tp13
a(S'YP_003044634.1'
p14
g3
(g5
S'\xf0\x07\xac\xa6?\xa3\x17@'
tRp15
tp16
a(S'YP_003045856.1'
p17
g3
(g5
S'!\x899\x10\xf9\x9f\x19@'
tRp18
tp19
a(S'YP_003043825.1'
p20
g3
(g5
S'\r\xb1\xb8\xc1~\xb9\x1b@'
tRp21
tp22
a(S'YP_003046514.1'
p23
g3
(g5
S'DI$~\xca@\x1d@'
tRp24
tp25
a(S'YP_003045330.1'
p26
g3
(g5
S'i\xea\xc6\x94F\xb3\x1e@'
tRp27
tp28
a(S'YP_003043314.1'
p29
g3
(g5
S'QT\r\xef\xe3\x86\x1f@'
tRp30
tp31
a(S'YP_003045855.1'
p32
g3
(g5
S'\xbcE\x00\xfc\xe9\xca\x1f@'
tRp33
tp34
a(S'YP_003043376.1'
p35
g3
(g5
S'I\x9bQ\x01\xa1\x85 @'
tRp36
tp37
a(S'YP_003043708.1'
p38
g3
(g5
S'\xb0\xf3\n\x84\x02\x9e!@'
tRp39
tp40
a(S'YP_003045299.1'
p41
g3
(g5
S'\xa6B)\xac\xc78"@'
tRp42
tp43
a(S'YP_003047288.1'
p44
g3
(g5
S'bVR\xb9f9"@'
tRp45
tp46
a(S'YP_003044823.1'
p47
g3
(g5
S'\xf3\n\xd4e\xe0q"@'
tRp48
tp49
a(S'YP_003047061.1'
p50
g3
(g5
S'=\xe1\xe2\xb4\xb8\xee#@'
tRp51
tp52
a(S'YP_003046501.1'
p53
g3
(g5
S'\x80\x9a\xf1\xda\xe6\xf7#@'
tRp54
tp55
a(S'YP_003044498.1'
p56
g3
(g5
S'\x00\xe0\xdb\xed\x93\xc9$@'
tRp57
tp58
a(S'YP_003045755.1'
p59
g3
(g5
S'n\x0e\xb5\x94\xab?%@'
tRp60
tp61
a(S'YP_003043984.1'
p62
g3
(g5
S' \xdc\xd9\\>l&@'
tRp63
tp64
a(S'YP_003045693.1'
p65
g3
(g5
S'K\xe1\xe6\x99\xda\xcf&@'
tRp66
tp67
a(S'YP_003044417.1'
p68
g3
(g5
S'\xda\xb5\xb6\xbb\x85\xf1&@'
tRp69
tp70
a(S'YP_003043871.1'
p71
g3
(g5
S"\xcd\xfd\xf2\xca\xd6F'@"
tRp72
tp73
a(S'YP_003045326.1'
p74
g3
(g5
S"\xaa\x16!(\xf2V'@"
tRp75
tp76
a(S'YP_003046781.1'
p77
g3
(g5
S'\xdf\xc5\x12\x80\xdb\x8b(@'
tRp78
tp79
a(S'YP_003045887.1'
p80
g3
(g5
S'\xf6p\x9cnD\xaf(@'
tRp81
tp82
a(S'YP_003043394.1'
p83
g3
(g5
S'\xf4)W\xe3\xfel)@'
tRp84
tp85
a(S'YP_003047009.1'
p86
g3
(g5
S'\x88\xf1\xc1\xea\xb7\xe3*@'
tRp87
tp88
a(S'YP_003045631.1'
p89
g3
(g5
S'\xe4\x8fO,6o+@'
tRp90
tp91
a(S'YP_003043503.1'
p92
g3
(g5
S'\xd5\x03;\x8f\xf8\xf7+@'
tRp93
tp94
a(S'YP_003043692.1'
p95
g3
(g5
S'\xafb6\x80\xc9\x04,@'
tRp96
tp97
a(S'YP_003044537.1'
p98
g3
(g5
S'pm\xc0\xaa\xfds,@'
tRp99
tp100
a(S'YP_003044960.1'
p101
g3
(g5
S'\xd4X6\x1c\x90g-@'
tRp102
tp103
a(S'YP_003046603.1'
p104
g3
(g5
S'\xd9\xf4\xe0\xcc\xe0j-@'
tRp105
tp106
a(S'YP_003047113.1'
p107
g3
(g5
S'\xfaHo\xea\xd7w-@'
tRp108
tp109
a(S'YP_003044194.1'
p110
g3
(g5
S'\x94\x89\xdd\x85t\x7f-@'
tRp111
tp112
a(S'YP_003047010.1'
p113
g3
(g5
S'\x805bR=\xa9-@'
tRp114
tp115
a(S'YP_003043736.1'
p116
g3
(g5
S'o\xf9\xa0\x827\xef-@'
tRp117
tp118
a(S'YP_003044779.1'
p119
g3
(g5
S'&s=\xcb\x94J.@'
tRp120
tp121
a(S'YP_003046374.1'
p122
g3
(g5
S'\xfe)\x88\x01\xdd\xa9/@'
tRp123
tp124
a(S'YP_003046166.1'
p125
g3
(g5
S'\x98>\xc4\xff\x81\x9f0@'
tRp126
tp127
a(S'YP_003044381.1'
p128
g3
(g5
S'\xa8\xb3\xcaa\x82\xe70@'
tRp129
tp130
a(S'YP_003045013.1'
p131
g3
(g5
S'\xd9p}\x14\xd9\xeb0@'
tRp132
tp133
a(S'YP_003043979.1'
p134
g3
(g5
S'\xeb\xef2\x9a\x9f\xf10@'
tRp135
tp136
a(S'YP_003047006.1'
p137
g3
(g5
S'\x02{\xe6h\xbe*1@'
tRp138
tp139
a(S'YP_003045148.1'
p140
g3
(g5
S'\x85\x01.\xcf\xd2E1@'
tRp141
tp142
a(S'YP_003043673.1'
p143
g3
(g5
S'\xb8\xcf1x\xd0T1@'
tRp144
tp145
a(S'YP_003045075.1'
p146
g3
(g5
S'\x9aNf\xd5\x93n1@'
tRp147
tp148
a(S'YP_003043617.1'
p149
g3
(g5
S'\x12\xc8\xd5WA\xa81@'
tRp150
tp151
a(S'YP_003044070.1'
p152
g3
(g5
S'\xed\x17\x0b!\xdc\xd71@'
tRp153
tp154
a(S'YP_003045344.1'
p155
g3
(g5
S'\xa1\xec\xfcge>2@'
tRp156
tp157
a(S'YP_003044092.1'
p158
g3
(g5
S"\xa9f\xc0\x80'r2@"
tRp159
tp160
a(S'YP_003045471.1'
p161
g3
(g5
S'8\xd8\x1b\xaa\x96\x842@'
tRp162
tp163
a(S'YP_003046549.1'
p164
g3
(g5
S'\xdf\x7f\xe5lg\x1f3@'
tRp165
tp166
a(S'YP_003047223.1'
p167
g3
(g5
S'\xcaFy\x0e\xaad3@'
tRp168
tp169
a(S'YP_003046394.1'
p170
g3
(g5
S'\xc2Z\x130\xb1\xb83@'
tRp171
tp172
a(S'YP_003043249.1'
p173
g3
(g5
S'\x9e\xe8u\xce\xdd\x1f5@'
tRp174
tp175
a(S'YP_003047375.1'
p176
g3
(g5
S'\x96-\x15n=95@'
tRp177
tp178
a(S'YP_003047244.1'
p179
g3
(g5
S'x\xcd\xc8l\xedu5@'
tRp180
tp181
a(S'YP_003044563.1'
p182
g3
(g5
S'|\xd4\x92u\xd8\x9b6@'
tRp183
tp184
a(S'YP_003044235.1'
p185
g3
(g5
S'k\xcfa\x91\xec\x1e7@'
tRp186
tp187
a(S'YP_003043754.1'
p188
g3
(g5
S's\xde\xa28\x88\xdc7@'
tRp189
tp190
a(S'YP_003045049.1'
p191
g3
(g5
S'\xed,\xb4\xae\x00\xe88@'
tRp192
tp193
a(S'YP_003046493.1'
p194
g3
(g5
S'.l\xe7\xc0\xcd\x8a9@'
tRp195
tp196
a(S'YP_003046902.1'
p197
g3
(g5
S'C3%\xf1\xdf\xe1:@'
tRp198
tp199
a(S'YP_003045872.1'
p200
g3
(g5
S'\xd9D\xf3\x92H-;@'
tRp201
tp202
a(S'YP_003044391.1'
p203
g3
(g5
S'\x89\xc9h\xc4eF;@'
tRp204
tp205
a(S'YP_003044763.1'
p206
g3
(g5
S'\x9aRW\xc3\xf6\xad;@'
tRp207
tp208
a(S'YP_003043951.1'
p209
g3
(g5
S'\xd8\x17\xf9\x8dr\xf7;@'
tRp210
tp211
a(S'YP_003046772.1'
p212
g3
(g5
S'Kf\xd5\x89\x13O<@'
tRp213
tp214
a(S'YP_003045107.1'
p215
g3
(g5
S'\xa4w\x97\x10\xd6e<@'
tRp216
tp217
a(S'YP_003045167.1'
p218
g3
(g5
S'#\xaeK\xcc\x8c\xfc<@'
tRp219
tp220
a(S'YP_003046077.1'
p221
g3
(g5
S'u\xe8\x05\x0ed\x9c=@'
tRp222
tp223
a(S'YP_003047413.1'
p224
g3
(g5
S'9|T\x960\xec>@'
tRp225
tp226
a(S'YP_003044335.1'
p227
g3
(g5
S'@\x18\x89\x13\tt?@'
tRp228
tp229
a(S'YP_003046759.1'
p230
g3
(g5
S'\xc8<\xe0\xa6\xae\x11@@'
tRp231
tp232
a(S'YP_003046195.1'
p233
g3
(g5
S'\xd61\xd6\x18\x93:@@'
tRp234
tp235
a(S'YP_003044607.1'
p236
g3
(g5
S'\x8e\xbeR\xae\x9fY@@'
tRp237
tp238
a(S'YP_003045311.1'
p239
g3
(g5
S'8\xabU\x91\x91\x8b@@'
tRp240
tp241
a(S'YP_003047027.1'
p242
g3
(g5
S'\xfb\x1d\xa0J\x04\xe2@@'
tRp243
tp244
a(S'YP_003044014.1'
p245
g3
(g5
S'I\xd4\x83\x86\xa8\x02A@'
tRp246
tp247
a(S'YP_003045527.1'
p248
g3
(g5
S"'\x93\x892\x167A@"
tRp249
tp250
a(S'YP_003047381.1'
p251
g3
(g5
S')\xc5\xfe\x9f\xb1CA@'
tRp252
tp253
a(S'YP_003046667.1'
p254
g3
(g5
S'\x89P}lJ}A@'
tRp255
tp256
a(S'YP_003043494.1'
p257
g3
(g5
S'OW\xbf)\x95\xb2A@'
tRp258
tp259
a(S'YP_003045388.1'
p260
g3
(g5
S'\xf7n\x1e\xe0q\xbfA@'
tRp261
tp262
a(S'YP_003045300.1'
p263
g3
(g5
S'D\xf6S\xa5\xbe$B@'
tRp264
tp265
a(S'YP_003043794.1'
p266
g3
(g5
S'q\x96\x02\x96\xe2CB@'
tRp267
tp268
a(S'YP_003045657.1'
p269
g3
(g5
S'\xe5Tkff\xd3B@'
tRp270
tp271
a(S'YP_003047132.1'
p272
g3
(g5
S'[w"S\x8d\xd4B@'
tRp273
tp274
a(S'YP_003044137.1'
p275
g3
(g5
S'\x9b?\x913\xd7#C@'
tRp276
tp277
a(S'YP_003043388.1'
p278
g3
(g5
S'R\xf5\xc6\x12\x8a%C@'
tRp279
tp280
a(S'YP_003046726.1'
p281
g3
(g5
S'\xec\xcd\xe3\x98\xbbUC@'
tRp282
tp283
a(S'YP_003043385.1'
p284
g3
(g5
S'\x7f(\xa7\x8a\x0cjC@'
tRp285
tp286
a(S'YP_003044344.1'
p287
g3
(g5
S'![7\x9flrC@'
tRp288
tp289
a(S'YP_003043289.1'
p290
g3
(g5
S'\xdfU\x83\x91\x81\x93C@'
tRp291
tp292
a(S'YP_003044138.1'
p293
g3
(g5
S'\xabz\xa2s`\xd2C@'
tRp294
tp295
a(S'YP_003046830.1'
p296
g3
(g5
S'\x11\xe7\xbc\xe7`\x07D@'
tRp297
tp298
a(S'YP_003044304.1'
p299
g3
(g5
S'Y\xf5\xb5\xaf\x85GD@'
tRp300
tp301
a(S'YP_003045858.1'
p302
g3
(g5
S'\xda\xbd\xc0\xa7!MD@'
tRp303
tp304
a(S'YP_003047251.1'
p305
g3
(g5
S'\xa8\xbf5!\x9bOD@'
tRp306
tp307
a(S'YP_003046551.1'
p308
g3
(g5
S'\x80\xfdk5\x8fmD@'
tRp309
tp310
a(S'YP_003045177.1'
p311
g3
(g5
S'\xfd\x17\xa1\xc9\xd4\x82D@'
tRp312
tp313
a(S'YP_003045046.1'
p314
g3
(g5
S'\xfb#v\x9a\xe0\xbaD@'
tRp315
tp316
a(S'YP_003045864.1'
p317
g3
(g5
S'\\\x14\xa3\x94\xce\xc9D@'
tRp318
tp319
a(S'YP_003046416.1'
p320
g3
(g5
S'\xb8\xe3Q\xfe\x88\x18E@'
tRp321
tp322
a(S'YP_003044578.1'
p323
g3
(g5
S'\xe8Ui\x8f\x917E@'
tRp324
tp325
a(S'YP_003044112.1'
p326
g3
(g5
S'\x91a\xed\xca\xf0\x8eE@'
tRp327
tp328
a(S'YP_003047373.1'
p329
g3
(g5
S'z{\xfe\xc2h\xc0E@'
tRp330
tp331
a(S'YP_003043644.1'
p332
g3
(g5
S'\x8f\x920a\xd8\xf0E@'
tRp333
tp334
a(S'YP_003044482.1'
p335
g3
(g5
S'\xa4\x1e\x1a=\xa01F@'
tRp336
tp337
a(S'YP_003044184.1'
p338
g3
(g5
S'aC\xa0\x86\x85OF@'
tRp339
tp340
a(S'YP_003044269.1'
p341
g3
(g5
S'zNQ\x04\x00eF@'
tRp342
tp343
a(S'YP_003045914.1'
p344
g3
(g5
S'<\xe4\xc1\x8f7\xeeF@'
tRp345
tp346
a(S'YP_003044216.1'
p347
g3
(g5
S'k\x9bc4\xda\x0cG@'
tRp348
tp349
a(S'YP_003046129.1'
p350
g3
(g5
S'^3\x19\xb3/_G@'
tRp351
tp352
a(S'YP_003046436.1'
p353
g3
(g5
S'<\xad\xcf\xe7\xcc\xa0G@'
tRp354
tp355
a(S'YP_003046729.1'
p356
g3
(g5
S'Ep\x9dbK\xc9G@'
tRp357
tp358
a(S'YP_003045003.1'
p359
g3
(g5
S'\xb9\x91n>&\x03H@'
tRp360
tp361
a(S'YP_003045820.1'
p362
g3
(g5
S'\x12q\xb6_\x1dhH@'
tRp363
tp364
a(S'YP_003043820.1'
p365
g3
(g5
S'!$F\xd4\xbf\xd4H@'
tRp366
tp367
a(S'YP_003045988.1'
p368
g3
(g5
S'\xef\x94]\xdd6\xf1H@'
tRp369
tp370
a(S'YP_003043526.1'
p371
g3
(g5
S'$L@\xa4V\x1bI@'
tRp372
tp373
a(S'YP_003044415.1'
p374
g3
(g5
S'5 \x11:9CI@'
tRp375
tp376
a(S'YP_003044640.1'
p377
g3
(g5
S'\x14\x17[\xf0D{I@'
tRp378
tp379
a(S'YP_003045642.1'
p380
g3
(g5
S'@[\x16\xd4\x87\xd3I@'
tRp381
tp382
a(S'YP_003044215.1'
p383
g3
(g5
S'\x02\x9d.\r\xb7*J@'
tRp384
tp385
a(S'YP_003046111.1'
p386
g3
(g5
S'9\x8b\xbdaA[J@'
tRp387
tp388
a(S'YP_003045638.1'
p389
g3
(g5
S'\xdb\x96\xa2\x07;\x8fJ@'
tRp390
tp391
a(S'YP_003045278.1'
p392
g3
(g5
S'\xa8T\x0b\x07\xb9\x95J@'
tRp393
tp394
a(S'YP_003047108.1'
p395
g3
(g5
S':\x03\xd6:\x13iK@'
tRp396
tp397
a(S'YP_003044899.1'
p398
g3
(g5
S'X\x1b\xdcT\xf8jK@'
tRp399
tp400
a(S'YP_003043411.1'
p401
g3
(g5
S'\x01R\xef\xf3\xae\xfbK@'
tRp402
tp403
a(S'YP_003044102.1'
p404
g3
(g5
S'\xbd\xd8\xab\xdc\\hL@'
tRp405
tp406
a(S'YP_003043418.1'
p407
g3
(g5
S'\xe9\xee\xf9\x8c\xc1\xe1L@'
tRp408
tp409
a(S'YP_003044687.1'
p410
g3
(g5
S'\xc6\x8b\x06@t\x7fM@'
tRp411
tp412
a(S'YP_003046696.1'
p413
g3
(g5
S'dY\xfd\xde\xa2\xc3M@'
tRp414
tp415
a(S'YP_003046643.1'
p416
g3
(g5
S'\x16@\x17\x00\x93fN@'
tRp417
tp418
a(S'YP_003045431.1'
p419
g3
(g5
S'\x8a\x81\xe9\xbd\t\xeaN@'
tRp420
tp421
a(S'YP_003044936.1'
p422
g3
(g5
S'\x84\xda\x06\x9cV+O@'
tRp423
tp424
a(S'YP_003044479.1'
p425
g3
(g5
S'<\xe2\'\x98"wO@'
tRp426
tp427
a(S'YP_003046467.1'
p428
g3
(g5
S'\x06\x16`\x84m\xe5O@'
tRp429
tp430
a(S'YP_003046863.1'
p431
g3
(g5
S'\x84\x82\x07\x86\x8a\x08P@'
tRp432
tp433
a(S'YP_003044791.1'
p434
g3
(g5
S'\x88\xaa\x03\xf5\x03VP@'
tRp435
tp436
a(S'YP_003044002.1'
p437
g3
(g5
S'\xd7\xaa\xdb\xac`YP@'
tRp438
tp439
a(S'YP_003046159.1'
p440
g3
(g5
S'\xfe\x0b3<\xc3\xe9P@'
tRp441
tp442
a(S'YP_003044300.1'
p443
g3
(g5
S'\xa1\xb4\x03O\x03QQ@'
tRp444
tp445
a(S'YP_003045163.1'
p446
g3
(g5
S'P\xa6U\x8e"\xa6Q@'
tRp447
tp448
a(S'YP_003043647.1'
p449
g3
(g5
S'\x9f\x06B\xee\x81\xe5Q@'
tRp450
tp451
a(S'YP_003046145.1'
p452
g3
(g5
S'\xb4\xaeO\xaf\xad\xe5Q@'
tRp453
tp454
a(S'YP_003045591.1'
p455
g3
(g5
S'\xcd%&?M\xf3Q@'
tRp456
tp457
a(S'YP_003045986.1'
p458
g3
(g5
S'\xa6\x1a7U\xcd$R@'
tRp459
tp460
a(S'YP_003043506.1'
p461
g3
(g5
S'\xa38\x0c\n\xe3lR@'
tRp462
tp463
a(S'YP_003046666.1'
p464
g3
(g5
S'\x08\xfe;\xb0zwR@'
tRp465
tp466
a(S'YP_003046559.1'
p467
g3
(g5
S'\x83\xfb\x0e\xce\x8d\xa3R@'
tRp468
tp469
a(S'YP_003047422.1'
p470
g3
(g5
S'\xbaP\x7f\x82G\xacR@'
tRp471
tp472
a(S'YP_003044280.1'
p473
g3
(g5
S'\xe3p\xe1\x03\x06\xd4R@'
tRp474
tp475
a(S'YP_003046688.1'
p476
g3
(g5
S'V\xa8\xaa8\xfc\xdeR@'
tRp477
tp478
a(S'YP_003044889.1'
p479
g3
(g5
S'\x13;B\xf0U\xe3R@'
tRp480
tp481
a(S'YP_003045159.1'
p482
g3
(g5
S'\x94\x9b\x08GF\xeaR@'
tRp483
tp484
a(S'YP_003044379.1'
p485
g3
(g5
S'\xb9\x8a!\x02UwS@'
tRp486
tp487
a(S'YP_003045663.1'
p488
g3
(g5
S'\x80<\x04\xb0\xba\xa8S@'
tRp489
tp490
a(S'YP_003043572.1'
p491
g3
(g5
S'tL\xea%o\xe2S@'
tRp492
tp493
a(S'YP_003044787.1'
p494
g3
(g5
S'\xb5<h\xd7[eT@'
tRp495
tp496
a(S'YP_003043670.1'
p497
g3
(g5
S'B\xaev\xae\xfehT@'
tRp498
tp499
a(S'YP_003044546.1'
p500
g3
(g5
S'\x15\xfe&\xaf\x0fqT@'
tRp501
tp502
a(S'YP_003043430.1'
p503
g3
(g5
S'\xa1\x13\xc85X\x98T@'
tRp504
tp505
a(S'YP_003045865.1'
p506
g3
(g5
S'%\n\xea\x89\xe4\xdcT@'
tRp507
tp508
a(S'YP_003045981.1'
p509
g3
(g5
S'\xbe\xaa:\x88&\x16U@'
tRp510
tp511
a(S'YP_003044400.1'
p512
g3
(g5
S'\x90\x1dk@\xd7#U@'
tRp513
tp514
a(S'YP_003043830.1'
p515
g3
(g5
S'\xdd\x81\t\x93\xaf3U@'
tRp516
tp517
a(S'YP_003043845.1'
p518
g3
(g5
S'c\x1e\xfd\xd6`6U@'
tRp519
tp520
a(S'YP_003046651.1'
p521
g3
(g5
S'PA\xfc\x81\xe9>U@'
tRp522
tp523
a(S'YP_003046325.1'
p524
g3
(g5
S'nF/\x03\x81\xaeU@'
tRp525
tp526
a(S'YP_003044171.1'
p527
g3
(g5
S'\xb1\xd4\x1a\xd2\x9e\xb8U@'
tRp528
tp529
a(S'YP_003045534.1'
p530
g3
(g5
S'\x98L\xbb\xe2t\xc3U@'
tRp531
tp532
a(S'YP_003047207.1'
p533
g3
(g5
S'G\x8a\xa6\x0e1\x1bV@'
tRp534
tp535
a(S'YP_003045002.1'
p536
g3
(g5
S'A\xf6\xf6\x02\xaf\x1dV@'
tRp537
tp538
a(S'YP_003045927.1'
p539
g3
(g5
S'\x8c\xf4\x04\xa0\x9e7V@'
tRp540
tp541
a(S'YP_003046146.1'
p542
g3
(g5
S'\x88R\xef\x1f%?V@'
tRp543
tp544
a(S'YP_003044874.1'
p545
g3
(g5
S'\x86\xec\xbb[QNV@'
tRp546
tp547
a(S'YP_003046125.1'
p548
g3
(g5
S'\x875\x04\x8flkV@'
tRp549
tp550
a(S'YP_003043641.1'
p551
g3
(g5
S'\xc3\xd6_\xca\x80nV@'
tRp552
tp553
a(S'YP_003044107.1'
p554
g3
(g5
S')O\xaax\x0f\xa8V@'
tRp555
tp556
a(S'YP_003045051.1'
p557
g3
(g5
S'\xbaD\xba<\x13\xdbV@'
tRp558
tp559
a(S'YP_003047374.1'
p560
g3
(g5
S'\xd3\xa3\xe6\x87P\xefV@'
tRp561
tp562
a(S'YP_003046090.1'
p563
g3
(g5
S'\xd7c\x97\x10\xfd\x10W@'
tRp564
tp565
a(S'YP_003045092.1'
p566
g3
(g5
S'\x7f=c\x85\r\x11W@'
tRp567
tp568
a(S'YP_003046466.1'
p569
g3
(g5
S'%\xb8\xc3\xcd\xe0;W@'
tRp570
tp571
a(S'YP_003044910.1'
p572
g3
(g5
S'yK\xf0\xf8\x94IW@'
tRp573
tp574
a(S'YP_003047378.1'
p575
g3
(g5
S'\xe4\x06sH\x8bKW@'
tRp576
tp577
a(S'YP_003044788.1'
p578
g3
(g5
S'\xc98\x1a\xa0\xaf\\W@'
tRp579
tp580
a(S'YP_003047004.1'
p581
g3
(g5
S'\x92-cXv`W@'
tRp582
tp583
a(S'YP_003046946.1'
p584
g3
(g5
S'!F\x8fQ7\x89W@'
tRp585
tp586
a(S'YP_003044981.1'
p587
g3
(g5
S'\xfd\xa8f`\xa9\xc7W@'
tRp588
tp589
a(S'YP_003043759.1'
p590
g3
(g5
S'\xb8Q\x14\xd9\xec\xefW@'
tRp591
tp592
a(S'YP_003043447.1'
p593
g3
(g5
S'\xd0\x0c\xf4d\xb3\x16X@'
tRp594
tp595
a(S'YP_003046329.1'
p596
g3
(g5
S'-t\xbcc\xee\x1bX@'
tRp597
tp598
a(S'YP_003047287.1'
p599
g3
(g5
S'\xb5\n\x1cq\xcd\x1cX@'
tRp600
tp601
a(S'YP_003046121.1'
p602
g3
(g5
S'\xa7\xcaC\xe4Z2X@'
tRp603
tp604
a(S'YP_003045791.1'
p605
g3
(g5
S']\rPl:KX@'
tRp606
tp607
a(S'YP_003044291.1'
p608
g3
(g5
S'm\x1e\xb0XhKX@'
tRp609
tp610
a(S'YP_003047170.1'
p611
g3
(g5
S'_3]\xae\xcdtX@'
tRp612
tp613
a(S'YP_003046075.1'
p614
g3
(g5
S'\xd3\x05C\x9b\xe1\x81X@'
tRp615
tp616
a(S'YP_003044617.1'
p617
g3
(g5
S'\x19C\xe9\xdd/\x91X@'
tRp618
tp619
a(S'YP_003044971.1'
p620
g3
(g5
S'\xef\xd6\xcf\xf5u\x92X@'
tRp621
tp622
a(S'YP_003045740.1'
p623
g3
(g5
S'\xa8Ue\x92!\xa8X@'
tRp624
tp625
a(S'YP_003045578.1'
p626
g3
(g5
S'~_l/f\xacX@'
tRp627
tp628
a(S'YP_003046701.1'
p629
g3
(g5
S'\x16/\xfeCG\xf3X@'
tRp630
tp631
a(S'YP_003044470.1'
p632
g3
(g5
S'\xd1\x80\x9c\xb1\x90\rY@'
tRp633
tp634
a(S'YP_003044294.1'
p635
g3
(g5
S"\xdf\xe2O\xa8\xe9'Y@"
tRp636
tp637
a(S'YP_003046915.1'
p638
g3
(g5
S'G;\xa6\x9c\x82GY@'
tRp639
tp640
a(S'YP_003046841.1'
p641
g3
(g5
S'\xa9\xdc\xfa\x16gaY@'
tRp642
tp643
a(S'YP_003044191.1'
p644
g3
(g5
S'e\x0bXh\x84\xc7Y@'
tRp645
tp646
a(S'YP_003044144.1'
p647
g3
(g5
S'\xbf\xb4yS\x12\xe6Y@'
tRp648
tp649
a(S'YP_003044104.1'
p650
g3
(g5
S'\x85\n\x00\xe2=\xe8Y@'
tRp651
tp652
a(S'YP_003044597.1'
p653
g3
(g5
S'\xcfm\x18\x99r%Z@'
tRp654
tp655
a(S'YP_003046952.1'
p656
g3
(g5
S'pd$?\xc9VZ@'
tRp657
tp658
a(S'YP_003045425.1'
p659
g3
(g5
S'\xfce\xbc\x0c\xf9\x83Z@'
tRp660
tp661
a(S'YP_003043282.1'
p662
g3
(g5
S'\x10}\xf9\xf7W\x15[@'
tRp663
tp664
a(S'YP_003046087.1'
p665
g3
(g5
S'YH`\xb1\xd5\x1f[@'
tRp666
tp667
a(S'YP_003046975.1'
p668
g3
(g5
S'G5<K\x98 [@'
tRp669
tp670
a(S'YP_003044153.1'
p671
g3
(g5
S'\x90\x9b\xe5\xf6\xbf6[@'
tRp672
tp673
a(S'YP_003045511.1'
p674
g3
(g5
S'\xf2\x1fc\x0b\x9fS[@'
tRp675
tp676
a(S'YP_003043561.1'
p677
g3
(g5
S'c\xf0s\xc7\xb6e[@'
tRp678
tp679
a(S'YP_003047297.1'
p680
g3
(g5
S'\xec\xe5\xfd\xaa\xa6l[@'
tRp681
tp682
a(S'YP_003046260.1'
p683
g3
(g5
S'%\xf1\xd2`\x13s[@'
tRp684
tp685
a(S'YP_003047049.1'
p686
g3
(g5
S'\x99n\r\x00\x85\x84[@'
tRp687
tp688
a(S'YP_003044522.1'
p689
g3
(g5
S'8\xbc\x17\xef\x1c\x89[@'
tRp690
tp691
a(S'YP_003045014.1'
p692
g3
(g5
S'\x1ei\x07\xae{\x89[@'
tRp693
tp694
a(S'YP_003046658.1'
p695
g3
(g5
S'\xc5\x80N\xce\x94~\\@'
tRp696
tp697
a(S'YP_003046499.1'
p698
g3
(g5
S'\x05:\xda\x9f\x8e\x8c\\@'
tRp699
tp700
a(S'YP_003045296.1'
p701
g3
(g5
S'\x05\xc8~\x97J\x92\\@'
tRp702
tp703
a(S'YP_003043436.1'
p704
g3
(g5
S'KX\xc8\xa5y\x9d\\@'
tRp705
tp706
a(S'YP_003045279.1'
p707
g3
(g5
S'\xb3\x91\x98\xf5\xa1\xb7\\@'
tRp708
tp709
a(S'YP_003045019.1'
p710
g3
(g5
S'.\xcb.W\xda\xe5\\@'
tRp711
tp712
a(S'YP_003046459.1'
p713
g3
(g5
S'\xb7@\xb7\x1c\x9a/]@'
tRp714
tp715
a(S'YP_003043527.1'
p716
g3
(g5
S'\x0f\xa4\xe9RK@]@'
tRp717
tp718
a(S'YP_003045550.1'
p719
g3
(g5
S'!~\xd3\xbe\x0cD]@'
tRp720
tp721
a(S'YP_003045821.1'
p722
g3
(g5
S'hg\xa9\xb5K\x89]@'
tRp723
tp724
a(S'YP_003046625.1'
p725
g3
(g5
S'\xb2w\xa0\xbb)\xda]@'
tRp726
tp727
a(S'YP_003045026.1'
p728
g3
(g5
S'\xeb\xd2Ej\xb8\x02^@'
tRp729
tp730
a(S'YP_003047275.1'
p731
g3
(g5
S'\xe7\xfa\xf4\x99\x15\x15^@'
tRp732
tp733
a(S'YP_003047354.1'
p734
g3
(g5
S'\xeb\x01\x90\xc7U\x1a^@'
tRp735
tp736
a(S'YP_003043934.1'
p737
g3
(g5
S'\xa5\xc9W\xcaV%^@'
tRp738
tp739
a(S'YP_003046943.1'
p740
g3
(g5
S'\xcd\x99\xb8lk\xe5^@'
tRp741
tp742
a(S'YP_003047120.1'
p743
g3
(g5
S'\x12\xe3\xc8G&\x03_@'
tRp744
tp745
a(S'YP_003045670.1'
p746
g3
(g5
S'\xf95\xb1\xe7P\x18_@'
tRp747
tp748
a(S'YP_003045971.1'
p749
g3
(g5
S'U\x90RIP5_@'
tRp750
tp751
a(S'YP_003046558.1'
p752
g3
(g5
S'b^\xe23y>_@'
tRp753
tp754
a(S'YP_003047259.1'
p755
g3
(g5
S'|\xf4~\x1d\x15p_@'
tRp756
tp757
a(S'YP_003043977.1'
p758
g3
(g5
S'\xc2;0\xcb/\x9c_@'
tRp759
tp760
a(S'YP_003046983.1'
p761
g3
(g5
S'\x95\xad{B\x91\xd1_@'
tRp762
tp763
a(S'YP_003044510.1'
p764
g3
(g5
S'\xb1w\x90zD\xed_@'
tRp765
tp766
a(S'YP_003044427.1'
p767
g3
(g5
S'\xa8\xd1.\xa6\xf2\n`@'
tRp768
tp769
a(S'YP_003046686.1'
p770
g3
(g5
S'\xa1\x83\xc7E\xec\x11`@'
tRp771
tp772
a(S'YP_003045685.1'
p773
g3
(g5
S'i<\x86\x90m\x13`@'
tRp774
tp775
a(S'YP_003045060.1'
p776
g3
(g5
S'g[1T\x99\x15`@'
tRp777
tp778
a(S'YP_003045343.1'
p779
g3
(g5
S'\x88M\xe4\x91k9`@'
tRp780
tp781
a(S'YP_003045602.1'
p782
g3
(g5
S'l\x9d\xcd\xfd2p`@'
tRp783
tp784
a(S'YP_003044173.1'
p785
g3
(g5
S'\x14g\tqDp`@'
tRp786
tp787
a(S'YP_003044920.1'
p788
g3
(g5
S'\x94\xa0\t\x82O\x86`@'
tRp789
tp790
a(S'YP_003043964.1'
p791
g3
(g5
S'\xff\xeb\x0e3\x0b\xe5`@'
tRp792
tp793
a(S'YP_003043959.1'
p794
g3
(g5
S'Z\x9e\xf4\xe72\x19a@'
tRp795
tp796
a(S'YP_003045281.1'
p797
g3
(g5
S'/\xee\xab\x16\x944a@'
tRp798
tp799
a(S'YP_003043992.1'
p800
g3
(g5
S'\\\xfc\xe8\xe3\xbb4a@'
tRp801
tp802
a(S'YP_003044589.1'
p803
g3
(g5
S'\xe4\xc9\x99\xbf\xf5ra@'
tRp804
tp805
a(S'YP_003046926.1'
p806
g3
(g5
S'\xaa\xae\x90\xa7\xe2za@'
tRp807
tp808
a(S'YP_003044099.1'
p809
g3
(g5
S'&_\x12\xed\xcb{a@'
tRp810
tp811
a(S'YP_003045290.1'
p812
g3
(g5
S'\x0e\x14\xa2{A\x86a@'
tRp813
tp814
a(S'YP_003046864.1'
p815
g3
(g5
S':\xa8W<$\xa7a@'
tRp816
tp817
a(S'YP_003043781.1'
p818
g3
(g5
S'Z\x93O\xab\t\xafa@'
tRp819
tp820
a(S'YP_003044143.1'
p821
g3
(g5
S'Q\x7fi\xdd\x1e\xdba@'
tRp822
tp823
a(S'YP_003046669.1'
p824
g3
(g5
S'\xa6?\x87P)\xe2a@'
tRp825
tp826
a(S'YP_003045197.1'
p827
g3
(g5
S'\xb4x\x7f\x0e\xca\xe3a@'
tRp828
tp829
a(S'YP_003047355.1'
p830
g3
(g5
S'\xca\xd3f\xa0\xda\x05b@'
tRp831
tp832
a(S'YP_003046973.1'
p833
g3
(g5
S'\x14\x87\xe3\xb2\x15\x11b@'
tRp834
tp835
a(S'YP_003044661.1'
p836
g3
(g5
S'4U\xd75\x0b\x1bb@'
tRp837
tp838
a(S'YP_003046488.1'
p839
g3
(g5
S'\x0b>\xf6\x8c89b@'
tRp840
tp841
a(S'YP_003045637.1'
p842
g3
(g5
S'c\xab<h\xb5Ib@'
tRp843
tp844
a(S'YP_003046992.1'
p845
g3
(g5
S'\x9f\xbfo\xb6\xafPb@'
tRp846
tp847
a(S'YP_003044478.1'
p848
g3
(g5
S'\x8b\xd1\xd1\xf5bQb@'
tRp849
tp850
a(S'YP_003044685.1'
p851
g3
(g5
S'\x10\x08\xe7>lQb@'
tRp852
tp853
a(S'YP_003045649.1'
p854
g3
(g5
S'\x1a\xfc{\x06Q\\b@'
tRp855
tp856
a(S'YP_003044025.1'
p857
g3
(g5
S'\xc3\x9ai\x9c\x8avb@'
tRp858
tp859
a(S'YP_003043982.1'
p860
g3
(g5
S'\x98\xd5\x9e\\c\xc4b@'
tRp861
tp862
a(S'YP_003046294.1'
p863
g3
(g5
S'\xf6\x8dj\xf1:\xe8b@'
tRp864
tp865
a(S'YP_003045220.1'
p866
g3
(g5
S'\xd1\xbf\xc1m7\x18c@'
tRp867
tp868
a(S'YP_003046976.1'
p869
g3
(g5
S'\xa9#\xb2%\x1d!c@'
tRp870
tp871
a(S'YP_003046874.1'
p872
g3
(g5
S'\xa6\xf4\xd6\xe1\xdf%c@'
tRp873
tp874
a(S'YP_003047083.1'
p875
g3
(g5
S'x\r\xdb\x99KUc@'
tRp876
tp877
a(S'YP_003047208.1'
p878
g3
(g5
S'q\xeb\xaf%.\\c@'
tRp879
tp880
a(S'YP_003044468.1'
p881
g3
(g5
S'@*\xd4Po\\c@'
tRp882
tp883
a(S'YP_003045445.1'
p884
g3
(g5
S'\xbf\x94\xf4\x83\x99gc@'
tRp885
tp886
a(S'YP_003045405.1'
p887
g3
(g5
S'rJ0\xb5o\x83c@'
tRp888
tp889
a(S'YP_003047408.1'
p890
g3
(g5
S'\xa1S\r\xb6\x8b\x92c@'
tRp891
tp892
a(S'YP_003046831.1'
p893
g3
(g5
S'\xb6j6j(\x96c@'
tRp894
tp895
a(S'YP_003045583.1'
p896
g3
(g5
S'\xb8\xd0\x98\xc0(\xb9c@'
tRp897
tp898
a(S'YP_003044835.1'
p899
g3
(g5
S'\xf7\x8d\xf7\xcd,\xb9c@'
tRp900
tp901
a(S'YP_003045108.1'
p902
g3
(g5
S'!\xd9g\xaf\x18\xdbc@'
tRp903
tp904
a(S'YP_003046523.1'
p905
g3
(g5
S'5\x06l\xbc>\xefc@'
tRp906
tp907
a(S'YP_003046005.1'
p908
g3
(g5
S'\x96X\x04\xfc\x95\xf3c@'
tRp909
tp910
a(S'YP_003046671.1'
p911
g3
(g5
S'c\x11\n\xff\x99\x1dd@'
tRp912
tp913
a(S'YP_003044123.1'
p914
g3
(g5
S'T\xefm\xf9#-d@'
tRp915
tp916
a(S'YP_003044035.1'
p917
g3
(g5
S'\x8b\x1c\x9c\xf4G.d@'
tRp918
tp919
a(S'YP_003047077.1'
p920
g3
(g5
S'#\xec7\x9d\x840d@'
tRp921
tp922
a(S'YP_003043429.1'
p923
g3
(g5
S'Md\xd5G\x04gd@'
tRp924
tp925
a(S'YP_003046519.1'
p926
g3
(g5
S'FM\x1d\xb8Jid@'
tRp927
tp928
a(S'YP_003046494.1'
p929
g3
(g5
S'\xc6\xa5\x9c\x90\x82wd@'
tRp930
tp931
a(S'YP_003043355.1'
p932
g3
(g5
S'sAFQ\xb6\x80d@'
tRp933
tp934
a(S'YP_003045438.1'
p935
g3
(g5
S'\xdb\x8c\xae\xcd%\x9dd@'
tRp936
tp937
a(S'YP_003043410.1'
p938
g3
(g5
S'\x1f(U\xae\xf4\xafd@'
tRp939
tp940
a(S'YP_003045091.1'
p941
g3
(g5
S'*\xacj\x07\x1a\xb5d@'
tRp942
tp943
a(S'YP_003044753.1'
p944
g3
(g5
S'\x9a\xb9\x9eW\x98\xd4d@'
tRp945
tp946
a(S'YP_003046138.1'
p947
g3
(g5
S']\x07G\xd5\xae=e@'
tRp948
tp949
a(S'YP_003045697.1'
p950
g3
(g5
S'SI\xc5\xbc\xbeAe@'
tRp951
tp952
a(S'YP_003044091.1'
p953
g3
(g5
S'\xb2`\x06\xa3\xdfEe@'
tRp954
tp955
a(S'YP_003046802.1'
p956
g3
(g5
S']\x0b\x18L5_e@'
tRp957
tp958
a(S'YP_003046050.1'
p959
g3
(g5
S'\xfcV\n`\x17he@'
tRp960
tp961
a(S'YP_003047227.1'
p962
g3
(g5
S'\x9e\xda2\xee\xd0\x8ee@'
tRp963
tp964
a(S'YP_003047197.1'
p965
g3
(g5
S'\x9f\xe3mb\xb5\xbce@'
tRp966
tp967
a(S'YP_003046556.1'
p968
g3
(g5
S'\x92\xc4\xfe\xbf\xda\xc7e@'
tRp969
tp970
a(S'YP_003043929.1'
p971
g3
(g5
S'\xa42n\x06\xb0\xd2e@'
tRp972
tp973
a(S'YP_003044146.1'
p974
g3
(g5
S'\x8aj\xca\x9a\xfc\xdce@'
tRp975
tp976
a(S'YP_003043415.1'
p977
g3
(g5
S'TY\x0c*=\xf3e@'
tRp978
tp979
a(S'YP_003046627.1'
p980
g3
(g5
S'g\xef\x84\xdd\xa2\xfde@'
tRp981
tp982
a(S'YP_003046747.1'
p983
g3
(g5
S'mPR\xd3\x19\x1cf@'
tRp984
tp985
a(S'YP_003045818.1'
p986
g3
(g5
S'\xb2\x93\xfdM\x83:f@'
tRp987
tp988
a(S'YP_003045847.1'
p989
g3
(g5
S'q\xa3\xd5\xf3UMf@'
tRp990
tp991
a(S'YP_003046108.1'
p992
g3
(g5
S'\xc45)y7Rf@'
tRp993
tp994
a(S'YP_003045584.1'
p995
g3
(g5
S'\xd5\x14Op#]f@'
tRp996
tp997
a(S'YP_003045849.1'
p998
g3
(g5
S'j\xba\x81B\x91kf@'
tRp999
tp1000
a(S'YP_003044854.1'
p1001
g3
(g5
S'`\xf3\xa2\x840mf@'
tRp1002
tp1003
a(S'YP_003043550.1'
p1004
g3
(g5
S'\xe8Iv+\x9dsf@'
tRp1005
tp1006
a(S'YP_003046215.1'
p1007
g3
(g5
S'\xb5n5\xc1\xa3sf@'
tRp1008
tp1009
a(S'YP_003043552.1'
p1010
g3
(g5
S'W\x9b{\x90j\x8ff@'
tRp1011
tp1012
a(S'YP_003043409.1'
p1013
g3
(g5
S')}\xec\xbcj\xcaf@'
tRp1014
tp1015
a(S'YP_003046927.1'
p1016
g3
(g5
S',\n\x01\xd5\xb8(g@'
tRp1017
tp1018
a(S'YP_003046497.1'
p1019
g3
(g5
S'/\x88\r \xfaBg@'
tRp1020
tp1021
a(S'YP_003044007.1'
p1022
g3
(g5
S'\xffU\xbc8D\xabg@'
tRp1023
tp1024
a(S'YP_003044615.1'
p1025
g3
(g5
S'sKWfwkh@'
tRp1026
tp1027
a(S'YP_003046392.1'
p1028
g3
(g5
S'\x06\x82\x1c\xfb\x1d\x9dh@'
tRp1029
tp1030
a(S'YP_003045509.1'
p1031
g3
(g5
S'\xda\t\x85\x9cJ\xb9h@'
tRp1032
tp1033
a(S'YP_003046785.1'
p1034
g3
(g5
S'\xfa\x9ag\xd0\x85\xc4h@'
tRp1035
tp1036
a(S'YP_003047398.1'
p1037
g3
(g5
S'\xde\xdc\xdb\x83\xd7\xc5h@'
tRp1038
tp1039
a(S'YP_003047025.1'
p1040
g3
(g5
S'\x9d\xda\x0f\x08\t\xech@'
tRp1041
tp1042
a(S'YP_003044109.1'
p1043
g3
(g5
S'\xb5\x0201\xce\x06i@'
tRp1044
tp1045
a(S'YP_003043849.1'
p1046
g3
(g5
S"'9\xf261)i@"
tRp1047
tp1048
a(S'YP_003043461.1'
p1049
g3
(g5
S'\xb0B\xb8\x03\x97<i@'
tRp1050
tp1051
a(S'YP_003047153.1'
p1052
g3
(g5
S'!oa\xe3@Hi@'
tRp1053
tp1054
a(S'YP_003045096.1'
p1055
g3
(g5
S'9\x0c&?\x1egi@'
tRp1056
tp1057
a(S'YP_003046853.1'
p1058
g3
(g5
S'=m)\xb0\xaeli@'
tRp1059
tp1060
a(S'YP_003043579.1'
p1061
g3
(g5
S'\xe5v\x04\x1a\x03\xa6i@'
tRp1062
tp1063
a(S'YP_003043593.1'
p1064
g3
(g5
S's\xd2\xd3\xf9\xd7\xbai@'
tRp1065
tp1066
a(S'YP_003046657.1'
p1067
g3
(g5
S'\xa0\x7f\xa1G\x03\x07j@'
tRp1068
tp1069
a(S'YP_003043597.1'
p1070
g3
(g5
S'O;\xbdf\xa50j@'
tRp1071
tp1072
a(S'YP_003046396.1'
p1073
g3
(g5
S'\xc9\xa0v\xe8x:j@'
tRp1074
tp1075
a(S'YP_003045313.1'
p1076
g3
(g5
S'\xeb}\xd7\x01ioj@'
tRp1077
tp1078
a(S'YP_003047404.1'
p1079
g3
(g5
S'\xb8\xb5\xae\x1f\xf4\x86j@'
tRp1080
tp1081
a(S'YP_003046094.1'
p1082
g3
(g5
S'\xef\x7fz\xe3+\x91j@'
tRp1083
tp1084
a(S'YP_003046909.1'
p1085
g3
(g5
S'\x9f\x87\xfc\xf7z\xabj@'
tRp1086
tp1087
a(S'YP_003045276.1'
p1088
g3
(g5
S'}\x89*\xa0\x9b\xb6j@'
tRp1089
tp1090
a(S'YP_003043443.1'
p1091
g3
(g5
S'\xff\x1arS\xbf\xcaj@'
tRp1092
tp1093
a(S'YP_003045609.1'
p1094
g3
(g5
S'A\xd1\xd0\xe7F\xefj@'
tRp1095
tp1096
a(S'YP_003043374.1'
p1097
g3
(g5
S'\xac\x90\xcb\x05\x82\xf8j@'
tRp1098
tp1099
a(S'YP_003046763.1'
p1100
g3
(g5
S'B\xcf[`\x93\x04k@'
tRp1101
tp1102
a(S'YP_003043844.1'
p1103
g3
(g5
S"\x84\x9cX\xfc'\x08k@"
tRp1104
tp1105
a(S'YP_003044912.1'
p1106
g3
(g5
S'\x92\n\x0e\x91E\x10k@'
tRp1107
tp1108
a(S'YP_003045880.1'
p1109
g3
(g5
S'\xd6v\xed\x9e\xd4@k@'
tRp1110
tp1111
a(S'YP_003045790.1'
p1112
g3
(g5
S'%\xbd}\xb4\x1a\x99k@'
tRp1113
tp1114
a(S'YP_003045772.1'
p1115
g3
(g5
S'\x01\xefl\xf6\xe5\xb8k@'
tRp1116
tp1117
a(S'YP_003046222.1'
p1118
g3
(g5
S'\x84\xc2\x0f:\xf0\xedk@'
tRp1119
tp1120
a(S'YP_003046668.1'
p1121
g3
(g5
S'\x13\x80\xdc\x1d!\x10l@'
tRp1122
tp1123
a(S'YP_003044458.1'
p1124
g3
(g5
S'\xafw\xbd\xb8\xb6=l@'
tRp1125
tp1126
a(S'YP_003045089.1'
p1127
g3
(g5
S'k\x17\x94\xd8\xddhl@'
tRp1128
tp1129
a(S'YP_003044380.1'
p1130
g3
(g5
S'\xc6\xe8\x88\xbd\xbd\x88l@'
tRp1131
tp1132
a(S'YP_003043921.1'
p1133
g3
(g5
S'ihj)\x92\x9bl@'
tRp1134
tp1135
a(S'YP_003044328.1'
p1136
g3
(g5
S"'\\53\xa3\x9fl@"
tRp1137
tp1138
a(S'YP_003045672.1'
p1139
g3
(g5
S'\x00t\x16\xc2\xca\xael@'
tRp1140
tp1141
a(S'YP_003046687.1'
p1142
g3
(g5
S')\xe1\xdc\xe7*\xc6l@'
tRp1143
tp1144
a(S'YP_003043915.1'
p1145
g3
(g5
S'#\x01q\xa9\x14\xcal@'
tRp1146
tp1147
a(S'YP_003043545.1'
p1148
g3
(g5
S'a\x8dL\xeb\xde\xccl@'
tRp1149
tp1150
a(S'YP_003046606.1'
p1151
g3
(g5
S'\x80*\xa1\xd7X\xdal@'
tRp1152
tp1153
a(S'YP_003044085.1'
p1154
g3
(g5
S'w\x1dC\x14\x96\xe1l@'
tRp1155
tp1156
a(S'YP_003044515.1'
p1157
g3
(g5
S'M\xbc\xe0\xaa\x7f\tm@'
tRp1158
tp1159
a(S'YP_003046463.1'
p1160
g3
(g5
S'l\x01l;F9m@'
tRp1161
tp1162
a(S'YP_003043861.1'
p1163
g3
(g5
S'\xfe\xf5\x19\x11\xe5Im@'
tRp1164
tp1165
a(S'YP_003045826.1'
p1166
g3
(g5
S'Pq\x98*1vm@'
tRp1167
tp1168
a(S'YP_003045781.1'
p1169
g3
(g5
S'\xe48C\x93\xca\x86m@'
tRp1170
tp1171
a(S'YP_003043608.1'
p1172
g3
(g5
S'\xf6~%\xed\x9c\x88m@'
tRp1173
tp1174
a(S'YP_003045721.1'
p1175
g3
(g5
S'F\xfclF(\x89m@'
tRp1176
tp1177
a(S'YP_003046064.1'
p1178
g3
(g5
S'\xdaO\xbb]\x1c\xaam@'
tRp1179
tp1180
a(S'YP_003044177.1'
p1181
g3
(g5
S'\x9b\x9b(\x96\xc8\xc4m@'
tRp1182
tp1183
a(S'YP_003047353.1'
p1184
g3
(g5
S"\x00'xa#\xecm@"
tRp1185
tp1186
a(S'YP_003043652.1'
p1187
g3
(g5
S'\xa1PH\xee@@n@'
tRp1188
tp1189
a(S'YP_003046775.1'
p1190
g3
(g5
S'\xac\xaf\xb8\x94znn@'
tRp1191
tp1192
a(S'YP_003047294.1'
p1193
g3
(g5
S'+\xc4Bl\xdasn@'
tRp1194
tp1195
a(S'YP_003047426.1'
p1196
g3
(g5
S'\xd4\xf9\x0f\x7f\xa0\x85n@'
tRp1197
tp1198
a(S'YP_003043704.1'
p1199
g3
(g5
S'&\xed\x11\x12\xd4\xa9n@'
tRp1200
tp1201
a(S'YP_003044270.1'
p1202
g3
(g5
S'\xf1dt\x9eB\xd0n@'
tRp1203
tp1204
a(S'YP_003047409.1'
p1205
g3
(g5
S'\xa6\r\xc7~#\xd4n@'
tRp1206
tp1207
a(S'YP_003045358.1'
p1208
g3
(g5
S'\x9aP\xed\xb9k\x16o@'
tRp1209
tp1210
a(S'YP_003045428.1'
p1211
g3
(g5
S'\xa4M\x90C+4o@'
tRp1212
tp1213
a(S'YP_003045458.1'
p1214
g3
(g5
S'\xd4\xcar\x1d!wo@'
tRp1215
tp1216
a(S'YP_003045224.1'
p1217
g3
(g5
S'\x8e\x10\xd205\x99o@'
tRp1218
tp1219
a(S'YP_003045789.1'
p1220
g3
(g5
S'\x9bK\x9aO\xba\xa5o@'
tRp1221
tp1222
a(S'YP_003046265.1'
p1223
g3
(g5
S'\xf4y\xbe:\xd3\xaeo@'
tRp1224
tp1225
a(S'YP_003044517.1'
p1226
g3
(g5
S'h\xf4\x04|\x11\xb3o@'
tRp1227
tp1228
a(S'YP_003043664.1'
p1229
g3
(g5
S'\x88\xee*G\xb2\xc3o@'
tRp1230
tp1231
a(S'YP_003046472.1'
p1232
g3
(g5
S'mz\xf6N\x06\xd8o@'
tRp1233
tp1234
a(S'YP_003045226.1'
p1235
g3
(g5
S's\xbc\xdaG\x84\xe8o@'
tRp1236
tp1237
a(S'YP_003046587.1'
p1238
g3
(g5
S'M\xe9\xf8gx\xebo@'
tRp1239
tp1240
a(S'YP_003045946.1'
p1241
g3
(g5
S'\x0b\xdaFj\x90\x03p@'
tRp1242
tp1243
a(S'YP_003046524.1'
p1244
g3
(g5
S'\xfc!P\x02\x96\rp@'
tRp1245
tp1246
a(S'YP_003043537.1'
p1247
g3
(g5
S'\x11\xf63\x9f\xd9\x12p@'
tRp1248
tp1249
a(S'YP_003044127.1'
p1250
g3
(g5
S'\xdf\xd9E\x07\x00\x15p@'
tRp1251
tp1252
a(S'YP_003045673.1'
p1253
g3
(g5
S'\xf2\xc2-<\xd0:p@'
tRp1254
tp1255
a(S'YP_003043916.1'
p1256
g3
(g5
S'\x06\x03\x92\xb0\xa6Ip@'
tRp1257
tp1258
a(S'YP_003043758.1'
p1259
g3
(g5
S'\xbc\xa1Z9wup@'
tRp1260
tp1261
a(S'YP_003043495.1'
p1262
g3
(g5
S'\xf7\xe6\x8b"\x94~p@'
tRp1263
tp1264
a(S'YP_003047026.1'
p1265
g3
(g5
S'\xc9*\x9cX}\x97p@'
tRp1266
tp1267
a(S'YP_003043852.1'
p1268
g3
(g5
S'C}\x1b\xfe\x93\xb1p@'
tRp1269
tp1270
a(S'YP_003045756.1'
p1271
g3
(g5
S'\xb3@\x0bH\xd9\xb2p@'
tRp1272
tp1273
a(S'YP_003045457.1'
p1274
g3
(g5
S'\xda1\x94\xc0\xb8\xb9p@'
tRp1275
tp1276
a(S'YP_003045502.1'
p1277
g3
(g5
S'Z\xb0!6\n\xccp@'
tRp1278
tp1279
a(S'YP_003047028.1'
p1280
g3
(g5
S"\x18'\xd3Z[\xd2p@"
tRp1281
tp1282
a(S'YP_003047286.1'
p1283
g3
(g5
S'\xd9>\xeb\xdf[\xe5p@'
tRp1284
tp1285
a(S'YP_003046692.1'
p1286
g3
(g5
S'\xd9}\x16\xc8\xd1\xefp@'
tRp1287
tp1288
a(S'YP_003047196.1'
p1289
g3
(g5
S'\xe1\xe1\x9e\x15\xa6\xfbp@'
tRp1290
tp1291
a(S'YP_003045909.1'
p1292
g3
(g5
S'\xf2\xfd\x9f/\xcf\xfep@'
tRp1293
tp1294
a(S'YP_003043535.1'
p1295
g3
(g5
S'\xfe\x01%\xa1m!q@'
tRp1296
tp1297
a(S'YP_003043263.1'
p1298
g3
(g5
S'2h\x17\\&+q@'
tRp1299
tp1300
a(S'YP_003046391.1'
p1301
g3
(g5
S' %\r\xa5\xfe<q@'
tRp1302
tp1303
a(S'YP_003046065.1'
p1304
g3
(g5
S'T\xbdcf\nIq@'
tRp1305
tp1306
a(S'YP_003044136.1'
p1307
g3
(g5
S'\x9en\x92Q\xc1Iq@'
tRp1308
tp1309
a(S'YP_003043340.1'
p1310
g3
(g5
S'\xcd\x8dZ\xb9kZq@'
tRp1311
tp1312
a(S'YP_003044292.1'
p1313
g3
(g5
S'\x8e\xeas\xe5\x93zq@'
tRp1314
tp1315
a(S'YP_003043969.1'
p1316
g3
(g5
S'\x17}9\xe7\x05{q@'
tRp1317
tp1318
a(S'YP_003044958.1'
p1319
g3
(g5
S'BM$\xcc\xf0}q@'
tRp1320
tp1321
a(S'YP_003046582.1'
p1322
g3
(g5
S'\x1e\x91\x0e\xe2\x14\x92q@'
tRp1323
tp1324
a(S'YP_003046561.1'
p1325
g3
(g5
S'\x9f\x8fXC\xaf\x94q@'
tRp1326
tp1327
a(S'YP_003044932.1'
p1328
g3
(g5
S'\x02\x9c\x02\xad\x89\x98q@'
tRp1329
tp1330
a(S'YP_003044852.1'
p1331
g3
(g5
S'\xe8\x8f-\x97@\xa1q@'
tRp1332
tp1333
a(S'YP_003046626.1'
p1334
g3
(g5
S'\x81\x7f\xe5\xe5\x82\xb7q@'
tRp1335
tp1336
a(S'YP_003045784.1'
p1337
g3
(g5
S'\xf6\xc9s\x01\x14\xbaq@'
tRp1338
tp1339
a(S'YP_003044414.1'
p1340
g3
(g5
S'\x10\x97\t\xe9\xdc\xbbq@'
tRp1341
tp1342
a(S'YP_003043931.1'
p1343
g3
(g5
S'R\xed\xaa\xcc\xdd\xc9q@'
tRp1344
tp1345
a(S'YP_003043371.1'
p1346
g3
(g5
S'\x9e\xf2_Z\xaa\xddq@'
tRp1347
tp1348
a(S'YP_003046218.1'
p1349
g3
(g5
S'\xe4\xbd\r\x997\xe8q@'
tRp1350
tp1351
a(S'YP_003046252.1'
p1352
g3
(g5
S'cg\xbf\x10;\xf7q@'
tRp1353
tp1354
a(S'YP_003047164.1'
p1355
g3
(g5
S'\xc6\xbe55\xa1\xf7q@'
tRp1356
tp1357
a(S'YP_003046277.1'
p1358
g3
(g5
S'\x99\xef\xf2\x9b,\x00r@'
tRp1359
tp1360
a(S'YP_003044463.1'
p1361
g3
(g5
S'\xc2\x82\x08A\x10\x03r@'
tRp1362
tp1363
a(S'YP_003044108.1'
p1364
g3
(g5
S'\x1f\xc6\xc3\xdfI\x0br@'
tRp1365
tp1366
a(S'YP_003046382.1'
p1367
g3
(g5
S'\n\xa5\xd7X\xcc!r@'
tRp1368
tp1369
a(S'YP_003044893.1'
p1370
g3
(g5
S'\x1b\xb64\x8eQ,r@'
tRp1371
tp1372
a(S'YP_003046655.1'
p1373
g3
(g5
S'W\xe1C6~,r@'
tRp1374
tp1375
a(S'YP_003046095.1'
p1376
g3
(g5
S'\x90-CO\xbc,r@'
tRp1377
tp1378
a(S'YP_003047255.1'
p1379
g3
(g5
S'\xb5@m-\xda7r@'
tRp1380
tp1381
a(S'YP_003045983.1'
p1382
g3
(g5
S'a\xa2\xbc\xee\x85Xr@'
tRp1383
tp1384
a(S'YP_003044433.1'
p1385
g3
(g5
S'\xb8yFFn]r@'
tRp1386
tp1387
a(S'YP_003046388.1'
p1388
g3
(g5
S'\x8fN8O\xa2br@'
tRp1389
tp1390
a(S'YP_003044342.1'
p1391
g3
(g5
S'\xb5\xe5\xb6F\rhr@'
tRp1392
tp1393
a(S'YP_003044465.1'
p1394
g3
(g5
S'\x95$~\xe9\x8f\x97r@'
tRp1395
tp1396
a(S'YP_003046859.1'
p1397
g3
(g5
S'v\x84\xfa\x1e!\xa7r@'
tRp1398
tp1399
a(S'YP_003047418.1'
p1400
g3
(g5
S'\xfc\xee\xa1\xe5\xf4\xadr@'
tRp1401
tp1402
a(S'YP_003046761.1'
p1403
g3
(g5
S'RQy\xbd~\xbar@'
tRp1404
tp1405
a(S'YP_003047062.1'
p1406
g3
(g5
S"\x00\xe3\xfcq'\xd4r@"
tRp1407
tp1408
a(S'YP_003047410.1'
p1409
g3
(g5
S'\x81v\xa2`K\x02s@'
tRp1410
tp1411
a(S'YP_003043377.1'
p1412
g3
(g5
S'\xbey\xd1\xfa;\x05s@'
tRp1413
tp1414
a(S'YP_003045482.1'
p1415
g3
(g5
S'Q\x04p\xfa^\x06s@'
tRp1416
tp1417
a(S'YP_003043682.1'
p1418
g3
(g5
S'\xcaW\xae\x03\xb1.s@'
tRp1419
tp1420
a(S'YP_003047407.1'
p1421
g3
(g5
S'5\xa3\xb0m.7s@'
tRp1422
tp1423
a(S'YP_003047096.1'
p1424
g3
(g5
S'\xc1\x85}\x18\x97Fs@'
tRp1425
tp1426
a(S'YP_003045827.1'
p1427
g3
(g5
S'$DA#}Is@'
tRp1428
tp1429
a(S'YP_003045016.1'
p1430
g3
(g5
S'\x93\xf7B`\xa9Is@'
tRp1431
tp1432
a(S'YP_003047399.1'
p1433
g3
(g5
S'\xfc\x12\x1d\xf6JLs@'
tRp1434
tp1435
a(S'YP_003043414.1'
p1436
g3
(g5
S'\xf9>\x89\xe8\xa0Vs@'
tRp1437
tp1438
a(S'YP_003045517.1'
p1439
g3
(g5
S'q\xd3>\x9a:`s@'
tRp1440
tp1441
a(S'YP_003045164.1'
p1442
g3
(g5
S'CL\xd71\xd3ts@'
tRp1443
tp1444
a(S'YP_003046232.1'
p1445
g3
(g5
S'!\xdf!\x11\xdf\x8ds@'
tRp1446
tp1447
a(S'YP_003046748.1'
p1448
g3
(g5
S'\xfa\x8f\xb3\xc2\xfb\x93s@'
tRp1449
tp1450
a(S'YP_003043588.1'
p1451
g3
(g5
S'\x94\xe0\x02$\x12\xacs@'
tRp1452
tp1453
a(S'YP_003045604.1'
p1454
g3
(g5
S'(*m#\xb5\xc7s@'
tRp1455
tp1456
a(S'YP_003044275.1'
p1457
g3
(g5
S'\xf4\x17>\x1d\xa1\xd1s@'
tRp1458
tp1459
a(S'YP_003047102.1'
p1460
g3
(g5
S'&\xd7\xa7g\x85\xd6s@'
tRp1461
tp1462
a(S'YP_003043661.1'
p1463
g3
(g5
S'1\xfb\xf6K\x15\xd8s@'
tRp1464
tp1465
a(S'YP_003045180.1'
p1466
g3
(g5
S't\x82\xc1-7\xefs@'
tRp1467
tp1468
a(S'YP_003047298.1'
p1469
g3
(g5
S'-\x89\xa8\xb2\xac\x04t@'
tRp1470
tp1471
a(S'YP_003044660.1'
p1472
g3
(g5
S'YroM7!t@'
tRp1473
tp1474
a(S'YP_003043837.1'
p1475
g3
(g5
S'\x7f\x01=\xce?*t@'
tRp1476
tp1477
a(S'YP_003046690.1'
p1478
g3
(g5
S'\x82Z7\x8a\x88=t@'
tRp1479
tp1480
a(S'YP_003043789.1'
p1481
g3
(g5
S'W\xce\x90\xee\x16It@'
tRp1482
tp1483
a(S'YP_003043347.1'
p1484
g3
(g5
S'\x88\x7f\xac\x12\xfaJt@'
tRp1485
tp1486
a(S'YP_003046969.1'
p1487
g3
(g5
S'S\xcc\x0720Yt@'
tRp1488
tp1489
a(S'YP_003044761.1'
p1490
g3
(g5
S'\x1c+eL.\xb5t@'
tRp1491
tp1492
a(S'YP_003046760.1'
p1493
g3
(g5
S'\xe3\x8c\xac\xaeH\xbet@'
tRp1494
tp1495
a(S'YP_003043889.1'
p1496
g3
(g5
S'\nd\x16\x07\xa8\xd2t@'
tRp1497
tp1498
a(S'YP_003045782.1'
p1499
g3
(g5
S'\xaa\x0b%\xb5?\xd7t@'
tRp1500
tp1501
a(S'YP_003046076.1'
p1502
g3
(g5
S'\xb4H+3\x98\xdbt@'
tRp1503
tp1504
a(S'YP_003044820.1'
p1505
g3
(g5
S'F\xae\xb5\x0b\xf5\xe3t@'
tRp1506
tp1507
a(S'YP_003046233.1'
p1508
g3
(g5
S'g\xae\xbc\x82\x9a\xe7t@'
tRp1509
tp1510
a(S'YP_003045964.1'
p1511
g3
(g5
S'\xf4\xadj0\x7f\xf7t@'
tRp1512
tp1513
a(S'YP_003045225.1'
p1514
g3
(g5
S'\xda\xb6\x89\xf3\xcb\xfet@'
tRp1515
tp1516
a(S'YP_003047278.1'
p1517
g3
(g5
S'\xe6\xb0+\x05\xd3\x07u@'
tRp1518
tp1519
a(S'YP_003045256.1'
p1520
g3
(g5
S'\xbb\xb0\xd0i\x8cVu@'
tRp1521
tp1522
a(S'YP_003045447.1'
p1523
g3
(g5
S'\x89\x87\xe7\xbc\xf2cu@'
tRp1524
tp1525
a(S'YP_003044434.1'
p1526
g3
(g5
S'\x87\xf0\x8c\xfbMku@'
tRp1527
tp1528
a(S'YP_003045406.1'
p1529
g3
(g5
S'\xa4\x84R\xb8\xf6nu@'
tRp1530
tp1531
a(S'YP_003045467.1'
p1532
g3
(g5
S'\xa6r@\xb2\x82\x8du@'
tRp1533
tp1534
a(S'YP_003043989.1'
p1535
g3
(g5
S'\xcb\xd9\xd4\xd5\xed\xa2u@'
tRp1536
tp1537
a(S'YP_003043337.1'
p1538
g3
(g5
S'\x9b\xb8g\xbf\xda\xc2u@'
tRp1539
tp1540
a(S'YP_003046214.1'
p1541
g3
(g5
S'BQ\x84V\x82\xddu@'
tRp1542
tp1543
a(S'YP_003047093.1'
p1544
g3
(g5
S'\x9f\x95X\xd9\x93\x1dv@'
tRp1545
tp1546
a(S'YP_003044401.1'
p1547
g3
(g5
S'\xbe\xd8\xecX\xe5-v@'
tRp1548
tp1549
a(S'YP_003044221.1'
p1550
g3
(g5
S'\xbe\xd6\xe3\xd8\xf6Mv@'
tRp1551
tp1552
a(S'YP_003044341.1'
p1553
g3
(g5
S'\r\xe0\x1b\xf0\xb2[v@'
tRp1554
tp1555
a(S'YP_003043970.1'
p1556
g3
(g5
S'@&\xd1\xf6\xf1\\v@'
tRp1557
tp1558
a(S'YP_003043637.1'
p1559
g3
(g5
S'\x18JZ\xe6\x94ev@'
tRp1560
tp1561
a(S'YP_003044078.1'
p1562
g3
(g5
S'\x1f\xb8\xb5\xac\xfcgv@'
tRp1563
tp1564
a(S'YP_003046908.1'
p1565
g3
(g5
S'\xc1=\xce\x97Rrv@'
tRp1566
tp1567
a(S'YP_003045236.1'
p1568
g3
(g5
S'\xbd{\xfeY\xc6|v@'
tRp1569
tp1570
a(S'YP_003044844.1'
p1571
g3
(g5
S'\x1c\xd35\t*\x8fv@'
tRp1572
tp1573
a(S'YP_003043341.1'
p1574
g3
(g5
S'qC\xd1\xa6\x05\xc0v@'
tRp1575
tp1576
a(S'YP_003046990.1'
p1577
g3
(g5
S'\xd4\xf4\x18=\xfe\xc2v@'
tRp1578
tp1579
a(S'YP_003045547.1'
p1580
g3
(g5
S'\xbaIBT\xb4\xcav@'
tRp1581
tp1582
a(S'YP_003046907.1'
p1583
g3
(g5
S'!<\x98dp\xebv@'
tRp1584
tp1585
a(S'YP_003044679.1'
p1586
g3
(g5
S'\xe7I\xb6\xefj\xf1v@'
tRp1587
tp1588
a(S'YP_003043445.1'
p1589
g3
(g5
S"\xe7\xd5\xc3'\xc3\xf1v@"
tRp1590
tp1591
a(S'YP_003043598.1'
p1592
g3
(g5
S'\xce4\x8c\xab\xb3"w@'
tRp1593
tp1594
a(S'YP_003043671.1'
p1595
g3
(g5
S'\x9aG\xa5A\x088w@'
tRp1596
tp1597
a(S'YP_003047097.1'
p1598
g3
(g5
S'>7+O\x13?w@'
tRp1599
tp1600
a(S'YP_003045658.1'
p1601
g3
(g5
S'\x18\xc5\xc2N\xc7pw@'
tRp1602
tp1603
a(S'YP_003046148.1'
p1604
g3
(g5
S'p\rb\x93\x9esw@'
tRp1605
tp1606
a(S'YP_003046811.1'
p1607
g3
(g5
S'\x833\xfb\xb7\xabww@'
tRp1608
tp1609
a(S'YP_003043570.1'
p1610
g3
(g5
S'\xef\xb2\x16\x83p}w@'
tRp1611
tp1612
a(S'YP_003043320.1'
p1613
g3
(g5
S'vc\xf2\xcd\x00\x86w@'
tRp1614
tp1615
a(S'YP_003046448.1'
p1616
g3
(g5
S'\x11\xe8\xd9\xa5\x9d\x9ew@'
tRp1617
tp1618
a(S'YP_003044437.1'
p1619
g3
(g5
S'\x03\xe9\x03\xee]\x9fw@'
tRp1620
tp1621
a(S'YP_003043259.1'
p1622
g3
(g5
S'\xe5\xcd\xdd\xc4\x02\xcdw@'
tRp1623
tp1624
a(S'YP_003045519.1'
p1625
g3
(g5
S'R\xaa\xd0\xa1&\xd4w@'
tRp1626
tp1627
a(S'YP_003043958.1'
p1628
g3
(g5
S'\x8e\xfe\xf6E\xce\xd5w@'
tRp1629
tp1630
a(S'YP_003046953.1'
p1631
g3
(g5
S'\x16(Z<\x90\xd6w@'
tRp1632
tp1633
a(S'YP_003043980.1'
p1634
g3
(g5
S'\xa1\xd5\xfegF\xe6w@'
tRp1635
tp1636
a(S'YP_003043434.1'
p1637
g3
(g5
S'\x01X+f\xf6\xefw@'
tRp1638
tp1639
a(S'YP_003044145.1'
p1640
g3
(g5
S'\x03\xbbG]\x83\xf3w@'
tRp1641
tp1642
a(S'YP_003045734.1'
p1643
g3
(g5
S'\xfa\xba\xbcG\xff\xf7w@'
tRp1644
tp1645
a(S'YP_003045271.1'
p1646
g3
(g5
S'C\x85o%\xaa\x03x@'
tRp1647
tp1648
a(S'YP_003043890.1'
p1649
g3
(g5
S'oQ\x10d\xe8\x1ax@'
tRp1650
tp1651
a(S'YP_003046354.1'
p1652
g3
(g5
S'w`\xa9\xb8\xe95x@'
tRp1653
tp1654
a(S'YP_003044170.1'
p1655
g3
(g5
S'A\xd232\x84`x@'
tRp1656
tp1657
a(S'YP_003043891.1'
p1658
g3
(g5
S'*b\xcc\xe2\x8eyx@'
tRp1659
tp1660
a(S'YP_003043630.1'
p1661
g3
(g5
S'\xf2\xe4\x18\xde\xad\x7fx@'
tRp1662
tp1663
a(S'YP_003046089.1'
p1664
g3
(g5
S'!iF\xee\xb7\x8dx@'
tRp1665
tp1666
a(S'YP_003045668.1'
p1667
g3
(g5
S',,\xb0\x0bv\x90x@'
tRp1668
tp1669
a(S'YP_003045729.1'
p1670
g3
(g5
S'\x1b\x16/\x0b:\x9ex@'
tRp1671
tp1672
a(S'YP_003043285.1'
p1673
g3
(g5
S'\xf6\xc5\x13\x9f\x82\xa8x@'
tRp1674
tp1675
a(S'YP_003045021.1'
p1676
g3
(g5
S'\xdf\x9e\xa8h\xdd\xb1x@'
tRp1677
tp1678
a(S'YP_003046289.1'
p1679
g3
(g5
S'%\xfb\x9f\xe1\xd8\xbex@'
tRp1680
tp1681
a(S'YP_003045139.1'
p1682
g3
(g5
S'\xe8\x81"\x161\x05y@'
tRp1683
tp1684
a(S'YP_003043937.1'
p1685
g3
(g5
S'\xa9\x0fY#T\x08y@'
tRp1686
tp1687
a(S'YP_003043288.1'
p1688
g3
(g5
S'w=\xe8\xe3\x82\ty@'
tRp1689
tp1690
a(S'YP_003044846.1'
p1691
g3
(g5
S'\xf5\x9a9\xa8\xcb>y@'
tRp1692
tp1693
a(S'YP_003044377.1'
p1694
g3
(g5
S'\xbb\x83\x7f\xe4\xd8Cy@'
tRp1695
tp1696
a(S'YP_003045289.1'
p1697
g3
(g5
S'\x80\xcbr^\x00Yy@'
tRp1698
tp1699
a(S'YP_003043657.1'
p1700
g3
(g5
S'\xfa\x9d\x1b\x81}ry@'
tRp1701
tp1702
a(S'YP_003044297.1'
p1703
g3
(g5
S'\x95N\xb9:I\x9dy@'
tRp1704
tp1705
a(S'YP_003043379.1'
p1706
g3
(g5
S'\xed\xcep\xc9\xad\x9ey@'
tRp1707
tp1708
a(S'YP_003044312.1'
p1709
g3
(g5
S'3\x12"1\xbc\xbby@'
tRp1710
tp1711
a(S'YP_003045854.1'
p1712
g3
(g5
S'\xf8E\x9b\x80\x81\xbdy@'
tRp1713
tp1714
a(S'YP_003045608.1'
p1715
g3
(g5
S'\x9d\x84\xb3#\x13\xc6y@'
tRp1716
tp1717
a(S'YP_003043582.1'
p1718
g3
(g5
S'\xed\xae\xca\xd2\x1c\xc6y@'
tRp1719
tp1720
a(S'YP_003044979.1'
p1721
g3
(g5
S'g\xc0h\x7fe\xd5y@'
tRp1722
tp1723
a(S'YP_003046404.1'
p1724
g3
(g5
S'{\xf3FH\xbc\xf2y@'
tRp1725
tp1726
a(S'YP_003044925.1'
p1727
g3
(g5
S'r\xc8\x88I\x11\xf7y@'
tRp1728
tp1729
a(S'YP_003044995.1'
p1730
g3
(g5
S'Q\x12Y\xb3\xcf\xfey@'
tRp1731
tp1732
a(S'YP_003044808.1'
p1733
g3
(g5
S'\x0f\x1dE\x17\xc0\x05z@'
tRp1734
tp1735
a(S'YP_003043756.1'
p1736
g3
(g5
S'#i\xa7\x06\x96*z@'
tRp1737
tp1738
a(S'YP_003045977.1'
p1739
g3
(g5
S'P\xb2\xf7D\xba*z@'
tRp1740
tp1741
a(S'YP_003044777.1'
p1742
g3
(g5
S'\x98\xf0q\x91F\x84z@'
tRp1743
tp1744
a(S'YP_003043968.1'
p1745
g3
(g5
S's\xaaxr\xcc\xa8z@'
tRp1746
tp1747
a(S'YP_003047087.1'
p1748
g3
(g5
S'TD\x83\xda\x98\xadz@'
tRp1749
tp1750
a(S'YP_003047210.1'
p1751
g3
(g5
S"\xa5'\x13\x9eh\xbbz@"
tRp1752
tp1753
a(S'YP_003046840.1'
p1754
g3
(g5
S'O@\xb6\xb2\xd5\xccz@'
tRp1755
tp1756
a(S'YP_003046109.1'
p1757
g3
(g5
S"\x80\x92\xae'\xe4\xcfz@"
tRp1758
tp1759
a(S'YP_003044277.1'
p1760
g3
(g5
S'\xe6p\xa6m\xb2\xeaz@'
tRp1761
tp1762
a(S'YP_003043326.1'
p1763
g3
(g5
S'\x9e\x1c\xdf/\x0f\x04{@'
tRp1764
tp1765
a(S'YP_003046654.1'
p1766
g3
(g5
S'\xd1\xd8\xb1t \r{@'
tRp1767
tp1768
a(S'YP_003045073.1'
p1769
g3
(g5
S'b\xdd\xc9\xa6w={@'
tRp1770
tp1771
a(S'YP_003044986.1'
p1772
g3
(g5
S'\x18\xbb\xc5\x0cTG{@'
tRp1773
tp1774
a(S'YP_003044896.1'
p1775
g3
(g5
S'\xab\xc6\x10\xd5\xb9T{@'
tRp1776
tp1777
a(S'YP_003044998.1'
p1778
g3
(g5
S'\xff\xfe\xa3d\xc8_{@'
tRp1779
tp1780
a(S'YP_003045920.1'
p1781
g3
(g5
S'\xab\x05\xa6=!f{@'
tRp1782
tp1783
a(S'YP_003045747.1'
p1784
g3
(g5
S'\x89\x06O\x8e\xa4f{@'
tRp1785
tp1786
a(S'YP_003044822.1'
p1787
g3
(g5
S'\x8e\xff2\xbb\xffh{@'
tRp1788
tp1789
a(S'YP_003045656.1'
p1790
g3
(g5
S'\x01\x8a\xeb\xe7!v{@'
tRp1791
tp1792
a(S'YP_003044509.1'
p1793
g3
(g5
S'd`&j\xf7\x82{@'
tRp1794
tp1795
a(S'YP_003043960.1'
p1796
g3
(g5
S'\xb5\x8e\x87\x9ao\x98{@'
tRp1797
tp1798
a(S'YP_003043829.1'
p1799
g3
(g5
S'?\xc6m;\xf1\xae{@'
tRp1800
tp1801
a(S'YP_003043538.1'
p1802
g3
(g5
S'\xca\x11\x04\xe7\xea\xc1{@'
tRp1803
tp1804
a(S'YP_003046944.1'
p1805
g3
(g5
S'~\xean\x02c\xd4{@'
tRp1806
tp1807
a(S'YP_003044579.1'
p1808
g3
(g5
S'\xb9z\xd5n\xb7\xdc{@'
tRp1809
tp1810
a(S'YP_003045558.1'
p1811
g3
(g5
S'\xa9\xa1\xa5\xd8\xd3\r|@'
tRp1812
tp1813
a(S'YP_003044513.1'
p1814
g3
(g5
S',\x95\xf2\xbe-"|@'
tRp1815
tp1816
a(S'YP_003047195.1'
p1817
g3
(g5
S'J\x8a\xfb7\x124|@'
tRp1818
tp1819
a(S'YP_003044645.1'
p1820
g3
(g5
S'\xb7\t\xcfa\xf1F|@'
tRp1821
tp1822
a(S'YP_003044521.1'
p1823
g3
(g5
S'CJZz\xa3M|@'
tRp1824
tp1825
a(S'YP_003046757.1'
p1826
g3
(g5
S'7\xbd\xa5\x87\xafo|@'
tRp1827
tp1828
a(S'YP_003045910.1'
p1829
g3
(g5
S'M\xdbV]\x8f\x92|@'
tRp1830
tp1831
a(S'YP_003044511.1'
p1832
g3
(g5
S'f\xc5!m\xc4\xa7|@'
tRp1833
tp1834
a(S'YP_003045556.1'
p1835
g3
(g5
S'MM\x89I$\xe0|@'
tRp1836
tp1837
a(S'YP_003046013.1'
p1838
g3
(g5
S'\x89\xf5\x85\x85y\xe3|@'
tRp1839
tp1840
a(S'YP_003044399.1'
p1841
g3
(g5
S'|\x9e%t\n\xe6|@'
tRp1842
tp1843
a(S'YP_003045205.1'
p1844
g3
(g5
S'\xcct\xff\xed\xa7\xe6|@'
tRp1845
tp1846
a(S'YP_003043574.1'
p1847
g3
(g5
S'\\\xec\xff\xc4\x99\xf2|@'
tRp1848
tp1849
a(S'YP_003044953.1'
p1850
g3
(g5
S'\xb9\xd8\x81\x8f\xd7\xfb|@'
tRp1851
tp1852
a(S'YP_003043654.1'
p1853
g3
(g5
S'I\xcdL5\xf5\xfe|@'
tRp1854
tp1855
a(S'YP_003046069.1'
p1856
g3
(g5
S'\x82\xf2E\x06D\x06}@'
tRp1857
tp1858
a(S'YP_003045841.1'
p1859
g3
(g5
S'\xf4-\x15\x1e\xd5\x06}@'
tRp1860
tp1861
a(S'YP_003043351.1'
p1862
g3
(g5
S'\x93\x18\xc25\xa4\x10}@'
tRp1863
tp1864
a(S'YP_003043594.1'
p1865
g3
(g5
S'\x14\xe1L<\xc5>}@'
tRp1866
tp1867
a(S'YP_003046839.1'
p1868
g3
(g5
S'\x00\x06K_vL}@'
tRp1869
tp1870
a(S'YP_003044439.1'
p1871
g3
(g5
S'\xa4\xc2/8\x8bx}@'
tRp1872
tp1873
a(S'YP_003046345.1'
p1874
g3
(g5
S'N\xc3\xc8\x9a\xda\xa1}@'
tRp1875
tp1876
a(S'YP_003046999.1'
p1877
g3
(g5
S'\x1er\xbda6\xa6}@'
tRp1878
tp1879
a(S'YP_003046291.1'
p1880
g3
(g5
S'\xaa\x94\xabv\x87\xc5}@'
tRp1881
tp1882
a(S'YP_003047107.1'
p1883
g3
(g5
S'\xbdg\x1e#\xfa\xc9}@'
tRp1884
tp1885
a(S'YP_003043854.1'
p1886
g3
(g5
S'H76\x005\xcf}@'
tRp1887
tp1888
a(S'YP_003047187.1'
p1889
g3
(g5
S'\xf5\xb5\x8c\xee\xfd\xd5}@'
tRp1890
tp1891
a(S'YP_003045291.1'
p1892
g3
(g5
S'4\xeaB\xc20\xd7}@'
tRp1893
tp1894
a(S'YP_003043800.1'
p1895
g3
(g5
S'\x17\xad\xcd6E\xe0}@'
tRp1896
tp1897
a(S'YP_003045304.1'
p1898
g3
(g5
S'U\xf8.H\x11\xf4}@'
tRp1899
tp1900
a(S'YP_003046302.1'
p1901
g3
(g5
S'U\x99\x18\x1ca\x1a~@'
tRp1902
tp1903
a(S'YP_003044323.1'
p1904
g3
(g5
S'\x89R\xeb\xa9\x0cZ~@'
tRp1905
tp1906
a(S'YP_003046085.1'
p1907
g3
(g5
S'o\x1a\x14-\x99h~@'
tRp1908
tp1909
a(S'YP_003045294.1'
p1910
g3
(g5
S'\xc0\x82T||~~@'
tRp1911
tp1912
a(S'YP_003043584.1'
p1913
g3
(g5
S'\xd7\xb7\x02\xe1|\x8c~@'
tRp1914
tp1915
a(S'YP_003043426.1'
p1916
g3
(g5
S'\xe3\xbf\x87K\xfb\x92~@'
tRp1917
tp1918
a(S'YP_003044933.1'
p1919
g3
(g5
S'%I\x12\x9f3\x98~@'
tRp1920
tp1921
a(S'YP_003044394.1'
p1922
g3
(g5
S'N\x9f5\xeev\x9f~@'
tRp1923
tp1924
a(S'YP_003044717.1'
p1925
g3
(g5
S'A)\xc5E\r\xc0~@'
tRp1926
tp1927
a(S'YP_003046066.1'
p1928
g3
(g5
S'\x9b\x99T\r\xd1 \x7f@'
tRp1929
tp1930
a(S'YP_003045423.1'
p1931
g3
(g5
S'\xe9\xf5I\x17\xd3%\x7f@'
tRp1932
tp1933
a(S'YP_003046788.1'
p1934
g3
(g5
S'\x82;\xe7\x13\xba(\x7f@'
tRp1935
tp1936
a(S'YP_003046461.1'
p1937
g3
(g5
S'#\x8d\x8aOm0\x7f@'
tRp1938
tp1939
a(S'YP_003045554.1'
p1940
g3
(g5
S'4#\x01\xf2\x8c8\x7f@'
tRp1941
tp1942
a(S'YP_003044020.1'
p1943
g3
(g5
S'\xd2\xf8\x88O\nK\x7f@'
tRp1944
tp1945
a(S'YP_003045396.1'
p1946
g3
(g5
S'\xf0\xef\xc4\x83\xefR\x7f@'
tRp1947
tp1948
a(S'YP_003044005.1'
p1949
g3
(g5
S'\x9e\xd9\xffU\x15W\x7f@'
tRp1950
tp1951
a(S'YP_003043262.1'
p1952
g3
(g5
S'\xea\x90\xcc\x03J\x96\x7f@'
tRp1953
tp1954
a(S'YP_003046860.1'
p1955
g3
(g5
S'\x92Z\x0f59\x9e\x7f@'
tRp1956
tp1957
a(S'YP_003047424.1'
p1958
g3
(g5
S"' 3\xae\xee\xb1\x7f@"
tRp1959
tp1960
a(S'YP_003046801.1'
p1961
g3
(g5
S'\x8fTT\x1c\n\xc8\x7f@'
tRp1962
tp1963
a(S'YP_003045029.1'
p1964
g3
(g5
S'=pgw\x0b\xe0\x7f@'
tRp1965
tp1966
a(S'YP_003046837.1'
p1967
g3
(g5
S'\xb4hp\x84\x05\xfa\x7f@'
tRp1968
tp1969
a(S'YP_003043450.1'
p1970
g3
(g5
S'W\xdaR\x93\x95\xfd\x7f@'
tRp1971
tp1972
a(S'YP_003045710.1'
p1973
g3
(g5
S'\x9a,\xd04\x93\x15\x80@'
tRp1974
tp1975
a(S'YP_003046982.1'
p1976
g3
(g5
S'\x02\x11\xf3\x1c\xcd\x1a\x80@'
tRp1977
tp1978
a(S'YP_003047023.1'
p1979
g3
(g5
S'S"\xd6\x1e\xcc"\x80@'
tRp1980
tp1981
a(S'YP_003045418.1'
p1982
g3
(g5
S"\x9ap\x11v\x1c'\x80@"
tRp1983
tp1984
a(S'YP_003047081.1'
p1985
g3
(g5
S'\x8a\xdbq\xa2\xff3\x80@'
tRp1986
tp1987
a(S'YP_003045921.1'
p1988
g3
(g5
S'\x1c\xc5\x16j\x86:\x80@'
tRp1989
tp1990
a(S'YP_003043967.1'
p1991
g3
(g5
S'\xea\x1a\xb4\xb4\xc0B\x80@'
tRp1992
tp1993
a(S'YP_003046156.1'
p1994
g3
(g5
S'\x9c\xf6\xab\xb2/F\x80@'
tRp1995
tp1996
a(S'YP_003046212.1'
p1997
g3
(g5
S'\x05\xdf\xbc\x178M\x80@'
tRp1998
tp1999
a(S'YP_003046236.1'
p2000
g3
(g5
S'\xd5\xaf\xd5rJT\x80@'
tRp2001
tp2002
a(S'YP_003046838.1'
p2003
g3
(g5
S'\r\xd6\xa2\xf4.W\x80@'
tRp2004
tp2005
a(S'YP_003046280.1'
p2006
g3
(g5
S'Z\x8a\x05`\xaa_\x80@'
tRp2007
tp2008
a(S'YP_003045828.1'
p2009
g3
(g5
S'\x8b\xb0\x06\xa33a\x80@'
tRp2010
tp2011
a(S'YP_003047429.1'
p2012
g3
(g5
S'\xa9\x95\xd4\xdbBb\x80@'
tRp2013
tp2014
a(S'YP_003043283.1'
p2015
g3
(g5
S'\x17\xd8\xef@xt\x80@'
tRp2016
tp2017
a(S'YP_003044382.1'
p2018
g3
(g5
S'I}j\x9c\xbat\x80@'
tRp2019
tp2020
a(S'YP_003046465.1'
p2021
g3
(g5
S'\x17\x98\x0b\x04[\x87\x80@'
tRp2022
tp2023
a(S'YP_003046393.1'
p2024
g3
(g5
S'x\xd9F$\x8a\x8a\x80@'
tRp2025
tp2026
a(S'YP_003046495.1'
p2027
g3
(g5
S's\x88\x85\xb0\xd8\x8a\x80@'
tRp2028
tp2029
a(S'YP_003046684.1'
p2030
g3
(g5
S'\xd6#\xad\to\xb2\x80@'
tRp2031
tp2032
a(S'YP_003046496.1'
p2033
g3
(g5
S'LPGC]\xdc\x80@'
tRp2034
tp2035
a(S'YP_003047272.1'
p2036
g3
(g5
S'\xeek\xe0\x13\xfd\xdc\x80@'
tRp2037
tp2038
a(S'YP_003046900.1'
p2039
g3
(g5
S'\xbd9\xe5z[\t\x81@'
tRp2040
tp2041
a(S'YP_003045432.1'
p2042
g3
(g5
S'\xb2\xb4\xac\x9f,\x10\x81@'
tRp2043
tp2044
a(S'YP_003046141.1'
p2045
g3
(g5
S'\x0f\x11*\x7f\xe3\x10\x81@'
tRp2046
tp2047
a(S'YP_003045044.1'
p2048
g3
(g5
S'\xb5EwH")\x81@'
tRp2049
tp2050
a(S'YP_003044367.1'
p2051
g3
(g5
S'\x18\xc20dU1\x81@'
tRp2052
tp2053
a(S'YP_003043639.1'
p2054
g3
(g5
S'~\xa3c`K3\x81@'
tRp2055
tp2056
a(S'YP_003046227.1'
p2057
g3
(g5
S'\xbb-\xaf\xda\x0c5\x81@'
tRp2058
tp2059
a(S'YP_003043928.1'
p2060
g3
(g5
S'\xd2E\x0b\xfa\xd7L\x81@'
tRp2061
tp2062
a(S'YP_003046851.1'
p2063
g3
(g5
S'\x8d\xd1\xd3\xf53f\x81@'
tRp2064
tp2065
a(S'YP_003043316.1'
p2066
g3
(g5
S'?\xc7 \xd4\xa8p\x81@'
tRp2067
tp2068
a(S'YP_003047376.1'
p2069
g3
(g5
S',\x8e*8(y\x81@'
tRp2070
tp2071
a(S'YP_003043649.1'
p2072
g3
(g5
S'4\xdf\x1e\x1at}\x81@'
tRp2073
tp2074
a(S'YP_003043863.1'
p2075
g3
(g5
S'\xe9\xafk\xdb\xa2\xa6\x81@'
tRp2076
tp2077
a(S'YP_003046474.1'
p2078
g3
(g5
S'{\xd8?|\x91\xa8\x81@'
tRp2079
tp2080
a(S'YP_003044462.1'
p2081
g3
(g5
S'\x0be\xd64\x90\xa9\x81@'
tRp2082
tp2083
a(S'YP_003044132.1'
p2084
g3
(g5
S"'L\xdf4\xd8\xc6\x81@"
tRp2085
tp2086
a(S'YP_003046881.1'
p2087
g3
(g5
S'\x18\x12\xc2\xd19\xcc\x81@'
tRp2088
tp2089
a(S'YP_003044806.1'
p2090
g3
(g5
S'\xd1\xf94W\xea\xd7\x81@'
tRp2091
tp2092
a(S'YP_003043460.1'
p2093
g3
(g5
S'DF&\x9c\xb4\xd9\x81@'
tRp2094
tp2095
a(S'YP_003046464.1'
p2096
g3
(g5
S')\xf0\xd4\x82\xa4\xe0\x81@'
tRp2097
tp2098
a(S'YP_003043777.1'
p2099
g3
(g5
S'\xe8\t\xfcQO\xee\x81@'
tRp2100
tp2101
a(S'YP_003045523.1'
p2102
g3
(g5
S'\xaf/\xadX\xb2\xf2\x81@'
tRp2103
tp2104
a(S'YP_003046573.1'
p2105
g3
(g5
S'`\xb1m\t\xe9\xf5\x81@'
tRp2106
tp2107
a(S'YP_003046433.1'
p2108
g3
(g5
S'\xafw\x8e\xdc\x91\x0f\x82@'
tRp2109
tp2110
a(S'YP_003045255.1'
p2111
g3
(g5
S'\xb1\x02\x9a\x17\xee\x0f\x82@'
tRp2112
tp2113
a(S'YP_003045732.1'
p2114
g3
(g5
S'\xba[\xf5c\x9a\x19\x82@'
tRp2115
tp2116
a(S'YP_003047379.1'
p2117
g3
(g5
S'\x9d\xe7\x8b\xf2\x9c\x1f\x82@'
tRp2118
tp2119
a(S'YP_003045651.1'
p2120
g3
(g5
S'=\xed\x15\xb1\xc9>\x82@'
tRp2121
tp2122
a(S'YP_003045976.1'
p2123
g3
(g5
S'\x9ak\x153\xae?\x82@'
tRp2124
tp2125
a(S'YP_003046923.1'
p2126
g3
(g5
S'\x1f\xf5E\xee5@\x82@'
tRp2127
tp2128
a(S'YP_003044378.1'
p2129
g3
(g5
S'~\x9e\x9c\xdb\xf1M\x82@'
tRp2130
tp2131
a(S'YP_003044851.1'
p2132
g3
(g5
S'\xb9\xfc\xa6uRN\x82@'
tRp2133
tp2134
a(S'YP_003046572.1'
p2135
g3
(g5
S'\xe2h\xaa\xaa\xddP\x82@'
tRp2136
tp2137
a(S'YP_003046030.1'
p2138
g3
(g5
S'8\\\x8d\xbf\xebT\x82@'
tRp2139
tp2140
a(S'YP_003046175.1'
p2141
g3
(g5
S'\x8f\x1a\xcb\xcc\xb0c\x82@'
tRp2142
tp2143
a(S'YP_003043580.1'
p2144
g3
(g5
S',\xc1\xfa6\x03g\x82@'
tRp2145
tp2146
a(S'YP_003045925.1'
p2147
g3
(g5
S'\xd7\xd2\xf3\xc9\xaeo\x82@'
tRp2148
tp2149
a(S'YP_003047279.1'
p2150
g3
(g5
S'\nB\xf8\x06\x8d{\x82@'
tRp2151
tp2152
a(S'YP_003043281.1'
p2153
g3
(g5
S'8\xd9\x02\x1e\xae\x8d\x82@'
tRp2154
tp2155
a(S'YP_003045706.1'
p2156
g3
(g5
S'2\xa6\xa8\xf5\x8a\x97\x82@'
tRp2157
tp2158
a(S'YP_003046678.1'
p2159
g3
(g5
S'\xbc{\x04i\xf8\xac\x82@'
tRp2160
tp2161
a(S'YP_003045659.1'
p2162
g3
(g5
S'\xb6\xab\xbc\xb8P\xb5\x82@'
tRp2163
tp2164
a(S'YP_003046911.1'
p2165
g3
(g5
S'\xf5\x03\xa2\xf3d\xd2\x82@'
tRp2166
tp2167
a(S'YP_003046124.1'
p2168
g3
(g5
S'/M&4\x87\xd4\x82@'
tRp2169
tp2170
a(S'YP_003044151.1'
p2171
g3
(g5
S'Cup\x1e*\xe4\x82@'
tRp2172
tp2173
a(S'YP_003044561.1'
p2174
g3
(g5
S'\xdc43\x90\xe8\xe7\x82@'
tRp2175
tp2176
a(S'YP_003043899.1'
p2177
g3
(g5
S'\xc4ZRuc\xeb\x82@'
tRp2178
tp2179
a(S'YP_003044856.1'
p2180
g3
(g5
S'\xa7\xab\xa9\x9c\xd5\xf0\x82@'
tRp2181
tp2182
a(S'YP_003047019.1'
p2183
g3
(g5
S'\x91\xfb\xff\xce\x01\xfe\x82@'
tRp2184
tp2185
a(S'YP_003047085.1'
p2186
g3
(g5
S'\x9a\xec\x91w\xa5\x02\x83@'
tRp2187
tp2188
a(S'YP_003045489.1'
p2189
g3
(g5
S'\xd1rK\xef\x18\x07\x83@'
tRp2190
tp2191
a(S'YP_003045408.1'
p2192
g3
(g5
S'&\x12\xb3\xbd\x92\n\x83@'
tRp2193
tp2194
a(S'YP_003045246.1'
p2195
g3
(g5
S'\x85\x117\x9c\x19\x13\x83@'
tRp2196
tp2197
a(S'YP_003043333.1'
p2198
g3
(g5
S'\xad\xeb\x0bP\xf0\x15\x83@'
tRp2199
tp2200
a(S'YP_003046152.1'
p2201
g3
(g5
S'\xa9h\x19\x18&\x1a\x83@'
tRp2202
tp2203
a(S'YP_003043796.1'
p2204
g3
(g5
S'\x16\xd0E\xcct.\x83@'
tRp2205
tp2206
a(S'YP_003044810.1'
p2207
g3
(g5
S'\x82\xd2V\xe4vB\x83@'
tRp2208
tp2209
a(S'YP_003045178.1'
p2210
g3
(g5
S'\x12\x18\xf5e\x91B\x83@'
tRp2211
tp2212
a(S'YP_003047266.1'
p2213
g3
(g5
S'\xe21\x1f\x94\xe9B\x83@'
tRp2214
tp2215
a(S'YP_003046998.1'
p2216
g3
(g5
S'\x8e1\xd1\xab\x1bN\x83@'
tRp2217
tp2218
a(S'YP_003044464.1'
p2219
g3
(g5
S'\xc9\xd4\xd8\xb30_\x83@'
tRp2220
tp2221
a(S'YP_003043569.1'
p2222
g3
(g5
S'a\xad$\xd8\xd9h\x83@'
tRp2223
tp2224
a(S'YP_003047359.1'
p2225
g3
(g5
S'\x1a\xdbV\xea\xe3p\x83@'
tRp2226
tp2227
a(S'YP_003043705.1'
p2228
g3
(g5
S'i\xdf`#\xf4v\x83@'
tRp2229
tp2230
a(S'YP_003044459.1'
p2231
g3
(g5
S'\xac-E\xb0\x02x\x83@'
tRp2232
tp2233
a(S'YP_003045420.1'
p2234
g3
(g5
S'\xc3\x14 >o{\x83@'
tRp2235
tp2236
a(S'YP_003044072.1'
p2237
g3
(g5
S'\x99\xdd\xc6\x08m\x89\x83@'
tRp2238
tp2239
a(S'YP_003043370.1'
p2240
g3
(g5
S'\xe2xS\xab@\x8d\x83@'
tRp2241
tp2242
a(S'YP_003043823.1'
p2243
g3
(g5
S'i"\x86\xff\xba\x92\x83@'
tRp2244
tp2245
a(S'YP_003047406.1'
p2246
g3
(g5
S'S\x81E\x0fJ\x97\x83@'
tRp2247
tp2248
a(S'YP_003044850.1'
p2249
g3
(g5
S'\xb6\xaa\xd8xa\x97\x83@'
tRp2250
tp2251
a(S'YP_003045309.1'
p2252
g3
(g5
S'"\x14\x90\xc9A\xc1\x83@'
tRp2253
tp2254
a(S'YP_003044249.1'
p2255
g3
(g5
S'\xad\xaen\x83\xf4\xc2\x83@'
tRp2256
tp2257
a(S'YP_003043428.1'
p2258
g3
(g5
S'\r\x13\x15\xdf\xd7\xe3\x83@'
tRp2259
tp2260
a(S'YP_003044700.1'
p2261
g3
(g5
S'e|\xd5\xfb\x8d\xf2\x83@'
tRp2262
tp2263
a(S'YP_003047201.1'
p2264
g3
(g5
S'E\x82\xc3#\xd3\xff\x83@'
tRp2265
tp2266
a(S'YP_003045954.1'
p2267
g3
(g5
S'\x82\xeb\x07>\t\x06\x84@'
tRp2268
tp2269
a(S'YP_003045306.1'
p2270
g3
(g5
S'\r\xae\xa8{\xc0\r\x84@'
tRp2271
tp2272
a(S'YP_003043473.1'
p2273
g3
(g5
S'\xe9\xe9\xc0\xfe\x04\x12\x84@'
tRp2274
tp2275
a(S'YP_003044093.1'
p2276
g3
(g5
S'^5M\xe6\x07\x12\x84@'
tRp2277
tp2278
a(S'YP_003046002.1'
p2279
g3
(g5
S'\xf9\xa4\xf5zI+\x84@'
tRp2280
tp2281
a(S'YP_003046486.1'
p2282
g3
(g5
S'\xbe\xd7\xed\xc1\xa87\x84@'
tRp2283
tp2284
a(S'YP_003044973.1'
p2285
g3
(g5
S'\xcf\xb9\xf52\xa2;\x84@'
tRp2286
tp2287
a(S'YP_003043910.1'
p2288
g3
(g5
S'K\x12\xf3"\xa3I\x84@'
tRp2289
tp2290
a(S'YP_003046443.1'
p2291
g3
(g5
S'i|\r\xdb\xbcc\x84@'
tRp2292
tp2293
a(S'YP_003045140.1'
p2294
g3
(g5
S',\xc5\xa2\xb2\xael\x84@'
tRp2295
tp2296
a(S'YP_003045829.1'
p2297
g3
(g5
S'\x9dH\x0b\xdd\xbfs\x84@'
tRp2298
tp2299
a(S'YP_003044365.1'
p2300
g3
(g5
S'&\xd9\x02\x03@\x97\x84@'
tRp2301
tp2302
a(S'YP_003044278.1'
p2303
g3
(g5
S'\x15oq\xd2\xa9\xa6\x84@'
tRp2304
tp2305
a(S'YP_003045911.1'
p2306
g3
(g5
S'\xb9\xf9\xe6\x99\xda\xbb\x84@'
tRp2307
tp2308
a(S'YP_003044829.1'
p2309
g3
(g5
S'\x11\xa8\xcdl\x19\xc1\x84@'
tRp2310
tp2311
a(S'YP_003047080.1'
p2312
g3
(g5
S'\xfa\xeb\xb0\xf0\xd7\xcb\x84@'
tRp2313
tp2314
a(S'YP_003043932.1'
p2315
g3
(g5
S'\xe3\x0cd\xa2\xb1\xda\x84@'
tRp2316
tp2317
a(S'YP_003047433.1'
p2318
g3
(g5
S'\xb3\xf0\x98\x18<\xdf\x84@'
tRp2319
tp2320
a(S'YP_003044296.1'
p2321
g3
(g5
S'\xa6\xc1\xdf!\x83\x07\x85@'
tRp2322
tp2323
a(S'YP_003045398.1'
p2324
g3
(g5
S'\xb76\x8639\x08\x85@'
tRp2325
tp2326
a(S'YP_003044140.1'
p2327
g3
(g5
S'\x0c<F\x1a\xaf"\x85@'
tRp2328
tp2329
a(S'YP_003044812.1'
p2330
g3
(g5
S'\x95\xfbp\x8e\x95$\x85@'
tRp2331
tp2332
a(S'YP_003044094.1'
p2333
g3
(g5
S'\xe6kx\x17\xba5\x85@'
tRp2334
tp2335
a(S'YP_003047179.1'
p2336
g3
(g5
S'\xf8k-\x15k<\x85@'
tRp2337
tp2338
a(S'YP_003046991.1'
p2339
g3
(g5
S'?Z\x07X\x00O\x85@'
tRp2340
tp2341
a(S'YP_003045987.1'
p2342
g3
(g5
S'F\xb3\xdan\xa5j\x85@'
tRp2343
tp2344
a(S'YP_003045421.1'
p2345
g3
(g5
S'\xa1\x82h\x04zr\x85@'
tRp2346
tp2347
a(S'YP_003044948.1'
p2348
g3
(g5
S'\x08h\xebz\xbbr\x85@'
tRp2349
tp2350
a(S'YP_003047020.1'
p2351
g3
(g5
S'=\x15\xc5Vk\x8f\x85@'
tRp2352
tp2353
a(S'YP_003043818.1'
p2354
g3
(g5
S'\xd5\xea\x7f\x80\xc7\x97\x85@'
tRp2355
tp2356
a(S'YP_003046635.1'
p2357
g3
(g5
S'\xf3\xfd\xdd\xfb(\xab\x85@'
tRp2358
tp2359
a(S'YP_003045106.1'
p2360
g3
(g5
S'\xf7\xd6fN\xa5\xdb\x85@'
tRp2361
tp2362
a(S'YP_003045442.1'
p2363
g3
(g5
S'\x18C\xed\x88\xfd\xdc\x85@'
tRp2364
tp2365
a(S'YP_003044985.1'
p2366
g3
(g5
S'\xa7,Q4\x91\xdf\x85@'
tRp2367
tp2368
a(S'YP_003047432.1'
p2369
g3
(g5
S'\x89!Nf\xb5\xe9\x85@'
tRp2370
tp2371
a(S'YP_003043587.1'
p2372
g3
(g5
S'\xbf\xf4\xad\xf5\x97\x10\x86@'
tRp2373
tp2374
a(S'YP_003046843.1'
p2375
g3
(g5
S'\x8af\xb3X\x8b\x12\x86@'
tRp2376
tp2377
a(S'YP_003046784.1'
p2378
g3
(g5
S'.H\xabV\xcf4\x86@'
tRp2379
tp2380
a(S'YP_003046920.1'
p2381
g3
(g5
S'\xdf\x867?\x03=\x86@'
tRp2382
tp2383
a(S'YP_003046862.1'
p2384
g3
(g5
S'\xae\x97\xc5\xd4DH\x86@'
tRp2385
tp2386
a(S'YP_003045863.1'
p2387
g3
(g5
S'a\xb5\x91_*I\x86@'
tRp2388
tp2389
a(S'YP_003043799.1'
p2390
g3
(g5
S'\x10\xad\n\x9b\xe3M\x86@'
tRp2391
tp2392
a(S'YP_003043352.1'
p2393
g3
(g5
S'ML\x08\xb9B[\x86@'
tRp2394
tp2395
a(S'YP_003043596.1'
p2396
g3
(g5
S'\x82\xb9\x97a\xa3i\x86@'
tRp2397
tp2398
a(S'YP_003045166.1'
p2399
g3
(g5
S';\xa5{\x1e"\x83\x86@'
tRp2400
tp2401
a(S'YP_003044833.1'
p2402
g3
(g5
S'\x03G.\x90\xd6\x8c\x86@'
tRp2403
tp2404
a(S'YP_003045654.1'
p2405
g3
(g5
S'J\xba-b3\x94\x86@'
tRp2406
tp2407
a(S'YP_003045714.1'
p2408
g3
(g5
S"\x9a>'\x11\x1f\x9e\x86@"
tRp2409
tp2410
a(S'YP_003046680.1'
p2411
g3
(g5
S'\xae}\x15\x96\x15\xa1\x86@'
tRp2412
tp2413
a(S'YP_003046240.1'
p2414
g3
(g5
S'v\xe0\x82\xa9"\xa6\x86@'
tRp2415
tp2416
a(S'YP_003047200.1'
p2417
g3
(g5
S'\x04\\?\x9f\x9b\xa6\x86@'
tRp2418
tp2419
a(S'YP_003046001.1'
p2420
g3
(g5
S'n\x18\x03\xfaB\xb4\x86@'
tRp2421
tp2422
a(S'YP_003046557.1'
p2423
g3
(g5
S'/O\xa3\xee\xfe\xb5\x86@'
tRp2424
tp2425
a(S'YP_003044782.1'
p2426
g3
(g5
S'C\xa7\x1a\xbf\xdb\xc6\x86@'
tRp2427
tp2428
a(S'YP_003045310.1'
p2429
g3
(g5
S'w\xfc\x8f\xeff\xc9\x86@'
tRp2430
tp2431
a(S'YP_003043309.1'
p2432
g3
(g5
S'\x92V\xc5~M\xf3\x86@'
tRp2433
tp2434
a(S'YP_003047047.1'
p2435
g3
(g5
S'\xd5\x91U\xb7=\x03\x87@'
tRp2436
tp2437
a(S'YP_003047271.1'
p2438
g3
(g5
S'I\xff\t\xb9\x80\x0f\x87@'
tRp2439
tp2440
a(S'YP_003046675.1'
p2441
g3
(g5
S']\x1e\xbb\xb3\xcb-\x87@'
tRp2442
tp2443
a(S'YP_003043398.1'
p2444
g3
(g5
S'm\xe1Qr\x9f>\x87@'
tRp2445
tp2446
a(S'YP_003044752.1'
p2447
g3
(g5
S'5N\xfb\xd1\x9bA\x87@'
tRp2448
tp2449
a(S'YP_003046110.1'
p2450
g3
(g5
S'5\x8c2$\xa9A\x87@'
tRp2451
tp2452
a(S'YP_003043930.1'
p2453
g3
(g5
S'\x9f\xffB#\xadS\x87@'
tRp2454
tp2455
a(S'YP_003046925.1'
p2456
g3
(g5
S"W\xb7'\xa9\xbeX\x87@"
tRp2457
tp2458
a(S'YP_003044492.1'
p2459
g3
(g5
S'.\xf7\xa7\x84R\\\x87@'
tRp2460
tp2461
a(S'YP_003045546.1'
p2462
g3
(g5
S'\xb4\xc8}\xaaEx\x87@'
tRp2463
tp2464
a(S'YP_003045610.1'
p2465
g3
(g5
S'\xe02\xa6\xfe\x01\x8c\x87@'
tRp2466
tp2467
a(S'YP_003045437.1'
p2468
g3
(g5
S'\tcl\xaa\x06\x93\x87@'
tRp2469
tp2470
a(S'YP_003044878.1'
p2471
g3
(g5
S'T$7\xf0\x8a\x93\x87@'
tRp2472
tp2473
a(S'YP_003046534.1'
p2474
g3
(g5
S'e\xfc,\x8a\x0b\x96\x87@'
tRp2475
tp2476
a(S'YP_003045824.1'
p2477
g3
(g5
S'\t\xd1\xe5\x15\xc5\xa2\x87@'
tRp2478
tp2479
a(S'YP_003046292.1'
p2480
g3
(g5
S'\x0e\xfa\xda"\xf3\xad\x87@'
tRp2481
tp2482
a(S'YP_003044894.1'
p2483
g3
(g5
S'\xcb,\xdd\xd9\xdc\xc2\x87@'
tRp2484
tp2485
a(S'YP_003043507.1'
p2486
g3
(g5
S'\xd4bOU\x12\xd2\x87@'
tRp2487
tp2488
a(S'YP_003044467.1'
p2489
g3
(g5
S'\xc0\xf4\xf3i\x82\xd3\x87@'
tRp2490
tp2491
a(S'YP_003044861.1'
p2492
g3
(g5
S'\x84\x8f\xe2\x171\xd8\x87@'
tRp2493
tp2494
a(S'YP_003045688.1'
p2495
g3
(g5
S'\xcf<\x8b\x81\xe8\xdc\x87@'
tRp2496
tp2497
a(S'YP_003044174.1'
p2498
g3
(g5
S'=?7\xb9\x8b\xde\x87@'
tRp2499
tp2500
a(S'YP_003047175.1'
p2501
g3
(g5
S'\xe8\xbf\x14\xf5\xd7\xe6\x87@'
tRp2502
tp2503
a(S'YP_003046531.1'
p2504
g3
(g5
S'G0t\x94S\xe8\x87@'
tRp2505
tp2506
a(S'YP_003044388.1'
p2507
g3
(g5
S'\xdc\xe8\x1cFc\xe9\x87@'
tRp2508
tp2509
a(S'YP_003044997.1'
p2510
g3
(g5
S'\xb7\xe3H\x17\x0c\xf1\x87@'
tRp2511
tp2512
a(S'YP_003045652.1'
p2513
g3
(g5
S'\x12wYl\xe7\x0c\x88@'
tRp2514
tp2515
a(S'YP_003046311.1'
p2516
g3
(g5
S'\xd6`\x81\xae\xfc\x14\x88@'
tRp2517
tp2518
a(S'YP_003047249.1'
p2519
g3
(g5
S'\xc4\x92\x8f\xa4\xaf$\x88@'
tRp2520
tp2521
a(S'YP_003043315.1'
p2522
g3
(g5
S'\xdfEu\x03RB\x88@'
tRp2523
tp2524
a(S'YP_003045404.1'
p2525
g3
(g5
S'A\xe8\xe5>sD\x88@'
tRp2526
tp2527
a(S'YP_003045969.1'
p2528
g3
(g5
S'\xfa*hJ\xc1G\x88@'
tRp2529
tp2530
a(S'YP_003045597.1'
p2531
g3
(g5
S'\x9b\xdf\xba\x02\xbaK\x88@'
tRp2532
tp2533
a(S'YP_003044916.1'
p2534
g3
(g5
S'T=\xb8\xd5\xffP\x88@'
tRp2535
tp2536
a(S'YP_003047180.1'
p2537
g3
(g5
S'\tu\xd4\xf4\xf5Q\x88@'
tRp2538
tp2539
a(S'YP_003044124.1'
p2540
g3
(g5
S'0d\x08\xf8\x1dZ\x88@'
tRp2541
tp2542
a(S'YP_003044167.1'
p2543
g3
(g5
S'\x91yW\x81%[\x88@'
tRp2544
tp2545
a(S'YP_003046241.1'
p2546
g3
(g5
S'zR6\x08.h\x88@'
tRp2547
tp2548
a(S'YP_003044493.1'
p2549
g3
(g5
S'b\xccm\x19\x06r\x88@'
tRp2550
tp2551
a(S'YP_003045456.1'
p2552
g3
(g5
S'\x05\xb9\r\x08G|\x88@'
tRp2553
tp2554
a(S'YP_003044836.1'
p2555
g3
(g5
S'\x1e\x0f\x00r\xbd\x85\x88@'
tRp2556
tp2557
a(S'YP_003044472.1'
p2558
g3
(g5
S'\x9d\xa0\xdaO\x83\x8b\x88@'
tRp2559
tp2560
a(S'YP_003047079.1'
p2561
g3
(g5
S'\xc8\xb2\xe1S\xa0\xa4\x88@'
tRp2562
tp2563
a(S'YP_003043324.1'
p2564
g3
(g5
S'\xf4\x9aNu\x17\xab\x88@'
tRp2565
tp2566
a(S'YP_003045928.1'
p2567
g3
(g5
S'\x1b\x98\xd0/\xe4\xc6\x88@'
tRp2568
tp2569
a(S'YP_003043265.1'
p2570
g3
(g5
S'\xe9\xfb\xbf\x1cX\xda\x88@'
tRp2571
tp2572
a(S'YP_003045368.1'
p2573
g3
(g5
S'x\xed\x0b\xce\xca\xf6\x88@'
tRp2574
tp2575
a(S'YP_003044176.1'
p2576
g3
(g5
S'Ry/i%)\x89@'
tRp2577
tp2578
a(S'YP_003046254.1'
p2579
g3
(g5
S'\xa4\x13\xe5@=[\x89@'
tRp2580
tp2581
a(S'YP_003046721.1'
p2582
g3
(g5
S'\x14Z\xdd\xec~_\x89@'
tRp2583
tp2584
a(S'YP_003045265.1'
p2585
g3
(g5
S'\x05\x81\xc4y\xc0p\x89@'
tRp2586
tp2587
a(S'YP_003046487.1'
p2588
g3
(g5
S'\x1c\xb1\n\x87\\\xa1\x89@'
tRp2589
tp2590
a(S'YP_003043855.1'
p2591
g3
(g5
S'\x87\xb1)\xb7\xfd\xa3\x89@'
tRp2592
tp2593
a(S'YP_003043321.1'
p2594
g3
(g5
S'qc"8z\xbf\x89@'
tRp2595
tp2596
a(S'YP_003045545.1'
p2597
g3
(g5
S'\xe1\xddE\xfa\x81\xc5\x89@'
tRp2598
tp2599
a(S'YP_003044884.1'
p2600
g3
(g5
S'\xe5R;\xd5P\xe3\x89@'
tRp2601
tp2602
a(S'YP_003043943.1'
p2603
g3
(g5
S'\x92\xc1{\x7f\x94\xe3\x89@'
tRp2604
tp2605
a(S'YP_003045382.1'
p2606
g3
(g5
S'\xf7M\xaa\xac\xe0\xeb\x89@'
tRp2607
tp2608
a(S'YP_003044580.1'
p2609
g3
(g5
S'$\xf5\x04\xd5\xa1\xee\x89@'
tRp2610
tp2611
a(S'YP_003043595.1'
p2612
g3
(g5
S'\xf8!/\xc7}\xf0\x89@'
tRp2613
tp2614
a(S'YP_003044154.1'
p2615
g3
(g5
S'\x97\x08W\xf4\xa4\xf2\x89@'
tRp2616
tp2617
a(S'YP_003045613.1'
p2618
g3
(g5
S'd\\/F\xbe\x04\x8a@'
tRp2619
tp2620
a(S'YP_003045615.1'
p2621
g3
(g5
S'TKo;\xcc\t\x8a@'
tRp2622
tp2623
a(S'YP_003046810.1'
p2624
g3
(g5
S'Sa\xb0\x9f\xc6\x18\x8a@'
tRp2625
tp2626
a(S'YP_003045353.1'
p2627
g3
(g5
S'<-D\x07\xed \x8a@'
tRp2628
tp2629
a(S'YP_003046854.1'
p2630
g3
(g5
S'*cj\x813!\x8a@'
tRp2631
tp2632
a(S'YP_003043853.1'
p2633
g3
(g5
S"^g'6s4\x8a@"
tRp2634
tp2635
a(S'YP_003045043.1'
p2636
g3
(g5
S'\x9dO=\xa2\xec6\x8a@'
tRp2637
tp2638
a(S'YP_003043927.1'
p2639
g3
(g5
S'\x81\xb5\x17EUH\x8a@'
tRp2640
tp2641
a(S'YP_003045553.1'
p2642
g3
(g5
S'\x10\x01\x9e(-Q\x8a@'
tRp2643
tp2644
a(S'YP_003044792.1'
p2645
g3
(g5
S'\xfb\x08\xd5 \xb1U\x8a@'
tRp2646
tp2647
a(S'YP_003046279.1'
p2648
g3
(g5
S'/\xf3\xbc\x93\x1dj\x8a@'
tRp2649
tp2650
a(S'YP_003046356.1'
p2651
g3
(g5
S'\x13\xa9\x1a\xc4-k\x8a@'
tRp2652
tp2653
a(S'YP_003045605.1'
p2654
g3
(g5
S'^-*\x9b\x95u\x8a@'
tRp2655
tp2656
a(S'YP_003044872.1'
p2657
g3
(g5
S'\xd6H\xdc\xe9\xb5\x90\x8a@'
tRp2658
tp2659
a(S'YP_003045913.1'
p2660
g3
(g5
S')\x81:3\xff\x92\x8a@'
tRp2661
tp2662
a(S'YP_003044461.1'
p2663
g3
(g5
S'\x1c@\x19\xa2\xe7\xd1\x8a@'
tRp2664
tp2665
a(S'YP_003047318.1'
p2666
g3
(g5
S'\x87.\xca\r\xe1\xd3\x8a@'
tRp2667
tp2668
a(S'YP_003046127.1'
p2669
g3
(g5
S'\xcd)\x89\xfb\x1b\xe2\x8a@'
tRp2670
tp2671
a(S'YP_003046255.1'
p2672
g3
(g5
S'-b\x84/\xa6\xeb\x8a@'
tRp2673
tp2674
a(S'YP_003047419.1'
p2675
g3
(g5
S'\xa1\xa8h\xd9\x05\xf5\x8a@'
tRp2676
tp2677
a(S'YP_003045379.1'
p2678
g3
(g5
S'\xa3\xe4\x91\xe4\xe1\x02\x8b@'
tRp2679
tp2680
a(S'YP_003043235.1'
p2681
g3
(g5
S'#\x11|\x1f\x80\x08\x8b@'
tRp2682
tp2683
a(S'YP_003046852.1'
p2684
g3
(g5
S';\xe0RQO\x19\x8b@'
tRp2685
tp2686
a(S'YP_003043546.1'
p2687
g3
(g5
S'XY"_\xbf>\x8b@'
tRp2688
tp2689
a(S'YP_003045915.1'
p2690
g3
(g5
S'|\xd7\xac\x13(I\x8b@'
tRp2691
tp2692
a(S'YP_003043562.1'
p2693
g3
(g5
S'\xcb\x899T$]\x8b@'
tRp2694
tp2695
a(S'YP_003045655.1'
p2696
g3
(g5
S'-m\xd8<\xe4^\x8b@'
tRp2697
tp2698
a(S'YP_003043361.1'
p2699
g3
(g5
S'\xe3\x16\x1bt\x0ce\x8b@'
tRp2700
tp2701
a(S'YP_003045679.1'
p2702
g3
(g5
S'\r\xc2v\xfcVr\x8b@'
tRp2703
tp2704
a(S'YP_003047289.1'
p2705
g3
(g5
S'\x9c\xdc\xafaq\x97\x8b@'
tRp2706
tp2707
a(S'YP_003044169.1'
p2708
g3
(g5
S'\x10\xfc\xc8\x0e\x1b\x9a\x8b@'
tRp2709
tp2710
a(S'YP_003044741.1'
p2711
g3
(g5
S'W\xaf.v\xd6\xab\x8b@'
tRp2712
tp2713
a(S'YP_003045635.1'
p2714
g3
(g5
S'r\x14\xd9\x81N\xb3\x8b@'
tRp2715
tp2716
a(S'YP_003043590.1'
p2717
g3
(g5
S'\xcd\xbb\x99R\xf2\xc6\x8b@'
tRp2718
tp2719
a(S'YP_003046832.1'
p2720
g3
(g5
S'\xc2\x95\x15Z\x93\xc9\x8b@'
tRp2721
tp2722
a(S'YP_003044314.1'
p2723
g3
(g5
S'\xf0\x0f\xd9\x9c/\xce\x8b@'
tRp2724
tp2725
a(S'YP_003046424.1'
p2726
g3
(g5
S'\xdd]\x02\xf2\xf6\xfa\x8b@'
tRp2727
tp2728
a(S'YP_003045966.1'
p2729
g3
(g5
S'/\xe0\x11\xd0\x8c\x04\x8c@'
tRp2730
tp2731
a(S'YP_003046604.1'
p2732
g3
(g5
S'\xc41u\x84\xc0V\x8c@'
tRp2733
tp2734
a(S'YP_003043467.1'
p2735
g3
(g5
S'\x1b)\xafq)f\x8c@'
tRp2736
tp2737
a(S'YP_003046330.1'
p2738
g3
(g5
S'\x9a\x15\x02\x1b\x8ez\x8c@'
tRp2739
tp2740
a(S'YP_003045032.1'
p2741
g3
(g5
S'{Va_P~\x8c@'
tRp2742
tp2743
a(S'YP_003044250.1'
p2744
g3
(g5
S'4Q\xd1\xf4\xf6\xaa\x8c@'
tRp2745
tp2746
a(S'YP_003045121.1'
p2747
g3
(g5
S'\x9bEI\x19(\xb0\x8c@'
tRp2748
tp2749
a(S'YP_003046673.1'
p2750
g3
(g5
S'\xe3\x15\x19[x\xb4\x8c@'
tRp2751
tp2752
a(S'YP_003045814.1'
p2753
g3
(g5
S'\xc0d\xbe\xf3\xd1\xc8\x8c@'
tRp2754
tp2755
a(S'YP_003047417.1'
p2756
g3
(g5
S'\xbd\xb8\xd5\xf4 \xd8\x8c@'
tRp2757
tp2758
a(S'YP_003045678.1'
p2759
g3
(g5
S'\xf7\x84\x80\xf3\x81\xe4\x8c@'
tRp2760
tp2761
a(S'YP_003044959.1'
p2762
g3
(g5
S'\xa8&\x99\xce\xf8\r\x8d@'
tRp2763
tp2764
a(S'YP_003046758.1'
p2765
g3
(g5
S'\x9f\xc7\xe9\xc9Q#\x8d@'
tRp2766
tp2767
a(S'YP_003043832.1'
p2768
g3
(g5
S"t:\x9d\x9da'\x8d@"
tRp2769
tp2770
a(S'YP_003045955.1'
p2771
g3
(g5
S';\xa0.<\x16:\x8d@'
tRp2772
tp2773
a(S'YP_003045874.1'
p2774
g3
(g5
S'\x1b\xdd\xa7\xb1\xc0W\x8d@'
tRp2775
tp2776
a(S'YP_003045090.1'
p2777
g3
(g5
S'D \xab\xbd5\x7f\x8d@'
tRp2778
tp2779
a(S'YP_003043615.1'
p2780
g3
(g5
S'9\x16\xe0\x8f\xb0\xa8\x8d@'
tRp2781
tp2782
a(S'YP_003044931.1'
p2783
g3
(g5
S'\xd3\x04\xf8\xces\xc5\x8d@'
tRp2784
tp2785
a(S'YP_003046425.1'
p2786
g3
(g5
S'U\xdb\xef\xe8F\xcc\x8d@'
tRp2787
tp2788
a(S'YP_003045400.1'
p2789
g3
(g5
S'\xede\x16~\xe5\xcf\x8d@'
tRp2790
tp2791
a(S'YP_003045354.1'
p2792
g3
(g5
S'\x00t\xcc\xf9a\xd1\x8d@'
tRp2793
tp2794
a(S'YP_003045870.1'
p2795
g3
(g5
S'i SS\xf5\xf0\x8d@'
tRp2796
tp2797
a(S'YP_003045007.1'
p2798
g3
(g5
S'Y\x88\x8f\xdb\xd9\n\x8e@'
tRp2799
tp2800
a(S'YP_003045650.1'
p2801
g3
(g5
S'\x01\xdc\xa4\xa0\xf1&\x8e@'
tRp2802
tp2803
a(S'YP_003046891.1'
p2804
g3
(g5
S'\xd2\x08\x978\xdb9\x8e@'
tRp2805
tp2806
a(S'YP_003044771.1'
p2807
g3
(g5
S'\x0b@\x1eO\xc7@\x8e@'
tRp2808
tp2809
a(S'YP_003045459.1'
p2810
g3
(g5
S'2}=50B\x8e@'
tRp2811
tp2812
a(S'YP_003043862.1'
p2813
g3
(g5
S'\xac\xde+\x86\xdeK\x8e@'
tRp2814
tp2815
a(S'YP_003046731.1'
p2816
g3
(g5
S'ZzA\x02\x89L\x8e@'
tRp2817
tp2818
a(S'YP_003045113.1'
p2819
g3
(g5
S'0@\xd0 \x8dR\x8e@'
tRp2820
tp2821
a(S'YP_003044316.1'
p2822
g3
(g5
S'\xa8\xd0\xcf0&^\x8e@'
tRp2823
tp2824
a(S'YP_003045707.1'
p2825
g3
(g5
S'%.\xfb!>\x95\x8e@'
tRp2826
tp2827
a(S'YP_003044149.1'
p2828
g3
(g5
S'\xc6\xb9\xed8\xfe\xb7\x8e@'
tRp2829
tp2830
a(S'YP_003044012.1'
p2831
g3
(g5
S'\xbax\xe1\xd2\x1c\xc1\x8e@'
tRp2832
tp2833
a(S'YP_003043318.1'
p2834
g3
(g5
S'\x80\xe6\x10oD\xc3\x8e@'
tRp2835
tp2836
a(S'YP_003044345.1'
p2837
g3
(g5
S'\xcb\x8d\x0b\xfd\xe0\xd6\x8e@'
tRp2838
tp2839
a(S'YP_003045087.1'
p2840
g3
(g5
S'\xde\xdf\xf0E\x8e\xdf\x8e@'
tRp2841
tp2842
a(S'YP_003044077.1'
p2843
g3
(g5
S'\r\xa3\xd5\x15\x93\xee\x8e@'
tRp2844
tp2845
a(S'YP_003047024.1'
p2846
g3
(g5
S"\xd6l'm\x19\x0f\x8f@"
tRp2847
tp2848
a(S'YP_003044370.1'
p2849
g3
(g5
S'\xddM\xb7\xde\xff\x12\x8f@'
tRp2850
tp2851
a(S'YP_003046231.1'
p2852
g3
(g5
S'\xf8\x8at\xe2\xf2\x16\x8f@'
tRp2853
tp2854
a(S'YP_003046591.1'
p2855
g3
(g5
S'\x9d\x9au\x9f\xb3/\x8f@'
tRp2856
tp2857
a(S'YP_003046202.1'
p2858
g3
(g5
S'\x88\xd7\xe0\x96\xac:\x8f@'
tRp2859
tp2860
a(S'YP_003045022.1'
p2861
g3
(g5
S'P(r\xc4\x1aU\x8f@'
tRp2862
tp2863
a(S'YP_003045665.1'
p2864
g3
(g5
S"'\x9b\x05\xc9VW\x8f@"
tRp2865
tp2866
a(S'YP_003045350.1'
p2867
g3
(g5
S'*9+\x9a\x0e\x80\x8f@'
tRp2868
tp2869
a(S'YP_003043847.1'
p2870
g3
(g5
S'\x0f$\x047\xc0\x85\x8f@'
tRp2871
tp2872
a(S'YP_003043782.1'
p2873
g3
(g5
S'\x00\xe9\x97O\xe4\x95\x8f@'
tRp2874
tp2875
a(S'YP_003045941.1'
p2876
g3
(g5
S"\x07'\x0b5\xc3\x9d\x8f@"
tRp2877
tp2878
a(S'YP_003045141.1'
p2879
g3
(g5
S'\xf7/\x0e\xe4e\xa2\x8f@'
tRp2880
tp2881
a(S'YP_003045015.1'
p2882
g3
(g5
S'H\xad\xe9;\x82\xc5\x8f@'
tRp2883
tp2884
a(S'YP_003046756.1'
p2885
g3
(g5
S'\xea\xf9\xec\x00W\xc8\x8f@'
tRp2886
tp2887
a(S'YP_003043783.1'
p2888
g3
(g5
S'8_wI\xff\xeb\x8f@'
tRp2889
tp2890
a(S'YP_003044783.1'
p2891
g3
(g5
S'p%C\x9dN\xee\x8f@'
tRp2892
tp2893
a(S'YP_003046322.1'
p2894
g3
(g5
S'yHT\xc2:\xff\x8f@'
tRp2895
tp2896
a(S'YP_003046219.1'
p2897
g3
(g5
S'\x08\x871y\r\x06\x90@'
tRp2898
tp2899
a(S'YP_003044366.1'
p2900
g3
(g5
S'\xc6\x85\xd5Y\x80\x07\x90@'
tRp2901
tp2902
a(S'YP_003047273.1'
p2903
g3
(g5
S'\xcd\xe9\x10\xec\xc8\x07\x90@'
tRp2904
tp2905
a(S'YP_003044139.1'
p2906
g3
(g5
S'=\xa6\xc2o\xfa\x11\x90@'
tRp2907
tp2908
a(S'YP_003046098.1'
p2909
g3
(g5
S'#\x94K>m\x14\x90@'
tRp2910
tp2911
a(S'YP_003046971.1'
p2912
g3
(g5
S'=j\x0c\xf7H&\x90@'
tRp2913
tp2914
a(S'YP_003047063.1'
p2915
g3
(g5
S'W`g\xc722\x90@'
tRp2916
tp2917
a(S'YP_003043856.1'
p2918
g3
(g5
S'1\xf8\x82\xbdYI\x90@'
tRp2919
tp2920
a(S'YP_003044460.1'
p2921
g3
(g5
S'\x10-\xc1\x88\xbaP\x90@'
tRp2922
tp2923
a(S'YP_003046226.1'
p2924
g3
(g5
S'\x85\x0ft\xa3R|\x90@'
tRp2925
tp2926
a(S'YP_003046239.1'
p2927
g3
(g5
S'}\xfdQ\xfe;\x86\x90@'
tRp2928
tp2929
a(S'YP_003046421.1'
p2930
g3
(g5
S'.:1\xb6\x9e\x96\x90@'
tRp2931
tp2932
a(S'YP_003043518.1'
p2933
g3
(g5
S'\xec\xe6Af\x16\xa6\x90@'
tRp2934
tp2935
a(S'YP_003045923.1'
p2936
g3
(g5
S'\xac\xa4\xb0\t\x90\xac\x90@'
tRp2937
tp2938
a(S'YP_003045020.1'
p2939
g3
(g5
S'\x1c\xf3A\xda#\xbc\x90@'
tRp2940
tp2941
a(S'YP_003047282.1'
p2942
g3
(g5
S'k\x12b\xb1\xbe\xc2\x90@'
tRp2943
tp2944
a(S'YP_003045034.1'
p2945
g3
(g5
S'\xbaXW\xb5e\xc4\x90@'
tRp2946
tp2947
a(S'YP_003046323.1'
p2948
g3
(g5
S'\x8f\xce\x08\t\x9b\xc7\x90@'
tRp2949
tp2950
a(S'YP_003044781.1'
p2951
g3
(g5
S'\x9c\xf5\xd3ap\xd2\x90@'
tRp2952
tp2953
a(S'YP_003043349.1'
p2954
g3
(g5
S'\xe9\xa6?\x13P\xd4\x90@'
tRp2955
tp2956
a(S'YP_003047281.1'
p2957
g3
(g5
S'\x9b\xc6\xcbf\xd7\xdd\x90@'
tRp2958
tp2959
a(S'YP_003044024.1'
p2960
g3
(g5
S"'0\xba\xa4\xda\xde\x90@"
tRp2961
tp2962
a(S'YP_003046583.1'
p2963
g3
(g5
S'\xb0\xd9\xb9_\xf9\xea\x90@'
tRp2964
tp2965
a(S'YP_003045446.1'
p2966
g3
(g5
S'\x8b\xab9\xf2\x11\xf0\x90@'
tRp2967
tp2968
a(S'YP_003045403.1'
p2969
g3
(g5
S'\xbe\x15Q.\x19\xf1\x90@'
tRp2970
tp2971
a(S'YP_003046437.1'
p2972
g3
(g5
S'\xd0\x8b\xb3\xea\xee\n\x91@'
tRp2973
tp2974
a(S'YP_003045120.1'
p2975
g3
(g5
S'\x02\x18\x94\x17\x12\r\x91@'
tRp2976
tp2977
a(S'YP_003046452.1'
p2978
g3
(g5
S'0\xccu\xf1E\x1c\x91@'
tRp2979
tp2980
a(S'YP_003046646.1'
p2981
g3
(g5
S'N\xd1\x97\xe4\xa0:\x91@'
tRp2982
tp2983
a(S'YP_003044389.1'
p2984
g3
(g5
S'\xa1w\xc1m\xde;\x91@'
tRp2985
tp2986
a(S'YP_003044023.1'
p2987
g3
(g5
S'\x83_\xcf>L<\x91@'
tRp2988
tp2989
a(S'YP_003043353.1'
p2990
g3
(g5
S'\x1e\xe5\xef\x10|@\x91@'
tRp2991
tp2992
a(S'YP_003045796.1'
p2993
g3
(g5
S'\xf7\t\x9e\xc1\x8bD\x91@'
tRp2994
tp2995
a(S'YP_003047101.1'
p2996
g3
(g5
S'\xe5(Ii\x93E\x91@'
tRp2997
tp2998
a(S'YP_003045436.1'
p2999
g3
(g5
S'\x18\xe2X<\xeaI\x91@'
tRp3000
tp3001
a(S'YP_003045460.1'
p3002
g3
(g5
S'b\xd4\xbfF\xf3h\x91@'
tRp3003
tp3004
a(S'YP_003045512.1'
p3005
g3
(g5
S'\x16O\xc4`\xcf\x86\x91@'
tRp3006
tp3007
a(S'YP_003044849.1'
p3008
g3
(g5
S'\xbe_(,%\x8a\x91@'
tRp3009
tp3010
a(S'YP_003044449.1'
p3011
g3
(g5
S'\xd5\x0b\xcb\xa4\x12\x8e\x91@'
tRp3012
tp3013
a(S'YP_003045664.1'
p3014
g3
(g5
S'6\x11\xe7\x83N\x9a\x91@'
tRp3015
tp3016
a(S'YP_003045677.1'
p3017
g3
(g5
S'\xb3\x89\xdc\xb7m\x9c\x91@'
tRp3018
tp3019
a(S'YP_003044290.1'
p3020
g3
(g5
S'\xfe\xc1,\xf7\x9b\xb7\x91@'
tRp3021
tp3022
a(S'YP_003047212.1'
p3023
g3
(g5
S'\xda\x13\xeb(\x8f\xba\x91@'
tRp3024
tp3025
a(S'YP_003047059.1'
p3026
g3
(g5
S"*'TV\x8e\xcf\x91@"
tRp3027
tp3028
a(S'YP_003044273.1'
p3029
g3
(g5
S'\xe3\x1f\x1au\x94\xd6\x91@'
tRp3030
tp3031
a(S'YP_003046237.1'
p3032
g3
(g5
S'\x12w\xd2\x88\x89\xeb\x91@'
tRp3033
tp3034
a(S'YP_003043583.1'
p3035
g3
(g5
S'\xe7\x10R\xee\xf5\xf6\x91@'
tRp3036
tp3037
a(S'YP_003047411.1'
p3038
g3
(g5
S'R\x97\x8eM\xc7\x07\x92@'
tRp3039
tp3040
a(S'YP_003046912.1'
p3041
g3
(g5
S'O\x8a\xb1\xbe\xc6\r\x92@'
tRp3042
tp3043
a(S'YP_003044089.1'
p3044
g3
(g5
S'\xcc\x04\x01\x1b\xf9\x18\x92@'
tRp3045
tp3046
a(S'YP_003044853.1'
p3047
g3
(g5
S'\x94\xf2\x8a06\x1b\x92@'
tRp3048
tp3049
a(S'YP_003044845.1'
p3050
g3
(g5
S'\xb9\xe7\xf6\x15lA\x92@'
tRp3051
tp3052
a(S'YP_003046645.1'
p3053
g3
(g5
S'\xf9\xbc\xc9\xd2\\E\x92@'
tRp3054
tp3055
a(S'YP_003044870.1'
p3056
g3
(g5
S'\xf6\xd0\x9f\xb6\xadU\x92@'
tRp3057
tp3058
a(S'YP_003047112.1'
p3059
g3
(g5
S':\xff\xae\xe3MZ\x92@'
tRp3060
tp3061
a(S'YP_003046282.1'
p3062
g3
(g5
S'\x9a\x05\xf2\x07Qe\x92@'
tRp3063
tp3064
a(S'YP_003043244.1'
p3065
g3
(g5
S"\x06\xd3\x0e '{\x92@"
tRp3066
tp3067
a(S'YP_003044343.1'
p3068
g3
(g5
S'\\,\x0e\xc5R\x89\x92@'
tRp3069
tp3070
a(S'YP_003046319.1'
p3071
g3
(g5
S'\x94-6\x0eQ\x8b\x92@'
tRp3072
tp3073
a(S'YP_003046679.1'
p3074
g3
(g5
S'ZI\xe8x#\x95\x92@'
tRp3075
tp3076
a(S'YP_003044915.1'
p3077
g3
(g5
S'\xd0\xc32\xc6\x1f\xa0\x92@'
tRp3078
tp3079
a(S'YP_003043658.1'
p3080
g3
(g5
S'F\x01G\nS\xac\x92@'
tRp3081
tp3082
a(S'YP_003043466.1'
p3083
g3
(g5
S'\x8b\x94 1\xa9\xc5\x92@'
tRp3084
tp3085
a(S'YP_003045595.1'
p3086
g3
(g5
S'\xcb\xe1\xf7UT\xca\x92@'
tRp3087
tp3088
a(S'YP_003045956.1'
p3089
g3
(g5
S'*\x06\x9eN\x18\xda\x92@'
tRp3090
tp3091
a(S'YP_003044474.1'
p3092
g3
(g5
S'F\xf1\xd4\xda\xf5\xdc\x92@'
tRp3093
tp3094
a(S'YP_003046317.1'
p3095
g3
(g5
S'\x7f7\x18\xd8\x89\xe9\x92@'
tRp3096
tp3097
a(S'YP_003043286.1'
p3098
g3
(g5
S'\xbfQ!\xe3\xf7\xf3\x92@'
tRp3099
tp3100
a(S'YP_003046276.1'
p3101
g3
(g5
S'\xe2\xd4!|\xc1\xf5\x92@'
tRp3102
tp3103
a(S'YP_003047058.1'
p3104
g3
(g5
S'C\xce\xe2%\x8c\xfa\x92@'
tRp3105
tp3106
a(S'YP_003044393.1'
p3107
g3
(g5
S'[\xd4\xa4\xe4\xee\xfd\x92@'
tRp3108
tp3109
a(S'YP_003045416.1'
p3110
g3
(g5
S'\x03\xf1\xd9\x04\xc1\xff\x92@'
tRp3111
tp3112
a(S'YP_003044906.1'
p3113
g3
(g5
S'mp7\xedv\n\x93@'
tRp3114
tp3115
a(S'YP_003045118.1'
p3116
g3
(g5
S'\x18\xa2\xad\xb8{\x18\x93@'
tRp3117
tp3118
a(S'YP_003044972.1'
p3119
g3
(g5
S'\x01Cq\xcc2\x19\x93@'
tRp3120
tp3121
a(S'YP_003044293.1'
p3122
g3
(g5
S'f\xee\xbc\xf9` \x93@'
tRp3123
tp3124
a(S'YP_003044930.1'
p3125
g3
(g5
S'<\x9f<\xdfx#\x93@'
tRp3126
tp3127
a(S'YP_003043822.1'
p3128
g3
(g5
S"'{\xbdw\x015\x93@"
tRp3129
tp3130
a(S'YP_003043996.1'
p3131
g3
(g5
S'\xe2\xc7 \x1b\xcd5\x93@'
tRp3132
tp3133
a(S'YP_003045785.1'
p3134
g3
(g5
S'\xa8\x8a\xbd\x15Kb\x93@'
tRp3135
tp3136
a(S'YP_003045589.1'
p3137
g3
(g5
S'b>FeSr\x93@'
tRp3138
tp3139
a(S'YP_003046529.1'
p3140
g3
(g5
S'\xf1\xa7cBvv\x93@'
tRp3141
tp3142
a(S'YP_003043846.1'
p3143
g3
(g5
S'\xa6\x16\xdd{\x94\x87\x93@'
tRp3144
tp3145
a(S'YP_003043864.1'
p3146
g3
(g5
S'+\xcaH\xe4\xfd\x89\x93@'
tRp3147
tp3148
a(S'YP_003046670.1'
p3149
g3
(g5
S'\\\xa9p +\x8e\x93@'
tRp3150
tp3151
a(S'YP_003046974.1'
p3152
g3
(g5
S'D\xfb\x15\x7fU\x9b\x93@'
tRp3153
tp3154
a(S'YP_003043702.1'
p3155
g3
(g5
S'\xc4\xd5\x0b\xac=\xba\x93@'
tRp3156
tp3157
a(S'YP_003047420.1'
p3158
g3
(g5
S'\x06\xabLj\x06\xc0\x93@'
tRp3159
tp3160
a(S'YP_003044113.1'
p3161
g3
(g5
S'\xc0e\xf8\x11\xf3\xc2\x93@'
tRp3162
tp3163
a(S'YP_003047427.1'
p3164
g3
(g5
S'\xa3\x13\xc88\x06\xd0\x93@'
tRp3165
tp3166
a(S'YP_003046803.1'
p3167
g3
(g5
S'\xf2P\xc4\x80\x85\xe0\x93@'
tRp3168
tp3169
a(S'YP_003043850.1'
p3170
g3
(g5
S'\x04\xbb\xcd\xa3R\xe5\x93@'
tRp3171
tp3172
a(S'YP_003043963.1'
p3173
g3
(g5
S'\xb0\x0b\x82\xd2\xb8\xe9\x93@'
tRp3174
tp3175
a(S'YP_003044887.1'
p3176
g3
(g5
S'\x0c\x98\xf2\x1b\xb1\x19\x94@'
tRp3177
tp3178
a(S'YP_003043631.1'
p3179
g3
(g5
S'\xb6\x84\xde7\x1f\x1d\x94@'
tRp3180
tp3181
a(S'YP_003045429.1'
p3182
g3
(g5
S'\xc9\xb2\xd2\xd5\xef&\x94@'
tRp3183
tp3184
a(S'YP_003045965.1'
p3185
g3
(g5
S'bdJ\x13d1\x94@'
tRp3186
tp3187
a(S'YP_003043406.1'
p3188
g3
(g5
S'\x97\xe2\xba&!3\x94@'
tRp3189
tp3190
a(S'YP_003044346.1'
p3191
g3
(g5
S't\xdd[\xb0\xacV\x94@'
tRp3192
tp3193
a(S'YP_003047001.1'
p3194
g3
(g5
S'\x85{2.$o\x94@'
tRp3195
tp3196
a(S'YP_003047293.1'
p3197
g3
(g5
S'J%\xa0%\xae\x86\x94@'
tRp3198
tp3199
a(S'YP_003043362.1'
p3200
g3
(g5
S'\xd67cAj\x91\x94@'
tRp3201
tp3202
a(S'YP_003045603.1'
p3203
g3
(g5
S'8\xe8+\xcb\x96\x9b\x94@'
tRp3204
tp3205
a(S'YP_003044087.1'
p3206
g3
(g5
S'\xee2Y2\x1a\xa3\x94@'
tRp3207
tp3208
a(S'YP_003047248.1'
p3209
g3
(g5
S'\x95_\x1d\xa4H\xbd\x94@'
tRp3210
tp3211
a(S'YP_003043408.1'
p3212
g3
(g5
S'+RU\xfe\x87\xcf\x94@'
tRp3213
tp3214
a(S'YP_003044307.1'
p3215
g3
(g5
S'\x94I#\xae\xc5\xda\x94@'
tRp3216
tp3217
a(S'YP_003044882.1'
p3218
g3
(g5
S'\xd6\x00\xde\x12\x8a\xf0\x94@'
tRp3219
tp3220
a(S'YP_003045433.1'
p3221
g3
(g5
S'\x8f\xcfsD\t\xfc\x94@'
tRp3222
tp3223
a(S'YP_003046825.1'
p3224
g3
(g5
S'6\xcbO\x8c\x06\x18\x95@'
tRp3225
tp3226
a(S'YP_003043378.1'
p3227
g3
(g5
S'\x9c\x8b\xd4\x81B!\x95@'
tRp3228
tp3229
a(S'YP_003045918.1'
p3230
g3
(g5
S'`PB5_-\x95@'
tRp3231
tp3232
a(S'YP_003046746.1'
p3233
g3
(g5
S'+\xb6\xec\xe3\x9a.\x95@'
tRp3234
tp3235
a(S'YP_003043905.1'
p3236
g3
(g5
S'\x8ax\n\xb6\x12;\x95@'
tRp3237
tp3238
a(S'YP_003046225.1'
p3239
g3
(g5
S's\xcf(M\x17;\x95@'
tRp3240
tp3241
a(S'YP_003046984.1'
p3242
g3
(g5
S'"\xb0o/\x81O\x95@'
tRp3243
tp3244
a(S'YP_003047098.1'
p3245
g3
(g5
S'N\xb9SJ\x8eT\x95@'
tRp3246
tp3247
a(S'YP_003046337.1'
p3248
g3
(g5
S'\xf7\x95\xcb\x86\x19W\x95@'
tRp3249
tp3250
a(S'YP_003043775.1'
p3251
g3
(g5
S'c\xcd\xae+\xc6Z\x95@'
tRp3252
tp3253
a(S'YP_003045582.1'
p3254
g3
(g5
S'\xc0\x08\xe3\\Ub\x95@'
tRp3255
tp3256
a(S'YP_003045798.1'
p3257
g3
(g5
S'E\xcb\xf4<\x82t\x95@'
tRp3258
tp3259
a(S'YP_003045497.1'
p3260
g3
(g5
S'F\xd4\x8c\x11\x91w\x95@'
tRp3261
tp3262
a(S'YP_003046997.1'
p3263
g3
(g5
S'\x9b\x08\x03\x0e\xcc|\x95@'
tRp3264
tp3265
a(S'YP_003046122.1'
p3266
g3
(g5
S'\x1a\xdd\x86NR\x7f\x95@'
tRp3267
tp3268
a(S'YP_003043328.1'
p3269
g3
(g5
S'\xc7\x91\x950\xa9\x86\x95@'
tRp3270
tp3271
a(S'YP_003046813.1'
p3272
g3
(g5
S'\xd3Q\xc2Tw\xbf\x95@'
tRp3273
tp3274
a(S'YP_003046790.1'
p3275
g3
(g5
S'\xaa\xf6\xd1\xda\xf2\xe1\x95@'
tRp3276
tp3277
a(S'YP_003044701.1'
p3278
g3
(g5
S'^\xacm`~\xe4\x95@'
tRp3279
tp3280
a(S'YP_003045237.1'
p3281
g3
(g5
S'\x1f{\xa6\xa8,\xe5\x95@'
tRp3282
tp3283
a(S'YP_003046638.1'
p3284
g3
(g5
S'\x0f[\xb0\xd3\x80\xe7\x95@'
tRp3285
tp3286
a(S'YP_003047321.1'
p3287
g3
(g5
S'\x14\xae\xc7\x1ck\xf6\x95@'
tRp3288
tp3289
a(S'YP_003045427.1'
p3290
g3
(g5
S'\xc8\xdf\x1f\xf3\x11\xf9\x95@'
tRp3291
tp3292
a(S'YP_003044984.1'
p3293
g3
(g5
S'\x04\xad\x0e\xf5>\x11\x96@'
tRp3294
tp3295
a(S'YP_003044260.1'
p3296
g3
(g5
S'5\xf2V;h$\x96@'
tRp3297
tp3298
a(S'YP_003046081.1'
p3299
g3
(g5
S'\xb3\x0c%\xd2v1\x96@'
tRp3300
tp3301
a(S'YP_003046384.1'
p3302
g3
(g5
S'\xc3\xb2\xc0Dv6\x96@'
tRp3303
tp3304
a(S'YP_003044248.1'
p3305
g3
(g5
S'6\xcb\xa0e\xedM\x96@'
tRp3306
tp3307
a(S'YP_003046230.1'
p3308
g3
(g5
S'\x1b?\xda1\x7fQ\x96@'
tRp3309
tp3310
a(S'YP_003043619.1'
p3311
g3
(g5
S'\x90\xc4\xe4\xd4\xeaX\x96@'
tRp3312
tp3313
a(S'YP_003045115.1'
p3314
g3
(g5
S'\x9d)/\x93\x03Z\x96@'
tRp3315
tp3316
a(S'YP_003043669.1'
p3317
g3
(g5
S'\xa4\x81\x89`\xa5j\x96@'
tRp3318
tp3319
a(S'YP_003043560.1'
p3320
g3
(g5
S'\x96\xe6\x08+\x98\x84\x96@'
tRp3321
tp3322
a(S'YP_003045596.1'
p3323
g3
(g5
S'\x9fd\xd4\xb3\xa9\x94\x96@'
tRp3324
tp3325
a(S'YP_003046918.1'
p3326
g3
(g5
S'Ci\xb9:\t\x95\x96@'
tRp3327
tp3328
a(S'YP_003046441.1'
p3329
g3
(g5
S'\x00\r\n\x86\x85\x98\x96@'
tRp3330
tp3331
a(S'YP_003047270.1'
p3332
g3
(g5
S'*\x06\xc6\xf5\\\x9f\x96@'
tRp3333
tp3334
a(S'YP_003046372.1'
p3335
g3
(g5
S'\xdb\xd0\x95\xbe\x02\xc6\x96@'
tRp3336
tp3337
a(S'YP_003043646.1'
p3338
g3
(g5
S'e\xc1&\x04\x1f\xca\x96@'
tRp3339
tp3340
a(S'YP_003044298.1'
p3341
g3
(g5
S'\x0c\xfdA\xa2F\xd5\x96@'
tRp3342
tp3343
a(S'YP_003044648.1'
p3344
g3
(g5
S'\xf8D\n\x93\xaf\xe0\x96@'
tRp3345
tp3346
a(S'YP_003043920.1'
p3347
g3
(g5
S'\xa6f\xcf\x81\x80\x01\x97@'
tRp3348
tp3349
a(S'YP_003043330.1'
p3350
g3
(g5
S'\xa2\xc6\xa0;\x9eE\x97@'
tRp3351
tp3352
a(S'YP_003045684.1'
p3353
g3
(g5
S"\xfb0\xdd?'G\x97@"
tRp3354
tp3355
a(S'YP_003046315.1'
p3356
g3
(g5
S'Q\xc0E~\xa4[\x97@'
tRp3357
tp3358
a(S'YP_003045401.1'
p3359
g3
(g5
S'\xc4\xf1\xbe\xcf[]\x97@'
tRp3360
tp3361
a(S'YP_003046828.1'
p3362
g3
(g5
S'\x1b\x90\xd4\xe0\x1br\x97@'
tRp3363
tp3364
a(S'YP_003045410.1'
p3365
g3
(g5
S'\x05\x12\x1ca\x16w\x97@'
tRp3366
tp3367
a(S'YP_003044371.1'
p3368
g3
(g5
S'"p-\xbeB\x81\x97@'
tRp3369
tp3370
a(S'YP_003043343.1'
p3371
g3
(g5
S'\xa1\x88;\t\x01\x82\x97@'
tRp3372
tp3373
a(S'YP_003046989.1'
p3374
g3
(g5
S'kJ\x01Hm\x84\x97@'
tRp3375
tp3376
a(S'YP_003043260.1'
p3377
g3
(g5
S'\xee\xb0\xf3\x15\xae\x8c\x97@'
tRp3378
tp3379
a(S'YP_003045843.1'
p3380
g3
(g5
S'\x91P\xa8\x9d\xc7\x8c\x97@'
tRp3381
tp3382
a(S'YP_003043985.1'
p3383
g3
(g5
S'\x9f\x14\xa7\xe9\xab\xb0\x97@'
tRp3384
tp3385
a(S'YP_003044562.1'
p3386
g3
(g5
S'Z\xf1!\x16\xc2\xb8\x97@'
tRp3387
tp3388
a(S'YP_003044454.1'
p3389
g3
(g5
S'\x86p\xfe\x15r\xc6\x97@'
tRp3390
tp3391
a(S'YP_003047280.1'
p3392
g3
(g5
S'#l\xd6\x84^\xc8\x97@'
tRp3393
tp3394
a(S'YP_003046262.1'
p3395
g3
(g5
S'\x08W\x11\x11\x9b\xcd\x97@'
tRp3396
tp3397
a(S'YP_003045607.1'
p3398
g3
(g5
S'\x89\xdc\x12v\x98\t\x98@'
tRp3399
tp3400
a(S'YP_003043698.1'
p3401
g3
(g5
S"'\xf1D\x89\xf4\x0b\x98@"
tRp3402
tp3403
a(S'YP_003047260.1'
p3404
g3
(g5
S't\xf8\xdf\xb0\xbf\x0e\x98@'
tRp3405
tp3406
a(S'YP_003044469.1'
p3407
g3
(g5
S'\xbe\x98\x8bJX\x14\x98@'
tRp3408
tp3409
a(S'YP_003044281.1'
p3410
g3
(g5
S'#\x89B\xfb\xab\x1f\x98@'
tRp3411
tp3412
a(S'YP_003043267.1'
p3413
g3
(g5
S')\x9e\xed=81\x98@'
tRp3414
tp3415
a(S'YP_003045117.1'
p3416
g3
(g5
S'4\xb0s\x1e\x91U\x98@'
tRp3417
tp3418
a(S'YP_003045797.1'
p3419
g3
(g5
S'x-\xee>\xedZ\x98@'
tRp3420
tp3421
a(S'YP_003046584.1'
p3422
g3
(g5
S'\xe8\xe8\xe1\xc2Cp\x98@'
tRp3423
tp3424
a(S'YP_003045736.1'
p3425
g3
(g5
S'\xb4\xe0\xaf\x88&}\x98@'
tRp3426
tp3427
a(S'YP_003046295.1'
p3428
g3
(g5
S'\xe8\xec\xb9\x05\xfe\xa5\x98@'
tRp3429
tp3430
a(S'YP_003044115.1'
p3431
g3
(g5
S'\xf6\xe9"\xde\x9f\xc4\x98@'
tRp3432
tp3433
a(S'YP_003043902.1'
p3434
g3
(g5
S'\xfb)\xeb\xd8B\xc6\x98@'
tRp3435
tp3436
a(S'YP_003043459.1'
p3437
g3
(g5
S'\x1d@\x9c\x8b\xdc\xe3\x98@'
tRp3438
tp3439
a(S'YP_003044451.1'
p3440
g3
(g5
S'\x92\x18k\x84\xb2\x04\x99@'
tRp3441
tp3442
a(S'YP_003045647.1'
p3443
g3
(g5
S'\xb6\xe2G\xaf\xab\x11\x99@'
tRp3444
tp3445
a(S'YP_003044223.1'
p3446
g3
(g5
S'B\xf4y\x1513\x99@'
tRp3447
tp3448
a(S'YP_003043395.1'
p3449
g3
(g5
S"\xe9'\x9a\t34\x99@"
tRp3450
tp3451
a(S'YP_003046485.1'
p3452
g3
(g5
S'\x91\x95\x8c\x14\x82E\x99@'
tRp3453
tp3454
a(S'YP_003047068.1'
p3455
g3
(g5
S'Y\x0c]\x98\x1c`\x99@'
tRp3456
tp3457
a(S'YP_003046592.1'
p3458
g3
(g5
S'\xdeZoM\x88f\x99@'
tRp3459
tp3460
a(S'YP_003043611.1'
p3461
g3
(g5
S'\x91M#:\xabz\x99@'
tRp3462
tp3463
a(S'YP_003043348.1'
p3464
g3
(g5
S"\xea\xce\x1b\xee'\xa2\x99@"
tRp3465
tp3466
a(S'YP_003046263.1'
p3467
g3
(g5
S'\x87\xf7\xdfb\xa2\xcb\x99@'
tRp3468
tp3469
a(S'YP_003045559.1'
p3470
g3
(g5
S'\xf4b\xac(\xd2N\x9a@'
tRp3471
tp3472
a(S'YP_003045980.1'
p3473
g3
(g5
S'\x06\x9cQd\x89U\x9a@'
tRp3474
tp3475
a(S'YP_003044881.1'
p3476
g3
(g5
S'\xeed\xb7\xd9\xec^\x9a@'
tRp3477
tp3478
a(S'YP_003045516.1'
p3479
g3
(g5
S'N\xccY\xe3Uw\x9a@'
tRp3480
tp3481
a(S'YP_003044450.1'
p3482
g3
(g5
S'\xa3 \xfc}\xd4\x85\x9a@'
tRp3483
tp3484
a(S'YP_003044305.1'
p3485
g3
(g5
S'\xf2\xfcb\x99s\x9e\x9a@'
tRp3486
tp3487
a(S'YP_003043416.1'
p3488
g3
(g5
S'\xf1M[\x19H\xac\x9a@'
tRp3489
tp3490
a(S'YP_003045069.1'
p3491
g3
(g5
S'\xa380YO\xc1\x9a@'
tRp3492
tp3493
a(S'YP_003045577.1'
p3494
g3
(g5
S'\x9c\xfe\x9c\x86H\xc5\x9a@'
tRp3495
tp3496
a(S'YP_003046031.1'
p3497
g3
(g5
S'\xe8\xd5\xc5&\xa7\xcb\x9a@'
tRp3498
tp3499
a(S'YP_003046208.1'
p3500
g3
(g5
S'D3\xce\xa8\xbc\xcc\x9a@'
tRp3501
tp3502
a(S'YP_003047069.1'
p3503
g3
(g5
S'\x1fq9\xbd\x8a\xe2\x9a@'
tRp3504
tp3505
a(S'YP_003045671.1'
p3506
g3
(g5
S'\xd7\xa0\xc94\xfd\xf0\x9a@'
tRp3507
tp3508
a(S'YP_003046333.1'
p3509
g3
(g5
S'\x99\xaf"\xd7\xd2\x08\x9b@'
tRp3510
tp3511
a(S'YP_003046833.1'
p3512
g3
(g5
S'\xee\xeb\xcd\xe8\r\x13\x9b@'
tRp3513
tp3514
a(S'YP_003043650.1'
p3515
g3
(g5
S'C\xe6l\xfa\xa0 \x9b@'
tRp3516
tp3517
a(S'YP_003043382.1'
p3518
g3
(g5
S'\xd4\x90\xd7\xdb].\x9b@'
tRp3519
tp3520
a(S'YP_003043904.1'
p3521
g3
(g5
S'\xc1\xdc4\xab\xd9D\x9b@'
tRp3522
tp3523
a(S'YP_003044892.1'
p3524
g3
(g5
S'\x11j\xc2g\xf7\x83\x9b@'
tRp3525
tp3526
a(S'YP_003043231.1'
p3527
g3
(g5
S'&=#Q\xc9\xa5\x9b@'
tRp3528
tp3529
a(S'YP_003046216.1'
p3530
g3
(g5
S'\x12V\x91\xb5\x93\xae\x9b@'
tRp3531
tp3532
a(S'YP_003043325.1'
p3533
g3
(g5
S'\xa9\xaa@\xb3l\xe7\x9b@'
tRp3534
tp3535
a(S'YP_003043640.1'
p3536
g3
(g5
S'\xd5\xbf\xf6\xda`\xf4\x9b@'
tRp3537
tp3538
a(S'YP_003045165.1'
p3539
g3
(g5
S'\x01r\xe7\x82\t\xf5\x9b@'
tRp3540
tp3541
a(S'YP_003044412.1'
p3542
g3
(g5
S'l\xc2\xc1\xd6\xd1\xfa\x9b@'
tRp3543
tp3544
a(S'YP_003046980.1'
p3545
g3
(g5
S'\xf1\xab~\xdd\xfa\x05\x9c@'
tRp3546
tp3547
a(S'YP_003044999.1'
p3548
g3
(g5
S'<\x90\xf3n\xc8-\x9c@'
tRp3549
tp3550
a(S'YP_003044289.1'
p3551
g3
(g5
S'\xf5\x9d\x03i\xd87\x9c@'
tRp3552
tp3553
a(S'YP_003046338.1'
p3554
g3
(g5
S'\xa5\xa7\x9e\xb5\x85>\x9c@'
tRp3555
tp3556
a(S'YP_003045414.1'
p3557
g3
(g5
S'$\x0b\x13\x00\x9aK\x9c@'
tRp3558
tp3559
a(S'YP_003044185.1'
p3560
g3
(g5
S'!\xfe\xfd\xc4\xb8\\\x9c@'
tRp3561
tp3562
a(S'YP_003043308.1'
p3563
g3
(g5
S'j\xaa\x10\xd2vq\x9c@'
tRp3564
tp3565
a(S'YP_003045122.1'
p3566
g3
(g5
S'\xf5\x9b\xbf\xec\xb6\x85\x9c@'
tRp3567
tp3568
a(S'YP_003043821.1'
p3569
g3
(g5
S'\xfdv\x8cQ\x9e\x8e\x9c@'
tRp3570
tp3571
a(S'YP_003045411.1'
p3572
g3
(g5
S's\xb5\xa1\xdc\xaf\xbf\x9c@'
tRp3573
tp3574
a(S'YP_003045561.1'
p3575
g3
(g5
S'\xaf\x99\xf4\xd7\x16\xc0\x9c@'
tRp3576
tp3577
a(S'YP_003043346.1'
p3578
g3
(g5
S'\xfc\x93\xd7\xa0\x03\xcd\x9c@'
tRp3579
tp3580
a(S'YP_003043888.1'
p3581
g3
(g5
S'#\x02s\xd7\x9e\xe0\x9c@'
tRp3582
tp3583
a(S'YP_003045125.1'
p3584
g3
(g5
S'\xfe1f\x94$\xf5\x9c@'
tRp3585
tp3586
a(S'YP_003044890.1'
p3587
g3
(g5
S'\xb6\x8fO\x15\x02\xfb\x9c@'
tRp3588
tp3589
a(S'YP_003046910.1'
p3590
g3
(g5
S'\xf1\x8c\x9az}\xfb\x9c@'
tRp3591
tp3592
a(S'YP_003045580.1'
p3593
g3
(g5
S'\xee\x1e#x\x88\x02\x9d@'
tRp3594
tp3595
a(S'YP_003044276.1'
p3596
g3
(g5
S'v4:\x0c\x88\x1a\x9d@'
tRp3597
tp3598
a(S'YP_003043391.1'
p3599
g3
(g5
S'\x9eN\x8b \xc1 \x9d@'
tRp3600
tp3601
a(S'YP_003043600.1'
p3602
g3
(g5
S'M\xbf\x99H\x892\x9d@'
tRp3603
tp3604
a(S'YP_003046274.1'
p3605
g3
(g5
S'\xde\x0b\x04\xf3 N\x9d@'
tRp3606
tp3607
a(S'YP_003044421.1'
p3608
g3
(g5
S'\xe8\x05\xac\xae\xe2p\x9d@'
tRp3609
tp3610
a(S'YP_003044074.1'
p3611
g3
(g5
S'\xd2\xbea{x\x93\x9d@'
tRp3612
tp3613
a(S'YP_003046299.1'
p3614
g3
(g5
S'\xa9\xedU\x93\x90\x97\x9d@'
tRp3615
tp3616
a(S'YP_003045351.1'
p3617
g3
(g5
S'\x91&\x08\xdd\xe4\xe2\x9d@'
tRp3618
tp3619
a(S'YP_003044111.1'
p3620
g3
(g5
S'\xee\x0c\xc5sv\xe9\x9d@'
tRp3621
tp3622
a(S'YP_003045116.1'
p3623
g3
(g5
S'3\xa9&+\xa0\x06\x9e@'
tRp3624
tp3625
a(S'YP_003045738.1'
p3626
g3
(g5
S'\xfe!g@\xa9\x10\x9e@'
tRp3627
tp3628
a(S'YP_003046892.1'
p3629
g3
(g5
S'\x1b\xb4\xb1[r.\x9e@'
tRp3630
tp3631
a(S'YP_003043784.1'
p3632
g3
(g5
S'B\xda\xd1\xf5\x8e8\x9e@'
tRp3633
tp3634
a(S'YP_003044322.1'
p3635
g3
(g5
S'3\x99hv\xc8[\x9e@'
tRp3636
tp3637
a(S'YP_003044088.1'
p3638
g3
(g5
S'\x9b\x89O\xd8\xf8_\x9e@'
tRp3639
tp3640
a(S'YP_003044315.1'
p3641
g3
(g5
S'`\xffu\x13\xaf\xaa\x9e@'
tRp3642
tp3643
a(S'YP_003044284.1'
p3644
g3
(g5
S'|\x19\r\x1aT\xe7\x9e@'
tRp3645
tp3646
a(S'YP_003045123.1'
p3647
g3
(g5
S'\xf8}b\x99\xa7\x06\x9f@'
tRp3648
tp3649
a(S'YP_003046824.1'
p3650
g3
(g5
S'\xcf\xec>\xdf\xaa\x13\x9f@'
tRp3651
tp3652
a(S'YP_003044405.1'
p3653
g3
(g5
S'\xe0\x06&\x867L\x9f@'
tRp3654
tp3655
a(S'YP_003043903.1'
p3656
g3
(g5
S'\xeb(>\xfc\x08e\x9f@'
tRp3657
tp3658
a(S'YP_003045929.1'
p3659
g3
(g5
S'"Q\xa9b\xff\xda\x9f@'
tRp3660
tp3661
a(S'YP_003044338.1'
p3662
g3
(g5
S'\x87+\x1d\xc1E\xfd\x9f@'
tRp3663
tp3664
a(S'YP_003046221.1'
p3665
g3
(g5
S'\x8am\xa0\x7f\xa5\x10\xa0@'
tRp3666
tp3667
a(S'YP_003045417.1'
p3668
g3
(g5
S'0\x05\x9c\x14"\x19\xa0@'
tRp3669
tp3670
a(S'YP_003044302.1'
p3671
g3
(g5
S'1\x16\x87\xf5)"\xa0@'
tRp3672
tp3673
a(S'YP_003046490.1'
p3674
g3
(g5
S'\xd1\xfb\xf9\x17\\$\xa0@'
tRp3675
tp3676
a(S'YP_003046420.1'
p3677
g3
(g5
S"<*\x95\xf9'Q\xa0@"
tRp3678
tp3679
a(S'YP_003044428.1'
p3680
g3
(g5
S'\xact\xff\xb4"W\xa0@'
tRp3681
tp3682
a(S'YP_003044618.1'
p3683
g3
(g5
S'\xd5\x982\xc5\xc4d\xa0@'
tRp3684
tp3685
a(S'YP_003046648.1'
p3686
g3
(g5
S'\xf2\x8d\xc1\xd1%e\xa0@'
tRp3687
tp3688
a(S'YP_003047211.1'
p3689
g3
(g5
S'$\xd9\xf3TEi\xa0@'
tRp3690
tp3691
a(S'YP_003044807.1'
p3692
g3
(g5
S'\xb4\xed\xad\xb9\xdcm\xa0@'
tRp3693
tp3694
a(S'YP_003046585.1'
p3695
g3
(g5
S'\x02Z\xc2uo{\xa0@'
tRp3696
tp3697
a(S'YP_003045119.1'
p3698
g3
(g5
S'\x8b\x04\xea\x1f\x03}\xa0@'
tRp3699
tp3700
a(S'YP_003046086.1'
p3701
g3
(g5
S'\xb4\x01}b\x99~\xa0@'
tRp3702
tp3703
a(S'YP_003045562.1'
p3704
g3
(g5
S'\x9ev\xff\xb34\x81\xa0@'
tRp3705
tp3706
a(S'YP_003043412.1'
p3707
g3
(g5
S'\xb0bE+\xa8\xa1\xa0@'
tRp3708
tp3709
a(S'YP_003043651.1'
p3710
g3
(g5
S'\x83\xe7%\xd1\xfb\xb1\xa0@'
tRp3711
tp3712
a(S'YP_003044755.1'
p3713
g3
(g5
S'\xa8\x1a\xa0\xfb\xfe\xb1\xa0@'
tRp3714
tp3715
a(S'YP_003046220.1'
p3716
g3
(g5
S'\xdfT\x02\x8a\xa4\xbc\xa0@'
tRp3717
tp3718
a(S'YP_003045018.1'
p3719
g3
(g5
S'\xac\x1b\xa9\xde\x06\xbf\xa0@'
tRp3720
tp3721
a(S'YP_003044130.1'
p3722
g3
(g5
S'\x05=\xe1\xd2u\xc0\xa0@'
tRp3723
tp3724
a(S'YP_003046399.1'
p3725
g3
(g5
S'[\x13,}\xbf\xc2\xa0@'
tRp3726
tp3727
a(S'YP_003046634.1'
p3728
g3
(g5
S"\xba\xd5\xd5'\x18\xe9\xa0@"
tRp3729
tp3730
a(S'YP_003047436.1'
p3731
g3
(g5
S'>\x9b\x94\xb1\xd2\xee\xa0@'
tRp3732
tp3733
a(S'YP_003046789.1'
p3734
g3
(g5
S'c\x97sc\xae\x03\xa1@'
tRp3735
tp3736
a(S'YP_003046732.1'
p3737
g3
(g5
S'i\xd0|5\xd4\x0b\xa1@'
tRp3738
tp3739
a(S'YP_003047103.1'
p3740
g3
(g5
S'S\x14\xd3C\xb8\r\xa1@'
tRp3741
tp3742
a(S'YP_003044083.1'
p3743
g3
(g5
S'\xf5\xa4\xf9E\xd4\x1c\xa1@'
tRp3744
tp3745
a(S'YP_003044946.1'
p3746
g3
(g5
S'\x14\x0025\x84#\xa1@'
tRp3747
tp3748
a(S'YP_003044907.1'
p3749
g3
(g5
S'\x95\xbaT\x08U%\xa1@'
tRp3750
tp3751
a(S'YP_003046223.1'
p3752
g3
(g5
S'\x04\x0eS\x17\xca-\xa1@'
tRp3753
tp3754
a(S'YP_003044125.1'
p3755
g3
(g5
S'_W`\xf7X0\xa1@'
tRp3756
tp3757
a(S'YP_003043422.1'
p3758
g3
(g5
S'\x97\xc4p\xb9\xb8=\xa1@'
tRp3759
tp3760
a(S'YP_003045017.1'
p3761
g3
(g5
S'\xde\xd3\x82\x96\xf3K\xa1@'
tRp3762
tp3763
a(S'YP_003045611.1'
p3764
g3
(g5
S'm\xaeLG6t\xa1@'
tRp3765
tp3766
a(S'YP_003046453.1'
p3767
g3
(g5
S'\x99\x91\x1e\xee${\xa1@'
tRp3768
tp3769
a(S'YP_003044880.1'
p3770
g3
(g5
S'\x1f\x19\xf1[\xb8|\xa1@'
tRp3771
tp3772
a(S'YP_003047055.1'
p3773
g3
(g5
S'8\xc2\xc9\xf6G\x7f\xa1@'
tRp3774
tp3775
a(S'YP_003047036.1'
p3776
g3
(g5
S',\xfd\xd1k\x82\x84\xa1@'
tRp3777
tp3778
a(S'YP_003047214.1'
p3779
g3
(g5
S'\xf5^\x01 \xc4\xc3\xa1@'
tRp3780
tp3781
a(S'YP_003047014.1'
p3782
g3
(g5
S'\x1e\x88\xdam\x9d\xc5\xa1@'
tRp3783
tp3784
a(S'YP_003044086.1'
p3785
g3
(g5
S'\xf0C\xcc\xf2\x92\xc6\xa1@'
tRp3786
tp3787
a(S'YP_003046649.1'
p3788
g3
(g5
S'\x7f\x83\xac\x05P\xcd\xa1@'
tRp3789
tp3790
a(S'YP_003047031.1'
p3791
g3
(g5
S' \x01\xa0\x06\xf6\xdf\xa1@'
tRp3792
tp3793
a(S'YP_003045694.1'
p3794
g3
(g5
S'Wz;\x05-\xe4\xa1@'
tRp3795
tp3796
a(S'YP_003044780.1'
p3797
g3
(g5
S'\xca~\xcf\xed\xc1\xf8\xa1@'
tRp3798
tp3799
a(S'YP_003044425.1'
p3800
g3
(g5
S'\x08U42\xd5\xfa\xa1@'
tRp3801
tp3802
a(S'YP_003043833.1'
p3803
g3
(g5
S'p\x11\xb2\xa8z!\xa2@'
tRp3804
tp3805
a(S'YP_003043427.1'
p3806
g3
(g5
S'P\x1d\xfe\xcb\xb0J\xa2@'
tRp3807
tp3808
a(S'YP_003044430.1'
p3809
g3
(g5
S'\x9f\x92\xe7\xa1\x7fP\xa2@'
tRp3810
tp3811
a(S'YP_003043305.1'
p3812
g3
(g5
S'\xfc\xafbl\xe7\\\xa2@'
tRp3813
tp3814
a(S'YP_003043399.1'
p3815
g3
(g5
S'B5 \xa6Je\xa2@'
tRp3816
tp3817
a(S'YP_003043918.1'
p3818
g3
(g5
S'eC\xc5\xa8\x9az\xa2@'
tRp3819
tp3820
a(S'YP_003046383.1'
p3821
g3
(g5
S'\xe5\xd9\xd3x\x9b\xba\xa2@'
tRp3822
tp3823
a(S'YP_003046765.1'
p3824
g3
(g5
S's\xce\x9f`g\xe1\xa2@'
tRp3825
tp3826
a(S'YP_003043393.1'
p3827
g3
(g5
S'\xbf\xbe\xa0:\xfb\xe7\xa2@'
tRp3828
tp3829
a(S'YP_003047056.1'
p3830
g3
(g5
S'\x05|\xabZF\xfa\xa2@'
tRp3831
tp3832
a(S'YP_003046259.1'
p3833
g3
(g5
S'\xcf\xd5\x8f\xce,\xfd\xa2@'
tRp3834
tp3835
a(S'YP_003046422.1'
p3836
g3
(g5
S'$\xbdl\x82\xa5\x00\xa3@'
tRp3837
tp3838
a(S'YP_003043901.1'
p3839
g3
(g5
S'[\x8e\x13\x88\x8a\x0e\xa3@'
tRp3840
tp3841
a(S'YP_003043999.1'
p3842
g3
(g5
S'r\xc3\x19g\xb4\x0f\xa3@'
tRp3843
tp3844
a(S'YP_003047060.1'
p3845
g3
(g5
S'8\xa0\x03\x1c4"\xa3@'
tRp3846
tp3847
a(S'YP_003043926.1'
p3848
g3
(g5
S'\xbb\xc6r*[&\xa3@'
tRp3849
tp3850
a(S'YP_003046348.1'
p3851
g3
(g5
S'\xbb\x8f\xa0\r\xacP\xa3@'
tRp3852
tp3853
a(S'YP_003046092.1'
p3854
g3
(g5
S'e\x00\x8d\xfcla\xa3@'
tRp3855
tp3856
a(S'YP_003046275.1'
p3857
g3
(g5
S'\x02Z\xcd\xb8\xdec\xa3@'
tRp3858
tp3859
a(S'YP_003047295.1'
p3860
g3
(g5
S'h\xcf\xa4n\x8f\x97\xa3@'
tRp3861
tp3862
a(S'YP_003047015.1'
p3863
g3
(g5
S'+!\xf9m\xb2\x9c\xa3@'
tRp3864
tp3865
a(S'YP_003044476.1'
p3866
g3
(g5
S'\x0bM\xd0\xc6\x07\xe2\xa3@'
tRp3867
tp3868
a(S'YP_003043860.1'
p3869
g3
(g5
S'{\xa2\x84\xfd\\\xe5\xa3@'
tRp3870
tp3871
a(S'YP_003047018.1'
p3872
g3
(g5
S'%\x98\xf5\xc5\xcd\xe7\xa3@'
tRp3873
tp3874
a(S'YP_003044150.1'
p3875
g3
(g5
S'\xf7\xdacr\xd6\xf0\xa3@'
tRp3876
tp3877
a(S'YP_003047209.1'
p3878
g3
(g5
S'\x9f\xf1\xd4\xa5P\x0e\xa4@'
tRp3879
tp3880
a(S'YP_003046278.1'
p3881
g3
(g5
S'Y\x1b\xaf\x80xu\xa4@'
tRp3882
tp3883
a(S'YP_003044224.1'
p3884
g3
(g5
S']S]K\xaa\x82\xa4@'
tRp3885
tp3886
a(S'YP_003044826.1'
p3887
g3
(g5
S"\xaeg\x91'\xae\x9e\xa4@"
tRp3888
tp3889
a(S'YP_003046342.1'
p3890
g3
(g5
S'\x9bg I\x8d\xbd\xa4@'
tRp3891
tp3892
a(S'YP_003047017.1'
p3893
g3
(g5
S'\xd3\xeb\r\xe4\xa6\xc8\xa4@'
tRp3894
tp3895
a(S'YP_003046835.1'
p3896
g3
(g5
S'\xa6B\xcb!\xf1\xe5\xa4@'
tRp3897
tp3898
a(S'YP_003045503.1'
p3899
g3
(g5
S']\x8f\x9e\xf2u\xe6\xa4@'
tRp3900
tp3901
a(S'YP_003043342.1'
p3902
g3
(g5
S'\x94\x89*Pw\xf4\xa4@'
tRp3903
tp3904
a(S'YP_003045308.1'
p3905
g3
(g5
S'\xed\xc4\xe0\x95/\x05\xa5@'
tRp3906
tp3907
a(S'YP_003043232.1'
p3908
g3
(g5
S'Z5K\xa1H\x1f\xa5@'
tRp3909
tp3910
a(S'YP_003046676.1'
p3911
g3
(g5
S'g0\x8c\xc7\xb8"\xa5@'
tRp3912
tp3913
a(S'YP_003045691.1'
p3914
g3
(g5
S'JjoP\x91?\xa5@'
tRp3915
tp3916
a(S'YP_003044285.1'
p3917
g3
(g5
S'6\x1b\x12*\x0fB\xa5@'
tRp3918
tp3919
a(S'YP_003046797.1'
p3920
g3
(g5
S'"\xe2\x90[\x19S\xa5@'
tRp3921
tp3922
a(S'YP_003045563.1'
p3923
g3
(g5
S'iN\xab\xff\xc5j\xa5@'
tRp3924
tp3925
a(S'YP_003043906.1'
p3926
g3
(g5
S'\xb9\xf9d\xf49\x98\xa5@'
tRp3927
tp3928
a(S'YP_003045639.1'
p3929
g3
(g5
S'\x026\x81\xf2\xc6\xa1\xa5@'
tRp3930
tp3931
a(S'YP_003043407.1'
p3932
g3
(g5
S'"\x91]\xb9\xcd\xa3\xa5@'
tRp3933
tp3934
a(S'YP_003046298.1'
p3935
g3
(g5
S'\x7f\xdcH\xcb\x8f\xb1\xa5@'
tRp3936
tp3937
a(S'YP_003044317.1'
p3938
g3
(g5
S'G\xcf\x8c\x198\xc8\xa5@'
tRp3939
tp3940
a(S'YP_003046793.1'
p3941
g3
(g5
S'\x955sUF\xcd\xa5@'
tRp3942
tp3943
a(S'YP_003043612.1'
p3944
g3
(g5
S'XD\x85\xd3w\xe0\xa5@'
tRp3945
tp3946
a(S'YP_003044225.1'
p3947
g3
(g5
S'\xd5\xae\x95\xe0/\x01\xa6@'
tRp3948
tp3949
a(S'YP_003047016.1'
p3950
g3
(g5
S'\x7f\x05\x1c=U\x04\xa6@'
tRp3951
tp3952
a(S'YP_003044447.1'
p3953
g3
(g5
S'\x19\x90\x87\xd4\x95\x04\xa6@'
tRp3954
tp3955
a(S'YP_003046349.1'
p3956
g3
(g5
S'fJ\xcd\xfa\xb8\x11\xa6@'
tRp3957
tp3958
a(S'YP_003043924.1'
p3959
g3
(g5
S'x\x0852\x02\x14\xa6@'
tRp3960
tp3961
a(S'YP_003046795.1'
p3962
g3
(g5
S'\xd4H7|\xef!\xa6@'
tRp3963
tp3964
a(S'YP_003047184.1'
p3965
g3
(g5
S'\xc9\x04\x14\xf00\x8d\xa6@'
tRp3966
tp3967
a(S'YP_003044129.1'
p3968
g3
(g5
S'\xc7\x9f\xf6\t\xa8\x90\xa6@'
tRp3969
tp3970
a(S'YP_003043743.1'
p3971
g3
(g5
S'\xcf-\xce\xdc\xb1\xad\xa6@'
tRp3972
tp3973
a(S'YP_003046827.1'
p3974
g3
(g5
S'\x15\xbe\xbc\xcc\xff\xf3\xa6@'
tRp3975
tp3976
a(S'YP_003047078.1'
p3977
g3
(g5
S'D\x08\xac_K\x04\xa7@'
tRp3978
tp3979
a(S'YP_003043827.1'
p3980
g3
(g5
S'Bc\xb13N"\xa7@'
tRp3981
tp3982
a(S'YP_003046004.1'
p3983
g3
(g5
S'\xab1\t\x9e\x08/\xa7@'
tRp3984
tp3985
a(S'YP_003043266.1'
p3986
g3
(g5
S'\xf3K\x9c\x1a\xd6E\xa7@'
tRp3987
tp3988
a(S'YP_003046355.1'
p3989
g3
(g5
S'\xce\xff\xcbG\x05R\xa7@'
tRp3990
tp3991
a(S'YP_003046672.1'
p3992
g3
(g5
S'F\x9b\xca\x10\xc4S\xa7@'
tRp3993
tp3994
a(S'YP_003043424.1'
p3995
g3
(g5
S'\xd0\xd1`\x95QU\xa7@'
tRp3996
tp3997
a(S'YP_003045508.1'
p3998
g3
(g5
S'\x87=W[=V\xa7@'
tRp3999
tp4000
a(S'YP_003046794.1'
p4001
g3
(g5
S'[:\x8b\x85\xacc\xa7@'
tRp4002
tp4003
a(S'YP_003046395.1'
p4004
g3
(g5
S"'\x18$\xdf\xbe\x90\xa7@"
tRp4005
tp4006
a(S'YP_003047037.1'
p4007
g3
(g5
S'\x99\xd6\xae\x85\xbc\xbf\xa7@'
tRp4008
tp4009
a(S'YP_003045272.1'
p4010
g3
(g5
S'\xcc\xc3\xa1\xdc\xb2\xdc\xa7@'
tRp4011
tp4012
a(S'YP_003045581.1'
p4013
g3
(g5
S'\xab\xf8\x02R\xa3\x03\xa8@'
tRp4014
tp4015
a(S'YP_003045440.1'
p4016
g3
(g5
S'%\x9c\x96\xb3C\x19\xa8@'
tRp4017
tp4018
a(S'YP_003046647.1'
p4019
g3
(g5
S'\xda\x05\xc9\x06@_\xa8@'
tRp4020
tp4021
a(S'YP_003045933.1'
p4022
g3
(g5
S'e\xf0\xf7\x11Cg\xa8@'
tRp4023
tp4024
a(S'YP_003046385.1'
p4025
g3
(g5
S'\xb0\xfd\xfd\x9a\\g\xa8@'
tRp4026
tp4027
a(S'YP_003043237.1'
p4028
g3
(g5
S'\xcb\x0eo\x9d\xb3\x7f\xa8@'
tRp4029
tp4030
a(S'YP_003047265.1'
p4031
g3
(g5
S'\x9d:\xae{\xea\x87\xa8@'
tRp4032
tp4033
a(S'YP_003046967.1'
p4034
g3
(g5
S'\xd8)\xf9\x17r\x8b\xa8@'
tRp4035
tp4036
a(S'YP_003046341.1'
p4037
g3
(g5
S'\x9e\xb5\xaf\xa7,\x91\xa8@'
tRp4038
tp4039
a(S'YP_003045426.1'
p4040
g3
(g5
S'\xd4x\xf4\xe4\xf3\x9b\xa8@'
tRp4041
tp4042
a(S'YP_003043648.1'
p4043
g3
(g5
S'\x1d\xf62r\xf5\xb6\xa8@'
tRp4044
tp4045
a(S'YP_003044448.1'
p4046
g3
(g5
S'lQ\xbc\xafo\xba\xa8@'
tRp4047
tp4048
a(S'YP_003045413.1'
p4049
g3
(g5
S'G\xdc?\xa8c\xbc\xa8@'
tRp4050
tp4051
a(S'YP_003043898.1'
p4052
g3
(g5
S'\xcc38|\xcd\xc3\xa8@'
tRp4053
tp4054
a(S'YP_003044772.1'
p4055
g3
(g5
S'\x1f\xad\xf6\x9c\xf3\xdc\xa8@'
tRp4056
tp4057
a(S'YP_003045277.1'
p4058
g3
(g5
S'\xe1E\x81~,\x1f\xa9@'
tRp4059
tp4060
a(S'YP_003045590.1'
p4061
g3
(g5
S'\xe6\x8a;\xb2LL\xa9@'
tRp4062
tp4063
a(S'YP_003047256.1'
p4064
g3
(g5
S'&R\xc7\x19)^\xa9@'
tRp4065
tp4066
a(S'YP_003046637.1'
p4067
g3
(g5
S'\xad\xb1,\xa1\xe9^\xa9@'
tRp4068
tp4069
a(S'YP_003044308.1'
p4070
g3
(g5
S'\xaeb\t\t\x1b\xd0\xa9@'
tRp4071
tp4072
a(S'YP_003046357.1'
p4073
g3
(g5
S'~\x80&Gx?\xaa@'
tRp4074
tp4075
a(S'YP_003043446.1'
p4076
g3
(g5
S'|E\x06\xf24E\xaa@'
tRp4077
tp4078
a(S'YP_003046340.1'
p4079
g3
(g5
S'\xc3Hl\xa2Rk\xaa@'
tRp4080
tp4081
a(S'YP_003044886.1'
p4082
g3
(g5
S'u\xf6\xfbIZ\x9e\xaa@'
tRp4083
tp4084
a(S'YP_003043389.1'
p4085
g3
(g5
S'\xbf\xf7\xafo\x82\xc9\xaa@'
tRp4086
tp4087
a(S'YP_003046929.1'
p4088
g3
(g5
S']\tl)3\xcb\xaa@'
tRp4089
tp4090
a(S'YP_003045560.1'
p4091
g3
(g5
S'.;H\xda\x9b\xcb\xaa@'
tRp4092
tp4093
a(S'YP_003045953.1'
p4094
g3
(g5
S'\x8an\x87\xe4\x94\xe0\xaa@'
tRp4095
tp4096
a(S'YP_003045507.1'
p4097
g3
(g5
S'=\xc6\xeb3\xc6\r\xab@'
tRp4098
tp4099
a(S'YP_003047000.1'
p4100
g3
(g5
S'\xe3\xe6v\x811\x15\xab@'
tRp4101
tp4102
a(S'YP_003047239.1'
p4103
g3
(g5
S'U\xb1\xb6\x1d\xfe\xab\xab@'
tRp4104
tp4105
a(S'YP_003044106.1'
p4106
g3
(g5
S'\xc9\xd9$\xb1\x98\xb3\xab@'
tRp4107
tp4108
a(S'YP_003043303.1'
p4109
g3
(g5
S'\xc1\xf2\x0bW\xba\xe6\xab@'
tRp4110
tp4111
a(S'YP_003044133.1'
p4112
g3
(g5
S'\x87\xc2\xaf7e-\xac@'
tRp4113
tp4114
a(S'YP_003044557.1'
p4115
g3
(g5
S'\xe3G\x83\x8b\xf42\xac@'
tRp4116
tp4117
a(S'YP_003046818.1'
p4118
g3
(g5
S'\xad\x81\xcc\x13\xa7t\xac@'
tRp4119
tp4120
a(S'YP_003046353.1'
p4121
g3
(g5
S'\xa5I\xd4\x03\xd3\x92\xac@'
tRp4122
tp4123
a(S'YP_003047322.1'
p4124
g3
(g5
S'\xb2\x0b\x17r\xe8\x9c\xac@'
tRp4125
tp4126
a(S'YP_003045402.1'
p4127
g3
(g5
S'\xd8\xe7#d\xcd\xc8\xac@'
tRp4128
tp4129
a(S'YP_003046377.1'
p4130
g3
(g5
S'5\xad~\xe4\xa2a\xad@'
tRp4131
tp4132
a(S'YP_003043359.1'
p4133
g3
(g5
S'\xbd*\x0f\xf0\xaa\x86\xad@'
tRp4134
tp4135
a(S'YP_003045687.1'
p4136
g3
(g5
S'}&\x13\xc9\xb5B\xae@'
tRp4137
tp4138
a(S'YP_003043859.1'
p4139
g3
(g5
S'\xf1\xf8\x918qY\xae@'
tRp4140
tp4141
a(S'YP_003044927.1'
p4142
g3
(g5
S'B\xf9\xc1\xbc\xd8g\xae@'
tRp4143
tp4144
a(S'YP_003045109.1'
p4145
g3
(g5
S'U\x86\x03\xb0\xe9\xa9\xae@'
tRp4146
tp4147
a(S'YP_003043304.1'
p4148
g3
(g5
S'r\xa1R07\xae\xae@'
tRp4149
tp4150
a(S'YP_003043919.1'
p4151
g3
(g5
S'\x91\x8b\xff\n)\xef\xae@'
tRp4152
tp4153
a(S'YP_003043986.1'
p4154
g3
(g5
S'vq\xc1@\xb10\xaf@'
tRp4155
tp4156
a(S'YP_003046576.1'
p4157
g3
(g5
S'\xb5_\x07\xf8\xed@\xaf@'
tRp4158
tp4159
a(S'YP_003043511.1'
p4160
g3
(g5
S'\x167#)\x0f\x8a\xaf@'
tRp4161
tp4162
a(S'YP_003046685.1'
p4163
g3
(g5
S'!7e\xe1%\xf7\xaf@'
tRp4164
tp4165
a(S'YP_003043795.1'
p4166
g3
(g5
S"\x90/\x15$\xaf'\xb0@"
tRp4167
tp4168
a(S'YP_003046343.1'
p4169
g3
(g5
S'T\xbaw\x08\x12.\xb0@'
tRp4170
tp4171
a(S'YP_003043997.1'
p4172
g3
(g5
S"\x15\x8f'\x17c1\xb0@"
tRp4173
tp4174
a(S'YP_003043613.1'
p4175
g3
(g5
S'\xef(\xb9\xcf\x1br\xb0@'
tRp4176
tp4177
a(S'YP_003043302.1'
p4178
g3
(g5
S'\xe0\xd1_\x84\xdb\x83\xb0@'
tRp4179
tp4180
a(S'YP_003046468.1'
p4181
g3
(g5
S'\x9a\x12 H\xdc\xa3\xb0@'
tRp4182
tp4183
a(S'YP_003043233.1'
p4184
g3
(g5
S'\xd5F.\x03g\xf3\xb0@'
tRp4185
tp4186
a(S'YP_003044598.1'
p4187
g3
(g5
S'\xb4\xba[A\x95\x1c\xb1@'
tRp4188
tp4189
a(S'YP_003046304.1'
p4190
g3
(g5
S'>,\x1cf4\x1d\xb1@'
tRp4191
tp4192
a(S'YP_003046347.1'
p4193
g3
(g5
S'\xaf\x86\x90}\xd0t\xb1@'
tRp4194
tp4195
a(S'YP_003044134.1'
p4196
g3
(g5
S'q\xfc\x10\xfa\xccy\xb1@'
tRp4197
tp4198
a(S'YP_003043842.1'
p4199
g3
(g5
S'\xd2\x80W\x12}\xe9\xb1@'
tRp4200
tp4201
a(S'YP_003044306.1'
p4202
g3
(g5
S'\x90\xfe.\xac\xde\xed\xb1@'
tRp4203
tp4204
a(S'YP_003046346.1'
p4205
g3
(g5
S'\xd5\xd7\x05F\xa4\x1c\xb2@'
tRp4206
tp4207
a(S'YP_003043925.1'
p4208
g3
(g5
S'\xf63.\xd5\xbeC\xb2@'
tRp4209
tp4210
a(S'YP_003046351.1'
p4211
g3
(g5
S'\xe4)\xa8;\x86E\xb2@'
tRp4212
tp4213
a(S'YP_003043699.1'
p4214
g3
(g5
S'?\xe3\xf1\xf1\x0fn\xb2@'
tRp4215
tp4216
a(S'YP_003047032.1'
p4217
g3
(g5
S'\xbe\xfb\xa2\x0f\xafy\xb2@'
tRp4218
tp4219
a(S'YP_003046792.1'
p4220
g3
(g5
S'\xb3\x0b3\xf7\xc1\xa8\xb2@'
tRp4221
tp4222
a(S'YP_003047034.1'
p4223
g3
(g5
S'A\xd8\x0c\xe6L\xb4\xb2@'
tRp4224
tp4225
a(S'YP_003044110.1'
p4226
g3
(g5
S'wB\x16\x11\xa4\xca\xb2@'
tRp4227
tp4228
a(S'YP_003045600.1'
p4229
g3
(g5
S'Q2/j\xc8)\xb3@'
tRp4230
tp4231
a(S'YP_003046809.1'
p4232
g3
(g5
S'\x9f\xec\xde\xc6|4\xb3@'
tRp4233
tp4234
a(S'YP_003043425.1'
p4235
g3
(g5
S'\x92\x1e\xc8\xc8\x88h\xb3@'
tRp4236
tp4237
a(S'YP_003045275.1'
p4238
g3
(g5
S'S\nSF@\xb6\xb3@'
tRp4239
tp4240
a(S'YP_003043701.1'
p4241
g3
(g5
S'\xe1\xd8\xd0Y~\xb6\xb3@'
tRp4242
tp4243
a(S'YP_003046331.1'
p4244
g3
(g5
S'\x1c\xa6\x1c\xff\xeb\xbb\xb3@'
tRp4245
tp4246
a(S'YP_003043614.1'
p4247
g3
(g5
S'^J\xf6\xa9\x86\xd5\xb3@'
tRp4248
tp4249
a(S'YP_003047033.1'
p4250
g3
(g5
S'\x02>\xbd&\xdc\xdc\xb3@'
tRp4251
tp4252
a(S'YP_003043396.1'
p4253
g3
(g5
S'\xfd\xc7\x11\x05\x82\xe1\xb3@'
tRp4254
tp4255
a(S'YP_003046350.1'
p4256
g3
(g5
S'Jb\xd5-\x84C\xb5@'
tRp4257
tp4258
a(S'YP_003046791.1'
p4259
g3
(g5
S'\x18\xb0\xf0\xfd7i\xb5@'
tRp4260
tp4261
a(S'YP_003045960.1'
p4262
g3
(g5
S'\x88\xc9I\x0b?\xa5\xb5@'
tRp4263
tp4264
a(S'YP_003045944.1'
p4265
g3
(g5
S'p\x1fnH\xf1\xec\xb5@'
tRp4266
tp4267
a(S'YP_003045932.1'
p4268
g3
(g5
S'c\xfb\xc5\xdbA\xf4\xb5@'
tRp4269
tp4270
a(S'YP_003047240.1'
p4271
g3
(g5
S'P\xbe\\\xf7*<\xb7@'
tRp4272
tp4273
a(S'YP_003046344.1'
p4274
g3
(g5
S'\xe8\xd0\xec\x97\x1d=\xb7@'
tRp4275
tp4276
a(S'YP_003046281.1'
p4277
g3
(g5
S'-8\xc3\xb6\x91\x82\xb7@'
tRp4278
tp4279
a(S'YP_003043618.1'
p4280
g3
(g5
S'\xd27\xad\x941\x8b\xb7@'
tRp4281
tp4282
a(S'YP_003044512.1'
p4283
g3
(g5
S'\x8fJ\xf5\x9clA\xb8@'
tRp4284
tp4285
a(S'YP_003046796.1'
p4286
g3
(g5
S'\x0b5B\xabz\xcd\xb8@'
tRp4287
tp4288
a(S'YP_003045945.1'
p4289
g3
(g5
S'\xbd\x14\xca\xac\x1c\xcf\xb8@'
tRp4290
tp4291
a(S'YP_003043397.1'
p4292
g3
(g5
S'!\x96\xf7p\xa6\xe0\xb8@'
tRp4293
tp4294
a(S'YP_003044152.1'
p4295
g3
(g5
S's\xb5\xde\x02\xf8>\xb9@'
tRp4296
tp4297
a(S'YP_003047050.1'
p4298
g3
(g5
S'|\xd2-V\xa0H\xb9@'
tRp4299
tp4300
a(S'YP_003045633.1'
p4301
g3
(g5
S'\x85\xb8s\xa6aZ\xb9@'
tRp4302
tp4303
a(S'YP_003046526.1'
p4304
g3
(g5
S'\xd1h$ZS\xc3\xb9@'
tRp4305
tp4306
a(S'YP_003046812.1'
p4307
g3
(g5
S'\x0b\xf1\xb77\xba\xee\xb9@'
tRp4308
tp4309
a(S'YP_003043581.1'
p4310
g3
(g5
S'\xba[M\xff=\x05\xba@'
tRp4311
tp4312
a(S'YP_003043609.1'
p4313
g3
(g5
S'\xdf\xf5\xfa\xa9(#\xba@'
tRp4314
tp4315
a(S'YP_003046334.1'
p4316
g3
(g5
S'\x8a\xb3#\xa9jI\xba@'
tRp4317
tp4318
a(S'YP_003043243.1'
p4319
g3
(g5
S'\xa9p\x0b\x87\x14K\xba@'
tRp4320
tp4321
a(S'YP_003045104.1'
p4322
g3
(g5
S'_\x02JZ\x85w\xba@'
tRp4323
tp4324
a(S'YP_003044811.1'
p4325
g3
(g5
S'\xc7Z\xa1\xbc\x92\x87\xba@'
tRp4326
tp4327
a(S'YP_003044426.1'
p4328
g3
(g5
S'3\xff\x81\xdf3\x88\xbb@'
tRp4329
tp4330
a(S'YP_003044179.1'
p4331
g3
(g5
S'\xbd_\x8b/J\x95\xbb@'
tRp4332
tp4333
a(S'YP_003046217.1'
p4334
g3
(g5
S'G\xff^\xa7g\xa4\xbb@'
tRp4335
tp4336
a(S'YP_003046352.1'
p4337
g3
(g5
S'\xfbPR\xc5\x0c\xbd\xbb@'
tRp4338
tp4339
a(S'YP_003046492.1'
p4340
g3
(g5
S'\xb4\xb1L\xb4\x16I\xbc@'
tRp4341
tp4342
a(S'YP_003046823.1'
p4343
g3
(g5
S'\xa4\x05\xaf_\x9ft\xbc@'
tRp4344
tp4345
a(S'YP_003046977.1'
p4346
g3
(g5
S'\xd8\xf1Y\xaew\x95\xbd@'
tRp4347
tp4348
a(S'YP_003047237.1'
p4349
g3
(g5
S'd\x9d\xdd\xbe\x86=\xbf@'
tRp4350
tp4351
a(S'YP_003043772.1'
p4352
g3
(g5
S'm\xd9k\xb5\xebu\xbf@'
tRp4353
tp4354
a(S'YP_003046882.1'
p4355
g3
(g5
S'\x8e\x18\x91o\x9f\xd2\xbf@'
tRp4356
tp4357
a(S'YP_003046376.1'
p4358
g3
(g5
S'\xaa\xf2\xf9a\xca\xe3\xbf@'
tRp4359
tp4360
a(S'YP_003044309.1'
p4361
g3
(g5
S'\xda\xcfB/\xe1\xa1\xc0@'
tRp4362
tp4363
a(S'YP_003043257.1'
p4364
g3
(g5
S'\xe2f\x9b\x1e\xc6\xa9\xc0@'
tRp4365
tp4366
a(S'YP_003043373.1'
p4367
g3
(g5
S'~\x19\x13k\xc2\xa8\xc1@'
tRp4368
tp4369
a(S'YP_003045813.1'
p4370
g3
(g5
S'\x14\xe9\x91\x1a\x9d\xac\xc1@'
tRp4371
tp4372
a(S'YP_003045506.1'
p4373
g3
(g5
S'\xba\x19\x06{\xff\xf1\xc2@'
tRp4374
tp4375
a(S'YP_003044990.1'
p4376
g3
(g5
S'\xa76\xd5\xdd{m\xc3@'
tRp4377
tp4378
a(S'YP_003044303.1'
p4379
g3
(g5
S'\x15QV\x06n\n\xc4@'
tRp4380
tp4381
a(S'YP_003046332.1'
p4382
g3
(g5
S'\x08\x8f\x0f\xb1XM\xc5@'
tRp4383
tp4384
a(S'YP_003045505.1'
p4385
g3
(g5
S'bP\xe5\x18\xc3`\xc6@'
tRp4386
tp4387
a(S'YP_003046339.1'
p4388
g3
(g5
S'\xd7\xf3\xbeb\x93\x97\xca@'
tRp4389
tp4390
a(S'YP_003046994.1'
p4391
g3
(g5
S'\x00l\x87\xf1\x88\xca\xcb@'
tRp4392
tp4393
a(S'YP_003047035.1'
p4394
g3
(g5
S'\x9e@\xcc\xabbR\xce@'
tRp4395
tp4396
a(S'YP_003044945.1'
p4397
g3
(g5
S'fF\xcf.\x1e\x16\xcf@'
tRp4398
tp4399
a(S'YP_003044438.1'
p4400
g3
(g5
S'G\x7f\xd0\xd4*C\xd0@'
tRp4401
tp4402
a(S'YP_003047029.1'
p4403
g3
(g5
S'\x8b\x8a\x8bCd0\xd8@'
tRp4404
tp4405
a(S'YP_003046375.1'
p4406
g3
(g5
S'E"U \xe0\x0f\xd9@'
tRp4407
tp4408
a.