(lp1
(S'YP_003044417.1'
p2
cnumpy.core.multiarray
scalar
p3
(cnumpy
dtype
p4
(S'f8'
I0
I1
tRp5
(I3
S'<'
NNNI-1
I-1
I0
tbS'\xf4\xf5\x15Z\xd8e\x0e@'
tRp6
tp7
a(S'YP_003045239.1'
p8
g3
(g5
S'\xd63\xeaYB\xe4\x13@'
tRp9
tp10
a(S'YP_003046514.1'
p11
g3
(g5
S'>\x84\xfc(\x1f\xc0\x17@'
tRp12
tp13
a(S'YP_003043617.1'
p14
g3
(g5
S'3\xa7\xcf[\x84\x83\x1a@'
tRp15
tp16
a(S'YP_003045899.1'
p17
g3
(g5
S'b\xb1?\xb0.\x01\x1d@'
tRp18
tp19
a(S'YP_003044823.1'
p20
g3
(g5
S'\xcb5\x11z[\x19 @'
tRp21
tp22
a(S'YP_003043708.1'
p23
g3
(g5
S'E\x90U\xc8?w!@'
tRp24
tp25
a(S'YP_003044194.1'
p26
g3
(g5
S'\x87_\xeb\x12G\xcc!@'
tRp27
tp28
a(S'YP_003044537.1'
p29
g3
(g5
S'\\\xe0\x8c\x19\xf6\xfe!@'
tRp30
tp31
a(S'YP_003045299.1'
p32
g3
(g5
S'\x00#T\xcbH\x1b"@'
tRp33
tp34
a(S'YP_003043979.1'
p35
g3
(g5
S'E\xaa\x0b\x18\xa7o#@'
tRp36
tp37
a(S'YP_003046549.1'
p38
g3
(g5
S'i\x07P!\x04\xa4#@'
tRp39
tp40
a(S'YP_003044498.1'
p41
g3
(g5
S'\x0c\xa1.\xae\x8a\xa6#@'
tRp42
tp43
a(S'YP_003044092.1'
p44
g3
(g5
S'-{\xb2\xb8\xab\x1a$@'
tRp45
tp46
a(S'YP_003047113.1'
p47
g3
(g5
S'\x17\xdc\xd5C\xb2\x82$@'
tRp48
tp49
a(S'YP_003044634.1'
p50
g3
(g5
S'j^\x9c\x800\xa7$@'
tRp51
tp52
a(S'YP_003047288.1'
p53
g3
(g5
S'|\xc2\xca\x17\x10(%@'
tRp54
tp55
a(S'YP_003045107.1'
p56
g3
(g5
S'\xc0;\x83\xadg\x8b%@'
tRp57
tp58
a(S'YP_003043394.1'
p59
g3
(g5
S'\xb4:\xa4\x9c\x1c\xd3&@'
tRp60
tp61
a(S'YP_003045693.1'
p62
g3
(g5
S"\xc8G\xd1\xc8\xa2\xf4'@"
tRp63
tp64
a(S'YP_003045856.1'
p65
g3
(g5
S'\xc8\x86\xfb\xad\x05\xfb)@'
tRp66
tp67
a(S'YP_003046166.1'
p68
g3
(g5
S'\x12\xfc{\xc1\xb0g*@'
tRp69
tp70
a(S'YP_003043984.1'
p71
g3
(g5
S'\xa0\x19s\x8d\xa6\x8b*@'
tRp72
tp73
a(S'YP_003046394.1'
p74
g3
(g5
S'I17X\xb4\x14+@'
tRp75
tp76
a(S'YP_003045300.1'
p77
g3
(g5
S'=\xdf\xcf<\xa4\x85+@'
tRp78
tp79
a(S'YP_003046781.1'
p80
g3
(g5
S'\xaf\xa8b v\xb8+@'
tRp81
tp82
a(S'YP_003045709.1'
p83
g3
(g5
S'\xa8\x9eB\xa6\xe8\xd1+@'
tRp84
tp85
a(S'YP_003047009.1'
p86
g3
(g5
S'`\xc3\xa6\xaf\x85k,@'
tRp87
tp88
a(S'YP_003043692.1'
p89
g3
(g5
S"\x85'\xb5p\xc2\x9a,@"
tRp90
tp91
a(S'YP_003045013.1'
p92
g3
(g5
S'\x10\r\xd3\xf1\x83S-@'
tRp93
tp94
a(S'YP_003043376.1'
p95
g3
(g5
S'_0*\xf8gi.@'
tRp96
tp97
a(S'YP_003045344.1'
p98
g3
(g5
S'j\x9c\xe9\xd7\xbe\x84.@'
tRp99
tp100
a(S'YP_003047006.1'
p101
g3
(g5
S'\x8bi.h.\xb9.@'
tRp102
tp103
a(S'YP_003045167.1'
p104
g3
(g5
S'\x02h*\xc8\xef\x1f/@'
tRp105
tp106
a(S'YP_003043754.1'
p107
g3
(g5
S'D\xaf\xe7\xc4\xf8P/@'
tRp108
tp109
a(S'YP_003046493.1'
p110
g3
(g5
S'\xeergG]\x8e0@'
tRp111
tp112
a(S'YP_003047061.1'
p113
g3
(g5
S'jPP\x82\xf9\xab0@'
tRp114
tp115
a(S'YP_003045631.1'
p116
g3
(g5
S'k.\xf8TO01@'
tRp117
tp118
a(S'YP_003045755.1'
p119
g3
(g5
S'\x1bwG\xedZU1@'
tRp120
tp121
a(S'YP_003045855.1'
p122
g3
(g5
S'\xf5\xcb\x07`hq1@'
tRp123
tp124
a(S'YP_003044563.1'
p125
g3
(g5
S'\xf4\x8d\x023_\xbb1@'
tRp126
tp127
a(S'YP_003044899.1'
p128
g3
(g5
S'!\xde\x08@\xb8\x132@'
tRp129
tp130
a(S'YP_003045471.1'
p131
g3
(g5
S'u6\xa8\xde\xa9?2@'
tRp132
tp133
a(S'YP_003045887.1'
p134
g3
(g5
S'\xdbU\x00\xeb\x8fm2@'
tRp135
tp136
a(S'YP_003047223.1'
p137
g3
(g5
S"\xea3ng\xc2'3@"
tRp138
tp139
a(S'YP_003044215.1'
p140
g3
(g5
S'\x80\xee\xabJ\xd2$4@'
tRp141
tp142
a(S'YP_003043871.1'
p143
g3
(g5
S'\xa5l\x88\xd1\x1b/4@'
tRp144
tp145
a(S'YP_003044640.1'
p146
g3
(g5
S'\xb1\x89\xdfo\xaf\x195@'
tRp147
tp148
a(S'YP_003045177.1'
p149
g3
(g5
S'\xdb&\xabl\x84~5@'
tRp150
tp151
a(S'YP_003047244.1'
p152
g3
(g5
S'\xd4\xdc\x89za<8@'
tRp153
tp154
a(S'YP_003046195.1'
p155
g3
(g5
S'\xd5\xb1\xc3f\xa7\x828@'
tRp156
tp157
a(S'YP_003047010.1'
p158
g3
(g5
S'\xb7\xe7\xbd\x89\x12\xcf8@'
tRp159
tp160
a(S'YP_003046374.1'
p161
g3
(g5
S'\xa1\xbfy\xfa\xb5\xff8@'
tRp162
tp163
a(S'YP_003043673.1'
p164
g3
(g5
S'\xa6\xb5^V\x9e\x959@'
tRp165
tp166
a(S'YP_003043503.1'
p167
g3
(g5
S'\xfd\xd0V\x92\xab&:@'
tRp168
tp169
a(S'YP_003043736.1'
p170
g3
(g5
S'\xb5\xf56n\xd8\xaf:@'
tRp171
tp172
a(S'YP_003047227.1'
p173
g3
(g5
S'\xe6\xffL\xf3\x88\xfc:@'
tRp174
tp175
a(S'YP_003046146.1'
p176
g3
(g5
S'\xac|c\x11u\x96;@'
tRp177
tp178
a(S'YP_003045858.1'
p179
g3
(g5
S'\x03)\xb5\xbd\xfeD<@'
tRp180
tp181
a(S'YP_003046666.1'
p182
g3
(g5
S'SX\xec\xf2h|<@'
tRp183
tp184
a(S'YP_003044216.1'
p185
g3
(g5
S'\xac\x1b\x15\x0e\x8a\xa4<@'
tRp186
tp187
a(S'YP_003045075.1'
p188
g3
(g5
S'\xa9\xc0\xe5\x86\xaa\xbd<@'
tRp189
tp190
a(S'YP_003047377.1'
p191
g3
(g5
S'KZ\xc7\x08U\xc9>@'
tRp192
tp193
a(S'YP_003045049.1'
p194
g3
(g5
S'\x04\xefb\xc0\xd0z?@'
tRp195
tp196
a(S'YP_003046729.1'
p197
g3
(g5
S'\xe6jc\xdc\xb8\x83?@'
tRp198
tp199
a(S'YP_003044335.1'
p200
g3
(g5
S'Rq\xff\xa2_\xc8?@'
tRp201
tp202
a(S'YP_003044391.1'
p203
g3
(g5
S'$\xa6\xcc\xc3I\xde@@'
tRp204
tp205
a(S'YP_003045163.1'
p206
g3
(g5
S'\xea\xd8,\xdd\x97\xe5@@'
tRp207
tp208
a(S'YP_003044392.1'
p209
g3
(g5
S'\x1a\xf2\xf9V\x13\xf4@@'
tRp210
tp211
a(S'YP_003044910.1'
p212
g3
(g5
S'\xca\x97\x82\x05qoA@'
tRp213
tp214
a(S'YP_003046667.1'
p215
g3
(g5
S' \xd4R\xb21yA@'
tRp216
tp217
a(S'YP_003044615.1'
p218
g3
(g5
S'\xc2fJ\x1d\xf42B@'
tRp219
tp220
a(S'YP_003043385.1'
p221
g3
(g5
S'\x02\xeb\xd1\xe7<ZB@'
tRp222
tp223
a(S'YP_003044912.1'
p224
g3
(g5
S'\xf6\x91\x08\x9cR[B@'
tRp225
tp226
a(S'YP_003045159.1'
p227
g3
(g5
S'We<}f\xc5B@'
tRp228
tp229
a(S'YP_003046643.1'
p230
g3
(g5
S'Y\xb0.\xd9\x00\xffB@'
tRp231
tp232
a(S'YP_003046603.1'
p233
g3
(g5
S"\xfa\xaa\x14\xde\xf7'C@"
tRp234
tp235
a(S'YP_003044342.1'
p236
g3
(g5
S'dw\xde\xad\xad9C@'
tRp237
tp238
a(S'YP_003043289.1'
p239
g3
(g5
S'i\xfe\xd1q\xd1sC@'
tRp240
tp241
a(S'YP_003045672.1'
p242
g3
(g5
S'\x140\xf3\xf4\x1eGD@'
tRp243
tp244
a(S'YP_003046902.1'
p245
g3
(g5
S'v\xb0A\x19 LD@'
tRp246
tp247
a(S'YP_003044779.1'
p248
g3
(g5
S'\xdf\xb37\xd7\xdf~D@'
tRp249
tp250
a(S'YP_003046551.1'
p251
g3
(g5
S'S~\x94\xeb\x0f\xadD@'
tRp252
tp253
a(S'YP_003044607.1'
p254
g3
(g5
S'<\xb1{w\xa0\xaeD@'
tRp255
tp256
a(S'YP_003046983.1'
p257
g3
(g5
S'.\xde\x0f\xb0\n\x14E@'
tRp258
tp259
a(S'YP_003046772.1'
p260
g3
(g5
S'3\xad\x06\x8b4"E@'
tRp261
tp262
a(S'YP_003047251.1'
p263
g3
(g5
S'\x12\xbf\xca\xfcITE@'
tRp264
tp265
a(S'YP_003044679.1'
p266
g3
(g5
S'\xdfJ\xc8\xdd\xf4]E@'
tRp267
tp268
a(S'YP_003043506.1'
p269
g3
(g5
S'\xed\r\xf3\xb8\x13\xcdE@'
tRp270
tp271
a(S'YP_003045311.1'
p272
g3
(g5
S'S\x92\x8dE\xb7\xebE@'
tRp273
tp274
a(S'YP_003043825.1'
p275
g3
(g5
S'\x04S:\xf6\xfd\xfdE@'
tRp276
tp277
a(S'YP_003044094.1'
p278
g3
(g5
S'\xee\xa3\xed\x81\x18JF@'
tRp279
tp280
a(S'YP_003044070.1'
p281
g3
(g5
S'm\xb9\xcbV\xeabF@'
tRp282
tp283
a(S'YP_003045710.1'
p284
g3
(g5
S'\xd3\xdbF?\x9a\x95F@'
tRp285
tp286
a(S'YP_003043977.1'
p287
g3
(g5
S'\x01\xfd\r\xf2\xe6\xb0F@'
tRp288
tp289
a(S'YP_003047373.1'
p290
g3
(g5
S'\xfa\xb4\xf6\x08\x83\x1aG@'
tRp291
tp292
a(S'YP_003044099.1'
p293
g3
(g5
S'\xf3\xa6\xdd\x08rHG@'
tRp294
tp295
a(S'YP_003044107.1'
p296
g3
(g5
S'b\xcf6\xe1\n\xa0G@'
tRp297
tp298
a(S'YP_003044753.1'
p299
g3
(g5
S'2\xe8\xc2\xf7\xdb\xa7G@'
tRp300
tp301
a(S'YP_003045051.1'
p302
g3
(g5
S'":*\x85\xb0\xc3G@'
tRp303
tp304
a(S'YP_003044184.1'
p305
g3
(g5
S'u8\x13\xc7f\x15H@'
tRp306
tp307
a(S'YP_003044138.1'
p308
g3
(g5
S'i\xdbC\x04\x03\x1bH@'
tRp309
tp310
a(S'YP_003044791.1'
p311
g3
(g5
S'G\xc7a\xcb[YH@'
tRp312
tp313
a(S'YP_003043644.1'
p314
g3
(g5
S'b%\xa8"\xf4hH@'
tRp315
tp316
a(S'YP_003044578.1'
p317
g3
(g5
S'\xb4&\x15\x7f\x08\xdcH@'
tRp318
tp319
a(S'YP_003046467.1'
p320
g3
(g5
S'\xa5\xf5\xd7\r\xc9\xe8H@'
tRp321
tp322
a(S'YP_003043249.1'
p323
g3
(g5
S'\xc4+C\x87)\x02I@'
tRp324
tp325
a(S'YP_003045388.1'
p326
g3
(g5
S'jf\xf3\x00\x99\x03I@'
tRp327
tp328
a(S'YP_003046830.1'
p329
g3
(g5
S'\x95X\xcb\x88\x98\x91I@'
tRp330
tp331
a(S'YP_003043572.1'
p332
g3
(g5
S'\xde\x8f)e\xbe\x94I@'
tRp333
tp334
a(S'YP_003046759.1'
p335
g3
(g5
S'3\x81\x9cY\x19\xaaI@'
tRp336
tp337
a(S'YP_003044381.1'
p338
g3
(g5
S'\xbek\xb8\xbaz\xd1I@'
tRp339
tp340
a(S'YP_003046559.1'
p341
g3
(g5
S"U\xaf\xd7\xc8'\xe5I@"
tRp342
tp343
a(S'YP_003043430.1'
p344
g3
(g5
S'j%c\xc0uBJ@'
tRp345
tp346
a(S'YP_003046466.1'
p347
g3
(g5
S'\x12\x8a=>\xefFJ@'
tRp348
tp349
a(S'YP_003046696.1'
p350
g3
(g5
S'\xcf\x9e\xa7g:\x92J@'
tRp351
tp352
a(S'YP_003045338.1'
p353
g3
(g5
S'\xdb\t\x07\xe0\xff\xacJ@'
tRp354
tp355
a(S'YP_003045247.1'
p356
g3
(g5
S'D\xb6\xb8\xe4\x88\xf1J@'
tRp357
tp358
a(S'YP_003046145.1'
p359
g3
(g5
S'M:Gt\x92^K@'
tRp360
tp361
a(S'YP_003045670.1'
p362
g3
(g5
S'p2\xae\x99\x88\xb3K@'
tRp363
tp364
a(S'YP_003045988.1'
p365
g3
(g5
S'\x11W\xae@\x875L@'
tRp366
tp367
a(S'YP_003043388.1'
p368
g3
(g5
S'y\xbb\x8d\r\xb5\xe8L@'
tRp369
tp370
a(S'YP_003045065.1'
p371
g3
(g5
S'\x9f\x0f\x81{\xf3\xedL@'
tRp372
tp373
a(S'YP_003044788.1'
p374
g3
(g5
S'\xddC\x83\xb22UM@'
tRp375
tp376
a(S'YP_003044936.1'
p377
g3
(g5
S'Pt\xaf\x11\xeerM@'
tRp378
tp379
a(S'YP_003046325.1'
p380
g3
(g5
S'-A\xbdN\xc9\xa0M@'
tRp381
tp382
a(S'YP_003046726.1'
p383
g3
(g5
S'\xfa\xe7z\x1c\xce\xa0M@'
tRp384
tp385
a(S'YP_003047132.1'
p386
g3
(g5
S'\xea\x17\xc7\xbd\xcc\xa2M@'
tRp387
tp388
a(S'YP_003044479.1'
p389
g3
(g5
S'\xd6\x7f0\xdb\xd3\x1cN@'
tRp390
tp391
a(S'YP_003044014.1'
p392
g3
(g5
S'\x1c\xa18\xc0\xdd\x1cN@'
tRp393
tp394
a(S'YP_003045820.1'
p395
g3
(g5
S'\xa4t\xd3\x11\xc4(N@'
tRp396
tp397
a(S'YP_003045527.1'
p398
g3
(g5
S'\xf6p#\xf2\xbc6N@'
tRp399
tp400
a(S'YP_003043958.1'
p401
g3
(g5
S'q\x8b"\xaeI\xb5N@'
tRp402
tp403
a(S'YP_003046416.1'
p404
g3
(g5
S'_\xf6\x17\xd2J\xb5N@'
tRp405
tp406
a(S'YP_003046970.1'
p407
g3
(g5
S'\xe5\x8ce\xc3x\xb6N@'
tRp408
tp409
a(S'YP_003045534.1'
p410
g3
(g5
S'\x15\xd34~\xaf\x01O@'
tRp411
tp412
a(S'YP_003045872.1'
p413
g3
(g5
S'F\x86\x19U\xb4\x8aO@'
tRp414
tp415
a(S'YP_003044137.1'
p416
g3
(g5
S'h\x84\x9c\x9d3\xccO@'
tRp417
tp418
a(S'YP_003043951.1'
p419
g3
(g5
S'j\xc0"\xe1\n\x17P@'
tRp420
tp421
a(S'YP_003045511.1'
p422
g3
(g5
S'\xc2\xce\x95\xb5\xc4>P@'
tRp423
tp424
a(S'YP_003045602.1'
p425
g3
(g5
S'\x87\rk\x98\xfdUP@'
tRp426
tp427
a(S'YP_003044102.1'
p428
g3
(g5
S"\xf0\xae'\x03\xf2|P@"
tRp429
tp430
a(S'YP_003046329.1'
p431
g3
(g5
S'\xc7J\xd7\xd6\xa4\x9bP@'
tRp432
tp433
a(S'YP_003044415.1'
p434
g3
(g5
S'\x7f\xc7\xbf\xf3\xd3\xa2P@'
tRp435
tp436
a(S'YP_003044482.1'
p437
g3
(g5
S'\xc6[\xca\x04\x0f\xb8P@'
tRp438
tp439
a(S'YP_003046863.1'
p440
g3
(g5
S'\x12$y\xad\x82\xdaP@'
tRp441
tp442
a(S'YP_003044960.1'
p443
g3
(g5
S'\xbe6\xf7\x1b\x1c\xefP@'
tRp444
tp445
a(S'YP_003044597.1'
p446
g3
(g5
S'\xc6\x10\xd4\xe4@\xf7P@'
tRp447
tp448
a(S'YP_003043641.1'
p449
g3
(g5
S'F\xe8c\x1ey\xfdP@'
tRp450
tp451
a(S'YP_003043411.1'
p452
g3
(g5
S'\xf0!\xc1\xa2DHQ@'
tRp453
tp454
a(S'YP_003046688.1'
p455
g3
(g5
S'D$$\x84\x86\x94Q@'
tRp456
tp457
a(S'YP_003047207.1'
p458
g3
(g5
S'\x8645>E\xb1Q@'
tRp459
tp460
a(S'YP_003044378.1'
p461
g3
(g5
S'\x1c$\xbdE)\xbaQ@'
tRp462
tp463
a(S'YP_003043830.1'
p464
g3
(g5
S'Mq)\n\x12/R@'
tRp465
tp466
a(S'YP_003045279.1'
p467
g3
(g5
S'\xd4\x8c\xc8\xf5\xbcWR@'
tRp468
tp469
a(S'YP_003044143.1'
p470
g3
(g5
S'\xbao,*I]R@'
tRp471
tp472
a(S'YP_003045547.1'
p473
g3
(g5
S'@\x17>\xa8\xb7\x99R@'
tRp474
tp475
a(S'YP_003045657.1'
p476
g3
(g5
S'2\x9c&\xcf\\\xb0R@'
tRp477
tp478
a(S'YP_003046943.1'
p479
g3
(g5
S"\x9eS'\x97x\xccR@"
tRp480
tp481
a(S'YP_003045865.1'
p482
g3
(g5
S'2\xe3K\xd2q\xe8R@'
tRp483
tp484
a(S'YP_003045457.1'
p485
g3
(g5
S'@(5M\xc1\xecR@'
tRp486
tp487
a(S'YP_003046558.1'
p488
g3
(g5
S'"g\xd5\xef\x08\xfaR@'
tRp489
tp490
a(S'YP_003044478.1'
p491
g3
(g5
S'( \xbcjE\x1cS@'
tRp492
tp493
a(S'YP_003047374.1'
p494
g3
(g5
S'S0\xf1\xce*(S@'
tRp495
tp496
a(S'YP_003043593.1'
p497
g3
(g5
S'=\x17\x9e\xcb,WS@'
tRp498
tp499
a(S'YP_003044787.1'
p500
g3
(g5
S'\x8a\x07\x93\xe5\x0b\xf7S@'
tRp501
tp502
a(S'YP_003044835.1'
p503
g3
(g5
S'[\xe1\xd7\x8e\xbf\x1bT@'
tRp504
tp505
a(S'YP_003044687.1'
p506
g3
(g5
S'\xff\xba\xdb\xea\xb57T@'
tRp507
tp508
a(S'YP_003044400.1'
p509
g3
(g5
S'\x8e\xdc \xa2\xcbgT@'
tRp510
tp511
a(S'YP_003045638.1'
p512
g3
(g5
S'=5\xea\xf1\xf1\x86T@'
tRp513
tp514
a(S'YP_003044380.1'
p515
g3
(g5
S'\xad\xce\x993\xbf\x88T@'
tRp516
tp517
a(S'YP_003046992.1'
p518
g3
(g5
S'\xf4\xdb">\xfc\xd2T@'
tRp519
tp520
a(S'YP_003043447.1'
p521
g3
(g5
S'D\x91uK\xf2\x04U@'
tRp522
tp523
a(S'YP_003046658.1'
p524
g3
(g5
S'\\:+"\xb9\x13U@'
tRp525
tp526
a(S'YP_003043443.1'
p527
g3
(g5
S'\xeeeK\xb5n=U@'
tRp528
tp529
a(S'YP_003046481.1'
p530
g3
(g5
S'\x1d6\x86\\\xbfQU@'
tRp531
tp532
a(S'YP_003044617.1'
p533
g3
(g5
S'y\xd3\x94\xcd\xf6RU@'
tRp534
tp535
a(S'YP_003044280.1'
p536
g3
(g5
S'x\x82Y\x0e\x95_U@'
tRp537
tp538
a(S'YP_003046841.1'
p539
g3
(g5
S'\x14)\xf4<VcU@'
tRp540
tp541
a(S'YP_003047398.1'
p542
g3
(g5
S'\x81\xb2\x9d\xeb\xfd{U@'
tRp543
tp544
a(S'YP_003045591.1'
p545
g3
(g5
S'E\xff\xaa\x8f/\x0cV@'
tRp546
tp547
a(S'YP_003044971.1'
p548
g3
(g5
S'\x8b\xf3\x87\x16\x1a\x17V@'
tRp549
tp550
a(S'YP_003044344.1'
p551
g3
(g5
S'ME\xf3\x1e\xc7\x1aV@'
tRp552
tp553
a(S'YP_003044261.1'
p554
g3
(g5
S'\x07&\xb23})V@'
tRp555
tp556
a(S'YP_003044874.1'
p557
g3
(g5
S'dfL\x1c\xdc2V@'
tRp558
tp559
a(S'YP_003044173.1'
p560
g3
(g5
S'\xbe\xdc\xaehq~V@'
tRp561
tp562
a(S'YP_003046129.1'
p563
g3
(g5
S'\xa1\x9a\xcd-{\x7fV@'
tRp564
tp565
a(S'YP_003047004.1'
p566
g3
(g5
S'\xceP>\xb4\xc9\xafV@'
tRp567
tp568
a(S'YP_003047027.1'
p569
g3
(g5
S'\xe7\r\\\x11?\xb2V@'
tRp570
tp571
a(S'YP_003045148.1'
p572
g3
(g5
S'+D\x06\xf4\xfd\xcdV@'
tRp573
tp574
a(S'YP_003043964.1'
p575
g3
(g5
S'OFN\x08\\\xdcV@'
tRp576
tp577
a(S'YP_003046260.1'
p578
g3
(g5
S'\xe3\x89wE\x112W@'
tRp579
tp580
a(S'YP_003045781.1'
p581
g3
(g5
S'P\x84-\xdd\xaaXW@'
tRp582
tp583
a(S'YP_003045971.1'
p584
g3
(g5
S'\x8d6$\xf4\xc4vW@'
tRp585
tp586
a(S'YP_003043526.1'
p587
g3
(g5
S'mq\xd7\x9a\xe4wW@'
tRp588
tp589
a(S'YP_003045289.1'
p590
g3
(g5
S'\x1d\xcf\xbc\xc3:\xb6W@'
tRp591
tp592
a(S'YP_003044981.1'
p593
g3
(g5
S'\x0f\xbeO|\xdf\xdaW@'
tRp594
tp595
a(S'YP_003046488.1'
p596
g3
(g5
S'\xe9?WZTtX@'
tRp597
tp598
a(S'YP_003044191.1'
p599
g3
(g5
S'A3\x01\xb5)}X@'
tRp600
tp601
a(S'YP_003046090.1'
p602
g3
(g5
S'v\xe2\xe2\x8d^\x8fX@'
tRp603
tp604
a(S'YP_003047381.1'
p605
g3
(g5
S'\xfe\xdfE01\xbdX@'
tRp606
tp607
a(S'YP_003045019.1'
p608
g3
(g5
S'\xea7n\xdc\x04\xd3X@'
tRp609
tp610
a(S'YP_003047196.1'
p611
g3
(g5
S'\x89\xab\xb6\xba\xe3\xedX@'
tRp612
tp613
a(S'YP_003046952.1'
p614
g3
(g5
S'\xca\x16\xfe&% Y@'
tRp615
tp616
a(S'YP_003045821.1'
p617
g3
(g5
S'\xf8JV\t\xf2MY@'
tRp618
tp619
a(S'YP_003046111.1'
p620
g3
(g5
S'\xf5\xc4g2\xb3`Y@'
tRp621
tp622
a(S'YP_003043794.1'
p623
g3
(g5
S'\xdd\n\x05?\xb6bY@'
tRp624
tp625
a(S'YP_003045197.1'
p626
g3
(g5
S':\x03AT\xa0\xbcY@'
tRp627
tp628
a(S'YP_003046523.1'
p629
g3
(g5
S'\xcdHr\xe4r\xd8Y@'
tRp630
tp631
a(S'YP_003043924.1'
p632
g3
(g5
S'\xc5\xc1\xc784\xf1Y@'
tRp633
tp634
a(S'YP_003045343.1'
p635
g3
(g5
S'k\x9a\xc8G\x12\x10Z@'
tRp636
tp637
a(S'YP_003047298.1'
p638
g3
(g5
S'\xbd\xd8q1\x85\x1eZ@'
tRp639
tp640
a(S'YP_003045914.1'
p641
g3
(g5
S'\x12\xf6\x9f\xa4\xa3RZ@'
tRp642
tp643
a(S'YP_003044427.1'
p644
g3
(g5
S'\x99\xda\xda\xf7<]Z@'
tRp645
tp646
a(S'YP_003043436.1'
p647
g3
(g5
S'9\xc9\xa0\x97qtZ@'
tRp648
tp649
a(S'YP_003044379.1'
p650
g3
(g5
S'\xec\x03#\xfb\x98\xbdZ@'
tRp651
tp652
a(S'YP_003044025.1'
p653
g3
(g5
S'p\x85s\xbb\x00\xedZ@'
tRp654
tp655
a(S'YP_003046690.1'
p656
g3
(g5
S'\xd2\xe3?N\xe7J[@'
tRp657
tp658
a(S'YP_003045425.1'
p659
g3
(g5
S'\xa3\xc9h\x08\xf5\x8b[@'
tRp660
tp661
a(S'YP_003045517.1'
p662
g3
(g5
S'\x1a\x91kw6\xb0[@'
tRp663
tp664
a(S'YP_003044889.1'
p665
g3
(g5
S'rL\\\xa6\xe1\xda[@'
tRp666
tp667
a(S'YP_003046701.1'
p668
g3
(g5
S'\x14K\xb7\xb3@\xe4[@'
tRp669
tp670
a(S'YP_003043552.1'
p671
g3
(g5
S'\rK\xb1)\x84\xe7[@'
tRp672
tp673
a(S'YP_003045026.1'
p674
g3
(g5
S'* FB*\xf9[@'
tRp675
tp676
a(S'YP_003044304.1'
p677
g3
(g5
S'\xcfk\x9f\xfa\t\xd2\\@'
tRp678
tp679
a(S'YP_003046127.1'
p680
g3
(g5
S'\x05S8\x18H\xe8\\@'
tRp681
tp682
a(S'YP_003045550.1'
p683
g3
(g5
S'\xe0\xf7\x9e\xea\x7f\xef\\@'
tRp684
tp685
a(S'YP_003045271.1'
p686
g3
(g5
S'\xfa@q\x86\x11\x03]@'
tRp687
tp688
a(S'YP_003043494.1'
p689
g3
(g5
S'\x03\xa6(\xaa\x8e&]@'
tRp690
tp691
a(S'YP_003043959.1'
p692
g3
(g5
S'\xd6\x12\xce\xe6\xbc9]@'
tRp693
tp694
a(S'YP_003045091.1'
p695
g3
(g5
S'\xf7\xbc\xeffPo]@'
tRp696
tp697
a(S'YP_003046853.1'
p698
g3
(g5
S'\xda\x8d\xdd\xeery]@'
tRp699
tp700
a(S'YP_003047408.1'
p701
g3
(g5
S'!\xce\xc7\x94\x96z]@'
tRp702
tp703
a(S'YP_003047378.1'
p704
g3
(g5
S'\xc8\xa1_\xce<\xc3]@'
tRp705
tp706
a(S'YP_003046499.1'
p707
g3
(g5
S'\xaaFQ\x94@\xcb]@'
tRp708
tp709
a(S'YP_003047354.1'
p710
g3
(g5
S'\xc5Sh\x89\x9b\xe9]@'
tRp711
tp712
a(S'YP_003045002.1'
p713
g3
(g5
S'\tP\x98\xe2\x00\x07^@'
tRp714
tp715
a(S'YP_003043418.1'
p716
g3
(g5
S'\xe8\xfd\xbaN\x1e\n^@'
tRp717
tp718
a(S'YP_003044171.1'
p719
g3
(g5
S'\xc6\xb0\xc6\xa9\x94]^@'
tRp720
tp721
a(S'YP_003045927.1'
p722
g3
(g5
S'y\xe8\xac\xaa8z^@'
tRp723
tp724
a(S'YP_003045766.1'
p725
g3
(g5
S'\x01\x1aq)\x187_@'
tRp726
tp727
a(S'YP_003045014.1'
p728
g3
(g5
S'7}@\x89\x19J_@'
tRp729
tp730
a(S'YP_003046459.1'
p731
g3
(g5
S'\xe7h0TF\xbb_@'
tRp732
tp733
a(S'YP_003047108.1'
p734
g3
(g5
S'\xe97\xab\xce\xd2\xc6_@'
tRp735
tp736
a(S'YP_003045583.1'
p737
g3
(g5
S'\xe6\x156\x00\xf2\xe3_@'
tRp738
tp739
a(S'YP_003047297.1'
p740
g3
(g5
S'\xe3A\x0fh\xcc\x05`@'
tRp741
tp742
a(S'YP_003045849.1'
p743
g3
(g5
S'\xbd\xd5\xb2\xe3\xe4"`@'
tRp744
tp745
a(S'YP_003044300.1'
p746
g3
(g5
S'\x90g\xfa\x1aq(`@'
tRp747
tp748
a(S'YP_003046651.1'
p749
g3
(g5
S'#\x0b\x9c"\xfe+`@'
tRp750
tp751
a(S'YP_003046671.1'
p752
g3
(g5
S'\xac\xb9Gk\xdbC`@'
tRp753
tp754
a(S'YP_003043781.1'
p755
g3
(g5
S')@\xf1\xd0]T`@'
tRp756
tp757
a(S'YP_003047287.1'
p758
g3
(g5
S'N\xe6\x0b\x00\xe7h`@'
tRp759
tp760
a(S'YP_003043934.1'
p761
g3
(g5
S')\xea`k\xe2o`@'
tRp762
tp763
a(S'YP_003047375.1'
p764
g3
(g5
S'\x7f\xd0w\xab\x89x`@'
tRp765
tp766
a(S'YP_003043759.1'
p767
g3
(g5
S'\x92B\x1d\x8a\x98\x84`@'
tRp768
tp769
a(S'YP_003045092.1'
p770
g3
(g5
S'\x1eq\xd2@\x83\x89`@'
tRp771
tp772
a(S'YP_003045096.1'
p773
g3
(g5
S'\x8f&\x1aP\xc7\xbb`@'
tRp774
tp775
a(S'YP_003045296.1'
p776
g3
(g5
S"'\x18\x0e\x8f\xf3\xd3`@"
tRp777
tp778
a(S'YP_003043647.1'
p779
g3
(g5
S'\x95\xd4\xad\xf5k\xf9`@'
tRp780
tp781
a(S'YP_003046501.1'
p782
g3
(g5
S'\xc0|\xb9a\xe8Ia@'
tRp783
tp784
a(S'YP_003045756.1'
p785
g3
(g5
S')2|\x80^ia@'
tRp786
tp787
a(S'YP_003047259.1'
p788
g3
(g5
S'"\xf9\xe1\xce\x11ya@'
tRp789
tp790
a(S'YP_003044035.1'
p791
g3
(g5
S'Q\xb3\xa5\xa2\xe9\x8ba@'
tRp792
tp793
a(S'YP_003046087.1'
p794
g3
(g5
S'\xf1\x16Fq_\x8fa@'
tRp795
tp796
a(S'YP_003045458.1'
p797
g3
(g5
S'\x1f\x05\x05[@\xa4a@'
tRp798
tp799
a(S'YP_003046802.1'
p800
g3
(g5
S'\xca^\xd0\xe0\x82\xb2a@'
tRp801
tp802
a(S'YP_003046785.1'
p803
g3
(g5
S'\x7fZx\xedA\xb8a@'
tRp804
tp805
a(S'YP_003044546.1'
p806
g3
(g5
S'\xacO\xdf\x8d\x89\xc4a@'
tRp807
tp808
a(S'YP_003043849.1'
p809
g3
(g5
S'|\xca\xef\x9c\xc2\xdba@'
tRp810
tp811
a(S'YP_003045220.1'
p812
g3
(g5
S'\xb1\xed0\x08\x01\xe8a@'
tRp813
tp814
a(S'YP_003044224.1'
p815
g3
(g5
S'\xf2\xdb\x87x\xa0\x16b@'
tRp816
tp817
a(S'YP_003046668.1'
p818
g3
(g5
S'\xd0\x94\x8d\xb5\xb7\x16b@'
tRp819
tp820
a(S'YP_003046075.1'
p821
g3
(g5
S"(Q\xcd'\xb9%b@"
tRp822
tp823
a(S'YP_003045108.1'
p824
g3
(g5
S'\x1f\xe0\xe7>\x7f3b@'
tRp825
tp826
a(S'YP_003045358.1'
p827
g3
(g5
S'\xbe1\x12\t+Nb@'
tRp828
tp829
a(S'YP_003045278.1'
p830
g3
(g5
S'\xbe\xc3^&\xa7\x80b@'
tRp831
tp832
a(S'YP_003044002.1'
p833
g3
(g5
S'\x1c\n.Bq\xe5b@'
tRp834
tp835
a(S'YP_003045909.1'
p836
g3
(g5
S'\xce:L!\xa8\x0ec@'
tRp837
tp838
a(S'YP_003046669.1'
p839
g3
(g5
S'\xbeLY\x05\xe9cc@'
tRp840
tp841
a(S'YP_003043415.1'
p842
g3
(g5
S'PFR\xfc\xfdtc@'
tRp843
tp844
a(S'YP_003043992.1'
p845
g3
(g5
S'\xe6\x16+\xc8\xf9zc@'
tRp846
tp847
a(S'YP_003044515.1'
p848
g3
(g5
S'\xdc\xc0\x0c^-\x91c@'
tRp849
tp850
a(S'YP_003045864.1'
p851
g3
(g5
S'\xd7V\x00,\xca\xb0c@'
tRp852
tp853
a(S'YP_003047208.1'
p854
g3
(g5
S'\x1aA\xb4]\xa6\xb5c@'
tRp855
tp856
a(S'YP_003045578.1'
p857
g3
(g5
S'\xd6>T;\x1f\xd5c@'
tRp858
tp859
a(S'YP_003043527.1'
p860
g3
(g5
S'\xcd\xe5\xbd\xc06\x0ed@'
tRp861
tp862
a(S'YP_003046874.1'
p863
g3
(g5
S'\xdc\xd2L\x91\x92,d@'
tRp864
tp865
a(S'YP_003044109.1'
p866
g3
(g5
S'N\xae4\xd4\xbb1d@'
tRp867
tp868
a(S'YP_003045106.1'
p869
g3
(g5
S'\xd8X\xbf\xa8\x9b8d@'
tRp870
tp871
a(S'YP_003047418.1'
p872
g3
(g5
S'\x84\xd0KC\xcf8d@'
tRp873
tp874
a(S'YP_003046215.1'
p875
g3
(g5
S'\x81\xc6\xcc\xcc\x87Md@'
tRp876
tp877
a(S'YP_003044661.1'
p878
g3
(g5
S'p\x93mh\xc4fd@'
tRp879
tp880
a(S'YP_003047077.1'
p881
g3
(g5
S'(\xf7\xe4\x9c\t|d@'
tRp882
tp883
a(S'YP_003044127.1'
p884
g3
(g5
S':W\xfe\xd0p\x84d@'
tRp885
tp886
a(S'YP_003046108.1'
p887
g3
(g5
S'n`\x11&v\xc1d@'
tRp888
tp889
a(S'YP_003044123.1'
p890
g3
(g5
S'\x1f\x1b\xd1\xb3\x99\xc8d@'
tRp891
tp892
a(S'YP_003046747.1'
p893
g3
(g5
S'\x97\x03(\xa5\xca\xd4d@'
tRp894
tp895
a(S'YP_003044464.1'
p896
g3
(g5
S'\x04\x1e\xca\xf7\xd1=e@'
tRp897
tp898
a(S'YP_003043670.1'
p899
g3
(g5
S'\xdf/\t\x8a\xb1Ie@'
tRp900
tp901
a(S'YP_003046121.1'
p902
g3
(g5
S'\x11\x80T\xc8\x96Ne@'
tRp903
tp904
a(S'YP_003046141.1'
p905
g3
(g5
S'\xa2P\xfb7\x97\x88e@'
tRp906
tp907
a(S'YP_003046461.1'
p908
g3
(g5
S':!wN\xf6\xace@'
tRp909
tp910
a(S'YP_003045330.1'
p911
g3
(g5
S'\xf2\xa6\x1cQ\xd3\xc1e@'
tRp912
tp913
a(S'YP_003045986.1'
p914
g3
(g5
S'\xef\xac\xacEQ\xcee@'
tRp915
tp916
a(S'YP_003044589.1'
p917
g3
(g5
S'i\xa8*\xda\x8a\xdee@'
tRp918
tp919
a(S'YP_003047049.1'
p920
g3
(g5
S'\x9b\xa7\xff:\xfb\xdfe@'
tRp921
tp922
a(S'YP_003047120.1'
p923
g3
(g5
S'\x0e\xd8\x0f\xf8/\xfde@'
tRp924
tp925
a(S'YP_003043355.1'
p926
g3
(g5
S'\xb7\x88n\xa1\xb6\x0ff@'
tRp927
tp928
a(S'YP_003046831.1'
p929
g3
(g5
S'\xc5\xe0\x9f8\x14\x16f@'
tRp930
tp931
a(S'YP_003046625.1'
p932
g3
(g5
S'c\xdeg\x98\xbe2f@'
tRp933
tp934
a(S'YP_003046926.1'
p935
g3
(g5
S'!\xcdH:\x85Hf@'
tRp936
tp937
a(S'YP_003045226.1'
p938
g3
(g5
S'\xaf\xdbf\x94\x8daf@'
tRp939
tp940
a(S'YP_003047413.1'
p941
g3
(g5
S'\x0732^yhf@'
tRp942
tp943
a(S'YP_003043561.1'
p944
g3
(g5
S'j\xfcn8Nzf@'
tRp945
tp946
a(S'YP_003044470.1'
p947
g3
(g5
S'h[\xbd\x15\xdc\x89f@'
tRp948
tp949
a(S'YP_003045445.1'
p950
g3
(g5
S'\x90\x80\xc3u3\xb0f@'
tRp951
tp952
a(S'YP_003045663.1'
p953
g3
(g5
S'\x8b\x9a8\xe0t\xb4f@'
tRp954
tp955
a(S'YP_003044221.1'
p956
g3
(g5
S'\xe5\xba\xda\xec\t\xbbf@'
tRp957
tp958
a(S'YP_003043282.1'
p959
g3
(g5
S'w\xa6\\UK\xcaf@'
tRp960
tp961
a(S'YP_003044522.1'
p962
g3
(g5
S'\xc9\xfdT\xf9Q\xe7f@'
tRp963
tp964
a(S'YP_003043652.1'
p965
g3
(g5
S'\xddWJ\xb3a\xf1f@'
tRp966
tp967
a(S'YP_003045584.1'
p968
g3
(g5
S'\xdb\xc1\xd9\xe7\xd4\x12g@'
tRp969
tp970
a(S'YP_003044685.1'
p971
g3
(g5
S'\xdda`\x1f\xfbHg@'
tRp972
tp973
a(S'YP_003045003.1'
p974
g3
(g5
S'\xb7\xe2\xa3\x98)\xaeg@'
tRp975
tp976
a(S'YP_003046915.1'
p977
g3
(g5
S'\xa6\x04\x1f\x91$\xb4g@'
tRp978
tp979
a(S'YP_003045847.1'
p980
g3
(g5
S'Y\xf1\xc2\x1b\xce\xd0g@'
tRp981
tp982
a(S'YP_003044517.1'
p983
g3
(g5
S'\xa6\xf7\t\x078\xd1g@'
tRp984
tp985
a(S'YP_003047197.1'
p986
g3
(g5
S'c\x10\xe1o\xc8\xd3g@'
tRp987
tp988
a(S'YP_003046392.1'
p989
g3
(g5
S'\x06\x15\xc1K\xb0@h@'
tRp990
tp991
a(S'YP_003045609.1'
p992
g3
(g5
S'\xc4e\x12 \xfc\\h@'
tRp993
tp994
a(S'YP_003044104.1'
p995
g3
(g5
S'\x96\xeb\xe8\x1bneh@'
tRp996
tp997
a(S'YP_003045435.1'
p998
g3
(g5
S'\xa6I\x0e,[kh@'
tRp999
tp1000
a(S'YP_003045977.1'
p1001
g3
(g5
S'T@)\xd0\x07rh@'
tRp1002
tp1003
a(S'YP_003046050.1'
p1004
g3
(g5
S'\xe8\xecu\xddG\xa2h@'
tRp1005
tp1006
a(S'YP_003043570.1'
p1007
g3
(g5
S'\xcf{\x92\x84\xcf\xbbh@'
tRp1008
tp1009
a(S'YP_003044510.1'
p1010
g3
(g5
S'\xa13\xcc\xd6\xaa\xc5h@'
tRp1011
tp1012
a(S'YP_003045697.1'
p1013
g3
(g5
S'\xeby\xb5\xe8\xc4\xf4h@'
tRp1014
tp1015
a(S'YP_003046627.1'
p1016
g3
(g5
S'\xc5\xf3\x0e30\xf9h@'
tRp1017
tp1018
a(S'YP_003045706.1'
p1019
g3
(g5
S'\xe6)\xa0CO\xfch@'
tRp1020
tp1021
a(S'YP_003046927.1'
p1022
g3
(g5
S'\xcf\n~\xb0\x94\x05i@'
tRp1023
tp1024
a(S'YP_003046472.1'
p1025
g3
(g5
S'\xfa\x15f{\n+i@'
tRp1026
tp1027
a(S'YP_003043461.1'
p1028
g3
(g5
S'N=\xb9w(<i@'
tRp1029
tp1030
a(S'YP_003045818.1'
p1031
g3
(g5
S'I\xe1/\x94\x99^i@'
tRp1032
tp1033
a(S'YP_003045826.1'
p1034
g3
(g5
S'\x02\xb8\xe5\x08C\xcei@'
tRp1035
tp1036
a(S'YP_003044091.1'
p1037
g3
(g5
S'2|O@\x82\xdei@'
tRp1038
tp1039
a(S'YP_003044112.1'
p1040
g3
(g5
S'\xef\x9e\x8c\t\xd4\tj@'
tRp1041
tp1042
a(S'YP_003046949.1'
p1043
g3
(g5
S'\xbc\nP\x8d\x955j@'
tRp1044
tp1045
a(S'YP_003043409.1'
p1046
g3
(g5
S'aFd\xc0Yjj@'
tRp1047
tp1048
a(S'YP_003043982.1'
p1049
g3
(g5
S'\xdb\xe4\xe9\x01V\xadj@'
tRp1050
tp1051
a(S'YP_003046497.1'
p1052
g3
(g5
S'\xe6[\xbc\xfd\x0b\xddj@'
tRp1053
tp1054
a(S'YP_003044007.1'
p1055
g3
(g5
S'1\x91\xed\xca|\xe4j@'
tRp1056
tp1057
a(S'YP_003046655.1'
p1058
g3
(g5
S'\xa6\xbfY;I\\k@'
tRp1059
tp1060
a(S'YP_003046494.1'
p1061
g3
(g5
S'\xb5S\x995\xcf\x91k@'
tRp1062
tp1063
a(S'YP_003043844.1'
p1064
g3
(g5
S'7O\x06\xf5\xa8\xbek@'
tRp1065
tp1066
a(S'YP_003046692.1'
p1067
g3
(g5
S"\x06('pl\xe8k@"
tRp1068
tp1069
a(S'YP_003045946.1'
p1070
g3
(g5
S'G\x7fjN\x06\nl@'
tRp1071
tp1072
a(S'YP_003044458.1'
p1073
g3
(g5
S']\xb6T\xfc\xff\x0fl@'
tRp1074
tp1075
a(S'YP_003046138.1'
p1076
g3
(g5
S"'M\x0ee\xa2\x14l@"
tRp1077
tp1078
a(S'YP_003044177.1'
p1079
g3
(g5
S".\x90)k\x82'l@"
tRp1080
tp1081
a(S'YP_003046519.1'
p1082
g3
(g5
S'[]\xa1>\x17Hl@'
tRp1083
tp1084
a(S'YP_003043597.1'
p1085
g3
(g5
S'\xe5\xbbX7\x04`l@'
tRp1086
tp1087
a(S'YP_003043429.1'
p1088
g3
(g5
S'{\xc1\x04\xe6\xfcal@'
tRp1089
tp1090
a(S'YP_003046463.1'
p1091
g3
(g5
S'\xe5\xb0m\xe9\xa0\x8bl@'
tRp1092
tp1093
a(S'YP_003046686.1'
p1094
g3
(g5
S'?F\xa1\x1e=\xbel@'
tRp1095
tp1096
a(S'YP_003046976.1'
p1097
g3
(g5
S"\xcb\x1c\x90L0'm@"
tRp1098
tp1099
a(S'YP_003044433.1'
p1100
g3
(g5
S'\x0ew\xc30{9m@'
tRp1101
tp1102
a(S'YP_003043861.1'
p1103
g3
(g5
S'\x96\x1b\xd7\x80UEm@'
tRp1104
tp1105
a(S'YP_003046159.1'
p1106
g3
(g5
S'AJ,\x16\xad\x8am@'
tRp1107
tp1108
a(S'YP_003044328.1'
p1109
g3
(g5
S'K\xef\x1ea"\x90m@'
tRp1110
tp1111
a(S'YP_003046973.1'
p1112
g3
(g5
S'\xf7\x0bY\xe8\x9b\x98m@'
tRp1113
tp1114
a(S'YP_003045428.1'
p1115
g3
(g5
S'p$\xab\x84\x1a\xb8m@'
tRp1116
tp1117
a(S'YP_003043980.1'
p1118
g3
(g5
S'\xc1\xe6\xed\xa6?\xbcm@'
tRp1119
tp1120
a(S'YP_003044602.1'
p1121
g3
(g5
S'\xca7\x14\x04Z\xd0m@'
tRp1122
tp1123
a(S'YP_003046396.1'
p1124
g3
(g5
S'?\x1a=j\x1c\xdfm@'
tRp1125
tp1126
a(S'YP_003044844.1'
p1127
g3
(g5
S'A\x1d\x93\xb4\x87\xe3m@'
tRp1128
tp1129
a(S'YP_003043929.1'
p1130
g3
(g5
S"j'\xe9\xb1O\xebm@"
tRp1131
tp1132
a(S'YP_003044144.1'
p1133
g3
(g5
S'\x92\xaeA_\xcc\rn@'
tRp1134
tp1135
a(S'YP_003045642.1'
p1136
g3
(g5
S'\x98\xe2\x017iLn@'
tRp1137
tp1138
a(S'YP_003044513.1'
p1139
g3
(g5
S'\x1e\x03\x1f\xf1RUn@'
tRp1140
tp1141
a(S'YP_003043664.1'
p1142
g3
(g5
S'xH\xefkr\x86n@'
tRp1143
tp1144
a(S'YP_003046654.1'
p1145
g3
(g5
S'9.\x9b+\xed\xa0n@'
tRp1146
tp1147
a(S'YP_003044915.1'
p1148
g3
(g5
S'L@wM\xd4\xcen@'
tRp1149
tp1150
a(S'YP_003043445.1'
p1151
g3
(g5
S'\xc26\xf4\xf2\x7f\xd6n@'
tRp1152
tp1153
a(S'YP_003046556.1'
p1154
g3
(g5
S'\x8f\xb2\x9e)\xbd\xeen@'
tRp1155
tp1156
a(S'YP_003045509.1'
p1157
g3
(g5
S'\xdd\x80:\xbe\xc0\xf8n@'
tRp1158
tp1159
a(S'YP_003046864.1'
p1160
g3
(g5
S'\xcdH\x88\xe4B\no@'
tRp1161
tp1162
a(S'YP_003047170.1'
p1163
g3
(g5
S'\x9f\xf7\x81\xaa\xf8,o@'
tRp1164
tp1165
a(S'YP_003044313.1'
p1166
g3
(g5
S'\xa4\x0ee\x90%;o@'
tRp1167
tp1168
a(S'YP_003046657.1'
p1169
g3
(g5
S'\x94d9\xdd\xf7@o@'
tRp1170
tp1171
a(S'YP_003044854.1'
p1172
g3
(g5
S'y\x0e\xa8\xc5\xb0Fo@'
tRp1173
tp1174
a(S'YP_003046561.1'
p1175
g3
(g5
S'\xe3\x91\xba\x02\x02ro@'
tRp1176
tp1177
a(S'YP_003044085.1'
p1178
g3
(g5
S'\xb3s\x11\x7f\x14\xafo@'
tRp1179
tp1180
a(S'YP_003047102.1'
p1181
g3
(g5
S'\xe2\x02\xa4\xec\x86\xdco@'
tRp1182
tp1183
a(S'YP_003046030.1'
p1184
g3
(g5
S'\xf3D\xd7\t\x8b\xe0o@'
tRp1185
tp1186
a(S'YP_003047153.1'
p1187
g3
(g5
S'\x82PEg<\x1ap@'
tRp1188
tp1189
a(S'YP_003045880.1'
p1190
g3
(g5
S'\xf1\xf2\x08/19p@'
tRp1191
tp1192
a(S'YP_003046748.1'
p1193
g3
(g5
S'com\xe1\xe6?p@'
tRp1194
tp1195
a(S'YP_003043837.1'
p1196
g3
(g5
S'|\xde\xf5^\xa7np@'
tRp1197
tp1198
a(S'YP_003043377.1'
p1199
g3
(g5
S'\x91vJ\xe39up@'
tRp1200
tp1201
a(S'YP_003045707.1'
p1202
g3
(g5
S'\x9b\xc8\x0b\xb9\x9eup@'
tRp1203
tp1204
a(S'YP_003046233.1'
p1205
g3
(g5
S'\x7fnh\xb3qvp@'
tRp1206
tp1207
a(S'YP_003047028.1'
p1208
g3
(g5
S'\xde\xea\x96C\x91\x99p@'
tRp1209
tp1210
a(S'YP_003043916.1'
p1211
g3
(g5
S'\xe9\xf9M\xce{\xbfp@'
tRp1212
tp1213
a(S'YP_003045772.1'
p1214
g3
(g5
S'\xbd\xb5\x9f\xa7\xa0\xcep@'
tRp1215
tp1216
a(S'YP_003043579.1'
p1217
g3
(g5
S'\x95\xa2\x14\x81]\xedp@'
tRp1218
tp1219
a(S'YP_003045405.1'
p1220
g3
(g5
S'K\xa1?\x9az\xfdp@'
tRp1221
tp1222
a(S'YP_003043931.1'
p1223
g3
(g5
S'\xf1E\x8e\x1a1\x02q@'
tRp1224
tp1225
a(S'YP_003044852.1'
p1226
g3
(g5
S'\x15\x10\xd3\xaf\xcd\x04q@'
tRp1227
tp1228
a(S'YP_003045721.1'
p1229
g3
(g5
S'h{!j\x1d\x06q@'
tRp1230
tp1231
a(S'YP_003046218.1'
p1232
g3
(g5
S'b\x90j\n]\nq@'
tRp1233
tp1234
a(S'YP_003043574.1'
p1235
g3
(g5
S']P\x11\xd1w\x1dq@'
tRp1236
tp1237
a(S'YP_003045983.1'
p1238
g3
(g5
S'l\x87x8\xca#q@'
tRp1239
tp1240
a(S'YP_003044270.1'
p1241
g3
(g5
S'2\x00\x83\x9e.%q@'
tRp1242
tp1243
a(S'YP_003046635.1'
p1244
g3
(g5
S'\x01\xb9w\xb2\x7fNq@'
tRp1245
tp1246
a(S'YP_003045447.1'
p1247
g3
(g5
S'\x88\xd7o\xd4\x0c_q@'
tRp1248
tp1249
a(S'YP_003045290.1'
p1250
g3
(g5
S'\x9f\x98\xec\x94\xe3iq@'
tRp1251
tp1252
a(S'YP_003046524.1'
p1253
g3
(g5
S'!\xaf\xd0\x94U\xb9q@'
tRp1254
tp1255
a(S'YP_003047353.1'
p1256
g3
(g5
S'\x948/g\xda\xbfq@'
tRp1257
tp1258
a(S'YP_003044511.1'
p1259
g3
(g5
S'\x90NC#\x9c\xc7q@'
tRp1260
tp1261
a(S'YP_003043915.1'
p1262
g3
(g5
S'\x80\xebV-\x88\xd0q@'
tRp1263
tp1264
a(S'YP_003044973.1'
p1265
g3
(g5
S'\xb3\x0b77\xfe\xd4q@'
tRp1266
tp1267
a(S'YP_003047294.1'
p1268
g3
(g5
S'\xa7\xfd\x06M1\xd5q@'
tRp1269
tp1270
a(S'YP_003046909.1'
p1271
g3
(g5
S'~\xe4\xc2\x85\x9d\xd6q@'
tRp1272
tp1273
a(S'YP_003043538.1'
p1274
g3
(g5
S'\x15\xfb;a\xba\xd6q@'
tRp1275
tp1276
a(S'YP_003043800.1'
p1277
g3
(g5
S'z9\x8e\xe4\x04\x18r@'
tRp1278
tp1279
a(S'YP_003043967.1'
p1280
g3
(g5
S'\x83OV\x95\xc4\x1dr@'
tRp1281
tp1282
a(S'YP_003046626.1'
p1283
g3
(g5
S'h&M\xc6r%r@'
tRp1284
tp1285
a(S'YP_003046946.1'
p1286
g3
(g5
S'\x8d`\xda\x18\xf55r@'
tRp1287
tp1288
a(S'YP_003047411.1'
p1289
g3
(g5
S'S\xb7"c\x879r@'
tRp1290
tp1291
a(S'YP_003046760.1'
p1292
g3
(g5
S'\xa21\x9fH\xb2:r@'
tRp1293
tp1294
a(S'YP_003046465.1'
p1295
g3
(g5
S'R\xca\x1e\n\xe4<r@'
tRp1296
tp1297
a(S'YP_003043631.1'
p1298
g3
(g5
S'\xfe\x11]\x0e\xbdBr@'
tRp1299
tp1300
a(S'YP_003047426.1'
p1301
g3
(g5
S'\xb2V\xf9X\xe0Cr@'
tRp1302
tp1303
a(S'YP_003043537.1'
p1304
g3
(g5
S'\xab\xbc\xa5zFUr@'
tRp1305
tp1306
a(S'YP_003043608.1'
p1307
g3
(g5
S').\x00Wybr@'
tRp1308
tp1309
a(S'YP_003046866.1'
p1310
g3
(g5
S'8\xe0\xe8\xa1zgr@'
tRp1311
tp1312
a(S'YP_003043283.1'
p1313
g3
(g5
S'\xeeE? \xba\x83r@'
tRp1314
tp1315
a(S'YP_003045502.1'
p1316
g3
(g5
S'!:\xe6\xdfr\x99r@'
tRp1317
tp1318
a(S'YP_003047164.1'
p1319
g3
(g5
S'\x8c7\xe0}\xa4\x9fr@'
tRp1320
tp1321
a(S'YP_003043968.1'
p1322
g3
(g5
S"\x03&\x1e'\xfe\xd1r@"
tRp1323
tp1324
a(S'YP_003044893.1'
p1325
g3
(g5
S'\xa2\x9e\xcb\xdb\xff\xe1r@'
tRp1326
tp1327
a(S'YP_003045467.1'
p1328
g3
(g5
S'/\xfdf\x89\xaa\xebr@'
tRp1329
tp1330
a(S'YP_003043495.1'
p1331
g3
(g5
S'\xdf\x98X`\x9f\x00s@'
tRp1332
tp1333
a(S'YP_003045276.1'
p1334
g3
(g5
S'\xaf\xb1\x11\x1f\xef\x04s@'
tRp1335
tp1336
a(S'YP_003043374.1'
p1337
g3
(g5
S'g\xc07)\xd2\x13s@'
tRp1338
tp1339
a(S'YP_003045740.1'
p1340
g3
(g5
S'j\x9e\x80\xc3\xa5\x14s@'
tRp1341
tp1342
a(S'YP_003043661.1'
p1343
g3
(g5
S'_X\x10\x98\xa2!s@'
tRp1344
tp1345
a(S'YP_003045021.1'
p1346
g3
(g5
S'\xae\xf8\x83\x0e3=s@'
tRp1347
tp1348
a(S'YP_003046294.1'
p1349
g3
(g5
S'e`\xb8JiFs@'
tRp1350
tp1351
a(S'YP_003045164.1'
p1352
g3
(g5
S'#\xe1Q|\xb8Is@'
tRp1353
tp1354
a(S'YP_003045431.1'
p1355
g3
(g5
S'&\xce&\xec*Ls@'
tRp1356
tp1357
a(S'YP_003044136.1'
p1358
g3
(g5
S'\x19\x00\x7fr\tSs@'
tRp1359
tp1360
a(S'YP_003045649.1'
p1361
g3
(g5
S'}\xb4\x07\xf7\xf2fs@'
tRp1362
tp1363
a(S'YP_003043756.1'
p1364
g3
(g5
S'`\xe8\xd8\xfd\xb0ns@'
tRp1365
tp1366
a(S'YP_003045089.1'
p1367
g3
(g5
S'\x84\xa1\xaf\x8b\xa6rs@'
tRp1368
tp1369
a(S'YP_003043758.1'
p1370
g3
(g5
S'\xc7\x1f\x9a\xb8Kus@'
tRp1371
tp1372
a(S'YP_003047059.1'
p1373
g3
(g5
S'\x8fk%m4\x8es@'
tRp1374
tp1375
a(S'YP_003045556.1'
p1376
g3
(g5
S'\xb6\x17\xbb\xd2u\xa6s@'
tRp1377
tp1378
a(S'YP_003047107.1'
p1379
g3
(g5
S'\xc7{\n\xcb\xe8\xacs@'
tRp1380
tp1381
a(S'YP_003044401.1'
p1382
g3
(g5
S'?;\x94\xb1\xf7\xb3s@'
tRp1383
tp1384
a(S'YP_003045604.1'
p1385
g3
(g5
S'\xc8\x9c$^\xbe\xbds@'
tRp1386
tp1387
a(S'YP_003045656.1'
p1388
g3
(g5
S'\xd9\x08<.\xa7\xc3s@'
tRp1389
tp1390
a(S'YP_003046265.1'
p1391
g3
(g5
S'\x82p\x06\xaf\xdb\xc4s@'
tRp1392
tp1393
a(S'YP_003045421.1'
p1394
g3
(g5
S'\xde\x013\x19\x9d\xees@'
tRp1395
tp1396
a(S'YP_003047195.1'
p1397
g3
(g5
S'WT\x17J\xd7\xf6s@'
tRp1398
tp1399
a(S'YP_003046277.1'
p1400
g3
(g5
S'EN\xe9\\F\x07t@'
tRp1401
tp1402
a(S'YP_003046687.1'
p1403
g3
(g5
S'\x98\xdd\t\xf7\x01\x0bt@'
tRp1404
tp1405
a(S'YP_003043414.1'
p1406
g3
(g5
S'\x18D!\xeeC\rt@'
tRp1407
tp1408
a(S'YP_003047272.1'
p1409
g3
(g5
S'3rk\xe0\x91"t@'
tRp1410
tp1411
a(S'YP_003045046.1'
p1412
g3
(g5
S'\xbd\xfd\x12B](t@'
tRp1413
tp1414
a(S'YP_003046907.1'
p1415
g3
(g5
S'\xfbh\x16lW.t@'
tRp1416
tp1417
a(S'YP_003045558.1'
p1418
g3
(g5
S'\x07\x0c\x07X\xbf/t@'
tRp1419
tp1420
a(S'YP_003043630.1'
p1421
g3
(g5
S'\xd1k\xa1\xb7\x963t@'
tRp1422
tp1423
a(S'YP_003043969.1'
p1424
g3
(g5
S'%\n3\x94\xa49t@'
tRp1425
tp1426
a(S'YP_003044925.1'
p1427
g3
(g5
S'j\x12r{\x12>t@'
tRp1428
tp1429
a(S'YP_003046236.1'
p1430
g3
(g5
S'\xab^\xc2\xd4?Kt@'
tRp1431
tp1432
a(S'YP_003047175.1'
p1433
g3
(g5
S'\xa8\xbc\x9b\x08\xfejt@'
tRp1434
tp1435
a(S'YP_003043588.1'
p1436
g3
(g5
S'KGe+\x85kt@'
tRp1437
tp1438
a(S'YP_003046969.1'
p1439
g3
(g5
S'\x94NT\x9c\xfamt@'
tRp1440
tp1441
a(S'YP_003044277.1'
p1442
g3
(g5
S'\xcbi\xb1\\\x14~t@'
tRp1443
tp1444
a(S'YP_003046436.1'
p1445
g3
(g5
S'\x7f\x18\xde\xff;\x8bt@'
tRp1446
tp1447
a(S'YP_003045294.1'
p1448
g3
(g5
S'E\x85\x8a-\xcf\x8et@'
tRp1449
tp1450
a(S'YP_003047278.1'
p1451
g3
(g5
S'\x12Y\x01\xf8/\x8ft@'
tRp1452
tp1453
a(S'YP_003046911.1'
p1454
g3
(g5
S'\xcc\x0e\x1d\x1e~\x91t@'
tRp1455
tp1456
a(S'YP_003046382.1'
p1457
g3
(g5
S'\x0bv\xd1\x8f\xd8\xa4t@'
tRp1458
tp1459
a(S'YP_003047062.1'
p1460
g3
(g5
S'\xa1Oq8\x87\xb2t@'
tRp1461
tp1462
a(S'YP_003045281.1'
p1463
g3
(g5
S'k\x9f\x0f\xe9Q\xb9t@'
tRp1464
tp1465
a(S'YP_003044660.1'
p1466
g3
(g5
S'\x1d#\xd3\x99\xa9\xc1t@'
tRp1467
tp1468
a(S'YP_003047179.1'
p1469
g3
(g5
S'\xa4\xdb\xc3EK\xc2t@'
tRp1470
tp1471
a(S'YP_003047399.1'
p1472
g3
(g5
S'\xd1X\xa4n\x0e\xcet@'
tRp1473
tp1474
a(S'YP_003043545.1'
p1475
g3
(g5
S'\x9f\xb1\xd0Q\xcb\xe1t@'
tRp1476
tp1477
a(S'YP_003043671.1'
p1478
g3
(g5
S'D\n\x91)J\x07u@'
tRp1479
tp1480
a(S'YP_003044986.1'
p1481
g3
(g5
S'\x1b\xb4Q\xadT\x0bu@'
tRp1482
tp1483
a(S'YP_003046354.1'
p1484
g3
(g5
S'\x90\xf6\x8a\xee\x94\x0cu@'
tRp1485
tp1486
a(S'YP_003046859.1'
p1487
g3
(g5
S'\xa8\xcf,\x8c\x05\x18u@'
tRp1488
tp1489
a(S'YP_003043450.1'
p1490
g3
(g5
S'O\xbb\xdb\xb7\xe4\x19u@'
tRp1491
tp1492
a(S'YP_003047026.1'
p1493
g3
(g5
S'\xce\x01L\xb0:*u@'
tRp1494
tp1495
a(S'YP_003046761.1'
p1496
g3
(g5
S'9e\xb4|\x06+u@'
tRp1497
tp1498
a(S'YP_003046152.1'
p1499
g3
(g5
S'i\xf3\xd0\x83Q-u@'
tRp1500
tp1501
a(S'YP_003047410.1'
p1502
g3
(g5
S'r\x82\xc02\\au@'
tRp1503
tp1504
a(S'YP_003047045.1'
p1505
g3
(g5
S'\xa6\xc6\xad\x91\x16yu@'
tRp1506
tp1507
a(S'YP_003046840.1'
p1508
g3
(g5
S'\xe8\xfc\x96\x97g\x82u@'
tRp1509
tp1510
a(S'YP_003044437.1'
p1511
g3
(g5
S'z\xa2^\x0cA\x89u@'
tRp1512
tp1513
a(S'YP_003046404.1'
p1514
g3
(g5
S'\xacq\xe5\xab%\xabu@'
tRp1515
tp1516
a(S'YP_003047429.1'
p1517
g3
(g5
S'\x00\x12[\x82\x08\xbau@'
tRp1518
tp1519
a(S'YP_003044312.1'
p1520
g3
(g5
S'\x81\xdb\x85\x88?\xcfu@'
tRp1521
tp1522
a(S'YP_003045291.1'
p1523
g3
(g5
S'\x93\x89&\x1eu\x07v@'
tRp1524
tp1525
a(S'YP_003044463.1'
p1526
g3
(g5
S'l\xbfm\xceD\x12v@'
tRp1527
tp1528
a(S'YP_003043347.1'
p1529
g3
(g5
S'\x14U\x85\xcd9\x18v@'
tRp1530
tp1531
a(S'YP_003043288.1'
p1532
g3
(g5
S'-2\x98.\x12\x1bv@'
tRp1533
tp1534
a(S'YP_003043852.1'
p1535
g3
(g5
S'jg\x11#\x13\x1ev@'
tRp1536
tp1537
a(S'YP_003044170.1'
p1538
g3
(g5
S'N\xad\xeb^m9v@'
tRp1539
tp1540
a(S'YP_003046811.1'
p1541
g3
(g5
S'\x8euo\x8a;@v@'
tRp1542
tp1543
a(S'YP_003043890.1'
p1544
g3
(g5
S'\xae\xfak+5[v@'
tRp1545
tp1546
a(S'YP_003046069.1'
p1547
g3
(g5
S'V\x11\xc6\xd7\x8dnv@'
tRp1548
tp1549
a(S'YP_003045673.1'
p1550
g3
(g5
S'\xbf\xe8\x06\x8c\xdauv@'
tRp1551
tp1552
a(S'YP_003047286.1'
p1553
g3
(g5
S'\x8d\x88M\x19\x88\x9cv@'
tRp1554
tp1555
a(S'YP_003044761.1'
p1556
g3
(g5
S'\x9fUr\x9c\x92\xb5v@'
tRp1557
tp1558
a(S'YP_003043535.1'
p1559
g3
(g5
S'\xb4\xb3t\xb3[\xbev@'
tRp1560
tp1561
a(S'YP_003045784.1'
p1562
g3
(g5
S'\xddl\x13B\x92\xcev@'
tRp1563
tp1564
a(S'YP_003043326.1'
p1565
g3
(g5
S'\x99ec\xb0\x95\xcfv@'
tRp1566
tp1567
a(S'YP_003044580.1'
p1568
g3
(g5
S'X\xd7\x14\xd8T\x0ew@'
tRp1569
tp1570
a(S'YP_003044461.1'
p1571
g3
(g5
S'\xe0\xa7\x82\x83*\x13w@'
tRp1572
tp1573
a(S'YP_003044275.1'
p1574
g3
(g5
S'\xc2\x8bs\xf06\x1ew@'
tRp1575
tp1576
a(S'YP_003046763.1'
p1577
g3
(g5
S'@\xe9Q\xa9\xa5Ew@'
tRp1578
tp1579
a(S'YP_003046391.1'
p1580
g3
(g5
S'~\x06^\xdf+Lw@'
tRp1581
tp1582
a(S'YP_003046388.1'
p1583
g3
(g5
S'D\xd2V\xe5e[w@'
tRp1584
tp1585
a(S'YP_003044958.1'
p1586
g3
(g5
S'm\x1f7\x8a\xc1^w@'
tRp1587
tp1588
a(S'YP_003044509.1'
p1589
g3
(g5
S'gnB_\x1clw@'
tRp1590
tp1591
a(S'YP_003046094.1'
p1592
g3
(g5
S'i\xf0*\x98)yw@'
tRp1593
tp1594
a(S'YP_003043337.1'
p1595
g3
(g5
S'\xc4\xdf\xc4m\xb1\x7fw@'
tRp1596
tp1597
a(S'YP_003046302.1'
p1598
g3
(g5
S'\x9f\xaf\xcdUp\x80w@'
tRp1599
tp1600
a(S'YP_003044108.1'
p1601
g3
(g5
S'y[J]\x07\x87w@'
tRp1602
tp1603
a(S'YP_003046606.1'
p1604
g3
(g5
S'\xfb\xc4\x96\x8ch\x9aw@'
tRp1605
tp1606
a(S'YP_003047255.1'
p1607
g3
(g5
S'\x086\x04\xb8G\xc8w@'
tRp1608
tp1609
a(S'YP_003045224.1'
p1610
g3
(g5
S'\xc1Op\xdd\x91\xdfw@'
tRp1611
tp1612
a(S'YP_003045406.1'
p1613
g3
(g5
S'\xd6z"\x9f\x82\xe4w@'
tRp1614
tp1615
a(S'YP_003046582.1'
p1616
g3
(g5
S'\x94\xd6\n\x7f\xb2\xf1w@'
tRp1617
tp1618
a(S'YP_003043989.1'
p1619
g3
(g5
S'\x1c\xcf\x95\x00\xa3Ax@'
tRp1620
tp1621
a(S'YP_003044269.1'
p1622
g3
(g5
S'\xcc\x9a\x82\xf5\xa9[x@'
tRp1623
tp1624
a(S'YP_003044341.1'
p1625
g3
(g5
S'\xf0\x06m\x96u|x@'
tRp1626
tp1627
a(S'YP_003043657.1'
p1628
g3
(g5
S'\xae\xcf\xff5\x07\x8dx@'
tRp1629
tp1630
a(S'YP_003046280.1'
p1631
g3
(g5
S'\t\xec\xb2\xe4\xad\xb4x@'
tRp1632
tp1633
a(S'YP_003043410.1'
p1634
g3
(g5
S'\xee\x14\x98\x1d+\xc4x@'
tRp1635
tp1636
a(S'YP_003045236.1'
p1637
g3
(g5
S'pW\x1c\xa1\xbb\xd1x@'
tRp1638
tp1639
a(S'YP_003046448.1'
p1640
g3
(g5
S'&\xfe\xf0\x8b\xc0\xd6x@'
tRp1641
tp1642
a(S'YP_003046076.1'
p1643
g3
(g5
S'5\xdb\xee?\xa1\xeex@'
tRp1644
tp1645
a(S'YP_003043259.1'
p1646
g3
(g5
S"\xf7\xd7p\xcd'\x00y@"
tRp1647
tp1648
a(S'YP_003044808.1'
p1649
g3
(g5
S'N@\x13\xa0=\x19y@'
tRp1650
tp1651
a(S'YP_003044995.1'
p1652
g3
(g5
S'\xc5\xaf\xab\x05\xfb\x1fy@'
tRp1653
tp1654
a(S'YP_003044434.1'
p1655
g3
(g5
S'M\x96\x1f\x04\xa0.y@'
tRp1656
tp1657
a(S'YP_003046109.1'
p1658
g3
(g5
S'\x90\x8e\xbd\x9a\xcbEy@'
tRp1659
tp1660
a(S'YP_003044146.1'
p1661
g3
(g5
S'\x96T\x97\xd5\x11Oy@'
tRp1662
tp1663
a(S'YP_003046232.1'
p1664
g3
(g5
S'j\xf3\xaf\t\xacXy@'
tRp1665
tp1666
a(S'YP_003043682.1'
p1667
g3
(g5
S'\x9b\xeb\x020BZy@'
tRp1668
tp1669
a(S'YP_003046095.1'
p1670
g3
(g5
S'\xb5\xc3\xf2\xf5\xebby@'
tRp1671
tp1672
a(S'YP_003044278.1'
p1673
g3
(g5
S'\x0bT\x8f\xdf\x94ly@'
tRp1674
tp1675
a(S'YP_003045941.1'
p1676
g3
(g5
S'\xc7C\x192\xd9\x8cy@'
tRp1677
tp1678
a(S'YP_003043262.1'
p1679
g3
(g5
S'&\xff\xd4\xa8\x05\x9by@'
tRp1680
tp1681
a(S'YP_003047083.1'
p1682
g3
(g5
S'\xf9\xb1\xf6\xb7\x89\xb4y@'
tRp1683
tp1684
a(S'YP_003044836.1'
p1685
g3
(g5
S'`\xd6\x93\xba\xb5\xb7y@'
tRp1686
tp1687
a(S'YP_003043379.1'
p1688
g3
(g5
S'Mgga\xab\xbcy@'
tRp1689
tp1690
a(S'YP_003046837.1'
p1691
g3
(g5
S'\xbe\x8f\x9c"\xd2\xd2y@'
tRp1692
tp1693
a(S'YP_003043598.1'
p1694
g3
(g5
S'\x8e\x94\x10)\x1d\xe8y@'
tRp1695
tp1696
a(S'YP_003046908.1'
p1697
g3
(g5
S'\xbe\xbdNU\xf1\x10z@'
tRp1698
tp1699
a(S'YP_003046148.1'
p1700
g3
(g5
S'v;\xd4\xcd\xe3 z@'
tRp1701
tp1702
a(S'YP_003043434.1'
p1703
g3
(g5
S'h\x06\xe2\x87\xdbAz@'
tRp1704
tp1705
a(S'YP_003045854.1'
p1706
g3
(g5
S'\xfdL\xb2w\xd0Dz@'
tRp1707
tp1708
a(S'YP_003047096.1'
p1709
g3
(g5
S'\xa2m\x8a\xb6\xf3jz@'
tRp1710
tp1711
a(S'YP_003046330.1'
p1712
g3
(g5
S'\t\xaf\xec\xcd\xfcpz@'
tRp1713
tp1714
a(S'YP_003044953.1'
p1715
g3
(g5
S'l\xdd\xa8\x87\\wz@'
tRp1716
tp1717
a(S'YP_003043889.1'
p1718
g3
(g5
S'\xb6\xac\xaf\xe9\xbazz@'
tRp1719
tp1720
a(S'YP_003043341.1'
p1721
g3
(g5
S'\xcc\xbfOxR\x89z@'
tRp1722
tp1723
a(S'YP_003045489.1'
p1724
g3
(g5
S'\x16\n\xb6\xd6\xc1\x91z@'
tRp1725
tp1726
a(S'YP_003043937.1'
p1727
g3
(g5
S'\x85\x91\xa0N.\x98z@'
tRp1728
tp1729
a(S'YP_003043854.1'
p1730
g3
(g5
S'f\x9b\x12v\x1d\x9az@'
tRp1731
tp1732
a(S'YP_003046085.1'
p1733
g3
(g5
S'f\x191\x80\x98\xb6z@'
tRp1734
tp1735
a(S'YP_003045658.1'
p1736
g3
(g5
S'\x7f\xa4\xb0j\xe1\xb7z@'
tRp1737
tp1738
a(S'YP_003043320.1'
p1739
g3
(g5
S'\x9a\x1d\xd8 9\xc3z@'
tRp1740
tp1741
a(S'YP_003045729.1'
p1742
g3
(g5
S'\xc9,fuQ\xe0z@'
tRp1743
tp1744
a(S'YP_003046851.1'
p1745
g3
(g5
S'>\xfa\\\xeeV\xfaz@'
tRp1746
tp1747
a(S'YP_003044884.1'
p1748
g3
(g5
S'\xce1j\xb2\x01\x0f{@'
tRp1749
tp1750
a(S'YP_003045459.1'
p1751
g3
(g5
S'\xceJX\x0b\x1a({@'
tRp1752
tp1753
a(S'YP_003043914.1'
p1754
g3
(g5
S'\x80\x0f\xed\x9d\x97({@'
tRp1755
tp1756
a(S'YP_003045668.1'
p1757
g3
(g5
S'\xc3\xe6\xf3\xca\xe89{@'
tRp1758
tp1759
a(S'YP_003046464.1'
p1760
g3
(g5
S'f\xfb\xa3\xce\x1d<{@'
tRp1761
tp1762
a(S'YP_003044820.1'
p1763
g3
(g5
S'W\t*1\xb4D{@'
tRp1764
tp1765
a(S'YP_003045734.1'
p1766
g3
(g5
S':y>\xdb9`{@'
tRp1767
tp1768
a(S'YP_003043994.1'
p1769
g3
(g5
S'p\x19\xc3\xa5\xc3b{@'
tRp1770
tp1771
a(S'YP_003043263.1'
p1772
g3
(g5
S'\x99\xa5u\xde-c{@'
tRp1773
tp1774
a(S'YP_003044399.1'
p1775
g3
(g5
S'\xb7\xa3\xb9\xc8"h{@'
tRp1776
tp1777
a(S'YP_003043789.1'
p1778
g3
(g5
S'\xcf?\xeb\xdc$\x99{@'
tRp1779
tp1780
a(S'YP_003044176.1'
p1781
g3
(g5
S'3\x95a\xd3\xc6\x9a{@'
tRp1782
tp1783
a(S'YP_003045180.1'
p1784
g3
(g5
S'\xc8*\x17\x9e`\xaf{@'
tRp1785
tp1786
a(S'YP_003044493.1'
p1787
g3
(g5
S'\x01~r\xc5\x92\xbf{@'
tRp1788
tp1789
a(S'YP_003045519.1'
p1790
g3
(g5
S'\x0c6\x00c\x85\xd0{@'
tRp1791
tp1792
a(S'YP_003044078.1'
p1793
g3
(g5
S'c#\xdb(7\xe3{@'
tRp1794
tp1795
a(S'YP_003047093.1'
p1796
g3
(g5
S'\xcf\x0b\xc7e0\xf3{@'
tRp1797
tp1798
a(S'YP_003047210.1'
p1799
g3
(g5
S'\xd1\xde\xa5\xca\xfd\x17|@'
tRp1800
tp1801
a(S'YP_003045139.1'
p1802
g3
(g5
S'\xf6L\x89\x1f?%|@'
tRp1803
tp1804
a(S'YP_003047097.1'
p1805
g3
(g5
S'\xa4b\xfd_\x8fB|@'
tRp1806
tp1807
a(S'YP_003046953.1'
p1808
g3
(g5
S'\r\x90\x01\xccL`|@'
tRp1809
tp1810
a(S'YP_003044367.1'
p1811
g3
(g5
S'\xe7\x08\xa6\xebAd|@'
tRp1812
tp1813
a(S'YP_003044810.1'
p1814
g3
(g5
S"\xfd\xf0p\x11's|@"
tRp1815
tp1816
a(S'YP_003044777.1'
p1817
g3
(g5
S'\xeb\x99\xdaF\x16y|@'
tRp1818
tp1819
a(S'YP_003044394.1'
p1820
g3
(g5
S'\xf4\x1fk\xff\xdaz|@'
tRp1821
tp1822
a(S'YP_003046990.1'
p1823
g3
(g5
S"'\xab@\x9aR~|@"
tRp1824
tp1825
a(S'YP_003043777.1'
p1826
g3
(g5
S'\x89\xca@;U\x81|@'
tRp1827
tp1828
a(S'YP_003044850.1'
p1829
g3
(g5
S'\xd5t\x04~\xa1\x8e|@'
tRp1830
tp1831
a(S'YP_003046788.1'
p1832
g3
(g5
S'<\x85\xd4T@\x95|@'
tRp1833
tp1834
a(S'YP_003045976.1'
p1835
g3
(g5
S'E~\x9d\x99\xb3\x9f|@'
tRp1836
tp1837
a(S'YP_003046485.1'
p1838
g3
(g5
S'/|\xe7\xd9\xb1\xa1|@'
tRp1839
tp1840
a(S'YP_003044998.1'
p1841
g3
(g5
S'\x93\x95\x95t\xdf\xa4|@'
tRp1842
tp1843
a(S'YP_003044145.1'
p1844
g3
(g5
S'\x9a<\xadt\xcb\xac|@'
tRp1845
tp1846
a(S'YP_003043704.1'
p1847
g3
(g5
S'\x92\x8b\x84\xa3\xc2\xc4|@'
tRp1848
tp1849
a(S'YP_003046175.1'
p1850
g3
(g5
S'\x8c\xee\x99\xdd\x84\xcc|@'
tRp1851
tp1852
a(S'YP_003045608.1'
p1853
g3
(g5
S'L\x86\x19\x05&\xdc|@'
tRp1854
tp1855
a(S'YP_003043285.1'
p1856
g3
(g5
S'\xe8\x86\x85\x8f\xbe\xf0|@'
tRp1857
tp1858
a(S'YP_003047379.1'
p1859
g3
(g5
S'\xde\x1e<s\x06\x10}@'
tRp1860
tp1861
a(S'YP_003044382.1'
p1862
g3
(g5
S'\x99W\x0f\xe8)3}@'
tRp1863
tp1864
a(S'YP_003047112.1'
p1865
g3
(g5
S'\xc1\x8e\xab\xf2\x0f4}@'
tRp1866
tp1867
a(S'YP_003044132.1'
p1868
g3
(g5
S'\xa3\xa9&\xfb\x18@}@'
tRp1869
tp1870
a(S'YP_003045546.1'
p1871
g3
(g5
S'D\xed\xe0\x1dwV}@'
tRp1872
tp1873
a(S'YP_003045603.1'
p1874
g3
(g5
S'\x96T\xc9\xb6Ny}@'
tRp1875
tp1876
a(S'YP_003044932.1'
p1877
g3
(g5
S'$y\xeb\x18\xc2z}@'
tRp1878
tp1879
a(S'YP_003046775.1'
p1880
g3
(g5
S'\xae\xf2S\xbd\x0c\x83}@'
tRp1881
tp1882
a(S'YP_003046289.1'
p1883
g3
(g5
S'\x06\x15OG\xe6\x99}@'
tRp1884
tp1885
a(S'YP_003043637.1'
p1886
g3
(g5
S'\xf7x/\x82\x9a\x9e}@'
tRp1887
tp1888
a(S'YP_003046999.1'
p1889
g3
(g5
S'\x81(\x98\xdf\xef\xb0}@'
tRp1890
tp1891
a(S'YP_003045225.1'
p1892
g3
(g5
S'\x10\xbb\xda\xeb\xa2\xca}@'
tRp1893
tp1894
a(S'YP_003046839.1'
p1895
g3
(g5
S'Wxi\x01\x84\xfd}@'
tRp1896
tp1897
a(S'YP_003043899.1'
p1898
g3
(g5
S'\x1d\xa1@\xf2k\x14~@'
tRp1899
tp1900
a(S'YP_003045747.1'
p1901
g3
(g5
S'k\x8a\xe0\xad\xe2\x15~@'
tRp1902
tp1903
a(S'YP_003045029.1'
p1904
g3
(g5
S'\xbd\xaa\xc5\xc5j)~@'
tRp1905
tp1906
a(S'YP_003044851.1'
p1907
g3
(g5
S'\xaeL=$\xfew~@'
tRp1908
tp1909
a(S'YP_003044414.1'
p1910
g3
(g5
S'\rj!QE\xb3~@'
tRp1911
tp1912
a(S'YP_003045921.1'
p1913
g3
(g5
S'\xd5\x8d\xf9\xed)\xb6~@'
tRp1914
tp1915
a(S'YP_003046291.1'
p1916
g3
(g5
S'A\xcea\xd8k\xc9~@'
tRp1917
tp1918
a(S'YP_003046212.1'
p1919
g3
(g5
S'Xl&g.\xca~@'
tRp1920
tp1921
a(S'YP_003047424.1'
p1922
g3
(g5
S'%\x0f7\xfaV\xed~@'
tRp1923
tp1924
a(S'YP_003044979.1'
p1925
g3
(g5
S'g\xeb\x07Sp\x01\x7f@'
tRp1926
tp1927
a(S'YP_003047087.1'
p1928
g3
(g5
S'\x95\xc5F2\xdf)\x7f@'
tRp1929
tp1930
a(S'YP_003044849.1'
p1931
g3
(g5
S'T\xbb},\xcd1\x7f@'
tRp1932
tp1933
a(S'YP_003043582.1'
p1934
g3
(g5
S'c)\xf65\x0c\xc4\x7f@'
tRp1935
tp1936
a(S'YP_003043352.1'
p1937
g3
(g5
S'\xef^";R\xe3\x7f@'
tRp1938
tp1939
a(S'YP_003044260.1'
p1940
g3
(g5
S'\x8f)\xbeG\xaf\xeb\x7f@'
tRp1941
tp1942
a(S'YP_003045396.1'
p1943
g3
(g5
S'\xd0\x86\xa7D\xf5\xf5\x7f@'
tRp1944
tp1945
a(S'YP_003046066.1'
p1946
g3
(g5
S'\xff\x93\xf9J/\x1a\x80@'
tRp1947
tp1948
a(S'YP_003044291.1'
p1949
g3
(g5
S'\xfa\x82:\x9d\xd8\x1d\x80@'
tRp1950
tp1951
a(S'YP_003043891.1'
p1952
g3
(g5
S'\xcf\x1d\xef\x0f%\x1e\x80@'
tRp1953
tp1954
a(S'YP_003044959.1'
p1955
g3
(g5
S'\x96\xcf\\\xb1\n/\x80@'
tRp1956
tp1957
a(S'YP_003044561.1'
p1958
g3
(g5
S'\x13S\x1f,vF\x80@'
tRp1959
tp1960
a(S'YP_003043833.1'
p1961
g3
(g5
S'K\x91\xde\\\xa0F\x80@'
tRp1962
tp1963
a(S'YP_003043639.1'
p1964
g3
(g5
S'\xe2\x0c\xd3\x05\xaf_\x80@'
tRp1965
tp1966
a(S'YP_003045513.1'
p1967
g3
(g5
S'\xf7v\x1c<\xd8j\x80@'
tRp1968
tp1969
a(S'YP_003047417.1'
p1970
g3
(g5
S')O\x92\xaa\xfek\x80@'
tRp1971
tp1972
a(S'YP_003046474.1'
p1973
g3
(g5
S'\x07s\xd0\xb6\x0fr\x80@'
tRp1974
tp1975
a(S'YP_003044492.1'
p1976
g3
(g5
S'\xa7\xae+\xb0\xd8\x83\x80@'
tRp1977
tp1978
a(S'YP_003045954.1'
p1979
g3
(g5
S'\xcc\xea\xf3\x08~\x85\x80@'
tRp1980
tp1981
a(S'YP_003045015.1'
p1982
g3
(g5
S'\xc3\xe0\xb7\xd8\xd1\x8f\x80@'
tRp1983
tp1984
a(S'YP_003045432.1'
p1985
g3
(g5
S'\x11\xf9\x8bo\x92\x93\x80@'
tRp1986
tp1987
a(S'YP_003045073.1'
p1988
g3
(g5
S'\x14\x97\xdb\x96#\xa4\x80@'
tRp1989
tp1990
a(S'YP_003046923.1'
p1991
g3
(g5
S'\x141\x05\xd6\xa3\xa8\x80@'
tRp1992
tp1993
a(S'YP_003046124.1'
p1994
g3
(g5
S'\xe0\xffNu\xaf\xb2\x80@'
tRp1995
tp1996
a(S'YP_003045256.1'
p1997
g3
(g5
S'\xd2\xa1K\tT\xc5\x80@'
tRp1998
tp1999
a(S'YP_003045205.1'
p2000
g3
(g5
S'9j:\x91c\xc5\x80@'
tRp2001
tp2002
a(S'YP_003044465.1'
p2003
g3
(g5
S'\\r\x92\xac\xf4\xd3\x80@'
tRp2004
tp2005
a(S'YP_003046496.1'
p2006
g3
(g5
S'\xebQC\x9d*\xdc\x80@'
tRp2007
tp2008
a(S'YP_003044933.1'
p2009
g3
(g5
S'1{ \xec\x8b\xdf\x80@'
tRp2010
tp2011
a(S'YP_003044089.1'
p2012
g3
(g5
S'\xdc_\xac\xf2\x13\xe9\x80@'
tRp2013
tp2014
a(S'YP_003044822.1'
p2015
g3
(g5
S'\xe9\xf6\xb6s\xae\xeb\x80@'
tRp2016
tp2017
a(S'YP_003044645.1'
p2018
g3
(g5
S'sR-c \xed\x80@'
tRp2019
tp2020
a(S'YP_003043823.1'
p2021
g3
(g5
S'qL\x95c\x14\xf5\x80@'
tRp2022
tp2023
a(S'YP_003043594.1'
p2024
g3
(g5
S'\\\xcc\xe7\xec\xfb\xf7\x80@'
tRp2025
tp2026
a(S'YP_003044153.1'
p2027
g3
(g5
S'2\xbcG\xad\xb2\x05\x81@'
tRp2028
tp2029
a(S'YP_003043550.1'
p2030
g3
(g5
S'l_M\xcff\x18\x81@'
tRp2031
tp2032
a(S'YP_003047419.1'
p2033
g3
(g5
S'1\x03BG\xd7#\x81@'
tRp2034
tp2035
a(S'YP_003045418.1'
p2036
g3
(g5
S'~Z\x9fX\xe4&\x81@'
tRp2037
tp2038
a(S'YP_003045060.1'
p2039
g3
(g5
S'\xcb\xfe|\xfd\x96/\x81@'
tRp2040
tp2041
a(S'YP_003044294.1'
p2042
g3
(g5
S'\xb1\xb4\x87D\xf3@\x81@'
tRp2043
tp2044
a(S'YP_003045828.1'
p2045
g3
(g5
S'\xf3h/\xb3<N\x81@'
tRp2046
tp2047
a(S'YP_003045964.1'
p2048
g3
(g5
S'\xc1]Q\xd01a\x81@'
tRp2049
tp2050
a(S'YP_003045925.1'
p2051
g3
(g5
S'd6\x8a*\x9cn\x81@'
tRp2052
tp2053
a(S'YP_003044878.1'
p2054
g3
(g5
S' \x9cq9\xffr\x81@'
tRp2055
tp2056
a(S'YP_003047187.1'
p2057
g3
(g5
S'\xa4\xf3Hw\x8dz\x81@'
tRp2058
tp2059
a(S'YP_003046680.1'
p2060
g3
(g5
S'\xb4n\x02\x06\x82\x7f\x81@'
tRp2061
tp2062
a(S'YP_003044323.1'
p2063
g3
(g5
S'M*\x90\xc7l\x84\x81@'
tRp2064
tp2065
a(S'YP_003043855.1'
p2066
g3
(g5
S'\xdf\x80\x98\xc3\xe8\x98\x81@'
tRp2067
tp2068
a(S'YP_003045265.1'
p2069
g3
(g5
S'\xc9\x0e\xe9\xba\xf0\xa4\x81@'
tRp2070
tp2071
a(S'YP_003043928.1'
p2072
g3
(g5
S'#\xebE\x0cj\xb3\x81@'
tRp2073
tp2074
a(S'YP_003046013.1'
p2075
g3
(g5
S'\xc1\x17\x94\x16\xfd\xb3\x81@'
tRp2076
tp2077
a(S'YP_003047279.1'
p2078
g3
(g5
S'\xde\xe9\x8f?\x93\xb7\x81@'
tRp2079
tp2080
a(S'YP_003047079.1'
p2081
g3
(g5
S'\x9a\xadj8\x95\xcc\x81@'
tRp2082
tp2083
a(S'YP_003044223.1'
p2084
g3
(g5
S'\xd7Q\xe5\xef4\xd6\x81@'
tRp2085
tp2086
a(S'YP_003045304.1'
p2087
g3
(g5
S'{\x00\xc0`\xb5\xd9\x81@'
tRp2088
tp2089
a(S'YP_003047409.1'
p2090
g3
(g5
S'\x8d\x1d\x8b\x93|\xe8\x81@'
tRp2091
tp2092
a(S'YP_003043460.1'
p2093
g3
(g5
S'%V\x16\xec\x9d\xf3\x81@'
tRp2094
tp2095
a(S'YP_003043910.1'
p2096
g3
(g5
S'\x98\x7f\xa0\xa2\xdf\xfa\x81@'
tRp2097
tp2098
a(S'YP_003044972.1'
p2099
g3
(g5
S')\xab\xf6\xcfF\x1e\x82@'
tRp2100
tp2101
a(S'YP_003046920.1'
p2102
g3
(g5
S'\xdbr\xads\xe7%\x82@'
tRp2103
tp2104
a(S'YP_003045423.1'
p2105
g3
(g5
S'd\xdf*\x19\x91-\x82@'
tRp2106
tp2107
a(S'YP_003043863.1'
p2108
g3
(g5
S'\xa0\x89\xd1\xe5\x047\x82@'
tRp2109
tp2110
a(S'YP_003044792.1'
p2111
g3
(g5
S'\xaf\x0c\xfb\x83p;\x82@'
tRp2112
tp2113
a(S'YP_003046227.1'
p2114
g3
(g5
S'\xc3An\x05\xc2K\x82@'
tRp2115
tp2116
a(S'YP_003046089.1'
p2117
g3
(g5
S'@\xe0\x06\xeezL\x82@'
tRp2118
tp2119
a(S'YP_003044072.1'
p2120
g3
(g5
S'4DF\xce\xd2T\x82@'
tRp2121
tp2122
a(S'YP_003045255.1'
p2123
g3
(g5
S'\xf1\xbel\x96\xbct\x82@'
tRp2124
tp2125
a(S'YP_003045420.1'
p2126
g3
(g5
S'\xf0\xdd!\xae\xa9\x95\x82@'
tRp2127
tp2128
a(S'YP_003043398.1'
p2129
g3
(g5
S'\xae\xa6\xaa-\n\x9e\x82@'
tRp2130
tp2131
a(S'YP_003046944.1'
p2132
g3
(g5
S'\xe6\\7\n;\xa7\x82@'
tRp2133
tp2134
a(S'YP_003043351.1'
p2135
g3
(g5
S'\x99\xf1\x1f\xd4\x84\xb3\x82@'
tRp2136
tp2137
a(S'YP_003045829.1'
p2138
g3
(g5
S"'\x94\xe4\xd5\x02\xb7\x82@"
tRp2139
tp2140
a(S'YP_003044462.1'
p2141
g3
(g5
S'r\xe3\xe39\r\xbe\x82@'
tRp2142
tp2143
a(S'YP_003043340.1'
p2144
g3
(g5
S'\xb5\xe2X\xbc#\xc2\x82@'
tRp2145
tp2146
a(S'YP_003044752.1'
p2147
g3
(g5
S'Kox\xff\x95\xce\x82@'
tRp2148
tp2149
a(S'YP_003046573.1'
p2150
g3
(g5
S'\x1a\xcd8\x08\xbb\xcf\x82@'
tRp2151
tp2152
a(S'YP_003045553.1'
p2153
g3
(g5
S'g{\xcc6\xc8\xd1\x82@'
tRp2154
tp2155
a(S'YP_003043428.1'
p2156
g3
(g5
S'\xb9\x0cj\xcf\xa9\xdd\x82@'
tRp2157
tp2158
a(S'YP_003047023.1'
p2159
g3
(g5
S'\x89dt\xc7x\xe0\x82@'
tRp2160
tp2161
a(S'YP_003046433.1'
p2162
g3
(g5
S'\xa6\xbfIZ\xe3\xe2\x82@'
tRp2163
tp2164
a(S'YP_003047359.1'
p2165
g3
(g5
S'\x98F\xe15n\xfa\x82@'
tRp2166
tp2167
a(S'YP_003044005.1'
p2168
g3
(g5
S'\xfa\x0f\x10\xe0\xb3\xfb\x82@'
tRp2169
tp2170
a(S'YP_003043580.1'
p2171
g3
(g5
S'\x17\x1d\xc7Z\x98\x0c\x83@'
tRp2172
tp2173
a(S'YP_003045824.1'
p2174
g3
(g5
S'\xbe]\xf1\xa82*\x83@'
tRp2175
tp2176
a(S'YP_003045659.1'
p2177
g3
(g5
S'W\xb7n\x7f[*\x83@'
tRp2178
tp2179
a(S'YP_003044174.1'
p2180
g3
(g5
S'\xb2\xd2\x0cB^.\x83@'
tRp2181
tp2182
a(S'YP_003047085.1'
p2183
g3
(g5
S'n3WA\xa97\x83@'
tRp2184
tp2185
a(S'YP_003043796.1'
p2186
g3
(g5
S'tk\xbbXfL\x83@'
tRp2187
tp2188
a(S'YP_003046252.1'
p2189
g3
(g5
S'\x18U\xbf\xef\xcdW\x83@'
tRp2190
tp2191
a(S'YP_003046684.1'
p2192
g3
(g5
S'\x15\xf0O:\\v\x83@'
tRp2193
tp2194
a(S'YP_003044948.1'
p2195
g3
(g5
S'\xf9\x9b\xd0Y!x\x83@'
tRp2196
tp2197
a(S'YP_003047101.1'
p2198
g3
(g5
S'\xf13\x1b)_\x83\x83@'
tRp2199
tp2200
a(S'YP_003047201.1'
p2201
g3
(g5
S'9\xcd24\xa4\xa7\x83@'
tRp2202
tp2203
a(S'YP_003043596.1'
p2204
g3
(g5
S'\xbe\x8f\xc01\xf0\xac\x83@'
tRp2205
tp2206
a(S'YP_003043333.1'
p2207
g3
(g5
S'\xd8\x0e65S\xc3\x83@'
tRp2208
tp2209
a(S'YP_003047200.1'
p2210
g3
(g5
S';\x16\xf6\x08\x1c\xd8\x83@'
tRp2211
tp2212
a(S'YP_003045368.1'
p2213
g3
(g5
S'\xaaBg+\xcc\xe9\x83@'
tRp2214
tp2215
a(S'YP_003043371.1'
p2216
g3
(g5
S'\xa4\x9e\xb8\xe7\x0f\xf5\x83@'
tRp2217
tp2218
a(S'YP_003046495.1'
p2219
g3
(g5
S'\xa7q\xce\xd8a\xf7\x83@'
tRp2220
tp2221
a(S'YP_003045523.1'
p2222
g3
(g5
S'\xc9\xae\xbc\xf6[\x02\x84@'
tRp2223
tp2224
a(S'YP_003044225.1'
p2225
g3
(g5
S'\x95m\xe6\x02\xc8\t\x84@'
tRp2226
tp2227
a(S'YP_003044377.1'
p2228
g3
(g5
S'\xb3\xff\x02f\x14\x12\x84@'
tRp2229
tp2230
a(S'YP_003045178.1'
p2231
g3
(g5
S'?Us\xad\xb0\x16\x84@'
tRp2232
tp2233
a(S'YP_003044648.1'
p2234
g3
(g5
S"\xee<w\xbd'\x1c\x84@"
tRp2235
tp2236
a(S'YP_003046810.1'
p2237
g3
(g5
S'\xdad\xb6`~%\x84@'
tRp2238
tp2239
a(S'YP_003044459.1'
p2240
g3
(g5
S'\xbc\xf0\x07\xeaC7\x84@'
tRp2241
tp2242
a(S'YP_003045651.1'
p2243
g3
(g5
S'$KV10C\x84@'
tRp2244
tp2245
a(S'YP_003043930.1'
p2246
g3
(g5
S'g\xe0\x17z}G\x84@'
tRp2247
tp2248
a(S'YP_003046241.1'
p2249
g3
(g5
S'n\x0cQ\x0c\x1fN\x84@'
tRp2250
tp2251
a(S'YP_003045044.1'
p2252
g3
(g5
S' \xdcl\xe3\xb6_\x84@'
tRp2253
tp2254
a(S'YP_003043370.1'
p2255
g3
(g5
S'cy\xbdH\x10k\x84@'
tRp2256
tp2257
a(S'YP_003044124.1'
p2258
g3
(g5
S'\x0eX\xbd\x9c\xc3r\x84@'
tRp2259
tp2260
a(S'YP_003043426.1'
p2261
g3
(g5
S'\xde\xbdf\xbc\x14t\x84@'
tRp2262
tp2263
a(S'YP_003043511.1'
p2264
g3
(g5
S'\x8ay\xc6\xb2\xf9\x87\x84@'
tRp2265
tp2266
a(S'YP_003046031.1'
p2267
g3
(g5
S'Z\xa2x\x8b\xa1\x8d\x84@'
tRp2268
tp2269
a(S'YP_003045140.1'
p2270
g3
(g5
S'\x1d\xaa\xc1\x8d\x14\x91\x84@'
tRp2271
tp2272
a(S'YP_003047271.1'
p2273
g3
(g5
S'\x16R\x10\x95\x1c\x9a\x84@'
tRp2274
tp2275
a(S'YP_003043853.1'
p2276
g3
(g5
S'\xd8\xb4\xabP\xeb\x9c\x84@'
tRp2277
tp2278
a(S'YP_003045408.1'
p2279
g3
(g5
S'\xd6\x03~\x83$\xaf\x84@'
tRp2280
tp2281
a(S'YP_003043318.1'
p2282
g3
(g5
S'\xa0Y\x91\x9ed\xb0\x84@'
tRp2283
tp2284
a(S'YP_003046675.1'
p2285
g3
(g5
S'\xee\x07\xfb2\xe2\xb8\x84@'
tRp2286
tp2287
a(S'YP_003044700.1'
p2288
g3
(g5
S'\xcd[[z\x9e\xbd\x84@'
tRp2289
tp2290
a(S'YP_003043316.1'
p2291
g3
(g5
S'\xcda\xb0C\xc0\xc0\x84@'
tRp2292
tp2293
a(S'YP_003045665.1'
p2294
g3
(g5
S'f\xe6\xf7+k\xc3\x84@'
tRp2295
tp2296
a(S'YP_003045309.1'
p2297
g3
(g5
S'L\xfd\xe0b\x94\xcf\x84@'
tRp2298
tp2299
a(S'YP_003044439.1'
p2300
g3
(g5
S'k|\x8cz\xcd\xe6\x84@'
tRp2301
tp2302
a(S'YP_003047406.1'
p2303
g3
(g5
S'Z N\xc2\xa2\xf0\x84@'
tRp2304
tp2305
a(S'YP_003046991.1'
p2306
g3
(g5
S'\xe5\x075\x9cu\xfc\x84@'
tRp2307
tp2308
a(S'YP_003046843.1'
p2309
g3
(g5
S'\xe8\n<2\xc2\x01\x85@'
tRp2310
tp2311
a(S'YP_003045732.1'
p2312
g3
(g5
S'\x85qA\xe9\xd2\t\x85@'
tRp2313
tp2314
a(S'YP_003046214.1'
p2315
g3
(g5
S'\x11Ed\xba\xc1/\x85@'
tRp2316
tp2317
a(S'YP_003046393.1'
p2318
g3
(g5
S'x\xbej3K1\x85@'
tRp2319
tp2320
a(S'YP_003044861.1'
p2321
g3
(g5
S'\x0c\xe7\x0e\x954C\x85@'
tRp2322
tp2323
a(S'YP_003044916.1'
p2324
g3
(g5
S'l&\xb7\xb6\x9cD\x85@'
tRp2325
tp2326
a(S'YP_003044154.1'
p2327
g3
(g5
S'\xdb\xa2-x\xecF\x85@'
tRp2328
tp2329
a(S'YP_003046982.1'
p2330
g3
(g5
S'<\xe2\xd7\xae\xdee\x85@'
tRp2331
tp2332
a(S'YP_003046572.1'
p2333
g3
(g5
S'\x80\x94|*\x14\x87\x85@'
tRp2334
tp2335
a(S'YP_003043829.1'
p2336
g3
(g5
S'\xdb7\xb5t\x15\x8e\x85@'
tRp2337
tp2338
a(S'YP_003045987.1'
p2339
g3
(g5
S'\xdc\xf3\xff\xd9\x05\x92\x85@'
tRp2340
tp2341
a(S'YP_003044833.1'
p2342
g3
(g5
S'\xb1\xb3\x0f\x18\x9e\x98\x85@'
tRp2343
tp2344
a(S'YP_003045460.1'
p2345
g3
(g5
S'\x1b\xef\x05\xc0z\x9a\x85@'
tRp2346
tp2347
a(S'YP_003045615.1'
p2348
g3
(g5
S'Y\xc1\xab\x0c\x10\x9b\x85@'
tRp2349
tp2350
a(S'YP_003047047.1'
p2351
g3
(g5
S'\xdaU]*\x05\xb4\x85@'
tRp2352
tp2353
a(S'YP_003047020.1'
p2354
g3
(g5
S'\x93\xe8\x8f\xa6\xc4\xbc\x85@'
tRp2355
tp2356
a(S'YP_003044829.1'
p2357
g3
(g5
S'\xf8\xfbZ\xb4\x11\xc5\x85@'
tRp2358
tp2359
a(S'YP_003045398.1'
p2360
g3
(g5
S';Nb\xdb\xbe\xcc\x85@'
tRp2361
tp2362
a(S'YP_003046557.1'
p2363
g3
(g5
S'\xb4\x86\xac\x00\xd7\xec\x85@'
tRp2364
tp2365
a(S'YP_003045654.1'
p2366
g3
(g5
S'0\x0bL*[\x07\x86@'
tRp2367
tp2368
a(S'YP_003046838.1'
p2369
g3
(g5
S',>\xac\xbd\x06\x1a\x86@'
tRp2370
tp2371
a(S'YP_003045554.1'
p2372
g3
(g5
S'\xb5\xbfS\xb6+\x1f\x86@'
tRp2373
tp2374
a(S'YP_003043985.1'
p2375
g3
(g5
S'\x00\xd3\x14Y% \x86@'
tRp2376
tp2377
a(S'YP_003045911.1'
p2378
g3
(g5
S'\x0f\xb6fI\x10>\x86@'
tRp2379
tp2380
a(S'YP_003043507.1'
p2381
g3
(g5
S'\xa0,RC\xf1?\x86@'
tRp2382
tp2383
a(S'YP_003046678.1'
p2384
g3
(g5
S'\xecO8R\x96P\x86@'
tRp2385
tp2386
a(S'YP_003045087.1'
p2387
g3
(g5
S'\x87\xd5\x9b)OY\x86@'
tRp2388
tp2389
a(S'YP_003046998.1'
p2390
g3
(g5
S']\xb0k\xcf\x7f{\x86@'
tRp2391
tp2392
a(S'YP_003044024.1'
p2393
g3
(g5
S'\xcd\xd4Q#\xe9\x8a\x86@'
tRp2394
tp2395
a(S'YP_003045789.1'
p2396
g3
(g5
S"\x02\xb3\xd2\x97'\xc0\x86@"
tRp2397
tp2398
a(S'YP_003043309.1'
p2399
g3
(g5
S'\xb4\xfc\x8f2\xd8\xc9\x86@'
tRp2400
tp2401
a(S'YP_003044741.1'
p2402
g3
(g5
S'P#\x08\xc2\x19\xd0\x86@'
tRp2403
tp2404
a(S'YP_003045688.1'
p2405
g3
(g5
S'r\xedN\x0f\x89\xd1\x86@'
tRp2406
tp2407
a(S'YP_003045166.1'
p2408
g3
(g5
S'_\xfa\xe1=\xe5\x06\x87@'
tRp2409
tp2410
a(S'YP_003046900.1'
p2411
g3
(g5
S',b\xbb\x8c\xf1\x1f\x87@'
tRp2412
tp2413
a(S'YP_003043587.1'
p2414
g3
(g5
S'\x90\xf0a\xbb? \x87@'
tRp2415
tp2416
a(S'YP_003043932.1'
p2417
g3
(g5
S'6\xbf\xd9\xb7\xad&\x87@'
tRp2418
tp2419
a(S'YP_003043654.1'
p2420
g3
(g5
S'\x81\x98\xcaj\x92*\x87@'
tRp2421
tp2422
a(S'YP_003046637.1'
p2423
g3
(g5
S'\xc2#+w\xf3:\x87@'
tRp2424
tp2425
a(S'YP_003044846.1'
p2426
g3
(g5
S'c\xb7\x82\xe6\x0cJ\x87@'
tRp2427
tp2428
a(S'YP_003046443.1'
p2429
g3
(g5
S'^fn6,M\x87@'
tRp2430
tp2431
a(S'YP_003046292.1'
p2432
g3
(g5
S'\xed\xcdy4\x83^\x87@'
tRp2433
tp2434
a(S'YP_003046276.1'
p2435
g3
(g5
S'D\xc5\x10w\xf8a\x87@'
tRp2436
tp2437
a(S'YP_003045605.1'
p2438
g3
(g5
S'M\xdb\x1b\xe9\xf6d\x87@'
tRp2439
tp2440
a(S'YP_003046110.1'
p2441
g3
(g5
S'\x1b\xb7\x9b\xcb\x0fw\x87@'
tRp2442
tp2443
a(S'YP_003046634.1'
p2444
g3
(g5
S'\x10\x8b\xb1\xf6Z\x86\x87@'
tRp2445
tp2446
a(S'YP_003043321.1'
p2447
g3
(g5
S'\x8b]\xc84\xc1\x8d\x87@'
tRp2448
tp2449
a(S'YP_003043649.1'
p2450
g3
(g5
S'\xc8<\xb9\xc1\x94\x91\x87@'
tRp2451
tp2452
a(S'YP_003046002.1'
p2453
g3
(g5
S'\xa0\r\xf5\xf4\x00\x93\x87@'
tRp2454
tp2455
a(S'YP_003044896.1'
p2456
g3
(g5
S'\xbd\x7fp\x0b+\x9f\x87@'
tRp2457
tp2458
a(S'YP_003045928.1'
p2459
g3
(g5
S'mu\xdb\x8b\x0c\xaf\x87@'
tRp2460
tp2461
a(S'YP_003046005.1'
p2462
g3
(g5
S'\xf3\xb3\xc9\xbf\x1e\xba\x87@'
tRp2463
tp2464
a(S'YP_003046854.1'
p2465
g3
(g5
S'\x8e\xa2\\\xf4\x17\xbb\x87@'
tRp2466
tp2467
a(S'YP_003044985.1'
p2468
g3
(g5
S'\xaf\xca-7y\xcb\x87@'
tRp2469
tp2470
a(S'YP_003046862.1'
p2471
g3
(g5
S'*\xcbz)O\xd4\x87@'
tRp2472
tp2473
a(S'YP_003047433.1'
p2474
g3
(g5
S'\x8d\x9dBw\xcb\xdb\x87@'
tRp2475
tp2476
a(S'YP_003045913.1'
p2477
g3
(g5
S'D\x0f\xcc\x83S\xde\x87@'
tRp2478
tp2479
a(S'YP_003044249.1'
p2480
g3
(g5
S'6D\x9b\xb2\xf7\xeb\x87@'
tRp2481
tp2482
a(S'YP_003046279.1'
p2483
g3
(g5
S'\x13\x19\x92\xec\xa0\t\x88@'
tRp2484
tp2485
a(S'YP_003046001.1'
p2486
g3
(g5
S'\r(U\x9d4\x0b\x88@'
tRp2487
tp2488
a(S'YP_003043921.1'
p2489
g3
(g5
S'y\xed4\xadw\x1c\x88@'
tRp2490
tp2491
a(S'YP_003044093.1'
p2492
g3
(g5
S'S\xb8\x9f\x93o4\x88@'
tRp2493
tp2494
a(S'YP_003046531.1'
p2495
g3
(g5
S'\xa1\r+\x91\xcd8\x88@'
tRp2496
tp2497
a(S'YP_003046852.1'
p2498
g3
(g5
S'&\x17pJ\xd6G\x88@'
tRp2499
tp2500
a(S'YP_003045714.1'
p2501
g3
(g5
S'\x1c\x02\xae\xf8`O\x88@'
tRp2502
tp2503
a(S'YP_003047248.1'
p2504
g3
(g5
S'\x81\xeb\xf2p\x8cY\x88@'
tRp2505
tp2506
a(S'YP_003044077.1'
p2507
g3
(g5
S'\x83v\x92g\xccb\x88@'
tRp2508
tp2509
a(S'YP_003043569.1'
p2510
g3
(g5
S'\xc8#\xfb\x10\x01f\x88@'
tRp2511
tp2512
a(S'YP_003045870.1'
p2513
g3
(g5
S'%-\xddH6g\x88@'
tRp2514
tp2515
a(S'YP_003044167.1'
p2516
g3
(g5
S'\x1a?\xabBvv\x88@'
tRp2517
tp2518
a(S'YP_003044872.1'
p2519
g3
(g5
S'\x88\xacB"\xdb\x84\x88@'
tRp2520
tp2521
a(S'YP_003045650.1'
p2522
g3
(g5
S'\xa0q\x18K2\xb5\x88@'
tRp2523
tp2524
a(S'YP_003046971.1'
p2525
g3
(g5
S'\xd1\xf9i\xfb\xf9\xc3\x88@'
tRp2526
tp2527
a(S'YP_003045545.1'
p2528
g3
(g5
S'\xecW7\x86Y\xc9\x88@'
tRp2529
tp2530
a(S'YP_003044894.1'
p2531
g3
(g5
S'fZZU\x95\xd5\x88@'
tRp2532
tp2533
a(S'YP_003046784.1'
p2534
g3
(g5
S'_\xa4O\xe5Z\xd8\x88@'
tRp2535
tp2536
a(S'YP_003044371.1'
p2537
g3
(g5
S'\xa6\x8c\x9f\x16\xcc\xd8\x88@'
tRp2538
tp2539
a(S'YP_003044088.1'
p2540
g3
(g5
S'\xee\xd0\xd5J\x17\xff\x88@'
tRp2541
tp2542
a(S'YP_003044140.1'
p2543
g3
(g5
S'K\x9d\xa2\t\x11\x15\x89@'
tRp2544
tp2545
a(S'YP_003047019.1'
p2546
g3
(g5
S'/\x0b1\x96\xd8%\x89@'
tRp2547
tp2548
a(S'YP_003044012.1'
p2549
g3
(g5
S'\x9a\xdfc\xfe\x04b\x89@'
tRp2550
tp2551
a(S'YP_003043315.1'
p2552
g3
(g5
S'G\xf2j\xcd,d\x89@'
tRp2553
tp2554
a(S'YP_003044521.1'
p2555
g3
(g5
S'\x19f\xf1XSn\x89@'
tRp2556
tp2557
a(S'YP_003045379.1'
p2558
g3
(g5
S'\xe9\xe6\xe4\xf0\x92s\x89@'
tRp2559
tp2560
a(S'YP_003043818.1'
p2561
g3
(g5
S')<\xef\xe1\xedt\x89@'
tRp2562
tp2563
a(S'YP_003046202.1'
p2564
g3
(g5
S'\x84\xa1\xebsPz\x89@'
tRp2565
tp2566
a(S'YP_003044906.1'
p2567
g3
(g5
S"'\xe8s,\xb6\x7f\x89@"
tRp2568
tp2569
a(S'YP_003045016.1'
p2570
g3
(g5
S'X\x19\x8a\x1b;\x8b\x89@'
tRp2571
tp2572
a(S'YP_003046891.1'
p2573
g3
(g5
S'\x92\x81\x15G{\x97\x89@'
tRp2574
tp2575
a(S'YP_003047404.1'
p2576
g3
(g5
S'\xe3\xd2f\xe5$\xcc\x89@'
tRp2577
tp2578
a(S'YP_003044388.1'
p2579
g3
(g5
S'\xe1\x8e\x19\x81\xe9\xd2\x89@'
tRp2580
tp2581
a(S'YP_003044856.1'
p2582
g3
(g5
S'\x15\x13\xde\xe2\xb4\xdd\x89@'
tRp2583
tp2584
a(S'YP_003043943.1'
p2585
g3
(g5
S'S\xe1\xbc\xd8\x8d\xf2\x89@'
tRp2586
tp2587
a(S'YP_003044250.1'
p2588
g3
(g5
S'j\xfb\xca\x18\xd1\r\x8a@'
tRp2589
tp2590
a(S'YP_003044365.1'
p2591
g3
(g5
S'\xa9o\x00\t\xf3(\x8a@'
tRp2592
tp2593
a(S'YP_003047273.1'
p2594
g3
(g5
S'0\x02\x00@\xbcc\x8a@'
tRp2595
tp2596
a(S'YP_003044370.1'
p2597
g3
(g5
S'\xa7c\xd0@\xaes\x8a@'
tRp2598
tp2599
a(S'YP_003045353.1'
p2600
g3
(g5
S'\xd9[\xf0\x0e\x14\x7f\x8a@'
tRp2601
tp2602
a(S'YP_003045022.1'
p2603
g3
(g5
S'\x01xA\xaf\xbe\x96\x8a@'
tRp2604
tp2605
a(S'YP_003044892.1'
p2606
g3
(g5
S'9\xe7W\xec\t\x9d\x8a@'
tRp2607
tp2608
a(S'YP_003045427.1'
p2609
g3
(g5
S'a_\xc5P\xaf\xa5\x8a@'
tRp2610
tp2611
a(S'YP_003046832.1'
p2612
g3
(g5
S'\xbc\x0e\xbe\xe2r\xb4\x8a@'
tRp2613
tp2614
a(S'YP_003046925.1'
p2615
g3
(g5
S'\x8a\x03\x12*\x8e\xbd\x8a@'
tRp2616
tp2617
a(S'YP_003045655.1'
p2618
g3
(g5
S'\xb7\xf8a,\x07\xd9\x8a@'
tRp2619
tp2620
a(S'YP_003045437.1'
p2621
g3
(g5
S'\x95i\xfa\x9a\x85\xf3\x8a@'
tRp2622
tp2623
a(S'YP_003043775.1'
p2624
g3
(g5
S'\xb6\xd3\x99\x92\x89\xf7\x8a@'
tRp2625
tp2626
a(S'YP_003046441.1'
p2627
g3
(g5
S'\x9e\xf8O\xe0\xa4\x00\x8b@'
tRp2628
tp2629
a(S'YP_003044931.1'
p2630
g3
(g5
S'"96\x8c1:\x8b@'
tRp2631
tp2632
a(S'YP_003045955.1'
p2633
g3
(g5
S'\xec\xe0\x17U\xcb<\x8b@'
tRp2634
tp2635
a(S'YP_003044472.1'
p2636
g3
(g5
S'\x1d\xa3\xf7x\x9d?\x8b@'
tRp2637
tp2638
a(S'YP_003044782.1'
p2639
g3
(g5
S"\x9f\x1e\xae\xfc'A\x8b@"
tRp2640
tp2641
a(S'YP_003045966.1'
p2642
g3
(g5
S'm\x1b\xdc\xe0\xcbR\x8b@'
tRp2643
tp2644
a(S'YP_003047249.1'
p2645
g3
(g5
S'SG\xc0\xf0#\xac\x8b@'
tRp2646
tp2647
a(S'YP_003043705.1'
p2648
g3
(g5
S'\xd5\xb1\x8e\xaa\x12\xb9\x8b@'
tRp2649
tp2650
a(S'YP_003045652.1'
p2651
g3
(g5
S'P\x94\xe4a\xe9\xd0\x8b@'
tRp2652
tp2653
a(S'YP_003045790.1'
p2654
g3
(g5
S'e\xbbJFb\xdd\x8b@'
tRp2655
tp2656
a(S'YP_003045969.1'
p2657
g3
(g5
S'\xe7X\xd9\xd6l\xdd\x8b@'
tRp2658
tp2659
a(S'YP_003046345.1'
p2660
g3
(g5
S'\x00\xc9*\xc9U\xe4\x8b@'
tRp2661
tp2662
a(S'YP_003045610.1'
p2663
g3
(g5
S'\xdf\xb2KPf\xeb\x8b@'
tRp2664
tp2665
a(S'YP_003046670.1'
p2666
g3
(g5
S'\xa4\xebs\x19n\xff\x8b@'
tRp2667
tp2668
a(S'YP_003046356.1'
p2669
g3
(g5
S'\xffG\xc3\xd1\x8c\x14\x8c@'
tRp2670
tp2671
a(S'YP_003043324.1'
p2672
g3
(g5
S'>\xf6\xe6\xbfC\x18\x8c@'
tRp2673
tp2674
a(S'YP_003045382.1'
p2675
g3
(g5
S'\xd1v\xd5\x15\x8f5\x8c@'
tRp2676
tp2677
a(S'YP_003043562.1'
p2678
g3
(g5
S'\x10\xa8\xb81\x98L\x8c@'
tRp2679
tp2680
a(S'YP_003047024.1'
p2681
g3
(g5
S'hY\xe99]Z\x8c@'
tRp2682
tp2683
a(S'YP_003044151.1'
p2684
g3
(g5
S'.,\xc0%Oc\x8c@'
tRp2685
tp2686
a(S'YP_003046486.1'
p2687
g3
(g5
S'\x88\x820\xe3\x97|\x8c@'
tRp2688
tp2689
a(S'YP_003044783.1'
p2690
g3
(g5
S'\x8d\xd5\x9c\xb6L}\x8c@'
tRp2691
tp2692
a(S'YP_003043265.1'
p2693
g3
(g5
S'\xb0\xc4\xccZ\xed\x84\x8c@'
tRp2694
tp2695
a(S'YP_003043416.1'
p2696
g3
(g5
S'&e\xacu\xa3\x85\x8c@'
tRp2697
tp2698
a(S'YP_003046591.1'
p2699
g3
(g5
S'\xa7\x8a01"\x86\x8c@'
tRp2700
tp2701
a(S'YP_003043235.1'
p2702
g3
(g5
S'z\x8eG`\xca\x8f\x8c@'
tRp2703
tp2704
a(S'YP_003043546.1'
p2705
g3
(g5
S'\xab\x1d\xd90z\x96\x8c@'
tRp2706
tp2707
a(S'YP_003044389.1'
p2708
g3
(g5
S'!v\xbc\xbb\x1e\x99\x8c@'
tRp2709
tp2710
a(S'YP_003045863.1'
p2711
g3
(g5
S'\xb9\xa7\xac\xe4\\\xb5\x8c@'
tRp2712
tp2713
a(S'YP_003046323.1'
p2714
g3
(g5
S'\x9ff\x87\xcb\xeb\xdd\x8c@'
tRp2715
tp2716
a(S'YP_003043595.1'
p2717
g3
(g5
S'1f|a4\xe1\x8c@'
tRp2718
tp2719
a(S'YP_003045446.1'
p2720
g3
(g5
S'\x9a0\xb5\x1b\x9a\xf8\x8c@'
tRp2721
tp2722
a(S'YP_003044314.1'
p2723
g3
(g5
S'\xa9B\xd7\x89~\xf9\x8c@'
tRp2724
tp2725
a(S'YP_003045664.1'
p2726
g3
(g5
S'\xef\x94\xb7\x84A\xfa\x8c@'
tRp2727
tp2728
a(S'YP_003046487.1'
p2729
g3
(g5
S'An\x89\x1f\xc2\xfb\x8c@'
tRp2730
tp2731
a(S'YP_003045956.1'
p2732
g3
(g5
S'TK\xe7\r\x83\x05\x8d@'
tRp2733
tp2734
a(S'YP_003044343.1'
p2735
g3
(g5
S'\xa4\xf7\t5i%\x8d@'
tRp2736
tp2737
a(S'YP_003044853.1'
p2738
g3
(g5
S'\xf5\xe7=\x93\xeeM\x8d@'
tRp2739
tp2740
a(S'YP_003047289.1'
p2741
g3
(g5
S'\x1d7\xba\x03\x83O\x8d@'
tRp2742
tp2743
a(S'YP_003046226.1'
p2744
g3
(g5
S'\xcf\xa1\x18\xc8$f\x8d@'
tRp2745
tp2746
a(S'YP_003046984.1'
p2747
g3
(g5
S'R1\xcf\xd1\x8al\x8d@'
tRp2748
tp2749
a(S'YP_003043960.1'
p2750
g3
(g5
S'\xb6\x966\x9aAt\x8d@'
tRp2751
tp2752
a(S'YP_003047080.1'
p2753
g3
(g5
S'\x86\xee\xe0\x85b\x82\x8d@'
tRp2754
tp2755
a(S'YP_003047260.1'
p2756
g3
(g5
S'\xd8\xe5\x90\xf6m\x94\x8d@'
tRp2757
tp2758
a(S'YP_003045635.1'
p2759
g3
(g5
S'{\x8f\xde\xf6b\xa9\x8d@'
tRp2760
tp2761
a(S'YP_003043996.1'
p2762
g3
(g5
S'!t\xa8\xfe\x11\xad\x8d@'
tRp2763
tp2764
a(S'YP_003047060.1'
p2765
g3
(g5
S'(\xd3\xe0\xd60\xc3\x8d@'
tRp2766
tp2767
a(S'YP_003046319.1'
p2768
g3
(g5
S'W\x92\x9d^4\xd7\x8d@'
tRp2769
tp2770
a(S'YP_003044020.1'
p2771
g3
(g5
S'!\xd6\xf4C\x7f\xdc\x8d@'
tRp2772
tp2773
a(S'YP_003046424.1'
p2774
g3
(g5
S'\x9c\xd8sb*\xe0\x8d@'
tRp2775
tp2776
a(S'YP_003044930.1'
p2777
g3
(g5
S'\xad\x94@+\x00\xea\x8d@'
tRp2778
tp2779
a(S'YP_003044169.1'
p2780
g3
(g5
S',\xfc0\x07\xb7\x10\x8e@'
tRp2781
tp2782
a(S'YP_003046255.1'
p2783
g3
(g5
S'\xd0\xe5F\xd1\x93\x13\x8e@'
tRp2784
tp2785
a(S'YP_003044149.1'
p2786
g3
(g5
S'+\x17\xf9\xf8I\x14\x8e@'
tRp2787
tp2788
a(S'YP_003043832.1'
p2789
g3
(g5
S'o\xb089\x82c\x8e@'
tRp2790
tp2791
a(S'YP_003047420.1'
p2792
g3
(g5
S'\x8e)n\x19~j\x8e@'
tRp2793
tp2794
a(S'YP_003044460.1'
p2795
g3
(g5
S'!:;\xb5lq\x8e@'
tRp2796
tp2797
a(S'YP_003046997.1'
p2798
g3
(g5
S'\x13[\xfe1\xd8\x8f\x8e@'
tRp2799
tp2800
a(S'YP_003043473.1'
p2801
g3
(g5
S'u\x1b\x14N\xb2\xa6\x8e@'
tRp2802
tp2803
a(S'YP_003047081.1'
p2804
g3
(g5
S'F\x95\x1d\xcd(\xb4\x8e@'
tRp2805
tp2806
a(S'YP_003045113.1'
p2807
g3
(g5
S'\x17\xb8iy\xb6\xb8\x8e@'
tRp2808
tp2809
a(S'YP_003046317.1'
p2810
g3
(g5
S'\x9d\x8c\xfe~t\xd4\x8e@'
tRp2811
tp2812
a(S'YP_003045597.1'
p2813
g3
(g5
S'\x0f\x9a\x07U\xd0\xf7\x8e@'
tRp2814
tp2815
a(S'YP_003044806.1'
p2816
g3
(g5
S'VQ\xe0B9\xfb\x8e@'
tRp2817
tp2818
a(S'YP_003045350.1'
p2819
g3
(g5
S'T\x15,\xca\xc7\x0b\x8f@'
tRp2820
tp2821
a(S'YP_003045814.1'
p2822
g3
(g5
S'<\xfa\xd8\x04\xcd#\x8f@'
tRp2823
tp2824
a(S'YP_003045306.1'
p2825
g3
(g5
S'J\xad\xc2\xf9Z&\x8f@'
tRp2826
tp2827
a(S'YP_003043862.1'
p2828
g3
(g5
S'\x04W\xe2\xe0H/\x8f@'
tRp2829
tp2830
a(S'YP_003045090.1'
p2831
g3
(g5
S'0\xd0D\xcb:M\x8f@'
tRp2832
tp2833
a(S'YP_003043584.1'
p2834
g3
(g5
S'\xfa\x04\x8f\xbdpP\x8f@'
tRp2835
tp2836
a(S'YP_003045915.1'
p2837
g3
(g5
S'\\*\x8b\xe9\xdff\x8f@'
tRp2838
tp2839
a(S'YP_003043612.1'
p2840
g3
(g5
S'}\xc5\xdf\xd4 \x97\x8f@'
tRp2841
tp2842
a(S'YP_003045400.1'
p2843
g3
(g5
S'\xca\xe5\x94\xbd\x18\x99\x8f@'
tRp2844
tp2845
a(S'YP_003044717.1'
p2846
g3
(g5
S'\x1a\xde\xcaNi\x9b\x8f@'
tRp2847
tp2848
a(S'YP_003045354.1'
p2849
g3
(g5
S'\x94\x10:MB\xa6\x8f@'
tRp2850
tp2851
a(S'YP_003045791.1'
p2852
g3
(g5
S'\xfc\x86JaB\xa8\x8f@'
tRp2853
tp2854
a(S'YP_003043583.1'
p2855
g3
(g5
S'\x97\xa8\xcb\td\xc7\x8f@'
tRp2856
tp2857
a(S'YP_003046604.1'
p2858
g3
(g5
S'\xdd\xb5i\x91\xe0\xd4\x8f@'
tRp2859
tp2860
a(S'YP_003044780.1'
p2861
g3
(g5
S'\x1e\xac;\xbf\x8f\xe3\x8f@'
tRp2862
tp2863
a(S'YP_003045020.1'
p2864
g3
(g5
S'\xf0\x14l\x95\x1e\xe4\x8f@'
tRp2865
tp2866
a(S'YP_003045874.1'
p2867
g3
(g5
S'T\xbb\xd5q(\x00\x90@'
tRp2868
tp2869
a(S'YP_003043467.1'
p2870
g3
(g5
S'[\xb9\xd974+\x90@'
tRp2871
tp2872
a(S'YP_003043847.1'
p2873
g3
(g5
S'md6\xc5\x109\x90@'
tRp2874
tp2875
a(S'YP_003046425.1'
p2876
g3
(g5
S'\xfal%_\x87:\x90@'
tRp2877
tp2878
a(S'YP_003046064.1'
p2879
g3
(g5
S'\x13\xefn<\x91:\x90@'
tRp2880
tp2881
a(S'YP_003046756.1'
p2882
g3
(g5
S'+\xab\xcc\xe7\x83?\x90@'
tRp2883
tp2884
a(S'YP_003045410.1'
p2885
g3
(g5
S'\x97:\x04\xee\xedD\x90@'
tRp2886
tp2887
a(S'YP_003045403.1'
p2888
g3
(g5
S'\x16t$wAN\x90@'
tRp2889
tp2890
a(S'YP_003046758.1'
p2891
g3
(g5
S'h\nmQDX\x90@'
tRp2892
tp2893
a(S'YP_003047282.1'
p2894
g3
(g5
S'\xd6\xf9\x17-gc\x90@'
tRp2895
tp2896
a(S'YP_003046646.1'
p2897
g3
(g5
S'\x1dS-\xba\x15o\x90@'
tRp2898
tp2899
a(S'YP_003047318.1'
p2900
g3
(g5
S'\x901zk\xdbo\x90@'
tRp2901
tp2902
a(S'YP_003043391.1'
p2903
g3
(g5
S'\x94n%\x01hq\x90@'
tRp2904
tp2905
a(S'YP_003045404.1'
p2906
g3
(g5
S'\xf7?\xdbB\x9f\x80\x90@'
tRp2907
tp2908
a(S'YP_003044345.1'
p2909
g3
(g5
S'\x97\xe5\xc1\x88#\x83\x90@'
tRp2910
tp2911
a(S'YP_003046098.1'
p2912
g3
(g5
S'p\x89!Tr\x87\x90@'
tRp2913
tp2914
a(S'YP_003043361.1'
p2915
g3
(g5
S';\xaf\xf2 \xc9\x92\x90@'
tRp2916
tp2917
a(S'YP_003044113.1'
p2918
g3
(g5
S'\xb9\x13\x89\xbaR\x99\x90@'
tRp2919
tp2920
a(S'YP_003043590.1'
p2921
g3
(g5
S'\xe8\x7f%\xcd\xd0\xa4\x90@'
tRp2922
tp2923
a(S'YP_003045141.1'
p2924
g3
(g5
S'\x7ff!\xdb\xef\xac\x90@'
tRp2925
tp2926
a(S'YP_003045032.1'
p2927
g3
(g5
S'\xdf\x9d\x17\xeb\xff\xae\x90@'
tRp2928
tp2929
a(S'YP_003044366.1'
p2930
g3
(g5
S'\xfb\x97,\x7f\n\xaf\x90@'
tRp2931
tp2932
a(S'YP_003044870.1'
p2933
g3
(g5
S'\xaf\xe0\xa3\xb2\xab\xb4\x90@'
tRp2934
tp2935
a(S'YP_003047281.1'
p2936
g3
(g5
S')Y~\xee^\xb9\x90@'
tRp2937
tp2938
a(S'YP_003046254.1'
p2939
g3
(g5
S'\x16VI\xc3\xe3\xbc\x90@'
tRp2940
tp2941
a(S'YP_003046231.1'
p2942
g3
(g5
S"\x99'\xd3\t\x92\xc0\x90@"
tRp2943
tp2944
a(S'YP_003044297.1'
p2945
g3
(g5
S'\xa6\xc1\xec*\xd0\xc1\x90@'
tRp2946
tp2947
a(S'YP_003043518.1'
p2948
g3
(g5
S'\xc0\xd9\xd8\x9a\x19\xc5\x90@'
tRp2949
tp2950
a(S'YP_003046583.1'
p2951
g3
(g5
S'\xe1\xeb\xa8\xda\x8e\xdd\x90@'
tRp2952
tp2953
a(S'YP_003046208.1'
p2954
g3
(g5
S'\xc5\x9d\xa6\x03^\xf2\x90@'
tRp2955
tp2956
a(S'YP_003047376.1'
p2957
g3
(g5
S'W\xed\xf6:>\xff\x90@'
tRp2958
tp2959
a(S'YP_003044023.1'
p2960
g3
(g5
S'+!\xc3R\x1e\x12\x91@'
tRp2961
tp2962
a(S'YP_003044771.1'
p2963
g3
(g5
S'\x07\xa34*\xe4\x17\x91@'
tRp2964
tp2965
a(S'YP_003046721.1'
p2966
g3
(g5
S'\xd2\xc0\x10\xff\x0f\x19\x91@'
tRp2967
tp2968
a(S'YP_003043927.1'
p2969
g3
(g5
S'z8\x91\x1a\r$\x91@'
tRp2970
tp2971
a(S'YP_003045436.1'
p2972
g3
(g5
S'\xb1K\xba\xf5\xb0.\x91@'
tRp2973
tp2974
a(S'YP_003046240.1'
p2975
g3
(g5
S'A!s\x07&3\x91@'
tRp2976
tp2977
a(S'YP_003044781.1'
p2978
g3
(g5
S'\xeb\xe93\xa4\xe7D\x91@'
tRp2979
tp2980
a(S'YP_003046980.1'
p2981
g3
(g5
S'\x16I\xd2\xe1qG\x91@'
tRp2982
tp2983
a(S'YP_003046910.1'
p2984
g3
(g5
S'#\x8a\x16w\x81[\x91@'
tRp2985
tp2986
a(S'YP_003047180.1'
p2987
g3
(g5
S'\x15}G}Nh\x91@'
tRp2988
tp2989
a(S'YP_003045678.1'
p2990
g3
(g5
S')\xe9\xa1\x99Sh\x91@'
tRp2991
tp2992
a(S'YP_003044296.1'
p2993
g3
(g5
S'3o\xcbi\xf0|\x91@'
tRp2994
tp2995
a(S'YP_003046065.1'
p2996
g3
(g5
S'86f\xe8\x9b~\x91@'
tRp2997
tp2998
a(S'YP_003045918.1'
p2999
g3
(g5
S'g\xd7\x7f>\x81\x89\x91@'
tRp3000
tp3001
a(S'YP_003043658.1'
p3002
g3
(g5
S'\xb1\xa9\xbeM\x90\x97\x91@'
tRp3003
tp3004
a(S'YP_003043349.1'
p3005
g3
(g5
S'\xd7\x9a\x1d\x96,\xa5\x91@'
tRp3006
tp3007
a(S'YP_003044845.1'
p3008
g3
(g5
S'\xe7\xf7\x06\x028\xad\x91@'
tRp3009
tp3010
a(S'YP_003046219.1'
p3011
g3
(g5
S'\nB\x7f\xc9\x96\xc0\x91@'
tRp3012
tp3013
a(S'YP_003044454.1'
p3014
g3
(g5
S'H?=\x03X\xc5\x91@'
tRp3015
tp3016
a(S'YP_003044281.1'
p3017
g3
(g5
S'\xcaZ\x0c;\xf0\xc5\x91@'
tRp3018
tp3019
a(S'YP_003046122.1'
p3020
g3
(g5
S'\x85\x08\xa5\x08!\xdd\x91@'
tRp3021
tp3022
a(S'YP_003046452.1'
p3023
g3
(g5
S'm\x07\xfa/\xf7\xe5\x91@'
tRp3024
tp3025
a(S'YP_003045910.1'
p3026
g3
(g5
S'\x9e\xe3)\x86\x07\x11\x92@'
tRp3027
tp3028
a(S'YP_003044562.1'
p3029
g3
(g5
S'@\xfb!\xedU\x11\x92@'
tRp3030
tp3031
a(S'YP_003045034.1'
p3032
g3
(g5
S'u\x1c.6J>\x92@'
tRp3033
tp3034
a(S'YP_003046673.1'
p3035
g3
(g5
S'\xd0Vb/\xd5P\x92@'
tRp3036
tp3037
a(S'YP_003045007.1'
p3038
g3
(g5
S'\xa7\xc9\x98c\xc3Z\x92@'
tRp3039
tp3040
a(S'YP_003046322.1'
p3041
g3
(g5
S'\x13D\xa85\xcfj\x92@'
tRp3042
tp3043
a(S'YP_003047270.1'
p3044
g3
(g5
S'~\xa3]n\xdam\x92@'
tRp3045
tp3046
a(S'YP_003043856.1'
p3047
g3
(g5
S'\x17\x87\xc2\x1b\x9ez\x92@'
tRp3048
tp3049
a(S'YP_003045923.1'
p3050
g3
(g5
S'{%\x8cuM~\x92@'
tRp3051
tp3052
a(S'YP_003043286.1'
p3053
g3
(g5
S',\x9a\xa8\x94\xdd\x80\x92@'
tRp3054
tp3055
a(S'YP_003046282.1'
p3056
g3
(g5
S'e/\xb9\x8dF\x90\x92@'
tRp3057
tp3058
a(S'YP_003043466.1'
p3059
g3
(g5
S'\x0f\x9f8>\x9b\xa8\x92@'
tRp3060
tp3061
a(S'YP_003046437.1'
p3062
g3
(g5
S'\xe0\x9a\x97o\xf0\xae\x92@'
tRp3063
tp3064
a(S'YP_003046881.1'
p3065
g3
(g5
S'\xab\xbbo6\xce\xc1\x92@'
tRp3066
tp3067
a(S'YP_003043997.1'
p3068
g3
(g5
S'\x9eL\x15\xb8\xd3\xc5\x92@'
tRp3069
tp3070
a(S'YP_003046239.1'
p3071
g3
(g5
S'\xc11\xf10\xe6\xc8\x92@'
tRp3072
tp3073
a(S'YP_003043244.1'
p3074
g3
(g5
S'\xd4\xf7\xb8\xac\xdf\xee\x92@'
tRp3075
tp3076
a(S'YP_003044887.1'
p3077
g3
(g5
S'\xf4\xf0\x9dK\xbb\xf5\x92@'
tRp3078
tp3079
a(S'YP_003046679.1'
p3080
g3
(g5
S'\xa1\x83R\xaf\xcf\xf8\x92@'
tRp3081
tp3082
a(S'YP_003044474.1'
p3083
g3
(g5
S'\xb5\x1d\xd8\x9e\xa1\xfb\x92@'
tRp3084
tp3085
a(S'YP_003047063.1'
p3086
g3
(g5
S'\xb4\x94\xd6\xf1\x81\xfe\x92@'
tRp3087
tp3088
a(S'YP_003046384.1'
p3089
g3
(g5
S'0]\xbb\nQ\x06\x93@'
tRp3090
tp3091
a(S'YP_003047001.1'
p3092
g3
(g5
S'kL\xae\xb7\x93\x1e\x93@'
tRp3093
tp3094
a(S'YP_003044997.1'
p3095
g3
(g5
S'\xc0\xc7\x88\xbd\x01-\x93@'
tRp3096
tp3097
a(S'YP_003045120.1'
p3098
g3
(g5
S'H\xf1w\xdd\xdaA\x93@'
tRp3099
tp3100
a(S'YP_003043702.1'
p3101
g3
(g5
S'dk\xf2"\xc5F\x93@'
tRp3102
tp3103
a(S'YP_003045843.1'
p3104
g3
(g5
S'\x89\x88\xb4$\xf7a\x93@'
tRp3105
tp3106
a(S'YP_003044467.1'
p3107
g3
(g5
S'8${\xa7\xad\x81\x93@'
tRp3108
tp3109
a(S'YP_003047427.1'
p3110
g3
(g5
S'\xc7\x98`U\x96\x9a\x93@'
tRp3111
tp3112
a(S'YP_003044087.1'
p3113
g3
(g5
S'l\n\x0c\xa7A\xa1\x93@'
tRp3114
tp3115
a(S'YP_003044984.1'
p3116
g3
(g5
S'\x84p\xec\xa27\xb4\x93@'
tRp3117
tp3118
a(S'YP_003043963.1'
p3119
g3
(g5
S'\xdaos!\xd3\xb4\x93@'
tRp3120
tp3121
a(S'YP_003046529.1'
p3122
g3
(g5
S'B-\x02\x16p\xb9\x93@'
tRp3123
tp3124
a(S'YP_003044139.1'
p3125
g3
(g5
S'\xde\xba"\x94\t\xe6\x93@'
tRp3126
tp3127
a(S'YP_003045429.1'
p3128
g3
(g5
S'9\xa63\xd1\xd3\r\x94@'
tRp3129
tp3130
a(S'YP_003043799.1'
p3131
g3
(g5
S'\xfeg\xa3\xe1\x83\x12\x94@'
tRp3132
tp3133
a(S'YP_003043864.1'
p3134
g3
(g5
S'\xdf\x8bdY\x18\x18\x94@'
tRp3135
tp3136
a(S'YP_003044412.1'
p3137
g3
(g5
S'\x13\xa4}\x98\x08!\x94@'
tRp3138
tp3139
a(S'YP_003045589.1'
p3140
g3
(g5
S'L\xddE\x9fc!\x94@'
tRp3141
tp3142
a(S'YP_003045272.1'
p3143
g3
(g5
S'\xd0\xb0JCqP\x94@'
tRp3144
tp3145
a(S'YP_003047280.1'
p3146
g3
(g5
S'\xae\x95\xed\x82HV\x94@'
tRp3147
tp3148
a(S'YP_003044469.1'
p3149
g3
(g5
S'\xb3J\x07\x93\x02[\x94@'
tRp3150
tp3151
a(S'YP_003045497.1'
p3152
g3
(g5
S'11*\xe2\xba\\\x94@'
tRp3153
tp3154
a(S'YP_003045595.1'
p3155
g3
(g5
S'\x01\x8buw\x97`\x94@'
tRp3156
tp3157
a(S'YP_003045069.1'
p3158
g3
(g5
S'E0\xbd!^k\x94@'
tRp3159
tp3160
a(S'YP_003044346.1'
p3161
g3
(g5
S'\xfex?SAl\x94@'
tRp3162
tp3163
a(S'YP_003045965.1'
p3164
g3
(g5
S'\x98\xf7\xda\x98\x0fq\x94@'
tRp3165
tp3166
a(S'YP_003044292.1'
p3167
g3
(g5
S'\x07\x93\x05tzq\x94@'
tRp3168
tp3169
a(S'YP_003043822.1'
p3170
g3
(g5
S'\xd0\x10\x9a\x9aaw\x94@'
tRp3171
tp3172
a(S'YP_003045796.1'
p3173
g3
(g5
S'\x19\x80z8\x81w\x94@'
tRp3174
tp3175
a(S'YP_003046974.1'
p3176
g3
(g5
S'fX\xc7_,\x80\x94@'
tRp3177
tp3178
a(S'YP_003044449.1'
p3179
g3
(g5
S'p\x97\xcd\x99\x8c\x9d\x94@'
tRp3180
tp3181
a(S'YP_003047212.1'
p3182
g3
(g5
S'5#U\x1b\x9a\x9f\x94@'
tRp3183
tp3184
a(S'YP_003044273.1'
p3185
g3
(g5
S'K^\xb0W/\xa4\x94@'
tRp3186
tp3187
a(S'YP_003046421.1'
p3188
g3
(g5
S'\xd8\x80\xbd\x138\xa4\x94@'
tRp3189
tp3190
a(S'YP_003044880.1'
p3191
g3
(g5
S'\x8e-\x8a\xa2C\xa5\x94@'
tRp3192
tp3193
a(S'YP_003045785.1'
p3194
g3
(g5
S'?`\xf37\xbc\xb4\x94@'
tRp3195
tp3196
a(S'YP_003046813.1'
p3197
g3
(g5
S'\xc8El\xb7\x91\xb6\x94@'
tRp3198
tp3199
a(S'YP_003046912.1'
p3200
g3
(g5
S')\x92\xea\xce,\xbc\x94@'
tRp3201
tp3202
a(S'YP_003043353.1'
p3203
g3
(g5
S'\x88!V`\xb3\xc5\x94@'
tRp3204
tp3205
a(S'YP_003043850.1'
p3206
g3
(g5
S'&\xf9\xf82\x14\xe6\x94@'
tRp3207
tp3208
a(S'YP_003044755.1'
p3209
g3
(g5
S'\xd4\xe69b\xc4\x03\x95@'
tRp3210
tp3211
a(S'YP_003043905.1'
p3212
g3
(g5
S'X\xc4Am\x19\x1c\x95@'
tRp3213
tp3214
a(S'YP_003044598.1'
p3215
g3
(g5
S'\x8a\xf2\xdf\x96\xaf5\x95@'
tRp3216
tp3217
a(S'YP_003044298.1'
p3218
g3
(g5
S'\xad\x15\xc8\xb9\xc5:\x95@'
tRp3219
tp3220
a(S'YP_003045115.1'
p3221
g3
(g5
S'\x07\xc5\xed\x8e\xd4:\x95@'
tRp3222
tp3223
a(S'YP_003047293.1'
p3224
g3
(g5
S'\xc2W\xe4R\xf6H\x95@'
tRp3225
tp3226
a(S'YP_003045416.1'
p3227
g3
(g5
S'A}\x7f\xaa.\\\x95@'
tRp3228
tp3229
a(S'YP_003045512.1'
p3230
g3
(g5
S'7!\x98\xfeua\x95@'
tRp3231
tp3232
a(S'YP_003045121.1'
p3233
g3
(g5
S'\x07E\xb8\xc3\x87i\x95@'
tRp3234
tp3235
a(S'YP_003045237.1'
p3236
g3
(g5
S'r\xe5\xb5-\xd3v\x95@'
tRp3237
tp3238
a(S'YP_003043783.1'
p3239
g3
(g5
S'\x0c\xcd\xb9b%\x82\x95@'
tRp3240
tp3241
a(S'YP_003045433.1'
p3242
g3
(g5
S'\x1b\x1a\x84\xdf\xcc\x8b\x95@'
tRp3243
tp3244
a(S'YP_003045677.1'
p3245
g3
(g5
S'\x19/\x12\xc5_\x95\x95@'
tRp3246
tp3247
a(S'YP_003043902.1'
p3248
g3
(g5
S'\x92\x8d\x07M\xbd\x96\x95@'
tRp3249
tp3250
a(S'YP_003044185.1'
p3251
g3
(g5
S'\\a/\xf7\xa2\x9c\x95@'
tRp3252
tp3253
a(S'YP_003043459.1'
p3254
g3
(g5
S'\x02\xe8\xe8Z\xda\xa9\x95@'
tRp3255
tp3256
a(S'YP_003045980.1'
p3257
g3
(g5
S'"\x88\xda\xc68\xb4\x95@'
tRp3258
tp3259
a(S'YP_003044701.1'
p3260
g3
(g5
S'\x17\x845\x8a#\xbf\x95@'
tRp3261
tp3262
a(S'YP_003046856.1'
p3263
g3
(g5
S'\xc5\xdcew\xe0\xf4\x95@'
tRp3264
tp3265
a(S'YP_003045118.1'
p3266
g3
(g5
S'\x1e\xd6lk$\x11\x96@'
tRp3267
tp3268
a(S'YP_003046237.1'
p3269
g3
(g5
S'#\xc6\x05D\x18\x14\x96@'
tRp3270
tp3271
a(S'YP_003047098.1'
p3272
g3
(g5
S'1\t\xbbN\xcd\x1f\x96@'
tRp3273
tp3274
a(S'YP_003043330.1'
p3275
g3
(g5
S'\xeb\r\xc4\x11\xd4#\x96@'
tRp3276
tp3277
a(S'YP_003043378.1'
p3278
g3
(g5
S"'\xef\xc2\x1d\xd9*\x96@"
tRp3279
tp3280
a(S'YP_003046790.1'
p3281
g3
(g5
S'{xV\xdb>-\x96@'
tRp3282
tp3283
a(S'YP_003043408.1'
p3284
g3
(g5
S'\xd1\xcc\x0e\x9f\xffC\x96@'
tRp3285
tp3286
a(S'YP_003043615.1'
p3287
g3
(g5
S'\xc7\xa3pr\xbfj\x96@'
tRp3288
tp3289
a(S'YP_003043920.1'
p3290
g3
(g5
S'\xaaI\x0f\xdb\x03y\x96@'
tRp3291
tp3292
a(S'YP_003047321.1'
p3293
g3
(g5
S'r\x16U\xb5w\x83\x96@'
tRp3294
tp3295
a(S'YP_003045798.1'
p3296
g3
(g5
S'\xc1\xca\xc8\xb7\xb6\x8b\x96@'
tRp3297
tp3298
a(S'YP_003044248.1'
p3299
g3
(g5
S'uHS\x0e2\x8e\x96@'
tRp3300
tp3301
a(S'YP_003044307.1'
p3302
g3
(g5
S'\x84\xe8G\xaeF\xa4\x96@'
tRp3303
tp3304
a(S'YP_003043619.1'
p3305
g3
(g5
S'X\xa0SO"\xba\x96@'
tRp3306
tp3307
a(S'YP_003046638.1'
p3308
g3
(g5
S'U\xea\xce\xeb\r\xc8\x96@'
tRp3309
tp3310
a(S'YP_003045401.1'
p3311
g3
(g5
S'\xaa\x05\xdc{\xf4\xd5\x96@'
tRp3312
tp3313
a(S'YP_003044293.1'
p3314
g3
(g5
S'\xd2\xef\x19kW\xde\x96@'
tRp3315
tp3316
a(S'YP_003044316.1'
p3317
g3
(g5
S'\xbd3\xa9\x8c\xd7\xe3\x96@'
tRp3318
tp3319
a(S'YP_003044322.1'
p3320
g3
(g5
S'+\x9btdl\x13\x97@'
tRp3321
tp3322
a(S'YP_003047069.1'
p3323
g3
(g5
S'\xf8\x19C\x9b\x1c\x17\x97@'
tRp3324
tp3325
a(S'YP_003043328.1'
p3326
g3
(g5
S'\x1d\x93&;\x89\x17\x97@'
tRp3327
tp3328
a(S'YP_003043362.1'
p3329
g3
(g5
S'\x01\x06}\xa8\xf3\x17\x97@'
tRp3330
tp3331
a(S'YP_003044393.1'
p3332
g3
(g5
S'\xa4\x1d\xc6o#2\x97@'
tRp3333
tp3334
a(S'YP_003043343.1'
p3335
g3
(g5
S'\xbf\x82.\x89@[\x97@'
tRp3336
tp3337
a(S'YP_003043560.1'
p3338
g3
(g5
S"'W\xb5\xcc\x0e^\x97@"
tRp3339
tp3340
a(S'YP_003046230.1'
p3341
g3
(g5
S'T\xb1\x15Cdg\x97@'
tRp3342
tp3343
a(S'YP_003043698.1'
p3344
g3
(g5
S'\xcd=\xd3\xbe\xb2\x84\x97@'
tRp3345
tp3346
a(S'YP_003046645.1'
p3347
g3
(g5
S'\xee\xe9\x88Y\xdb\x9a\x97@'
tRp3348
tp3349
a(S'YP_003045456.1'
p3350
g3
(g5
S'\x86\x12\x9a\xae\x1d\xab\x97@'
tRp3351
tp3352
a(S'YP_003045165.1'
p3353
g3
(g5
S'g4=\xf6\x1b\xac\x97@'
tRp3354
tp3355
a(S'YP_003043611.1'
p3356
g3
(g5
S'\x04\xeb\xf5\xeb\xbc\xbc\x97@'
tRp3357
tp3358
a(S'YP_003045577.1'
p3359
g3
(g5
S'hO\xdc\x99\x8d\xc5\x97@'
tRp3360
tp3361
a(S'YP_003045671.1'
p3362
g3
(g5
S'\x7f\xbe \x8e\xca\xd0\x97@'
tRp3363
tp3364
a(S'YP_003046225.1'
p3365
g3
(g5
S'\x84\xebR\xc5\xd6\xe5\x97@'
tRp3366
tp3367
a(S'YP_003043260.1'
p3368
g3
(g5
S'\x9d\xbc\x1b\x03<\x06\x98@'
tRp3369
tp3370
a(S'YP_003045647.1'
p3371
g3
(g5
S'\xfa&\x94>\xec\x0f\x98@'
tRp3372
tp3373
a(S'YP_003043267.1'
p3374
g3
(g5
S'\xfe:\xbej\xe2U\x98@'
tRp3375
tp3376
a(S'YP_003046298.1'
p3377
g3
(g5
S'+r\x0f\xc7wZ\x98@'
tRp3378
tp3379
a(S'YP_003043406.1'
p3380
g3
(g5
S'l\\?A\xf3Z\x98@'
tRp3381
tp3382
a(S'YP_003043395.1'
p3383
g3
(g5
S')\xa5u\x0e\x86k\x98@'
tRp3384
tp3385
a(S'YP_003046315.1'
p3386
g3
(g5
S'\x12\xae\x0f$\xb4z\x98@'
tRp3387
tp3388
a(S'YP_003044428.1'
p3389
g3
(g5
S'\x97&J\xbb\xe5|\x98@'
tRp3390
tp3391
a(S'YP_003045607.1'
p3392
g3
(g5
S't7T\x98\xa1\x98\x98@'
tRp3393
tp3394
a(S'YP_003044881.1'
p3395
g3
(g5
S'\xf8X\xfbZ\xa6\xaa\x98@'
tRp3396
tp3397
a(S'YP_003046828.1'
p3398
g3
(g5
S'"m\xf3O\xd2\xb1\x98@'
tRp3399
tp3400
a(S'YP_003045736.1'
p3401
g3
(g5
S'\x94\xe8\x032r\xb3\x98@'
tRp3402
tp3403
a(S'YP_003046648.1'
p3404
g3
(g5
S'\xe8\xe0\xd2b\xf0\xb7\x98@'
tRp3405
tp3406
a(S'YP_003045596.1'
p3407
g3
(g5
S'g"\xcf}\xfe\xcb\x98@'
tRp3408
tp3409
a(S'YP_003046592.1'
p3410
g3
(g5
S'\xc2\xc3\xee\x82z\xd0\x98@'
tRp3411
tp3412
a(S'YP_003047058.1'
p3413
g3
(g5
S'\xf8\xab"\xa6\xc6\x0c\x99@'
tRp3414
tp3415
a(S'YP_003047068.1'
p3416
g3
(g5
S'\x990\xed\x0b3 \x99@'
tRp3417
tp3418
a(S'YP_003045582.1'
p3419
g3
(g5
S'K\x9f\x86\xa6\x1a%\x99@'
tRp3420
tp3421
a(S'YP_003046086.1'
p3422
g3
(g5
S"\xaaQ\xee\x83?'\x99@"
tRp3423
tp3424
a(S'YP_003047103.1'
p3425
g3
(g5
S'\x06\xc9\x1f0\xce7\x99@'
tRp3426
tp3427
a(S'YP_003043640.1'
p3428
g3
(g5
S'\xecC>0NM\x99@'
tRp3429
tp3430
a(S'YP_003043904.1'
p3431
g3
(g5
S'5\xbd\xf3os`\x99@'
tRp3432
tp3433
a(S'YP_003047436.1'
p3434
g3
(g5
S'\x892\xd3\x83si\x99@'
tRp3435
tp3436
a(S'YP_003044882.1'
p3437
g3
(g5
S'\x14\x84:\xd3\xe9l\x99@'
tRp3438
tp3439
a(S'YP_003046803.1'
p3440
g3
(g5
S'\x93\xfaY\xba\xddw\x99@'
tRp3441
tp3442
a(S'YP_003043669.1'
p3443
g3
(g5
S'\x8e\xdeF8\xdfw\x99@'
tRp3444
tp3445
a(S'YP_003046825.1'
p3446
g3
(g5
S'\xb6XEE!\xa5\x99@'
tRp3447
tp3448
a(S'YP_003046746.1'
p3449
g3
(g5
S'\x02\x95\xbew]\xba\x99@'
tRp3450
tp3451
a(S'YP_003046989.1'
p3452
g3
(g5
S'~G.\x186\xd2\x99@'
tRp3453
tp3454
a(S'YP_003045738.1'
p3455
g3
(g5
S'\x0f\x8a\x9f\x1e\xd7\xe4\x99@'
tRp3456
tp3457
a(S'YP_003045122.1'
p3458
g3
(g5
S'\xf4\xa3>u9\xf6\x99@'
tRp3459
tp3460
a(S'YP_003045117.1'
p3461
g3
(g5
S'\xb8\x81t \x8d\xfd\x99@'
tRp3462
tp3463
a(S'YP_003044450.1'
p3464
g3
(g5
S'NId\x10\x96\x01\x9a@'
tRp3465
tp3466
a(S'YP_003045442.1'
p3467
g3
(g5
S'\xf6k\xed\x9eBn\x9a@'
tRp3468
tp3469
a(S'YP_003044276.1'
p3470
g3
(g5
S'\x07S\xdc\xd1d\x91\x9a@'
tRp3471
tp3472
a(S'YP_003043646.1'
p3473
g3
(g5
S'`u\xe6\xc1\xca\x94\x9a@'
tRp3474
tp3475
a(S'YP_003046833.1'
p3476
g3
(g5
S'\xa7[\xd9\xd7Z\x9d\x9a@'
tRp3477
tp3478
a(S'YP_003045797.1'
p3479
g3
(g5
S'\xadup\x8d\x0c\x9f\x9a@'
tRp3480
tp3481
a(S'YP_003044421.1'
p3482
g3
(g5
S'*H\x0f\xd2\xc0\xb1\x9a@'
tRp3483
tp3484
a(S'YP_003045516.1'
p3485
g3
(g5
S'\xb7q\xd6?\r\xb5\x9a@'
tRp3486
tp3487
a(S'YP_003045684.1'
p3488
g3
(g5
S'?\xe4a\xb6\xf0\x00\x9b@'
tRp3489
tp3490
a(S'YP_003045613.1'
p3491
g3
(g5
S'\xbd\x07p\x05\x9f\x13\x9b@'
tRp3492
tp3493
a(S'YP_003043650.1'
p3494
g3
(g5
S'\xd1\x94\xdak0&\x9b@'
tRp3495
tp3496
a(S'YP_003043308.1'
p3497
g3
(g5
S'\x10\x85gN\xbc<\x9b@'
tRp3498
tp3499
a(S'YP_003043888.1'
p3500
g3
(g5
S'\x85\x84$\xd8\xd4^\x9b@'
tRp3501
tp3502
a(S'YP_003044890.1'
p3503
g3
(g5
S';\x10d\xd7Kg\x9b@'
tRp3504
tp3505
a(S'YP_003046295.1'
p3506
g3
(g5
S'\x99 \xcdh\x82x\x9b@'
tRp3507
tp3508
a(S'YP_003043782.1'
p3509
g3
(g5
S'\xf2k\xdf6\xe8\x95\x9b@'
tRp3510
tp3511
a(S'YP_003044451.1'
p3512
g3
(g5
S'\xee\xc6?i.\xe0\x9b@'
tRp3513
tp3514
a(S'YP_003045414.1'
p3515
g3
(g5
S'\xaa\xeb\x161t\xe4\x9b@'
tRp3516
tp3517
a(S'YP_003045351.1'
p3518
g3
(g5
S'w\xf7\x99\xbb\xd5\xea\x9b@'
tRp3519
tp3520
a(S'YP_003046584.1'
p3521
g3
(g5
S'\xa5\np\x14\x93\x0e\x9c@'
tRp3522
tp3523
a(S'YP_003046422.1'
p3524
g3
(g5
S'\x87\xc0\xad\x06"\x16\x9c@'
tRp3525
tp3526
a(S'YP_003046216.1'
p3527
g3
(g5
S'j\x0b\x1d\xd1\xb0\x16\x9c@'
tRp3528
tp3529
a(S'YP_003045929.1'
p3530
g3
(g5
S'\xe840\x7f\x90g\x9c@'
tRp3531
tp3532
a(S'YP_003045123.1'
p3533
g3
(g5
S'M\xd8L\xc4\xadz\x9c@'
tRp3534
tp3535
a(S'YP_003046587.1'
p3536
g3
(g5
S'\xf2wS\xd4\xc5\x87\x9c@'
tRp3537
tp3538
a(S'YP_003044115.1'
p3539
g3
(g5
S'\xc4\x89g<\x01\x88\x9c@'
tRp3540
tp3541
a(S'YP_003045559.1'
p3542
g3
(g5
S'w`\xc3\xf0\xe2\xa3\x9c@'
tRp3543
tp3544
a(S'YP_003044125.1'
p3545
g3
(g5
S'i\x8dn\xf4\xbb\xf6\x9c@'
tRp3546
tp3547
a(S'YP_003046918.1'
p3548
g3
(g5
S'U0G\xb4\xc6\xfc\x9c@'
tRp3549
tp3550
a(S'YP_003044111.1'
p3551
g3
(g5
S'\x9f"\x87\xce\xc6\x13\x9d@'
tRp3552
tp3553
a(S'YP_003045562.1'
p3554
g3
(g5
S'\xfe\xf3\x8dm\xa0%\x9d@'
tRp3555
tp3556
a(S'YP_003045125.1'
p3557
g3
(g5
S'\xee\x91G\x7f}3\x9d@'
tRp3558
tp3559
a(S'YP_003045580.1'
p3560
g3
(g5
S'\xcf\xae!\xcb\x02G\x9d@'
tRp3561
tp3562
a(S'YP_003046274.1'
p3563
g3
(g5
S'^\n\xf2M\x01X\x9d@'
tRp3564
tp3565
a(S'YP_003044557.1'
p3566
g3
(g5
S'\x03\x0f5H\xe5Z\x9d@'
tRp3567
tp3568
a(S'YP_003046732.1'
p3569
g3
(g5
S'\x1b\x1a*-\xa2a\x9d@'
tRp3570
tp3571
a(S'YP_003046585.1'
p3572
g3
(g5
S'\x9c\xf4>\xd8N{\x9d@'
tRp3573
tp3574
a(S'YP_003043600.1'
p3575
g3
(g5
S'h\x1f%P\xdd\x91\x9d@'
tRp3576
tp3577
a(S'YP_003044999.1'
p3578
g3
(g5
S'\x85l%t\xc6\xe3\x9d@'
tRp3579
tp3580
a(S'YP_003044405.1'
p3581
g3
(g5
S'O\x14\xd0\xb8\xfc\xf5\x9d@'
tRp3582
tp3583
a(S'YP_003043382.1'
p3584
g3
(g5
S'T\x1c^\xfe1\x08\x9e@'
tRp3585
tp3586
a(S'YP_003043651.1'
p3587
g3
(g5
S'\xd8\x0b\x08/\x01?\x9e@'
tRp3588
tp3589
a(S'YP_003046337.1'
p3590
g3
(g5
S'\x8d42\x9b\xa5K\x9e@'
tRp3591
tp3592
a(S'YP_003046299.1'
p3593
g3
(g5
S'm\xddf\xc8Ga\x9e@'
tRp3594
tp3595
a(S'YP_003045561.1'
p3596
g3
(g5
S')m\xcfK\x1b{\x9e@'
tRp3597
tp3598
a(S'YP_003046221.1'
p3599
g3
(g5
S',\x08\x8e\x1a\xe6\x92\x9e@'
tRp3600
tp3601
a(S'YP_003043346.1'
p3602
g3
(g5
S'\x19zeKR\xa3\x9e@'
tRp3603
tp3604
a(S'YP_003043903.1'
p3605
g3
(g5
S'_\xbc\x11\xba\xcb\xa5\x9e@'
tRp3606
tp3607
a(S'YP_003045411.1'
p3608
g3
(g5
S'\xe9\x0bs\xa4 \xda\x9e@'
tRp3609
tp3610
a(S'YP_003044315.1'
p3611
g3
(g5
S'2X\xc9/X\xdb\x9e@'
tRp3612
tp3613
a(S'YP_003043231.1'
p3614
g3
(g5
S'\x92\xc4w}\xbd\xfa\x9e@'
tRp3615
tp3616
a(S'YP_003045116.1'
p3617
g3
(g5
S'\xc0N2\t\x16\xfc\x9e@'
tRp3618
tp3619
a(S'YP_003044305.1'
p3620
g3
(g5
S'\x8chj\xb4\xe5%\x9f@'
tRp3621
tp3622
a(S'YP_003045417.1'
p3623
g3
(g5
S'\xf7\x15\xb8\xd6A0\x9f@'
tRp3624
tp3625
a(S'YP_003046220.1'
p3626
g3
(g5
S'Z\xd4\x89+CW\x9f@'
tRp3627
tp3628
a(S'YP_003045694.1'
p3629
g3
(g5
S'\xb2\xea\xe1A\xb2\xc4\x9f@'
tRp3630
tp3631
a(S'YP_003046649.1'
p3632
g3
(g5
S't\x8a\x08\xd5\x16\xe3\x9f@'
tRp3633
tp3634
a(S'YP_003043784.1'
p3635
g3
(g5
S'\x80^\x99\xdf<\xfc\x9f@'
tRp3636
tp3637
a(S'YP_003046262.1'
p3638
g3
(g5
S'\xe9r\x07\x97X\xff\x9f@'
tRp3639
tp3640
a(S'YP_003043412.1'
p3641
g3
(g5
S'\x97 \x1a\xc2\xa4\x00\xa0@'
tRp3642
tp3643
a(S'YP_003046824.1'
p3644
g3
(g5
S'>\x8d1T\xb9\x07\xa0@'
tRp3645
tp3646
a(S'YP_003043399.1'
p3647
g3
(g5
S's\xa6\x19{\xd4\x0c\xa0@'
tRp3648
tp3649
a(S'YP_003043999.1'
p3650
g3
(g5
S'\xe0`\x7f\x80\x15\x1a\xa0@'
tRp3651
tp3652
a(S'YP_003043926.1'
p3653
g3
(g5
S'\xdc\x9e\x9c\xc4\x04<\xa0@'
tRp3654
tp3655
a(S'YP_003046259.1'
p3656
g3
(g5
S'\xbb\xb7\xc6\x93\x83E\xa0@'
tRp3657
tp3658
a(S'YP_003046490.1'
p3659
g3
(g5
S'9\xbf\xff\xb5\x0eb\xa0@'
tRp3660
tp3661
a(S'YP_003044807.1'
p3662
g3
(g5
S'\xf7J\xe9.I{\xa0@'
tRp3663
tp3664
a(S'YP_003045679.1'
p3665
g3
(g5
S'\xb7\xa8\xfd:\x0e\x7f\xa0@'
tRp3666
tp3667
a(S'YP_003046263.1'
p3668
g3
(g5
S'\xda\x1e\xd6\x9e\x02\x87\xa0@'
tRp3669
tp3670
a(S'YP_003043422.1'
p3671
g3
(g5
S'\x0fJ%Le\x8b\xa0@'
tRp3672
tp3673
a(S'YP_003046453.1'
p3674
g3
(g5
S'fa(\xb8 \x8f\xa0@'
tRp3675
tp3676
a(S'YP_003046420.1'
p3677
g3
(g5
S'\x85\x8a|\xecn\x91\xa0@'
tRp3678
tp3679
a(S'YP_003044907.1'
p3680
g3
(g5
S'\xe5\nTou\x9a\xa0@'
tRp3681
tp3682
a(S'YP_003043348.1'
p3683
g3
(g5
S'\xb6\x01\\\xf8\xb0\xa0\xa0@'
tRp3684
tp3685
a(S'YP_003045018.1'
p3686
g3
(g5
S'\t\x807\t\xcc\xd0\xa0@'
tRp3687
tp3688
a(S'YP_003043860.1'
p3689
g3
(g5
S'RE\x0c\x953\xd7\xa0@'
tRp3690
tp3691
a(S'YP_003046399.1'
p3692
g3
(g5
S'\x92Gf\xa3\xb0\xd8\xa0@'
tRp3693
tp3694
a(S'YP_003047036.1'
p3695
g3
(g5
S'r\xa1\xff+\x0e\xe2\xa0@'
tRp3696
tp3697
a(S'YP_003047211.1'
p3698
g3
(g5
S'dN\xe4\xbd\xc3\n\xa1@'
tRp3699
tp3700
a(S'YP_003044430.1'
p3701
g3
(g5
S'\xc4BN\x9e\xd0\x11\xa1@'
tRp3702
tp3703
a(S'YP_003044083.1'
p3704
g3
(g5
S'z\xfbM\x90H.\xa1@'
tRp3705
tp3706
a(S'YP_003046223.1'
p3707
g3
(g5
S'gR\xaa\rYD\xa1@'
tRp3708
tp3709
a(S'YP_003047256.1'
p3710
g3
(g5
S'\xf3\x0b\xcc0\x81T\xa1@'
tRp3711
tp3712
a(S'YP_003045017.1'
p3713
g3
(g5
S'\xe7d\xf1\xbc\x06u\xa1@'
tRp3714
tp3715
a(S'YP_003044074.1'
p3716
g3
(g5
S'\xdc\xebUj\xed\x80\xa1@'
tRp3717
tp3718
a(S'YP_003046789.1'
p3719
g3
(g5
S'N\xde\xb6\x04\xa3\x81\xa1@'
tRp3720
tp3721
a(S'YP_003046892.1'
p3722
g3
(g5
S'\xf3q\x15\xf0S\x87\xa1@'
tRp3723
tp3724
a(S'YP_003047056.1'
p3725
g3
(g5
S'C\xd6\x19\xd8\xd8\x90\xa1@'
tRp3726
tp3727
a(S'YP_003047055.1'
p3728
g3
(g5
S'\x0e\xae\xd8 \xc2\x9f\xa1@'
tRp3729
tp3730
a(S'YP_003046338.1'
p3731
g3
(g5
S'\x93.\xb8\xc1\x1a\xad\xa1@'
tRp3732
tp3733
a(S'YP_003043393.1'
p3734
g3
(g5
S'\x13\x10Ec\xa9\xb9\xa1@'
tRp3735
tp3736
a(S'YP_003044946.1'
p3737
g3
(g5
S'DAs`\xe2\xbb\xa1@'
tRp3738
tp3739
a(S'YP_003043901.1'
p3740
g3
(g5
S'@\x93\xf3\x18\xb6\xd5\xa1@'
tRp3741
tp3742
a(S'YP_003047295.1'
p3743
g3
(g5
S'\xe7\xc1\xdf\xcb\xae\xd6\xa1@'
tRp3744
tp3745
a(S'YP_003047015.1'
p3746
g3
(g5
S'\n\xb0W\xd4\xa9\xe0\xa1@'
tRp3747
tp3748
a(S'YP_003044618.1'
p3749
g3
(g5
S'\xef[\x06\x86\x8f\xe2\xa1@'
tRp3750
tp3751
a(S'YP_003047014.1'
p3752
g3
(g5
S'\xa9f}\x16\xee\xf4\xa1@'
tRp3753
tp3754
a(S'YP_003046676.1'
p3755
g3
(g5
S'\xab\xf0\x16\x92\xa2\x0c\xa2@'
tRp3756
tp3757
a(S'YP_003044302.1'
p3758
g3
(g5
S'`TSXo\x10\xa2@'
tRp3759
tp3760
a(S'YP_003044425.1'
p3761
g3
(g5
S'\xc9\xf7-\xaa+\x1b\xa2@'
tRp3762
tp3763
a(S'YP_003044338.1'
p3764
g3
(g5
S'\xec\x10\x16\xa0\xd9H\xa2@'
tRp3765
tp3766
a(S'YP_003043325.1'
p3767
g3
(g5
S'M\x0b\x7f\x0cRJ\xa2@'
tRp3768
tp3769
a(S'YP_003044086.1'
p3770
g3
(g5
S'\x9b\x82\xd2e\xefS\xa2@'
tRp3771
tp3772
a(S'YP_003045508.1'
p3773
g3
(g5
S'?y\xd29\xf2k\xa2@'
tRp3774
tp3775
a(S'YP_003044134.1'
p3776
g3
(g5
S'\x9d\xc1\xf3\xb3Y\xb2\xa2@'
tRp3777
tp3778
a(S'YP_003046348.1'
p3779
g3
(g5
S'\xdc\xc4\xe1\xbc\x15\xb8\xa2@'
tRp3780
tp3781
a(S'YP_003045119.1'
p3782
g3
(g5
S'd\x97\x18]\x1d\xc8\xa2@'
tRp3783
tp3784
a(S'YP_003043918.1'
p3785
g3
(g5
S'k\xde\x12\xf1|\xc9\xa2@'
tRp3786
tp3787
a(S'YP_003046092.1'
p3788
g3
(g5
S'\xacoC\x8c\n\xe2\xa2@'
tRp3789
tp3790
a(S'YP_003047031.1'
p3791
g3
(g5
S'L\xb8\xf1\xd3\xc2\xe8\xa2@'
tRp3792
tp3793
a(S'YP_003047214.1'
p3794
g3
(g5
S'\x06yMl\x1e\x0f\xa3@'
tRp3795
tp3796
a(S'YP_003043846.1'
p3797
g3
(g5
S'a\xe2^:c\x11\xa3@'
tRp3798
tp3799
a(S'YP_003046793.1'
p3800
g3
(g5
S'\xc0S\xbcS\xf8L\xa3@'
tRp3801
tp3802
a(S'YP_003045563.1'
p3803
g3
(g5
S'\xdc\xa6\xe2\xca\x8eN\xa3@'
tRp3804
tp3805
a(S'YP_003046383.1'
p3806
g3
(g5
S'b\x16t\xb1fn\xa3@'
tRp3807
tp3808
a(S'YP_003047018.1'
p3809
g3
(g5
S'\xf7\xda\xd3\xc4Up\xa3@'
tRp3810
tp3811
a(S'YP_003044476.1'
p3812
g3
(g5
S'\xe8\x8a\x12\xf4\xb5\xa7\xa3@'
tRp3813
tp3814
a(S'YP_003047209.1'
p3815
g3
(g5
S'\x12\x9a\xa8xh\xd4\xa3@'
tRp3816
tp3817
a(S'YP_003043427.1'
p3818
g3
(g5
S'\x92\xa7\xc8\xc9\xdb\x14\xa4@'
tRp3819
tp3820
a(S'YP_003045611.1'
p3821
g3
(g5
S'0\x98#\x87[L\xa4@'
tRp3822
tp3823
a(S'YP_003046333.1'
p3824
g3
(g5
S'\xb1\x15\x83\xffN^\xa4@'
tRp3825
tp3826
a(S'YP_003047078.1'
p3827
g3
(g5
S'\x1e\xbf9Y\xdfa\xa4@'
tRp3828
tp3829
a(S'YP_003044826.1'
p3830
g3
(g5
S'\x81n\xbc.\xf3l\xa4@'
tRp3831
tp3832
a(S'YP_003045440.1'
p3833
g3
(g5
S'\x90y\x829\x14w\xa4@'
tRp3834
tp3835
a(S'YP_003043342.1'
p3836
g3
(g5
S'\x85\x00aM\x89\x87\xa4@'
tRp3837
tp3838
a(S'YP_003043446.1'
p3839
g3
(g5
S'i\xff\xc9\xed\xb8\x93\xa4@'
tRp3840
tp3841
a(S'YP_003046765.1'
p3842
g3
(g5
S'\x99\xbf\xe0wP\xa0\xa4@'
tRp3843
tp3844
a(S'YP_003043232.1'
p3845
g3
(g5
S'*LI\x85@\xf5\xa4@'
tRp3846
tp3847
a(S'YP_003046967.1'
p3848
g3
(g5
S'i\xe4V\x08\xc1\x12\xa5@'
tRp3849
tp3850
a(S'YP_003043821.1'
p3851
g3
(g5
S'e\xd5;B\xd0C\xa5@'
tRp3852
tp3853
a(S'YP_003046275.1'
p3854
g3
(g5
S'\xf8Y\x89\x05\xbbL\xa5@'
tRp3855
tp3856
a(S'YP_003045639.1'
p3857
g3
(g5
S'M\t\xc0\x93ut\xa5@'
tRp3858
tp3859
a(S'YP_003046797.1'
p3860
g3
(g5
S'9k|S\r\x84\xa5@'
tRp3861
tp3862
a(S'YP_003045503.1'
p3863
g3
(g5
S'\r\xe0go!\x8b\xa5@'
tRp3864
tp3865
a(S'YP_003043898.1'
p3866
g3
(g5
S'\xf4)G\x9d\xce\xa7\xa5@'
tRp3867
tp3868
a(S'YP_003046278.1'
p3869
g3
(g5
S'\xd1\xb4\xbeB\x0e\xc4\xa5@'
tRp3870
tp3871
a(S'YP_003043743.1'
p3872
g3
(g5
S'\x88gVv\xe1\xcd\xa5@'
tRp3873
tp3874
a(S'YP_003044317.1'
p3875
g3
(g5
S"j'R\x9d\x1a\xd4\xa5@"
tRp3876
tp3877
a(S'YP_003044447.1'
p3878
g3
(g5
S'cS\xf7\xda\xd9\xf4\xa5@'
tRp3879
tp3880
a(S'YP_003044150.1'
p3881
g3
(g5
S'+_B\xc0j\xfc\xa5@'
tRp3882
tp3883
a(S'YP_003043424.1'
p3884
g3
(g5
S'\x9dDAr\x86J\xa6@'
tRp3885
tp3886
a(S'YP_003047265.1'
p3887
g3
(g5
S'\x19\xe8)\xdbjP\xa6@'
tRp3888
tp3889
a(S'YP_003046385.1'
p3890
g3
(g5
S'\xde\x0b\xab\x12\xda\x88\xa6@'
tRp3891
tp3892
a(S'YP_003046835.1'
p3893
g3
(g5
S'.\xca-s\xab\x89\xa6@'
tRp3894
tp3895
a(S'YP_003046809.1'
p3896
g3
(g5
S'\xfc"\xfb\xf2\xcc\x99\xa6@'
tRp3897
tp3898
a(S'YP_003047017.1'
p3899
g3
(g5
S'\xc7<\xdb\xcb"\xb1\xa6@'
tRp3900
tp3901
a(S'YP_003046647.1'
p3902
g3
(g5
S'"\x1e\xbc\xf2\xef\xb5\xa6@'
tRp3903
tp3904
a(S'YP_003045426.1'
p3905
g3
(g5
S'8\xe3i\x11m\xb9\xa6@'
tRp3906
tp3907
a(S'YP_003047037.1'
p3908
g3
(g5
S'\x0b\x13\x8cSr\xbb\xa6@'
tRp3909
tp3910
a(S'YP_003045691.1'
p3911
g3
(g5
S'L\xd8QE\xf1\xe4\xa6@'
tRp3912
tp3913
a(S'YP_003043407.1'
p3914
g3
(g5
S'\xa7\xa3Za\x92\x1f\xa7@'
tRp3915
tp3916
a(S'YP_003043305.1'
p3917
g3
(g5
S'\x8e\x8d%7\x86\x87\xa7@'
tRp3918
tp3919
a(S'YP_003043648.1'
p3920
g3
(g5
S'\x92\x84o\x02T\x93\xa7@'
tRp3921
tp3922
a(S'YP_003044129.1'
p3923
g3
(g5
S'\xa4\xd1\xdaD8\xac\xa7@'
tRp3924
tp3925
a(S'YP_003047000.1'
p3926
g3
(g5
S'Y\xef\xb8\x99\xd7\xbe\xa7@'
tRp3927
tp3928
a(S'YP_003046395.1'
p3929
g3
(g5
S'\xb4Wk4\xb57\xa8@'
tRp3930
tp3931
a(S'YP_003044130.1'
p3932
g3
(g5
S'\xa9{r\x94\xfc?\xa8@'
tRp3933
tp3934
a(S'YP_003045413.1'
p3935
g3
(g5
S'\x9b\x05\xcbI\xe2A\xa8@'
tRp3936
tp3937
a(S'YP_003046795.1'
p3938
g3
(g5
S')=\xd9\xb4\xd9G\xa8@'
tRp3939
tp3940
a(S'YP_003046827.1'
p3941
g3
(g5
S'\xbbo\x99\xc2M_\xa8@'
tRp3942
tp3943
a(S'YP_003044284.1'
p3944
g3
(g5
S'\xaa\xf1\x9d\xdesc\xa8@'
tRp3945
tp3946
a(S'YP_003047016.1'
p3947
g3
(g5
S'\xcf\x1fJ\x10\xb9c\xa8@'
tRp3948
tp3949
a(S'YP_003045933.1'
p3950
g3
(g5
S'\xc5f\xfaNh\xb3\xa8@'
tRp3951
tp3952
a(S'YP_003043237.1'
p3953
g3
(g5
S'\xeeK\xa7\x13\x10\xb5\xa8@'
tRp3954
tp3955
a(S'YP_003044886.1'
p3956
g3
(g5
S'\xd3+y\x95\x07\xc6\xa8@'
tRp3957
tp3958
a(S'YP_003047184.1'
p3959
g3
(g5
S'\x82\xdf\x03\xf8\xb2\xd1\xa8@'
tRp3960
tp3961
a(S'YP_003045953.1'
p3962
g3
(g5
S'4\xa9\xf2\x1d\x9a\x0e\xa9@'
tRp3963
tp3964
a(S'YP_003044448.1'
p3965
g3
(g5
S'\xbdc\xca\xdd\x16\x16\xa9@'
tRp3966
tp3967
a(S'YP_003043919.1'
p3968
g3
(g5
S'\xc1\xcfg\xa3\x1b \xa9@'
tRp3969
tp3970
a(S'YP_003046794.1'
p3971
g3
(g5
S'\x11\x96h\xb2pB\xa9@'
tRp3972
tp3973
a(S'YP_003046342.1'
p3974
g3
(g5
S'\xf1l\xc8e\xe3{\xa9@'
tRp3975
tp3976
a(S'YP_003046349.1'
p3977
g3
(g5
S'P\xf5\xca\xae\xeb\x86\xa9@'
tRp3978
tp3979
a(S'YP_003046351.1'
p3980
g3
(g5
S'\xa5\xf5\x86\xcc-\xa8\xa9@'
tRp3981
tp3982
a(S'YP_003046812.1'
p3983
g3
(g5
S'/\xa5\xec\x9eT\xc4\xa9@'
tRp3984
tp3985
a(S'YP_003043842.1'
p3986
g3
(g5
S'EX\xcd\x9c$\xcc\xa9@'
tRp3987
tp3988
a(S'YP_003045308.1'
p3989
g3
(g5
S'\x08\x01\xae\xdd\x01\xe6\xa9@'
tRp3990
tp3991
a(S'YP_003045581.1'
p3992
g3
(g5
S'\xd4W\x8f\xb5-R\xaa@'
tRp3993
tp3994
a(S'YP_003046357.1'
p3995
g3
(g5
S'::`rz\xde\xaa@'
tRp3996
tp3997
a(S'YP_003045507.1'
p3998
g3
(g5
S'=\xfa\xb0\x01\xcf\x12\xab@'
tRp3999
tp4000
a(S'YP_003046341.1'
p4001
g3
(g5
S'\x89\x02\xcb\xea\xe9U\xab@'
tRp4002
tp4003
a(S'YP_003047322.1'
p4004
g3
(g5
S'4\x95\xbfm\x15a\xab@'
tRp4005
tp4006
a(S'YP_003046929.1'
p4007
g3
(g5
S'\x7f\xe7\x99\x1fov\xab@'
tRp4008
tp4009
a(S'YP_003046818.1'
p4010
g3
(g5
S':\x11\xee\x80\xdfv\xab@'
tRp4011
tp4012
a(S'YP_003044772.1'
p4013
g3
(g5
S'. Nef\xa0\xab@'
tRp4014
tp4015
a(S'YP_003043906.1'
p4016
g3
(g5
S"j\x1c'S\x87\xa4\xab@"
tRp4017
tp4018
a(S'YP_003045560.1'
p4019
g3
(g5
S'\xf2z@Z\x82/\xac@'
tRp4020
tp4021
a(S'YP_003046377.1'
p4022
g3
(g5
S'J\x12[>\x96m\xac@'
tRp4023
tp4024
a(S'YP_003044289.1'
p4025
g3
(g5
S'\xf1\xe3\xdf\xdfw\x90\xac@'
tRp4026
tp4027
a(S'YP_003043389.1'
p4028
g3
(g5
S'Qf\x0b+\x94\xce\xac@'
tRp4029
tp4030
a(S'YP_003046340.1'
p4031
g3
(g5
S'w9\xe3U\xc5\xe6\xac@'
tRp4032
tp4033
a(S'YP_003046355.1'
p4034
g3
(g5
S'\xcd\xdb{\xcdV\xed\xac@'
tRp4035
tp4036
a(S'YP_003044106.1'
p4037
g3
(g5
S'\xe83\xe4\x16\xf7U\xad@'
tRp4038
tp4039
a(S'YP_003045590.1'
p4040
g3
(g5
S'\xdc\x95\xbbr\xe2V\xad@'
tRp4041
tp4042
a(S'YP_003045402.1'
p4043
g3
(g5
S'\xe6Z\x0f\xea\xf6t\xad@'
tRp4044
tp4045
a(S'YP_003046576.1'
p4046
g3
(g5
S'\x11\xc6NkX\x81\xad@'
tRp4047
tp4048
a(S'YP_003043859.1'
p4049
g3
(g5
S'\xe0\xe8`I\x93\x99\xad@'
tRp4050
tp4051
a(S'YP_003043986.1'
p4052
g3
(g5
S'x\xfb\x0f?U\xcc\xad@'
tRp4053
tp4054
a(S'YP_003043266.1'
p4055
g3
(g5
S'\xdf\xadr\xc1v\xd1\xad@'
tRp4056
tp4057
a(S'YP_003044308.1'
p4058
g3
(g5
S'\xd0 \xc8X\xe8l\xae@'
tRp4059
tp4060
a(S'YP_003044133.1'
p4061
g3
(g5
S')\x9e5\x91|u\xae@'
tRp4062
tp4063
a(S'YP_003044285.1'
p4064
g3
(g5
S'\x07u\xc5\x00@{\xaf@'
tRp4065
tp4066
a(S'YP_003044290.1'
p4067
g3
(g5
S'\x85X]\x9f\x83\xed\xaf@'
tRp4068
tp4069
a(S'YP_003043827.1'
p4070
g3
(g5
S'\xcf\x1drz\xd0\x0f\xb0@'
tRp4071
tp4072
a(S'YP_003044927.1'
p4073
g3
(g5
S'T\xddb\xf4R\x1b\xb0@'
tRp4074
tp4075
a(S'YP_003043613.1'
p4076
g3
(g5
S'\x9b\xd3\xec\xd8\xb43\xb0@'
tRp4077
tp4078
a(S'YP_003046685.1'
p4079
g3
(g5
S'\xa1\xf2\x84\xa5\xe1S\xb0@'
tRp4080
tp4081
a(S'YP_003043925.1'
p4082
g3
(g5
S'\xd7\xee\x86\x7f\xc9\x9c\xb0@'
tRp4083
tp4084
a(S'YP_003046378.1'
p4085
g3
(g5
S'\x92Tc\xd9\x00\xd3\xb0@'
tRp4086
tp4087
a(S'YP_003045277.1'
p4088
g3
(g5
S'[\xa8"\x0f\t\xfa\xb0@'
tRp4089
tp4090
a(S'YP_003043304.1'
p4091
g3
(g5
S'g\x94\x929\xfb\x04\xb1@'
tRp4092
tp4093
a(S'YP_003046004.1'
p4094
g3
(g5
S'\xa1\xa4@\x17\xccW\xb1@'
tRp4095
tp4096
a(S'YP_003046468.1'
p4097
g3
(g5
S'>\xeeu\x1b\xa9\x99\xb1@'
tRp4098
tp4099
a(S'YP_003047239.1'
p4100
g3
(g5
S'^\x19?\xe8\xc8\xad\xb1@'
tRp4101
tp4102
a(S'YP_003043795.1'
p4103
g3
(g5
S'\xf0\xcb\xe6!\xe4\xb4\xb1@'
tRp4104
tp4105
a(S'YP_003044110.1'
p4106
g3
(g5
S'\xb1\xf2^\x84w\xbf\xb1@'
tRp4107
tp4108
a(S'YP_003043303.1'
p4109
g3
(g5
S'\xa6\x9f\xbaRa\xe5\xb1@'
tRp4110
tp4111
a(S'YP_003044306.1'
p4112
g3
(g5
S'\xbf2\x8c{\x19\xf1\xb1@'
tRp4113
tp4114
a(S'YP_003046672.1'
p4115
g3
(g5
S'\xcb-\x1e\x9a\xb2\t\xb2@'
tRp4116
tp4117
a(S'YP_003046526.1'
p4118
g3
(g5
S'X\x9c\xa9v?0\xb2@'
tRp4119
tp4120
a(S'YP_003046353.1'
p4121
g3
(g5
S'b3B\x98R;\xb2@'
tRp4122
tp4123
a(S'YP_003043614.1'
p4124
g3
(g5
S'\xc8U\x13\xa6\x85g\xb2@'
tRp4125
tp4126
a(S'YP_003047034.1'
p4127
g3
(g5
S'8x\xf9\xb6\x1d\xbe\xb2@'
tRp4128
tp4129
a(S'YP_003043618.1'
p4130
g3
(g5
S'\x03\xf8>\x8d(\xd9\xb2@'
tRp4131
tp4132
a(S'YP_003046304.1'
p4133
g3
(g5
S'3\x02\x89\xb8H\xed\xb2@'
tRp4134
tp4135
a(S'YP_003043359.1'
p4136
g3
(g5
S'\xebQ\xa5\xa3L\xf1\xb2@'
tRp4137
tp4138
a(S'YP_003043425.1'
p4139
g3
(g5
S'\xb7\x02\x9ez\xa7\x13\xb3@'
tRp4140
tp4141
a(S'YP_003045275.1'
p4142
g3
(g5
S'\xec\x1f\xe3O@$\xb3@'
tRp4143
tp4144
a(S'YP_003043233.1'
p4145
g3
(g5
S'\xce\x0f\x8e\x8aOj\xb3@'
tRp4146
tp4147
a(S'YP_003045687.1'
p4148
g3
(g5
S'0\xab\xae_M\x9a\xb3@'
tRp4149
tp4150
a(S'YP_003045600.1'
p4151
g3
(g5
S'\xd6\xe7\xba\x90%\x9b\xb3@'
tRp4152
tp4153
a(S'YP_003043701.1'
p4154
g3
(g5
S'\xf6\xe5\x01\xb8:\xb8\xb3@'
tRp4155
tp4156
a(S'YP_003046791.1'
p4157
g3
(g5
S'Tg\xff$S\xc1\xb3@'
tRp4158
tp4159
a(S'YP_003043699.1'
p4160
g3
(g5
S'\x07\xe8\xb6\xeda\xda\xb3@'
tRp4161
tp4162
a(S'YP_003046350.1'
p4163
g3
(g5
S'\xf7b\x80\xfe\xe11\xb4@'
tRp4164
tp4165
a(S'YP_003044179.1'
p4166
g3
(g5
S'\xbc\x12\xedI&O\xb4@'
tRp4167
tp4168
a(S'YP_003047032.1'
p4169
g3
(g5
S'G\xb6\x90\x1cu\x95\xb4@'
tRp4170
tp4171
a(S'YP_003044512.1'
p4172
g3
(g5
S'\xecM\x81)\xd6\xb3\xb4@'
tRp4173
tp4174
a(S'YP_003045109.1'
p4175
g3
(g5
S'Z\xf9\x0c\x85\xf7\x17\xb5@'
tRp4176
tp4177
a(S'YP_003046281.1'
p4178
g3
(g5
S'B\xfa\xa2,Do\xb5@'
tRp4179
tp4180
a(S'YP_003043302.1'
p4181
g3
(g5
S'\x88\x03\x95\xd1\xae\x85\xb5@'
tRp4182
tp4183
a(S'YP_003046792.1'
p4184
g3
(g5
S'*\xe0\x15&\xe2\xca\xb5@'
tRp4185
tp4186
a(S'YP_003044811.1'
p4187
g3
(g5
S'(\xf5\xa5\x9dT\xef\xb5@'
tRp4188
tp4189
a(S'YP_003045960.1'
p4190
g3
(g5
S'{\xb7\x1eu\xcd\xfd\xb5@'
tRp4191
tp4192
a(S'YP_003046217.1'
p4193
g3
(g5
S'E\xef\x02\xe5-\x10\xb6@'
tRp4194
tp4195
a(S'YP_003045944.1'
p4196
g3
(g5
S'\xce\xa7\xd7\xd6\x9b>\xb6@'
tRp4197
tp4198
a(S'YP_003045932.1'
p4199
g3
(g5
S'\xde1\xf4\x8b\xd0E\xb6@'
tRp4200
tp4201
a(S'YP_003043396.1'
p4202
g3
(g5
S'I\x91+\x89k\x81\xb6@'
tRp4203
tp4204
a(S'YP_003046331.1'
p4205
g3
(g5
S'\xf8\xef\xa4\xa2\xeb\xca\xb6@'
tRp4206
tp4207
a(S'YP_003046343.1'
p4208
g3
(g5
S'\xb1\x87s\xa39>\xb7@'
tRp4209
tp4210
a(S'YP_003045945.1'
p4211
g3
(g5
S'H\rL\x8f\xdat\xb7@'
tRp4212
tp4213
a(S'YP_003043373.1'
p4214
g3
(g5
S'/\x9c\t\x10\xe3\x8b\xb7@'
tRp4215
tp4216
a(S'YP_003045104.1'
p4217
g3
(g5
S'\xe8\xae%\x9a\xbb\n\xb8@'
tRp4218
tp4219
a(S'YP_003047050.1'
p4220
g3
(g5
S'\x01\xcc\x12\x0c\xacs\xb8@'
tRp4221
tp4222
a(S'YP_003046492.1'
p4223
g3
(g5
S']\x95\x13%H}\xb8@'
tRp4224
tp4225
a(S'YP_003043243.1'
p4226
g3
(g5
S'\xd7}\xf1] \x98\xb8@'
tRp4227
tp4228
a(S'YP_003047033.1'
p4229
g3
(g5
S'2BN\x1a\x0e\xcb\xb8@'
tRp4230
tp4231
a(S'YP_003046347.1'
p4232
g3
(g5
S'oR\xb1\xa8[\xd2\xb8@'
tRp4233
tp4234
a(S'YP_003044152.1'
p4235
g3
(g5
S'\x198Ybz\x0b\xb9@'
tRp4236
tp4237
a(S'YP_003044426.1'
p4238
g3
(g5
S'\xd0\x115\xc838\xb9@'
tRp4239
tp4240
a(S'YP_003043772.1'
p4241
g3
(g5
S'\xa3\xf3\x15\xa9#b\xb9@'
tRp4242
tp4243
a(S'YP_003043581.1'
p4244
g3
(g5
S'\xad\xa7x\x1a~\xda\xb9@'
tRp4245
tp4246
a(S'YP_003046796.1'
p4247
g3
(g5
S'\x82Q\xe8\xa4\x89\xe8\xb9@'
tRp4248
tp4249
a(S'YP_003045633.1'
p4250
g3
(g5
S'\x8e\xb5~\xaa\n;\xba@'
tRp4251
tp4252
a(S'YP_003043609.1'
p4253
g3
(g5
S'\xd6\xd1\x0e\x8a\xac9\xbb@'
tRp4254
tp4255
a(S'YP_003046344.1'
p4256
g3
(g5
S'^\x1a\xb6\xf3\x9a\x80\xbd@'
tRp4257
tp4258
a(S'YP_003046346.1'
p4259
g3
(g5
S'\xaa\xeeo\x12\x81\xb6\xbd@'
tRp4260
tp4261
a(S'YP_003047237.1'
p4262
g3
(g5
S'K1\x8f\xa7\xc8\xf3\xbd@'
tRp4263
tp4264
a(S'YP_003046977.1'
p4265
g3
(g5
S'\x93\xf7\xd7fD\xd7\xbf@'
tRp4266
tp4267
a(S'YP_003046376.1'
p4268
g3
(g5
S'\x04\xbf\x18v\xa24\xc0@'
tRp4269
tp4270
a(S'YP_003046823.1'
p4271
g3
(g5
S'\x16\r\x1eM\xdbI\xc0@'
tRp4272
tp4273
a(S'YP_003046352.1'
p4274
g3
(g5
S'-\xcc\xeeG\x9a\xd0\xc0@'
tRp4275
tp4276
a(S'YP_003046882.1'
p4277
g3
(g5
S'\x07\x88\xd3\xea\x98\x05\xc1@'
tRp4278
tp4279
a(S'YP_003046334.1'
p4280
g3
(g5
S'\x8d\x15\x19\x1d+3\xc1@'
tRp4281
tp4282
a(S'YP_003047240.1'
p4283
g3
(g5
S'\xe9U\x8fl\x80R\xc1@'
tRp4284
tp4285
a(S'YP_003045506.1'
p4286
g3
(g5
S'\xfc\xd0B\xe0\xa9\xcb\xc1@'
tRp4287
tp4288
a(S'YP_003044309.1'
p4289
g3
(g5
S'T\xfd\xf0\xb3\x7f\xe7\xc1@'
tRp4290
tp4291
a(S'YP_003043397.1'
p4292
g3
(g5
S'N\xae\x04t\x08(\xc2@'
tRp4293
tp4294
a(S'YP_003045813.1'
p4295
g3
(g5
S"c^\r'H3\xc2@"
tRp4296
tp4297
a(S'YP_003044303.1'
p4298
g3
(g5
S'N ZwG\xdd\xc6@'
tRp4299
tp4300
a(S'YP_003046332.1'
p4301
g3
(g5
S'\xb0\xa6\xe8\xd3en\xc7@'
tRp4302
tp4303
a(S'YP_003045505.1'
p4304
g3
(g5
S'\x9b\x10\xf5\xa3E\x8b\xc8@'
tRp4305
tp4306
a(S'YP_003043257.1'
p4307
g3
(g5
S'\xe4\xd8,K2]\xcd@'
tRp4308
tp4309
a(S'YP_003044945.1'
p4310
g3
(g5
S'\x07SE\xa7\xa6\xff\xcd@'
tRp4311
tp4312
a(S'YP_003047035.1'
p4313
g3
(g5
S'`\x0f1\n\x14i\xcf@'
tRp4314
tp4315
a(S'YP_003046994.1'
p4316
g3
(g5
S'\xde\xf6\xb2<\xd6_\xd0@'
tRp4317
tp4318
a(S'YP_003046339.1'
p4319
g3
(g5
S'\x9an\xf8m[\x14\xd1@'
tRp4320
tp4321
a(S'YP_003044438.1'
p4322
g3
(g5
S'\xd8$\xa5\xfc\x03\xb6\xd1@'
tRp4323
tp4324
a(S'YP_003044990.1'
p4325
g3
(g5
S'\x86\x85\x80e\xe6"\xd3@'
tRp4326
tp4327
a(S'YP_003047029.1'
p4328
g3
(g5
S'gi?\xc00\x03\xd4@'
tRp4329
tp4330
a(S'YP_003046375.1'
p4331
g3
(g5
S"'\xa2F\x16I\xa7\xd7@"
tRp4332
tp4333
a.