(lp1
(S'YP_003044417.1'
p2
cnumpy.core.multiarray
scalar
p3
(cnumpy
dtype
p4
(S'f8'
I0
I1
tRp5
(I3
S'<'
NNNI-1
I-1
I0
tbS'sw\x9c\xb8\x18\x12\x14@'
tRp6
tp7
a(S'YP_003044634.1'
p8
g3
(g5
S'\xabO\xb6\x1d\xe5O\x15@'
tRp9
tp10
a(S'YP_003045899.1'
p11
g3
(g5
S's\x0e\x08~\x8c\xf1\x15@'
tRp12
tp13
a(S'YP_003045326.1'
p14
g3
(g5
S'\xec0\x95t\x91?\x19@'
tRp15
tp16
a(S'YP_003047377.1'
p17
g3
(g5
S'\xca\xcd\x8f\x86\xdan\x1b@'
tRp18
tp19
a(S'YP_003043984.1'
p20
g3
(g5
S"\xbbF\x0bj\x88'\x1c@"
tRp21
tp22
a(S'YP_003047288.1'
p23
g3
(g5
S'0s\xfd\x9f\x14\x88\x1d@'
tRp24
tp25
a(S'YP_003047009.1'
p26
g3
(g5
S'\x07\xc6\xed\xa7\xaf\xe9 @'
tRp27
tp28
a(S'YP_003046374.1'
p29
g3
(g5
S'\xad\x1c\xf2\xc4&\x13"@'
tRp30
tp31
a(S'YP_003045167.1'
p32
g3
(g5
S'\xf2\xce\x85\x0c2\xa0"@'
tRp33
tp34
a(S'YP_003045855.1'
p35
g3
(g5
S'L\xdf\x88\xa4]\xbd"@'
tRp36
tp37
a(S'YP_003046514.1'
p38
g3
(g5
S'{6a\r\xfa\xf7"@'
tRp39
tp40
a(S'YP_003043825.1'
p41
g3
(g5
S'\xa8\xb1\xbd\xa8\xb3\xf8"@'
tRp42
tp43
a(S'YP_003044932.1'
p44
g3
(g5
S'\xd6ijr\xc9\x1b#@'
tRp45
tp46
a(S'YP_003045013.1'
p47
g3
(g5
S'{\xbd|)\x19^$@'
tRp48
tp49
a(S'YP_003043979.1'
p50
g3
(g5
S'o\xdf\xe3\xdc;h$@'
tRp51
tp52
a(S'YP_003043708.1'
p53
g3
(g5
S'-\xf2\xaeW\x91\xd3$@'
tRp54
tp55
a(S'YP_003045330.1'
p56
g3
(g5
S':\xbf\x0f\xda\xf9\x01%@'
tRp57
tp58
a(S'YP_003044194.1'
p59
g3
(g5
S'\xcf\xb4\xba\xb8\x8c\x91%@'
tRp60
tp61
a(S'YP_003044640.1'
p62
g3
(g5
S'\xc2&X\t}J&@'
tRp63
tp64
a(S'YP_003046549.1'
p65
g3
(g5
S'\xed\xdf\x02\x14\x1e\x83&@'
tRp66
tp67
a(S'YP_003047006.1'
p68
g3
(g5
S'\xe1e\x9b\xeb\xb6\x86&@'
tRp69
tp70
a(S'YP_003044998.1'
p71
g3
(g5
S'T\xe0\xb2\x07"\xd9&@'
tRp72
tp73
a(S'YP_003044415.1'
p74
g3
(g5
S"\xc7\xaf\xde\x15\xa5]'@"
tRp75
tp76
a(S'YP_003043871.1'
p77
g3
(g5
S"m\x1c\xcas&\x93'@"
tRp78
tp79
a(S'YP_003044392.1'
p80
g3
(g5
S"4],I\xbd\xa5'@"
tRp81
tp82
a(S'YP_003047113.1'
p83
g3
(g5
S"\xbe\x89\xc2T<\xe0'@"
tRp84
tp85
a(S'YP_003044092.1'
p86
g3
(g5
S'{4\x8f\x01\xc30(@'
tRp87
tp88
a(S'YP_003043754.1'
p89
g3
(g5
S'-\xb2z\xe4\x17E)@'
tRp90
tp91
a(S'YP_003045631.1'
p92
g3
(g5
S'A\x1c\x08\xae\xb7\xcc)@'
tRp93
tp94
a(S'YP_003045755.1'
p95
g3
(g5
S'\x87xy>\xc0\xf9)@'
tRp96
tp97
a(S'YP_003043736.1'
p98
g3
(g5
S'\x12l\xf4\xd9}d*@'
tRp99
tp100
a(S'YP_003045693.1'
p101
g3
(g5
S'@5%\x17\xa9\xf7*@'
tRp102
tp103
a(S'YP_003043394.1'
p104
g3
(g5
S'\xf1/\xf6d\x86\x03,@'
tRp105
tp106
a(S'YP_003045887.1'
p107
g3
(g5
S'\x11\xc0~\xae\x02\x80-@'
tRp108
tp109
a(S'YP_003045107.1'
p110
g3
(g5
S'\\\x81\x0f\xbc<\xac-@'
tRp111
tp112
a(S'YP_003043503.1'
p113
g3
(g5
S'\xca\xc2\x01\xb7\x80A.@'
tRp114
tp115
a(S'YP_003043673.1'
p116
g3
(g5
S'\r\xc97\xd7\x18\x900@'
tRp117
tp118
a(S'YP_003047010.1'
p119
g3
(g5
S'\xfdq\xb1\x8fn\x940@'
tRp120
tp121
a(S'YP_003046781.1'
p122
g3
(g5
S'\x88\xc3\x88\xd8\x88\xa50@'
tRp123
tp124
a(S'YP_003045051.1'
p125
g3
(g5
S'H\xd8oA\x14\xfc0@'
tRp126
tp127
a(S'YP_003043314.1'
p128
g3
(g5
S'\xf9\xd5\xbbT^U1@'
tRp129
tp130
a(S'YP_003045471.1'
p131
g3
(g5
S'\xd5&X\\\x95v1@'
tRp132
tp133
a(S'YP_003046551.1'
p134
g3
(g5
S'\xd9\x93]\xab4\xaa1@'
tRp135
tp136
a(S'YP_003046603.1'
p137
g3
(g5
S'y\x92\xb6\xb6J\xf01@'
tRp138
tp139
a(S'YP_003046759.1'
p140
g3
(g5
S'&*\x11g\xd6\x822@'
tRp141
tp142
a(S'YP_003044563.1'
p143
g3
(g5
S'\xd3\xba\x04\x8f\xae\xd92@'
tRp144
tp145
a(S'YP_003045239.1'
p146
g3
(g5
S']^o\xfc\xc5\x0f3@'
tRp147
tp148
a(S'YP_003044960.1'
p149
g3
(g5
S'\xd1u\xfd\x8b\xc6J3@'
tRp150
tp151
a(S'YP_003044537.1'
p152
g3
(g5
S'_3\xc4\xfb\xcbK3@'
tRp153
tp154
a(S'YP_003044138.1'
p155
g3
(g5
S'\xed\xc5\xfb\xfc\xe4f3@'
tRp156
tp157
a(S'YP_003045075.1'
p158
g3
(g5
S'\xf9.M\x0f\xae\xa83@'
tRp159
tp160
a(S'YP_003045438.1'
p161
g3
(g5
S't6\xc7\xfa\x10\xac3@'
tRp162
tp163
a(S'YP_003046493.1'
p164
g3
(g5
S'U\n9\xba\xcc\xaf3@'
tRp165
tp166
a(S'YP_003044269.1'
p167
g3
(g5
S'\xda\xd1_\xc8\r\xbc3@'
tRp168
tp169
a(S'YP_003044235.1'
p170
g3
(g5
S'\xb5gJ\x05\x8f\x114@'
tRp171
tp172
a(S'YP_003045299.1'
p173
g3
(g5
S'\xcd\xa2\xacj6\x894@'
tRp174
tp175
a(S'YP_003047354.1'
p176
g3
(g5
S'\x97\x89!8R\x994@'
tRp177
tp178
a(S'YP_003046729.1'
p179
g3
(g5
S'\x8b\x0e\x0b\x0c\xda\xce4@'
tRp180
tp181
a(S'YP_003045657.1'
p182
g3
(g5
S'\xa5\x8a\x12o\x9e\x105@'
tRp183
tp184
a(S'YP_003045435.1'
p185
g3
(g5
S'/\x8c\x1a;\xf5X5@'
tRp186
tp187
a(S'YP_003044112.1'
p188
g3
(g5
S'\xdfj\xe4\x12\x9fI6@'
tRp189
tp190
a(S'YP_003047061.1'
p191
g3
(g5
S'\xd89\x9e\xa5\xd0\xaa6@'
tRp192
tp193
a(S'YP_003047223.1'
p194
g3
(g5
S'\xe1\xe3&$\x0b\xed6@'
tRp195
tp196
a(S'YP_003046394.1'
p197
g3
(g5
S'<\xc0\xe8$\xba\x007@'
tRp198
tp199
a(S'YP_003045247.1'
p200
g3
(g5
S'\xb0foV\x95\xa97@'
tRp201
tp202
a(S'YP_003044335.1'
p203
g3
(g5
S'\xfd\xee7_\x85\xd07@'
tRp204
tp205
a(S'YP_003045527.1'
p206
g3
(g5
S'p\xd6&\xfd\xaa%8@'
tRp207
tp208
a(S'YP_003043617.1'
p209
g3
(g5
S'`u\xcb\xa4F*8@'
tRp210
tp211
a(S'YP_003047251.1'
p212
g3
(g5
S'BDc\xd1\x96r8@'
tRp213
tp214
a(S'YP_003045740.1'
p215
g3
(g5
S'\xd6x\xd10n19@'
tRp216
tp217
a(S'YP_003047375.1'
p218
g3
(g5
S'\x9c\xf25\xb6qo9@'
tRp219
tp220
a(S'YP_003045672.1'
p221
g3
(g5
S'e\x86\x82\xf7f\xa19@'
tRp222
tp223
a(S'YP_003043388.1'
p224
g3
(g5
S'\xb3\x021\x19\x95\x17:@'
tRp225
tp226
a(S'YP_003044391.1'
p227
g3
(g5
S'bj\x03\xadvs:@'
tRp228
tp229
a(S'YP_003045858.1'
p230
g3
(g5
S'\x11\x8aX\x03\xaf\xa2:@'
tRp231
tp232
a(S'YP_003043830.1'
p233
g3
(g5
S"\xdf \x8f\xf5\xf2';@"
tRp234
tp235
a(S'YP_003046860.1'
p236
g3
(g5
S'\xa2\x0b|,\xbe\xa8;@'
tRp237
tp238
a(S'YP_003047355.1'
p239
g3
(g5
S',I\xa8\x0b\x82\xaf;@'
tRp240
tp241
a(S'YP_003045981.1'
p242
g3
(g5
S'\xe4{\xcd\xfc\xd4\xe4;@'
tRp243
tp244
a(S'YP_003047244.1'
p245
g3
(g5
S'\xd3\xec\xe4\xd6\x0b)<@'
tRp246
tp247
a(S'YP_003045002.1'
p248
g3
(g5
S'\x90\x7fM\xfa\xd7c<@'
tRp249
tp250
a(S'YP_003045311.1'
p251
g3
(g5
S'\xe8\x8fN\x90v\xf2<@'
tRp252
tp253
a(S'YP_003046688.1'
p254
g3
(g5
S'P !\x9f\xdc4=@'
tRp255
tp256
a(S'YP_003043641.1'
p257
g3
(g5
S'P/B\x830\xd1=@'
tRp258
tp259
a(S'YP_003046658.1'
p260
g3
(g5
S'.\x8c\xc2\xb5\xd5\x04>@'
tRp261
tp262
a(S'YP_003046488.1'
p263
g3
(g5
S'\x9a$\x81\x9bt\x1b>@'
tRp264
tp265
a(S'YP_003043494.1'
p266
g3
(g5
S'gs\xee\xccW:>@'
tRp267
tp268
a(S'YP_003043692.1'
p269
g3
(g5
S'\xcc\xefi\xf7\x08e>@'
tRp270
tp271
a(S'YP_003047398.1'
p272
g3
(g5
S'\xee\xd0\x86\xd2\x06\x0f?@'
tRp273
tp274
a(S'YP_003047132.1'
p275
g3
(g5
S'9U\xf9\xb3\x9aA?@'
tRp276
tp277
a(S'YP_003046329.1'
p278
g3
(g5
S'\x82\xf6\xb4V\xb6\xa2?@'
tRp279
tp280
a(S'YP_003044899.1'
p281
g3
(g5
S'\x95\x00m\xa7X\x1b@@'
tRp282
tp283
a(S'YP_003047108.1'
p284
g3
(g5
S'\xd0tz=!m@@'
tRp285
tp286
a(S'YP_003044070.1'
p287
g3
(g5
S'\xb8\x81\x9c\x93\x19\xc9@@'
tRp288
tp289
a(S'YP_003046416.1'
p290
g3
(g5
S'\x9e\x8d\x9b<\x13\x07A@'
tRp291
tp292
a(S'YP_003043418.1'
p293
g3
(g5
S'\x01)^0P\x12A@'
tRp294
tp295
a(S'YP_003044216.1'
p296
g3
(g5
S'\xa0\xd7\n\x01\xc6sA@'
tRp297
tp298
a(S'YP_003043951.1'
p299
g3
(g5
S'<\x018\xe1\x1c\x97A@'
tRp300
tp301
a(S'YP_003044498.1'
p302
g3
(g5
S'=(\x119\x96\xa3A@'
tRp303
tp304
a(S'YP_003046501.1'
p305
g3
(g5
S'\xcc\x99\xdb\xa2S\xb4A@'
tRp306
tp307
a(S'YP_003046666.1'
p308
g3
(g5
S'\x126(\xc7\x15\xebA@'
tRp309
tp310
a(S'YP_003043450.1'
p311
g3
(g5
S'#\xb3hv~\x02B@'
tRp312
tp313
a(S'YP_003044025.1'
p314
g3
(g5
S't\xc5=I\xa8\x02C@'
tRp315
tp316
a(S'YP_003045709.1'
p317
g3
(g5
S'\xe7\xc1/$k(C@'
tRp318
tp319
a(S'YP_003046802.1'
p320
g3
(g5
S'\xc7\xac\xcf#\xd0\x7fC@'
tRp321
tp322
a(S'YP_003045988.1'
p323
g3
(g5
S'\xba\xf6=V\xf5\xb2C@'
tRp324
tp325
a(S'YP_003043249.1'
p326
g3
(g5
S'\xccyF\xcd\x94\x03D@'
tRp327
tp328
a(S'YP_003043411.1'
p329
g3
(g5
S'\r\xcd\xcdZ(\x0bD@'
tRp330
tp331
a(S'YP_003045388.1'
p332
g3
(g5
S'\xac\x02\xaa\x1e\x92\xcbD@'
tRp333
tp334
a(S'YP_003044910.1'
p335
g3
(g5
S'\xcc\x07\xff\x08\r\xdeD@'
tRp336
tp337
a(S'YP_003046830.1'
p338
g3
(g5
S'5K\x94\x82\x83*E@'
tRp339
tp340
a(S'YP_003047422.1'
p341
g3
(g5
S'8\x98\x85\x91c7E@'
tRp342
tp343
a(S'YP_003045872.1'
p344
g3
(g5
S'\xf1v\xb7}\x8eEE@'
tRp345
tp346
a(S'YP_003044014.1'
p347
g3
(g5
S'Y\xc5\x19s\xdc\x8fE@'
tRp348
tp349
a(S'YP_003044597.1'
p350
g3
(g5
S'\xad\xcePNY\xdeE@'
tRp351
tp352
a(S'YP_003043385.1'
p353
g3
(g5
S'\xc8\x87\xdaIh\xe7E@'
tRp354
tp355
a(S'YP_003045927.1'
p356
g3
(g5
S'\xc7\xb6\xe8\x1c\xe1\x88F@'
tRp357
tp358
a(S'YP_003047413.1'
p359
g3
(g5
S'\x8ey\xbdt=\x9cF@'
tRp360
tp361
a(S'YP_003046195.1'
p362
g3
(g5
S'\xbe\x83\xce\x9d\xcf\xb6F@'
tRp363
tp364
a(S'YP_003046970.1'
p365
g3
(g5
S'\xd2\xd3\xce54\xdbF@'
tRp366
tp367
a(S'YP_003043436.1'
p368
g3
(g5
S'e\xd6u\xfa<\xddF@'
tRp369
tp370
a(S'YP_003045865.1'
p371
g3
(g5
S'v\xa2v\x04\xce\xefF@'
tRp372
tp373
a(S'YP_003045092.1'
p374
g3
(g5
S'>N\xa9L\xf9\x1bG@'
tRp375
tp376
a(S'YP_003043992.1'
p377
g3
(g5
S'\xde\xafD\xd8Y\xaaG@'
tRp378
tp379
a(S'YP_003046499.1'
p380
g3
(g5
S'+\x9d\xb8T\xa8\xb4G@'
tRp381
tp382
a(S'YP_003046145.1'
p383
g3
(g5
S'wcim\xba\xb8G@'
tRp384
tp385
a(S'YP_003046559.1'
p386
g3
(g5
S'-\xb4=\x19\xd9\xe6G@'
tRp387
tp388
a(S'YP_003044522.1'
p389
g3
(g5
S'\xa1"\xfdf8\xf5G@'
tRp390
tp391
a(S'YP_003045789.1'
p392
g3
(g5
S'j\xea\x08\x0e\xb9\x1eH@'
tRp393
tp394
a(S'YP_003047373.1'
p395
g3
(g5
S'\xe2\xbf*\xc0\x01KH@'
tRp396
tp397
a(S'YP_003046094.1'
p398
g3
(g5
S"'\x05\xd1A\xafqH@"
tRp399
tp400
a(S'YP_003046946.1'
p401
g3
(g5
S'y`\xf1\xd3\xcd\x14I@'
tRp402
tp403
a(S'YP_003043845.1'
p404
g3
(g5
S'9\xf6\xc0\x86\x08OI@'
tRp405
tp406
a(S'YP_003046991.1'
p407
g3
(g5
S'\xcd!B\x06\xd0\x93I@'
tRp408
tp409
a(S'YP_003043289.1'
p410
g3
(g5
S'\xc8\xe5\xff>\x05\xb0I@'
tRp411
tp412
a(S'YP_003045534.1'
p413
g3
(g5
S'\xde\xa6\x85\xa6E\xf6I@'
tRp414
tp415
a(S'YP_003045338.1'
p416
g3
(g5
S'\xca\x05\x03\x89\xf3OJ@'
tRp417
tp418
a(S'YP_003046090.1'
p419
g3
(g5
S'\x82N\x17\xa2\x9bUJ@'
tRp420
tp421
a(S'YP_003045065.1'
p422
g3
(g5
S'\xcf\x9f\xf5\t\xc1kJ@'
tRp423
tp424
a(S'YP_003043572.1'
p425
g3
(g5
S'\xa1eK\xdb\xbcvJ@'
tRp426
tp427
a(S'YP_003046643.1'
p428
g3
(g5
S'q\x19#\xc2\xf5\xeaJ@'
tRp429
tp430
a(S'YP_003044261.1'
p431
g3
(g5
S'\xae\xfd\xa8.\xcc\x01K@'
tRp432
tp433
a(S'YP_003043526.1'
p434
g3
(g5
S'\n\x9a\xb0\x1a^\x12K@'
tRp435
tp436
a(S'YP_003045663.1'
p437
g3
(g5
S'\xdb\xf1\xef#>#K@'
tRp438
tp439
a(S'YP_003043977.1'
p440
g3
(g5
S'i\xcbCQ\xe5*K@'
tRp441
tp442
a(S'YP_003047407.1'
p443
g3
(g5
S'\xcb\xad\xc4x</K@'
tRp444
tp445
a(S'YP_003044400.1'
p446
g3
(g5
S'\xa1B8 z\x95K@'
tRp447
tp448
a(S'YP_003044787.1'
p449
g3
(g5
S'\r\xdf0{\x11\xe7K@'
tRp450
tp451
a(S'YP_003045445.1'
p452
g3
(g5
S"\xc0g\x0e\x13\xcd'L@"
tRp453
tp454
a(S'YP_003044123.1'
p455
g3
(g5
S'\x8bB}i*,L@'
tRp456
tp457
a(S'YP_003044107.1'
p458
g3
(g5
S'e\x85\xcd\xe9\x92FL@'
tRp459
tp460
a(S'YP_003043443.1'
p461
g3
(g5
S'\xd0\xcb\xa1A\\OL@'
tRp462
tp463
a(S'YP_003044184.1'
p464
g3
(g5
S'\x15\x068YP[L@'
tRp465
tp466
a(S'YP_003045049.1'
p467
g3
(g5
S'\x04\xf4\x01\xa8(\x90L@'
tRp468
tp469
a(S'YP_003043561.1'
p470
g3
(g5
S'\x98S.\xbf\x85\xe4L@'
tRp471
tp472
a(S'YP_003045220.1'
p473
g3
(g5
S'\x8bR)\xb4\xa5\x06M@'
tRp474
tp475
a(S'YP_003045431.1'
p476
g3
(g5
S'\x12\x89\xd3Q|hM@'
tRp477
tp478
a(S'YP_003045847.1'
p479
g3
(g5
S'\x97\x00=\x81\xe7\xb6M@'
tRp480
tp481
a(S'YP_003043664.1'
p482
g3
(g5
S'\x9a$\x81\x9bt\x1bN@'
tRp483
tp484
a(S'YP_003046847.1'
p485
g3
(g5
S'\x87W\x8e\xa3]?N@'
tRp486
tp487
a(S'YP_003044971.1'
p488
g3
(g5
S'\xdb|\xb7\xe4>\xbaN@'
tRp489
tp490
a(S'YP_003044763.1'
p491
g3
(g5
S'\x04\xcc\xb1*\xe0GO@'
tRp492
tp493
a(S'YP_003045642.1'
p494
g3
(g5
S'\x1fH,K_\xb7O@'
tRp495
tp496
a(S'YP_003044304.1'
p497
g3
(g5
S'\n_S\xc4\x15\xc2O@'
tRp498
tp499
a(S'YP_003043447.1'
p500
g3
(g5
S'\xe8\xe6\x9a(~\xddO@'
tRp501
tp502
a(S'YP_003046772.1'
p503
g3
(g5
S'\x9a\xa8\x80\x9eO\xf6O@'
tRp504
tp505
a(S'YP_003045914.1'
p506
g3
(g5
S'\xf1u[\xfc\x0fOP@'
tRp507
tp508
a(S'YP_003045281.1'
p509
g3
(g5
S'V=\x1bjp\x85P@'
tRp510
tp511
a(S'YP_003046952.1'
p512
g3
(g5
S'@v\xe0\x1b\xef\x96P@'
tRp513
tp514
a(S'YP_003044936.1'
p515
g3
(g5
S':\x81\xeb\x90\xf1\x9fP@'
tRp516
tp517
a(S'YP_003045159.1'
p518
g3
(g5
S'mN\xa4\xfbZ\xa8P@'
tRp519
tp520
a(S'YP_003045820.1'
p521
g3
(g5
S'k\x99\xd4\xa0\xda\xa9P@'
tRp522
tp523
a(S'YP_003043794.1'
p524
g3
(g5
S'\x04Q\xeb\xa2\xf1\xabP@'
tRp525
tp526
a(S'YP_003043552.1'
p527
g3
(g5
S'AZ3\x1bT\xf2P@'
tRp528
tp529
a(S'YP_003047120.1'
p530
g3
(g5
S'C\xa8[\x1b\x1b\xfaP@'
tRp531
tp532
a(S'YP_003045197.1'
p533
g3
(g5
S'R\xd1\xe4\xbe\xfb\x19Q@'
tRp534
tp535
a(S'YP_003044920.1'
p536
g3
(g5
S'\x8a7\xabz]UQ@'
tRp537
tp538
a(S'YP_003045148.1'
p539
g3
(g5
S'\xfe\xeb\xa5FDmQ@'
tRp540
tp541
a(S'YP_003044470.1'
p542
g3
(g5
S'.\x06\xe3\xfc\n\x92Q@'
tRp543
tp544
a(S'YP_003046121.1'
p545
g3
(g5
S'\x96T&\xf9\xef\xa1Q@'
tRp546
tp547
a(S'YP_003045670.1'
p548
g3
(g5
S'\xf1b\xf8\x8a\x05\xe9Q@'
tRp549
tp550
a(S'YP_003044546.1'
p551
g3
(g5
S'\x03\x01xxP\xeeQ@'
tRp552
tp553
a(S'YP_003043374.1'
p554
g3
(g5
S'\xd9kWB\xd7\xfbQ@'
tRp555
tp556
a(S'YP_003044761.1'
p557
g3
(g5
S'\r\x1dQQyNR@'
tRp558
tp559
a(S'YP_003043410.1'
p560
g3
(g5
S'6\xff\xb4@=\x8eR@'
tRp561
tp562
a(S'YP_003044889.1'
p563
g3
(g5
S'E#\xa1t\xcc\xb4R@'
tRp564
tp565
a(S'YP_003044102.1'
p566
g3
(g5
S'S8h(8\xebR@'
tRp567
tp568
a(S'YP_003043647.1'
p569
g3
(g5
S'\xc8\x7f\xc6\x82\x17\x08S@'
tRp570
tp571
a(S'YP_003047275.1'
p572
g3
(g5
S'.\x8b\xfb\xc2\x8eGS@'
tRp573
tp574
a(S'YP_003043959.1'
p575
g3
(g5
S'\x15\x86\x99\x06s\x04T@'
tRp576
tp577
a(S'YP_003044144.1'
p578
g3
(g5
S'\xb0\xdd\x93\xa61\x15T@'
tRp579
tp580
a(S'YP_003044215.1'
p581
g3
(g5
S'\x83\xca\x0f\xd5\x98+T@'
tRp582
tp583
a(S'YP_003044171.1'
p584
g3
(g5
S'\x12\x98\x9c\xa0!/T@'
tRp585
tp586
a(S'YP_003046129.1'
p587
g3
(g5
S'\x8fu\xb0\x977\xc4T@'
tRp588
tp589
a(S'YP_003045003.1'
p590
g3
(g5
S'8+\xe4&\x17\xe7T@'
tRp591
tp592
a(S'YP_003044687.1'
p593
g3
(g5
S'\x02\xc5?9V\x1bU@'
tRp594
tp595
a(S'YP_003044874.1'
p596
g3
(g5
S'\x9b\xab\x1d>\x85)U@'
tRp597
tp598
a(S'YP_003046696.1'
p599
g3
(g5
S'\x95"\xfbI\xcfEU@'
tRp600
tp601
a(S'YP_003045089.1'
p602
g3
(g5
S'd\r\x11\xf9l]V@'
tRp603
tp604
a(S'YP_003045638.1'
p605
g3
(g5
S'\xc8\xc5"\x10+\xb5V@'
tRp606
tp607
a(S'YP_003046983.1'
p608
g3
(g5
S'g\xd1\x01a\x0c2W@'
tRp609
tp610
a(S'YP_003044035.1'
p611
g3
(g5
S'\xf9\x99=n\xf8TW@'
tRp612
tp613
a(S'YP_003045296.1'
p614
g3
(g5
S'\xc3O\xfd\xfb\x82fW@'
tRp615
tp616
a(S'YP_003043573.1'
p617
g3
(g5
S'\x9cy?j:\x7fW@'
tRp618
tp619
a(S'YP_003045591.1'
p620
g3
(g5
S'\x13 \xcf\n\xc2\x9aW@'
tRp621
tp622
a(S'YP_003044291.1'
p623
g3
(g5
S'\x04\x8d\xd6\xed\xc1\xe8W@'
tRp624
tp625
a(S'YP_003046863.1'
p626
g3
(g5
S'=\xfaXDaSX@'
tRp627
tp628
a(S'YP_003044137.1'
p629
g3
(g5
S'\xf7\xbb\xf01\xf7\x8dX@'
tRp630
tp631
a(S'YP_003046519.1'
p632
g3
(g5
S'\xb0i\x0c\x89\x15\x98X@'
tRp633
tp634
a(S'YP_003046466.1'
p635
g3
(g5
S'\xf9\xee\x8c\x0e\xda\xd4X@'
tRp636
tp637
a(S'YP_003045550.1'
p638
g3
(g5
S'\xed\xd9\xc5]\xcf\xe3X@'
tRp639
tp640
a(S'YP_003046668.1'
p641
g3
(g5
S'/\x1b\x92\xe3=\x1aY@'
tRp642
tp643
a(S'YP_003046625.1'
p644
g3
(g5
S'\r82M\x16jY@'
tRp645
tp646
a(S'YP_003046943.1'
p647
g3
(g5
S'\xcc\xa0\xd7u\xe7\xceY@'
tRp648
tp649
a(S'YP_003043644.1'
p650
g3
(g5
S'K\xb03\x8a\x89\xddY@'
tRp651
tp652
a(S'YP_003043527.1'
p653
g3
(g5
S'\x14\x87\x8c\x81\x1c\xefY@'
tRp654
tp655
a(S'YP_003046992.1'
p656
g3
(g5
S'9\xa6N\xdc\x14&Z@'
tRp657
tp658
a(S'YP_003046459.1'
p659
g3
(g5
S'O\xcb\x81f\xee<Z@'
tRp660
tp661
a(S'YP_003044294.1'
p662
g3
(g5
S'Uf/\xa0\xfefZ@'
tRp663
tp664
a(S'YP_003046138.1'
p665
g3
(g5
S'9p!\x1f\xdb\x89Z@'
tRp666
tp667
a(S'YP_003047294.1'
p668
g3
(g5
S'P\x1c\xab\xd5\xb7\xbcZ@'
tRp669
tp670
a(S'YP_003044344.1'
p671
g3
(g5
S")\n'\x1d\xf2\xc9Z@"
tRp672
tp673
a(S'YP_003044589.1'
p674
g3
(g5
S'\xbcc\xdd\xf8I\xccZ@'
tRp675
tp676
a(S'YP_003047408.1'
p677
g3
(g5
S'\xb5\xa6\xba](\xeaZ@'
tRp678
tp679
a(S'YP_003047083.1'
p680
g3
(g5
S'\x97\xa8\xf3\xd0~\x03[@'
tRp681
tp682
a(S'YP_003044379.1'
p683
g3
(g5
S'.\xb0V$0>[@'
tRp684
tp685
a(S'YP_003046672.1'
p686
g3
(g5
S'foi\xac\xcfC[@'
tRp687
tp688
a(S'YP_003043781.1'
p689
g3
(g5
S'\xdf\xe2\r!vI[@'
tRp690
tp691
a(S'YP_003047409.1'
p692
g3
(g5
S'\x17\xebF\xc7B\xa9[@'
tRp693
tp694
a(S'YP_003045766.1'
p695
g3
(g5
S'[\x99\x96\xe8\xa2\xa8\\@'
tRp696
tp697
a(S'YP_003045756.1'
p698
g3
(g5
S'*Q\xe5\xe4\x96R]@'
tRp699
tp700
a(S'YP_003047378.1'
p701
g3
(g5
S'#\xecK\xf7\xe5d]@'
tRp702
tp703
a(S'YP_003046325.1'
p704
g3
(g5
S"Q'w\xc8\xf3h]@"
tRp705
tp706
a(S'YP_003045721.1'
p707
g3
(g5
S'?\xd3\xfee\x9d\x88]@'
tRp708
tp709
a(S'YP_003045226.1'
p710
g3
(g5
S'\xdd\xb8\x025\x12\x8e]@'
tRp711
tp712
a(S'YP_003046831.1'
p713
g3
(g5
S'=\xa1I\xed\xc6\x98]@'
tRp714
tp715
a(S'YP_003045971.1'
p716
g3
(g5
S'\x94\xe6`\xfb6\xb2]@'
tRp717
tp718
a(S'YP_003045511.1'
p719
g3
(g5
S'\xe8\xf8(g\xb4\xf9]@'
tRp720
tp721
a(S'YP_003046481.1'
p722
g3
(g5
S'\x99\t-\xc9d\x0b^@'
tRp723
tp724
a(S'YP_003044365.1'
p725
g3
(g5
S'@\xa6Z\xf1}B^@'
tRp726
tp727
a(S'YP_003046523.1'
p728
g3
(g5
S'l\x0cy#\x94\x90^@'
tRp729
tp730
a(S'YP_003044104.1'
p731
g3
(g5
S'\x98z\xd2\xd5d\x9f^@'
tRp732
tp733
a(S'YP_003045344.1'
p734
g3
(g5
S'_\xd0\xc7\xfa\x0f\xf6^@'
tRp735
tp736
a(S'YP_003046467.1'
p737
g3
(g5
S'GL3h\x9aK_@'
tRp738
tp739
a(S'YP_003043982.1'
p740
g3
(g5
S'_$i8\xf5M_@'
tRp741
tp742
a(S'YP_003045655.1'
p743
g3
(g5
S"X\xb8'\xa9\x12\xcf_@"
tRp744
tp745
a(S'YP_003045791.1'
p746
g3
(g5
S'\x8d2\x85[\x8a#`@'
tRp747
tp748
a(S'YP_003047227.1'
p749
g3
(g5
S'\xf6}\xfa\x8f\x07>`@'
tRp750
tp751
a(S'YP_003044479.1'
p752
g3
(g5
S'\xb0\xf1\xd2m\nr`@'
tRp753
tp754
a(S'YP_003046627.1'
p755
g3
(g5
S'\xa1\x1a\xc0K6}`@'
tRp756
tp757
a(S'YP_003043759.1'
p758
g3
(g5
S"M\xfcQ'\xd8\x93`@"
tRp759
tp760
a(S'YP_003046111.1'
p761
g3
(g5
S'Q2\xdc\xe34\xb0`@'
tRp762
tp763
a(S'YP_003047374.1'
p764
g3
(g5
S'\xfc\x93\x93o(\xd2`@'
tRp765
tp766
a(S'YP_003044717.1'
p767
g3
(g5
S'\x00A=X;\xe5`@'
tRp768
tp769
a(S'YP_003046075.1'
p770
g3
(g5
S'x\x17\x00\x04\xa68a@'
tRp771
tp772
a(S'YP_003046926.1'
p773
g3
(g5
S'\x14\x9bL|":a@'
tRp774
tp775
a(S'YP_003047404.1'
p776
g3
(g5
S'G\xa5uI\x11La@'
tRp777
tp778
a(S'YP_003044478.1'
p779
g3
(g5
S'z\xaf\xef\t\xdeUa@'
tRp780
tp781
a(S'YP_003043579.1'
p782
g3
(g5
S'\xa5\xcb\xeeg\x8fXa@'
tRp783
tp784
a(S'YP_003046973.1'
p785
g3
(g5
S'\xf2t8\xbd\x99aa@'
tRp786
tp787
a(S'YP_003045578.1'
p788
g3
(g5
S'\x89\x0f\xf6\xd1\xb4fa@'
tRp789
tp790
a(S'YP_003046050.1'
p791
g3
(g5
S'0l\x00\xd7\xa0za@'
tRp792
tp793
a(S'YP_003044091.1'
p794
g3
(g5
S'\x0e\xa8:\xb7\xea\x89a@'
tRp795
tp796
a(S'YP_003047208.1'
p797
g3
(g5
S'\x0f\x9e\x15&u\xbba@'
tRp798
tp799
a(S'YP_003043758.1'
p800
g3
(g5
S'\x10\xfe\x1a\xba\xe0\xc0a@'
tRp801
tp802
a(S'YP_003044177.1'
p803
g3
(g5
S'\x12\xcc\xa02\xc7\xd5a@'
tRp804
tp805
a(S'YP_003045163.1'
p806
g3
(g5
S'\x8a\x11R\x8c\xd0\xd7a@'
tRp807
tp808
a(S'YP_003045046.1'
p809
g3
(g5
S'\xf1b\xf8\x8a\x05\xe9a@'
tRp810
tp811
a(S'YP_003045026.1'
p812
g3
(g5
S'bW\xb57@-b@'
tRp813
tp814
a(S'YP_003043461.1'
p815
g3
(g5
S'>\xf0\xd6r\x845b@'
tRp816
tp817
a(S'YP_003043915.1'
p818
g3
(g5
S'\xef\xd8\xe1\xed@Wb@'
tRp819
tp820
a(S'YP_003047287.1'
p821
g3
(g5
S'ZZi\x03\xd8^b@'
tRp822
tp823
a(S'YP_003043434.1'
p824
g3
(g5
S'Sc\xc1\xf0Bsb@'
tRp825
tp826
a(S'YP_003047025.1'
p827
g3
(g5
S'\xc0\\\x83\xdd\x96wb@'
tRp828
tp829
a(S'YP_003047081.1'
p830
g3
(g5
S'u~\x1e\x00\xaa\xbeb@'
tRp831
tp832
a(S'YP_003044791.1'
p833
g3
(g5
S'\xb1\x84*\xf6\xa0\xc1b@'
tRp834
tp835
a(S'YP_003045091.1'
p836
g3
(g5
S'\x19\x00\xf3\xb4i\xc7b@'
tRp837
tp838
a(S'YP_003045649.1'
p839
g3
(g5
S'\x1a\x16\xdb\x04-\xe8b@'
tRp840
tp841
a(S'YP_003045019.1'
p842
g3
(g5
S'\x86Rv\x9d\x18\xf1b@'
tRp843
tp844
a(S'YP_003043964.1'
p845
g3
(g5
S'x7\xd6b\xa2\xfeb@'
tRp846
tp847
a(S'YP_003047297.1'
p848
g3
(g5
S';9\xfeD\xecic@'
tRp849
tp850
a(S'YP_003045290.1'
p851
g3
(g5
S'\x02P\x151<}c@'
tRp852
tp853
a(S'YP_003046881.1'
p854
g3
(g5
S'\xaa\xd1WL\xc2\xd0c@'
tRp855
tp856
a(S'YP_003046294.1'
p857
g3
(g5
S'\xccSP\x8e~\xe4c@'
tRp858
tp859
a(S'YP_003046558.1'
p860
g3
(g5
S'\xcb)\xe5\xf7\xf7\xe8c@'
tRp861
tp862
a(S'YP_003044099.1'
p863
g3
(g5
S'\x81=\x9av!\xf0c@'
tRp864
tp865
a(S'YP_003043263.1'
p866
g3
(g5
S'\x1d\xcb\x85\xb9x\x1bd@'
tRp867
tp868
a(S'YP_003044085.1'
p869
g3
(g5
S'\x11\xaaS\xed\x96"d@'
tRp870
tp871
a(S'YP_003046125.1'
p872
g3
(g5
S'4#O\x15\xb4?d@'
tRp873
tp874
a(S'YP_003044835.1'
p875
g3
(g5
S'\xfek\xed\xfb7Hd@'
tRp876
tp877
a(S'YP_003046146.1'
p878
g3
(g5
S'\xd9\x03v@\xe8bd@'
tRp879
tp880
a(S'YP_003045096.1'
p881
g3
(g5
S'\xf5(\xcb\x8btsd@'
tRp882
tp883
a(S'YP_003045697.1'
p884
g3
(g5
S'\x0cTOvT\xa9d@'
tRp885
tp886
a(S'YP_003043550.1'
p887
g3
(g5
S'\\\xde\xd4\x8c\x00\xcdd@'
tRp888
tp889
a(S'YP_003045986.1'
p890
g3
(g5
S'\xa1\x16\xbc\x8d\xa2\x10e@'
tRp891
tp892
a(S'YP_003047207.1'
p893
g3
(g5
S'\xd8\xb6`\xf3\xc1\x11e@'
tRp894
tp895
a(S'YP_003045583.1'
p896
g3
(g5
S'sZ\x98\x19\x1f5e@'
tRp897
tp898
a(S'YP_003044143.1'
p899
g3
(g5
S'\xa7\xa3\x1c\xfaq\x8fe@'
tRp900
tp901
a(S'YP_003046775.1'
p902
g3
(g5
S'Ex(\xb1\xac\xbee@'
tRp903
tp904
a(S'YP_003044427.1'
p905
g3
(g5
S'\xd9\xd4\x97\xe4\x9f\xc6e@'
tRp906
tp907
a(S'YP_003047049.1'
p908
g3
(g5
S'T\xe3Oqw\xe2e@'
tRp909
tp910
a(S'YP_003046687.1'
p911
g3
(g5
S'\xdf\x05\x82\x1c\xb3\xe2e@'
tRp912
tp913
a(S'YP_003046671.1'
p914
g3
(g5
S'\x1af\xe4\xec(\x03f@'
tRp915
tp916
a(S'YP_003045021.1'
p917
g3
(g5
S';m\xa9)~\x0ef@'
tRp918
tp919
a(S'YP_003044191.1'
p920
g3
(g5
S'\xf3\x96\xab\xcf\x9f\x18f@'
tRp921
tp922
a(S'YP_003046669.1'
p923
g3
(g5
S'\x18\x97\x991\\Cf@'
tRp924
tp925
a(S'YP_003044313.1'
p926
g3
(g5
S'\xc651\xa6\xe2Jf@'
tRp927
tp928
a(S'YP_003045790.1'
p929
g3
(g5
S'.\x97\xe6B\xffUf@'
tRp930
tp931
a(S'YP_003044380.1'
p932
g3
(g5
S'\x19c7\xc4\x05^f@'
tRp933
tp934
a(S'YP_003043788.1'
p935
g3
(g5
S'\x9b\xe3<\xd5\xe1\xb0f@'
tRp936
tp937
a(S'YP_003046606.1'
p938
g3
(g5
S'U\xe2]\xdd\xd4\xb6f@'
tRp939
tp940
a(S'YP_003047026.1'
p941
g3
(g5
S'\x12\x11\xe4R\x97\xc1f@'
tRp942
tp943
a(S'YP_003043282.1'
p944
g3
(g5
S"\x11'\x02*|\xd1f@"
tRp945
tp946
a(S'YP_003046089.1'
p947
g3
(g5
S'Zg\xae\xc3q\x03g@'
tRp948
tp949
a(S'YP_003045279.1'
p950
g3
(g5
S'F\x0b+\xd4\xae\x06g@'
tRp951
tp952
a(S'YP_003044458.1'
p953
g3
(g5
S'zU\xde\xe42)g@'
tRp954
tp955
a(S'YP_003046108.1'
p956
g3
(g5
S'E>S\xc6\xefjg@'
tRp957
tp958
a(S'YP_003043591.1'
p959
g3
(g5
S'\xf7\xb7(\xd1\x1d\x86g@'
tRp960
tp961
a(S'YP_003044297.1'
p962
g3
(g5
S'\xe7d\xc2\x0c$\xcag@'
tRp963
tp964
a(S'YP_003046472.1'
p965
g3
(g5
S'\x07\xb8\xa2:\x8a\xe4g@'
tRp966
tp967
a(S'YP_003044433.1'
p968
g3
(g5
S'Y\xfc\xbb\x1a\x1e\x08h@'
tRp969
tp970
a(S'YP_003045428.1'
p971
g3
(g5
S'T\n\xab,\x8f\x0ch@'
tRp972
tp973
a(S'YP_003046909.1'
p974
g3
(g5
S'\x9d\xf1\xfax\xec!h@'
tRp975
tp976
a(S'YP_003044280.1'
p977
g3
(g5
S'\x9bq\xb7T,+h@'
tRp978
tp979
a(S'YP_003046463.1'
p980
g3
(g5
S't\x02;\xbb@1h@'
tRp981
tp982
a(S'YP_003045014.1'
p983
g3
(g5
S'j=\xb3}i1h@'
tRp984
tp985
a(S'YP_003043916.1'
p986
g3
(g5
S'\x15\x81:\x1dY9h@'
tRp987
tp988
a(S'YP_003044173.1'
p989
g3
(g5
S'V\xbd\x96\x96\x16Xh@'
tRp990
tp991
a(S'YP_003043597.1'
p992
g3
(g5
S'\x0b\x93<Y\x7f\xf8h@'
tRp993
tp994
a(S'YP_003045637.1'
p995
g3
(g5
S'N7e\x16\xa3\x04i@'
tRp996
tp997
a(S'YP_003043545.1'
p998
g3
(g5
S'\xf5d\xa8\xc9\xae\x08i@'
tRp999
tp1000
a(S'YP_003045108.1'
p1001
g3
(g5
S'*\xaf\xf1k\x94\x1di@'
tRp1002
tp1003
a(S'YP_003046214.1'
p1004
g3
(g5
S':\xb6\xd3\xc4w i@'
tRp1005
tp1006
a(S'YP_003046976.1'
p1007
g3
(g5
S'\x1d:\xc3P %i@'
tRp1008
tp1009
a(S'YP_003047170.1'
p1010
g3
(g5
S'\x9e\xdb\xd14S-i@'
tRp1011
tp1012
a(S'YP_003044788.1'
p1013
g3
(g5
S'e<qU\xc3ei@'
tRp1014
tp1015
a(S'YP_003047062.1'
p1016
g3
(g5
S'\xca>U\xa8.\x88i@'
tRp1017
tp1018
a(S'YP_003045818.1'
p1019
g3
(g5
S'\x98\xe7D\xf1-\x9di@'
tRp1020
tp1021
a(S'YP_003043934.1'
p1022
g3
(g5
S'\xaaq\x98g\xd8\xb1i@'
tRp1023
tp1024
a(S'YP_003047278.1'
p1025
g3
(g5
S"\xe1'Aq\xf4\xbei@"
tRp1026
tp1027
a(S'YP_003046927.1'
p1028
g3
(g5
S'\xd0\xdc\x8a\x14\x88\xcci@'
tRp1029
tp1030
a(S'YP_003045602.1'
p1031
g3
(g5
S'g\xc2\x88\xf2\xc6\xd6i@'
tRp1032
tp1033
a(S'YP_003044615.1'
p1034
g3
(g5
S'C\xf5\xe9\t\x00\tj@'
tRp1035
tp1036
a(S'YP_003046561.1'
p1037
g3
(g5
S'\xbf\xb02\xae(%j@'
tRp1038
tp1039
a(S'YP_003045849.1'
p1040
g3
(g5
S'\x9a\x19\x1f\xc8dVj@'
tRp1041
tp1042
a(S'YP_003046864.1'
p1043
g3
(g5
S'\x98Hf\xb53\\j@'
tRp1044
tp1045
a(S'YP_003046686.1'
p1046
g3
(g5
S'g\x08\xc4\xad\xc0\xb5j@'
tRp1047
tp1048
a(S'YP_003046841.1'
p1049
g3
(g5
S'=\x01\x89\x94\x08@k@'
tRp1050
tp1051
a(S'YP_003046233.1'
p1052
g3
(g5
S'\xb5[\xaf\xad#kk@'
tRp1053
tp1054
a(S'YP_003047087.1'
p1055
g3
(g5
S'\xd5O\xb3E\x0cyk@'
tRp1056
tp1057
a(S'YP_003043704.1'
p1058
g3
(g5
S'9\x0f\x99\xc5\xc1\xdbk@'
tRp1059
tp1060
a(S'YP_003044146.1'
p1061
g3
(g5
S'\xab9Q\x84\xe7\rl@'
tRp1062
tp1063
a(S'YP_003045509.1'
p1064
g3
(g5
S'\x83C\xe1\x8f\xfd,l@'
tRp1065
tp1066
a(S'YP_003043929.1'
p1067
g3
(g5
S'I\xe32\x05\xac0l@'
tRp1068
tp1069
a(S'YP_003046874.1'
p1070
g3
(g5
S'D`\xb4l\x9avl@'
tRp1071
tp1072
a(S'YP_003047093.1'
p1073
g3
(g5
S'\xe1\ny\xa0\x95xl@'
tRp1074
tp1075
a(S'YP_003045043.1'
p1076
g3
(g5
S'o\xfb\xde\x14X\x86l@'
tRp1077
tp1078
a(S'YP_003046701.1'
p1079
g3
(g5
S'\xa10\xeed\xa0\xa5l@'
tRp1080
tp1081
a(S'YP_003046785.1'
p1082
g3
(g5
S'\xd5\x94B\xeb\x89\xa7l@'
tRp1083
tp1084
a(S'YP_003044341.1'
p1085
g3
(g5
S'\x1b(\xe8O\x0c\xabl@'
tRp1086
tp1087
a(S'YP_003046582.1'
p1088
g3
(g5
S'\xab\xfc&\x12\xe0\xcbl@'
tRp1089
tp1090
a(S'YP_003043861.1'
p1091
g3
(g5
S'\x97\x98,?\xf7\xd2l@'
tRp1092
tp1093
a(S'YP_003045584.1'
p1094
g3
(g5
S'\x8e\xc5\xfc\x7f\xce\xd6l@'
tRp1095
tp1096
a(S'YP_003043649.1'
p1097
g3
(g5
S'\xf3\t\xd0k\x1e\xf3l@'
tRp1098
tp1099
a(S'YP_003044342.1'
p1100
g3
(g5
S'\xe8)\x03)(\xf8l@'
tRp1101
tp1102
a(S'YP_003045467.1'
p1103
g3
(g5
S'\x83et\x9bN\x00m@'
tRp1104
tp1105
a(S'YP_003045343.1'
p1106
g3
(g5
S'\x83g\xa1y\x03\x08m@'
tRp1107
tp1108
a(S'YP_003044854.1'
p1109
g3
(g5
S'\xb1\r\xfc\x92\x17\x1em@'
tRp1110
tp1111
a(S'YP_003044579.1'
p1112
g3
(g5
S'\x8b\xb5\x14\xb8\xb8,m@'
tRp1113
tp1114
a(S'YP_003044127.1'
p1115
g3
(g5
S'\xee[\xae|\r>m@'
tRp1116
tp1117
a(S'YP_003044007.1'
p1118
g3
(g5
S'\xff\x8d\xe1\xfe}em@'
tRp1119
tp1120
a(S'YP_003045909.1'
p1121
g3
(g5
S"'\xc1\x86C\x88\x91m@"
tRp1122
tp1123
a(S'YP_003044981.1'
p1124
g3
(g5
S'^\xbe\xf8\x9f\x80\xb2m@'
tRp1125
tp1126
a(S'YP_003046840.1'
p1127
g3
(g5
S'vK\xc9)\xa7\xc1m@'
tRp1128
tp1129
a(S'YP_003047045.1'
p1130
g3
(g5
S'"GH\xf7\x7f\xc2m@'
tRp1131
tp1132
a(S'YP_003046692.1'
p1133
g3
(g5
S'\nA\xf5\x17\x10\xc4m@'
tRp1134
tp1135
a(S'YP_003043652.1'
p1136
g3
(g5
S'1\x9f\xf0&0\xc4m@'
tRp1137
tp1138
a(S'YP_003046064.1'
p1139
g3
(g5
S'\x1b\xe4\xd6\x0bi\xf2m@'
tRp1140
tp1141
a(S'YP_003045224.1'
p1142
g3
(g5
S'\x9e\x9dd&\xb1\x0cn@'
tRp1143
tp1144
a(S'YP_003044401.1'
p1145
g3
(g5
S'K\xf2\xf9*\xb1%n@'
tRp1146
tp1147
a(S'YP_003043889.1'
p1148
g3
(g5
S'\x84\xed\xa7\x05\x07(n@'
tRp1149
tp1150
a(S'YP_003043931.1'
p1151
g3
(g5
S'\x8f\xf1:~\xa5hn@'
tRp1152
tp1153
a(S'YP_003043332.1'
p1154
g3
(g5
S'#\x96pN\xe7rn@'
tRp1155
tp1156
a(S'YP_003045864.1'
p1157
g3
(g5
S'\x9c\xf9\xff\x15\xe6un@'
tRp1158
tp1159
a(S'YP_003045827.1'
p1160
g3
(g5
S'\xaa\xc0\xa1\x92\xd4\x82n@'
tRp1161
tp1162
a(S'YP_003043852.1'
p1163
g3
(g5
S'\xd4\xb9g\xd9\xcf\xaan@'
tRp1164
tp1165
a(S'YP_003045313.1'
p1166
g3
(g5
S"L5\xba4'\xfdn@"
tRp1167
tp1168
a(S'YP_003045482.1'
p1169
g3
(g5
S'A\x9f\xb1\x0b\x9f\x02o@'
tRp1170
tp1171
a(S'YP_003044328.1'
p1172
g3
(g5
S'\xd8Qp1\x88\x03o@'
tRp1173
tp1174
a(S'YP_003047259.1'
p1175
g3
(g5
S'!\xc30\xd2\xb4\x06o@'
tRp1176
tp1177
a(S'YP_003046277.1'
p1178
g3
(g5
S'f\x9d\xca\xca\xb0\x17o@'
tRp1179
tp1180
a(S'YP_003045379.1'
p1181
g3
(g5
S'o\x12\x08\xe2VAo@'
tRp1182
tp1183
a(S'YP_003043670.1'
p1184
g3
(g5
S'\xac*\xd5\x9e\x0b\xabo@'
tRp1185
tp1186
a(S'YP_003043370.1'
p1187
g3
(g5
S'\xeat\x80\xcd\\\xe5o@'
tRp1188
tp1189
a(S'YP_003043921.1'
p1190
g3
(g5
S'\x0f\xc0\x11^\r\x19p@'
tRp1191
tp1192
a(S'YP_003044510.1'
p1193
g3
(g5
S'\xac:5i\xcb,p@'
tRp1194
tp1195
a(S'YP_003045772.1'
p1196
g3
(g5
S'\xd6F\xbbxU6p@'
tRp1197
tp1198
a(S'YP_003047426.1'
p1199
g3
(g5
S'\x97G\xff<7\\p@'
tRp1200
tp1201
a(S'YP_003047028.1'
p1202
g3
(g5
S'\x9b\xee\xc0D\xb9cp@'
tRp1203
tp1204
a(S'YP_003045786.1'
p1205
g3
(g5
S'"\xeb\xfdg\xc5cp@'
tRp1206
tp1207
a(S'YP_003045519.1'
p1208
g3
(g5
S'/)\xb0\x8envp@'
tRp1209
tp1210
a(S'YP_003043351.1'
p1211
g3
(g5
S'\x0f\x81\x16\xc5\xf8\x92p@'
tRp1212
tp1213
a(S'YP_003043891.1'
p1214
g3
(g5
S'\xbb\x94\x8c6K\xa7p@'
tRp1215
tp1216
a(S'YP_003044852.1'
p1217
g3
(g5
S'\xc6\x04\x1a"\xe3\xb1p@'
tRp1218
tp1219
a(S'YP_003045854.1'
p1220
g3
(g5
S'\x95\xf6\xe1\xa7\xdd\xb3p@'
tRp1221
tp1222
a(S'YP_003046761.1'
p1223
g3
(g5
S'\x93\xbc\xf3\x90\x81\xcdp@'
tRp1224
tp1225
a(S'YP_003046747.1'
p1226
g3
(g5
S't\xe3\xa6]\x19\xdcp@'
tRp1227
tp1228
a(S'YP_003046626.1'
p1229
g3
(g5
S'Qn\t\xf2`\xe8p@'
tRp1230
tp1231
a(S'YP_003044515.1'
p1232
g3
(g5
S'vu\xa6\xc8\xd0\xf2p@'
tRp1233
tp1234
a(S'YP_003044382.1'
p1235
g3
(g5
S'\x8f\xdai\x12U\xf7p@'
tRp1236
tp1237
a(S'YP_003043969.1'
p1238
g3
(g5
S'\x89%b\x8fH\x15q@'
tRp1239
tp1240
a(S'YP_003045225.1'
p1241
g3
(g5
S'\xf8\x9a4\x80\xc9aq@'
tRp1242
tp1243
a(S'YP_003045826.1'
p1244
g3
(g5
S'\xe9~\xd1\xca\x0f\x90q@'
tRp1245
tp1246
a(S'YP_003046944.1'
p1247
g3
(g5
S'\x80\xae\xc1o\x18\xa6q@'
tRp1248
tp1249
a(S'YP_003043849.1'
p1250
g3
(g5
S'\n\x9a\x87\xdf\xdf\xafq@'
tRp1251
tp1252
a(S'YP_003043584.1'
p1253
g3
(g5
S'm\xeb\t\x17l\xd1q@'
tRp1254
tp1255
a(S'YP_003043799.1'
p1256
g3
(g5
S'\xec\xa7R\x81\xef\xe7q@'
tRp1257
tp1258
a(S'YP_003046404.1'
p1259
g3
(g5
S'\x8a\x91\xb3V\xaf\xebq@'
tRp1260
tp1261
a(S'YP_003043414.1'
p1262
g3
(g5
S'\xf0(\xd8\xc1\xbd\xf4q@'
tRp1263
tp1264
a(S'YP_003044434.1'
p1265
g3
(g5
S'bn[\x80(\xf7q@'
tRp1266
tp1267
a(S'YP_003044912.1'
p1268
g3
(g5
S'\xfeN\x11\xf6\xe9"r@'
tRp1269
tp1270
a(S'YP_003043682.1'
p1271
g3
(g5
S'\xc0}\x06\xd6\x18(r@'
tRp1272
tp1273
a(S'YP_003044513.1'
p1274
g3
(g5
S'\xc4of\n\xf8*r@'
tRp1275
tp1276
a(S'YP_003046265.1'
p1277
g3
(g5
S'\xd98\x19Rm?r@'
tRp1278
tp1279
a(S'YP_003046388.1'
p1280
g3
(g5
S"\x1dZ'\xd6\x07gr@"
tRp1281
tp1282
a(S'YP_003046396.1'
p1283
g3
(g5
S'\xa5;\xc2x\x88\x84r@'
tRp1284
tp1285
a(S'YP_003043960.1'
p1286
g3
(g5
S'\x00N\x08N\xab\x85r@'
tRp1287
tp1288
a(S'YP_003045405.1'
p1289
g3
(g5
S'\xa6\x07=\xea\xdb\x99r@'
tRp1290
tp1291
a(S'YP_003043537.1'
p1292
g3
(g5
S'\xf3\x8e~\xa1\x90\xacr@'
tRp1293
tp1294
a(S'YP_003045673.1'
p1295
g3
(g5
S'\x7f.\xe3\xf0\xb3\xb9r@'
tRp1296
tp1297
a(S'YP_003043429.1'
p1298
g3
(g5
S'\xda\xfdZ4~\xbdr@'
tRp1299
tp1300
a(S'YP_003046497.1'
p1301
g3
(g5
S'\xc2\xdc\x0c\xe5\xef\xbdr@'
tRp1302
tp1303
a(S'YP_003047004.1'
p1304
g3
(g5
S'\xf3\x15\x17}\xc5\xc3r@'
tRp1305
tp1306
a(S'YP_003047410.1'
p1307
g3
(g5
S'\x9b\xe7\xc7\xea\x0c\xcar@'
tRp1308
tp1309
a(S'YP_003043661.1'
p1310
g3
(g5
S'\xfc\x9b\xf4\ttFs@'
tRp1311
tp1312
a(S'YP_003045983.1'
p1313
g3
(g5
S'\xa6\xf8\xc9&ERs@'
tRp1314
tp1315
a(S'YP_003047096.1'
p1316
g3
(g5
S'I\x98Q\x96\x87Xs@'
tRp1317
tp1318
a(S'YP_003047399.1'
p1319
g3
(g5
S'\xed\xad\xef5\xe8Zs@'
tRp1320
tp1321
a(S'YP_003045946.1'
p1322
g3
(g5
S'\xc7=6\xd9\\fs@'
tRp1323
tp1324
a(S'YP_003044660.1'
p1325
g3
(g5
S'~\xe2\xb3\xad\x96is@'
tRp1326
tp1327
a(S'YP_003046494.1'
p1328
g3
(g5
S' \xf41\xf5\xbc~s@'
tRp1329
tp1330
a(S'YP_003044465.1'
p1331
g3
(g5
S'fb\x94\x81\xe3\x96s@'
tRp1332
tp1333
a(S'YP_003046657.1'
p1334
g3
(g5
S',^\xb6>\xe0\xa2s@'
tRp1335
tp1336
a(S'YP_003047255.1'
p1337
g3
(g5
S'&\xf9\xee\x1a\xdd\xafs@'
tRp1338
tp1339
a(S'YP_003045060.1'
p1340
g3
(g5
S'\xf19\xca\xd4g\xc1s@'
tRp1341
tp1342
a(S'YP_003045784.1'
p1343
g3
(g5
S'f\xd2\r^\x86\xdcs@'
tRp1344
tp1345
a(S'YP_003047196.1'
p1346
g3
(g5
S'[\xe8\xd3{F\xf8s@'
tRp1347
tp1348
a(S'YP_003046763.1'
p1349
g3
(g5
S'\xb8\x8a\xcd\xe8X\xfcs@'
tRp1350
tp1351
a(S'YP_003044170.1'
p1352
g3
(g5
S'\x07\x02\xfa\x07\xc2\xfes@'
tRp1353
tp1354
a(S'YP_003047164.1'
p1355
g3
(g5
S'\x8c\n\x07\x974\x02t@'
tRp1356
tp1357
a(S'YP_003044109.1'
p1358
g3
(g5
S'\xb7\x0e\x9d^\xf6\x04t@'
tRp1359
tp1360
a(S'YP_003044521.1'
p1361
g3
(g5
S'D\xec2gm0t@'
tRp1362
tp1363
a(S'YP_003046953.1'
p1364
g3
(g5
S']\x8eC\xd4\x15:t@'
tRp1365
tp1366
a(S'YP_003047077.1'
p1367
g3
(g5
S'`\xdd\xdc\x12F\x82t@'
tRp1368
tp1369
a(S'YP_003047102.1'
p1370
g3
(g5
S'\xa5\x13)\xa7\x8e\x95t@'
tRp1371
tp1372
a(S'YP_003045164.1'
p1373
g3
(g5
S'zp\x9e\x9a\xde\xabt@'
tRp1374
tp1375
a(S'YP_003046382.1'
p1376
g3
(g5
S'\x89\x84w\x03\xca\xb4t@'
tRp1377
tp1378
a(S'YP_003044517.1'
p1379
g3
(g5
S'%L\xfd\x97\n\xbet@'
tRp1380
tp1381
a(S'YP_003043574.1'
p1382
g3
(g5
S'\xda\xd1|?^\xc8t@'
tRp1383
tp1384
a(S'YP_003046302.1'
p1385
g3
(g5
S'>\x1d\x88L\xb6\xcct@'
tRp1386
tp1387
a(S'YP_003047298.1'
p1388
g3
(g5
S'\xdc\x80\xa5\xe9v\xdbt@'
tRp1389
tp1390
a(S'YP_003043371.1'
p1391
g3
(g5
S'iD\x0b-z\xdbt@'
tRp1392
tp1393
a(S'YP_003047097.1'
p1394
g3
(g5
S'\xfd,\x9e\x82\xe1\xdet@'
tRp1395
tp1396
a(S'YP_003044777.1'
p1397
g3
(g5
S'BLb^T\xf3t@'
tRp1398
tp1399
a(S'YP_003043822.1'
p1400
g3
(g5
S'V\xec\xbe\xa7f\x0bu@'
tRp1401
tp1402
a(S'YP_003044078.1'
p1403
g3
(g5
S'&,\xf9rn%u@'
tRp1404
tp1405
a(S'YP_003047353.1'
p1406
g3
(g5
S'\x90\xf7r:\x8c*u@'
tRp1407
tp1408
a(S'YP_003044997.1'
p1409
g3
(g5
S'\xb7\xc4\xb9\x0fd4u@'
tRp1410
tp1411
a(S'YP_003045458.1'
p1412
g3
(g5
S'\xb2P\x16\xbf\x984u@'
tRp1413
tp1414
a(S'YP_003044136.1'
p1415
g3
(g5
S'\x1b\xb3t8\xd8lu@'
tRp1416
tp1417
a(S'YP_003046076.1'
p1418
g3
(g5
S'T\x04A\xb4\xe1\x82u@'
tRp1419
tp1420
a(S'YP_003043890.1'
p1421
g3
(g5
S'\xbeeR3\xcd\x99u@'
tRp1422
tp1423
a(S'YP_003043495.1'
p1424
g3
(g5
S'\xc2L\x9f\xa6p\xa4u@'
tRp1425
tp1426
a(S'YP_003047210.1'
p1427
g3
(g5
S'\x19\xe5\xab\x9cA\xdcu@'
tRp1428
tp1429
a(S'YP_003043598.1'
p1430
g3
(g5
S'\xd15A\xd7C\xe0u@'
tRp1431
tp1432
a(S'YP_003043588.1'
p1433
g3
(g5
S'\xe1>\x97\x84\xb6\x10v@'
tRp1434
tp1435
a(S'YP_003044511.1'
p1436
g3
(g5
S'\x91%X\x93\x19Lv@'
tRp1437
tp1438
a(S'YP_003045502.1'
p1439
g3
(g5
S'\r\\8\x1c\xc6qv@'
tRp1440
tp1441
a(S'YP_003044822.1'
p1442
g3
(g5
S'\x16\xf02\xeeJ\x8dv@'
tRp1443
tp1444
a(S'YP_003043968.1'
p1445
g3
(g5
S'B\x1a5\xd0\x87\x8ev@'
tRp1446
tp1447
a(S'YP_003045408.1'
p1448
g3
(g5
S'\x9av5\xb1k\x9bv@'
tRp1449
tp1450
a(S'YP_003046280.1'
p1451
g3
(g5
S'\x9bS\x8d\x07\x08\xa2v@'
tRp1452
tp1453
a(S'YP_003045304.1'
p1454
g3
(g5
S'\xb3R\xb8U[\xb8v@'
tRp1455
tp1456
a(S'YP_003045734.1'
p1457
g3
(g5
S'\n=|\xbdM\xd2v@'
tRp1458
tp1459
a(S'YP_003044509.1'
p1460
g3
(g5
S'!gI\xb1Z\xd9v@'
tRp1461
tp1462
a(S'YP_003045457.1'
p1463
g3
(g5
S'Z\xfa"\x8f\x14\xf4v@'
tRp1464
tp1465
a(S'YP_003045658.1'
p1466
g3
(g5
S'\xe3\x99\xaa\xff\xd7\xfev@'
tRp1467
tp1468
a(S'YP_003047107.1'
p1469
g3
(g5
S'\xfa\xc2\xe9H\x04\x1dw@'
tRp1470
tp1471
a(S'YP_003045613.1'
p1472
g3
(g5
S'A\xb0{xp w@'
tRp1473
tp1474
a(S'YP_003046748.1'
p1475
g3
(g5
S'G\xbc\x8be\x1f,w@'
tRp1476
tp1477
a(S'YP_003045423.1'
p1478
g3
(g5
S'1\x9d\xbe=>2w@'
tRp1479
tp1480
a(S'YP_003046436.1'
p1481
g3
(g5
S'\xc5\xbe\xb0@\xdb@w@'
tRp1482
tp1483
a(S'YP_003045180.1'
p1484
g3
(g5
S'\x0f$\x08\xcd<[w@'
tRp1485
tp1486
a(S'YP_003046999.1'
p1487
g3
(g5
S'\x19\xd3\x82\xef\xf7iw@'
tRp1488
tp1489
a(S'YP_003045418.1'
p1490
g3
(g5
S'\xd7\x92n\x06\x00\x8fw@'
tRp1491
tp1492
a(S'YP_003043320.1'
p1493
g3
(g5
S'\xb2\xd9%9\xc2\xa3w@'
tRp1494
tp1495
a(S'YP_003045729.1'
p1496
g3
(g5
S'\x04e\x1b\xef\xc9\xc6w@'
tRp1497
tp1498
a(S'YP_003043535.1'
p1499
g3
(g5
S'u\x87\x93+\xd5\xc9w@'
tRp1500
tp1501
a(S'YP_003043570.1'
p1502
g3
(g5
S'\x1e\xe5w\x8e\x8a\xebw@'
tRp1503
tp1504
a(S'YP_003044312.1'
p1505
g3
(g5
S'\xb76\x08\xf5\xaf\nx@'
tRp1506
tp1507
a(S'YP_003044437.1'
p1508
g3
(g5
S'\xaf\xc5U\xe4v\x0cx@'
tRp1509
tp1510
a(S'YP_003045920.1'
p1511
g3
(g5
S"\x9a\x12\x1f\xe3\x96'x@"
tRp1512
tp1513
a(S'YP_003046252.1'
p1514
g3
(g5
S'\xc58\xf4\xb2\x042x@'
tRp1515
tp1516
a(S'YP_003044293.1'
p1517
g3
(g5
S'\x91\xa6\x98A\xb2cx@'
tRp1518
tp1519
a(S'YP_003043337.1'
p1520
g3
(g5
S'\xe8t\xadk\x1e\x97x@'
tRp1521
tp1522
a(S'YP_003045406.1'
p1523
g3
(g5
S'D\x02\xea\xdeP\x9bx@'
tRp1524
tp1525
a(S'YP_003045447.1'
p1526
g3
(g5
S'\x89\xed\xf6\x9f\x0b\xa2x@'
tRp1527
tp1528
a(S'YP_003044893.1'
p1529
g3
(g5
S'\x12d\x17\x95p\xd2x@'
tRp1530
tp1531
a(S'YP_003043285.1'
p1532
g3
(g5
S'\t\x85l\xc1J\xdcx@'
tRp1533
tp1534
a(S'YP_003044933.1'
p1535
g3
(g5
S'\xcc\xc7^\xc3#\xe3x@'
tRp1536
tp1537
a(S'YP_003043800.1'
p1538
g3
(g5
S'\xa0\x12Rc\xe6\xf7x@'
tRp1539
tp1540
a(S'YP_003046811.1'
p1541
g3
(g5
S'Z~\n\xbaM\x03y@'
tRp1542
tp1543
a(S'YP_003045291.1'
p1544
g3
(g5
S'\xfb:\xac\x89\x0f\x05y@'
tRp1545
tp1546
a(S'YP_003043259.1'
p1547
g3
(g5
S'\xcf\xd1o\x8aK\x07y@'
tRp1548
tp1549
a(S'YP_003045236.1'
p1550
g3
(g5
S'\xef\xe7\xf2\x00W*y@'
tRp1551
tp1552
a(S'YP_003046148.1'
p1553
g3
(g5
S'\x1f\xba\xf7\xb6\x1f+y@'
tRp1554
tp1555
a(S'YP_003046232.1'
p1556
g3
(g5
S"Y'a'c0y@"
tRp1557
tp1558
a(S'YP_003046907.1'
p1559
g3
(g5
S'v\xbd\x83XvBy@'
tRp1560
tp1561
a(S'YP_003045294.1'
p1562
g3
(g5
S"\xd9'\x01\xc9CHy@"
tRp1563
tp1564
a(S'YP_003045016.1'
p1565
g3
(g5
S'?\xba\xa3\x1a\xdcMy@'
tRp1566
tp1567
a(S'YP_003047286.1'
p1568
g3
(g5
S'\xea;\x83\xd6\x81Sy@'
tRp1569
tp1570
a(S'YP_003044145.1'
p1571
g3
(g5
S'\xab\xa5\x13\xb7\xe6]y@'
tRp1572
tp1573
a(S'YP_003046655.1'
p1574
g3
(g5
S'\x8drj\xaf$\x92y@'
tRp1575
tp1576
a(S'YP_003046839.1'
p1577
g3
(g5
S'\xcb\x92*c\xf0\x94y@'
tRp1578
tp1579
a(S'YP_003046448.1'
p1580
g3
(g5
S'\xd1\xa4h\xff\xea\xa7y@'
tRp1581
tp1582
a(S'YP_003046524.1'
p1583
g3
(g5
S'P\xfb\xf2>\xe0\xbey@'
tRp1584
tp1585
a(S'YP_003044277.1'
p1586
g3
(g5
S'E\x90/\x04\x87\xc7y@'
tRp1587
tp1588
a(S'YP_003046289.1'
p1589
g3
(g5
S'\xde\xf4@v$\xdey@'
tRp1590
tp1591
a(S'YP_003045432.1'
p1592
g3
(g5
S'\xde|\xd0>Z\xe5y@'
tRp1593
tp1594
a(S'YP_003045604.1'
p1595
g3
(g5
S'\x10-Y\xd1\t/z@'
tRp1596
tp1597
a(S'YP_003045256.1'
p1598
g3
(g5
S'\xf0(\xfbvJ/z@'
tRp1599
tp1600
a(S'YP_003044463.1'
p1601
g3
(g5
S'%\x83\xf1\xb8\x9e0z@'
tRp1602
tp1603
a(S'YP_003043630.1'
p1604
g3
(g5
S'\x9d_\xda\x84\xb35z@'
tRp1605
tp1606
a(S'YP_003044850.1'
p1607
g3
(g5
S'\xee\x02\x1d\r\x168z@'
tRp1608
tp1609
a(S'YP_003043377.1'
p1610
g3
(g5
S'\xaf\xf4h\x8eU9z@'
tRp1611
tp1612
a(S'YP_003043844.1'
p1613
g3
(g5
S'\t\xe3\x9a\xa1\xb8Dz@'
tRp1614
tp1615
a(S'YP_003046757.1'
p1616
g3
(g5
S'\x0b<\xfb\x0f\x93gz@'
tRp1617
tp1618
a(S'YP_003046721.1'
p1619
g3
(g5
S'&#9\xa4h\x8az@'
tRp1620
tp1621
a(S'YP_003046843.1'
p1622
g3
(g5
S'\x96\x82\xad\xd7g\xafz@'
tRp1623
tp1624
a(S'YP_003045517.1'
p1625
g3
(g5
S'\x8eS\x85US\xb7z@'
tRp1626
tp1627
a(S'YP_003046212.1'
p1628
g3
(g5
S'9\xbf\x81\xeb\xd0\r{@'
tRp1629
tp1630
a(S'YP_003044753.1'
p1631
g3
(g5
S'g\xf7F3YU{@'
tRp1632
tp1633
a(S'YP_003046673.1'
p1634
g3
(g5
S':\xfa\xc3\xc5m_{@'
tRp1635
tp1636
a(S'YP_003043837.1'
p1637
g3
(g5
S'"\xf5V&.\x98{@'
tRp1638
tp1639
a(S'YP_003047418.1'
p1640
g3
(g5
S'\x017\x87\xc3\xa3\xc0{@'
tRp1641
tp1642
a(S'YP_003046654.1'
p1643
g3
(g5
S'Zi\x95\xee\xb6\xc0{@'
tRp1644
tp1645
a(S'YP_003045863.1'
p1646
g3
(g5
S'\xb9\x1c(.\x9e\xd1{@'
tRp1647
tp1648
a(S'YP_003043829.1'
p1649
g3
(g5
S'\x19\xe7\xe2#\xae\xd4{@'
tRp1650
tp1651
a(S'YP_003043637.1'
p1652
g3
(g5
S'\x8f\xa3\xc8\x8e\xd4\xe4{@'
tRp1653
tp1654
a(S'YP_003044221.1'
p1655
g3
(g5
S'DX\xa8\xdb\xa5\xf4{@'
tRp1656
tp1657
a(S'YP_003047424.1'
p1658
g3
(g5
S'\xaa\xb3\x90\xbf\xa4\xf6{@'
tRp1659
tp1660
a(S'YP_003045139.1'
p1661
g3
(g5
S'\x7f\x87\x8f\t\xbd\xfd{@'
tRp1662
tp1663
a(S'YP_003044741.1'
p1664
g3
(g5
S'v\xe4"d\x19+|@'
tRp1665
tp1666
a(S'YP_003046391.1'
p1667
g3
(g5
S'2~\xe1\xf1\x1d+|@'
tRp1668
tp1669
a(S'YP_003044808.1'
p1670
g3
(g5
S'\xdf\xdd\xad\x05\xdf4|@'
tRp1671
tp1672
a(S'YP_003044979.1'
p1673
g3
(g5
S'\xd1\x99@\x19j@|@'
tRp1674
tp1675
a(S'YP_003047248.1'
p1676
g3
(g5
S')\xa7TfTH|@'
tRp1677
tp1678
a(S'YP_003044820.1'
p1679
g3
(g5
S'\xe3\xb8\xf5\x08{U|@'
tRp1680
tp1681
a(S'YP_003047379.1'
p1682
g3
(g5
S',\xf9\x17i\xf4Z|@'
tRp1683
tp1684
a(S'YP_003046354.1'
p1685
g3
(g5
S'\x92\xad\xb5\x9d\x92l|@'
tRp1686
tp1687
a(S'YP_003047376.1'
p1688
g3
(g5
S'\xc6\xaf\xdc\xf8\xcd||@'
tRp1689
tp1690
a(S'YP_003044925.1'
p1691
g3
(g5
S' mw\xbc\xe9\x96|@'
tRp1692
tp1693
a(S'YP_003043445.1'
p1694
g3
(g5
S'\xbb\xb6\xb3\xb1\xc4\xb0|@'
tRp1695
tp1696
a(S'YP_003045747.1'
p1697
g3
(g5
S'\xab\xdd\xa7\xcfF\xc5|@'
tRp1698
tp1699
a(S'YP_003046969.1'
p1700
g3
(g5
S'i4U|\x9b\xf3|@'
tRp1701
tp1702
a(S'YP_003046282.1'
p1703
g3
(g5
S'|\xc5\x95\xda\x7f\xf9|@'
tRp1704
tp1705
a(S'YP_003044020.1'
p1706
g3
(g5
S'\x9dD>n\xae\x01}@'
tRp1707
tp1708
a(S'YP_003044292.1'
p1709
g3
(g5
S'A\x82\x8b\xd8\xbd\x0e}@'
tRp1710
tp1711
a(S'YP_003045654.1'
p1712
g3
(g5
S'V\x0cA\x01x\x1e}@'
tRp1713
tp1714
a(S'YP_003043980.1'
p1715
g3
(g5
S'h\xbb\xe91\xd9_}@'
tRp1716
tp1717
a(S'YP_003044124.1'
p1718
g3
(g5
S'\x1c\xfe\x8dxfy}@'
tRp1719
tp1720
a(S'YP_003043538.1'
p1721
g3
(g5
S'*)\xa5~\xc8\x91}@'
tRp1722
tp1723
a(S'YP_003044844.1'
p1724
g3
(g5
S'\xc8\xba\x8f\xac\x14\x9a}@'
tRp1725
tp1726
a(S'YP_003046908.1'
p1727
g3
(g5
S'f\x95\x06\x8d\x08\xda}@'
tRp1728
tp1729
a(S'YP_003046175.1'
p1730
g3
(g5
S'\x9d(a\xc9\x03O~@'
tRp1731
tp1732
a(S'YP_003045029.1'
p1733
g3
(g5
S'\xb0\xcc\x1c\xae \xa1~@'
tRp1734
tp1735
a(S'YP_003044995.1'
p1736
g3
(g5
S'L\x82\x063\xa8\xc9~@'
tRp1737
tp1738
a(S'YP_003045489.1'
p1739
g3
(g5
S'7f\x94\xd3\xe6\xf7~@'
tRp1740
tp1741
a(S'YP_003044108.1'
p1742
g3
(g5
S'\xc4\xd5yH\xa4m\x7f@'
tRp1743
tp1744
a(S'YP_003045166.1'
p1745
g3
(g5
S'\x01\xee8/\x16w\x7f@'
tRp1746
tp1747
a(S'YP_003043654.1'
p1748
g3
(g5
S'\x88\xa7\x87\xf4\xc6\x94\x7f@'
tRp1749
tp1750
a(S'YP_003043340.1'
p1751
g3
(g5
S'z\xd5\x9e\x12\xa2\x99\x7f@'
tRp1752
tp1753
a(S'YP_003045246.1'
p1754
g3
(g5
S'\xb5\x1a&!\t\xdb\x7f@'
tRp1755
tp1756
a(S'YP_003045921.1'
p1757
g3
(g5
S'\xd0\xd7\xa9}\xf5\xff\x7f@'
tRp1758
tp1759
a(S'YP_003046109.1'
p1760
g3
(g5
S'\xa0\xf8 \xb4D\t\x80@'
tRp1761
tp1762
a(S'YP_003046337.1'
p1763
g3
(g5
S'\xdb\x97\x94}p\r\x80@'
tRp1764
tp1765
a(S'YP_003044132.1'
p1766
g3
(g5
S',\x8b\xd9GQ\x11\x80@'
tRp1767
tp1768
a(S'YP_003043818.1'
p1769
g3
(g5
S'\x15\xbd\xf9\xe9\xca\x1e\x80@'
tRp1770
tp1771
a(S'YP_003044851.1'
p1772
g3
(g5
S'\xc4lW\x87\xc9)\x80@'
tRp1773
tp1774
a(S'YP_003046982.1'
p1775
g3
(g5
S'\xe2\xbf`\xb4"=\x80@'
tRp1776
tp1777
a(S'YP_003046066.1'
p1778
g3
(g5
S'\x15\x9f\xd1)\xe6B\x80@'
tRp1779
tp1780
a(S'YP_003044896.1'
p1781
g3
(g5
S'\x19?1\xb8\xc6P\x80@'
tRp1782
tp1783
a(S'YP_003043341.1'
p1784
g3
(g5
S'\xd3\xcfp3u[\x80@'
tRp1785
tp1786
a(S'YP_003045140.1'
p1787
g3
(g5
S'\xd7\r0\x86\xa0k\x80@'
tRp1788
tp1789
a(S'YP_003046013.1'
p1790
g3
(g5
S'\xe5\x82\x18\x92\xc4l\x80@'
tRp1791
tp1792
a(S'YP_003046338.1'
p1793
g3
(g5
S'C<\xa1\xd7\x84\x84\x80@'
tRp1794
tp1795
a(S'YP_003045668.1'
p1796
g3
(g5
S'?\xb5\x18\x92\x7f\x8c\x80@'
tRp1797
tp1798
a(S'YP_003044278.1'
p1799
g3
(g5
S'\xc5\x92\x9c\xc3\x1f\x94\x80@'
tRp1800
tp1801
a(S'YP_003045271.1'
p1802
g3
(g5
S'}\xc1\x8e\xf4\xd5\x95\x80@'
tRp1803
tp1804
a(S'YP_003046760.1'
p1805
g3
(g5
S'Z\xca\x02\x8d\x88\xac\x80@'
tRp1806
tp1807
a(S'YP_003046433.1'
p1808
g3
(g5
S'\xc8\xf8\x12GY\xb2\x80@'
tRp1809
tp1810
a(S'YP_003046085.1'
p1811
g3
(g5
S'\x1ap\xc2h\xf8\xb8\x80@'
tRp1812
tp1813
a(S'YP_003046227.1'
p1814
g3
(g5
S'\x08\xc8\x92\xc1+\xcd\x80@'
tRp1815
tp1816
a(S'YP_003046443.1'
p1817
g3
(g5
S'\x83L\x92\x19n\xde\x80@'
tRp1818
tp1819
a(S'YP_003043379.1'
p1820
g3
(g5
S'\x8b\xa3\xa1\x92.\xfb\x80@'
tRp1821
tp1822
a(S'YP_003047187.1'
p1823
g3
(g5
S'i\xae{;\xab\x00\x81@'
tRp1824
tp1825
a(S'YP_003046291.1'
p1826
g3
(g5
S'\t{P\xa8\x14%\x81@'
tRp1827
tp1828
a(S'YP_003044377.1'
p1829
g3
(g5
S't=.\xbb\xd93\x81@'
tRp1830
tp1831
a(S'YP_003043580.1'
p1832
g3
(g5
S'\x86\xac\x11\xd0@8\x81@'
tRp1833
tp1834
a(S'YP_003045073.1'
p1835
g3
(g5
S'\xd3\x8d\xd8\x0e\xe0=\x81@'
tRp1836
tp1837
a(S'YP_003043777.1'
p1838
g3
(g5
S'\xc7k\xe9\x17\xadA\x81@'
tRp1839
tp1840
a(S'YP_003044303.1'
p1841
g3
(g5
S'0\x12xZ\xb6H\x81@'
tRp1842
tp1843
a(S'YP_003043333.1'
p1844
g3
(g5
S'\x06\x9c\x86\x82\x83v\x81@'
tRp1845
tp1846
a(S'YP_003045610.1'
p1847
g3
(g5
S'\xb2U \xb1|\x7f\x81@'
tRp1848
tp1849
a(S'YP_003043595.1'
p1850
g3
(g5
S'\x9d\xcc\xf5?\xd6\x82\x81@'
tRp1851
tp1852
a(S'YP_003043347.1'
p1853
g3
(g5
S'\x05\xb3\xae\xc5\xd2\x8e\x81@'
tRp1854
tp1855
a(S'YP_003047023.1'
p1856
g3
(g5
S'\xab=su\x94\x91\x81@'
tRp1857
tp1858
a(S'YP_003045547.1'
p1859
g3
(g5
S'\xb98\xe4\xd3\xc6\x93\x81@'
tRp1860
tp1861
a(S'YP_003046141.1'
p1862
g3
(g5
S'\xc1\xb0\xef\xd0t\x94\x81@'
tRp1863
tp1864
a(S'YP_003046923.1'
p1865
g3
(g5
S'\xbc\xf4\xa2\x03\x9b\x9b\x81@'
tRp1866
tp1867
a(S'YP_003046998.1'
p1868
g3
(g5
S'\xfa6\xf0\x1e\xe3\x9e\x81@'
tRp1869
tp1870
a(S'YP_003044378.1'
p1871
g3
(g5
S'\xad!\xefb\xd3\xa3\x81@'
tRp1872
tp1873
a(S'YP_003043928.1'
p1874
g3
(g5
S'\xae\xd2\x9dt\x95\xa6\x81@'
tRp1875
tp1876
a(S'YP_003044399.1'
p1877
g3
(g5
S'\xe5\xc6\xa3\xc8\x15\xa7\x81@'
tRp1878
tp1879
a(S'YP_003045688.1'
p1880
g3
(g5
S'\xc0\x91\xc30\xb7\xc0\x81@'
tRp1881
tp1882
a(S'YP_003045554.1'
p1883
g3
(g5
S'\xdc\x96F\x7f\xe7\xfd\x81@'
tRp1884
tp1885
a(S'YP_003045556.1'
p1886
g3
(g5
S'16\x84-\xb4\xff\x81@'
tRp1887
tp1888
a(S'YP_003045824.1'
p1889
g3
(g5
S'\r\x075\x02\xa5\x07\x82@'
tRp1890
tp1891
a(S'YP_003043594.1'
p1892
g3
(g5
S'L\x93\x10/\xf3\x15\x82@'
tRp1893
tp1894
a(S'YP_003045358.1'
p1895
g3
(g5
S'\xbeT\x05\xfd\xe3\x17\x82@'
tRp1896
tp1897
a(S'YP_003044810.1'
p1898
g3
(g5
S'\x1f\xed\xd0\x9c\xe4-\x82@'
tRp1899
tp1900
a(S'YP_003045910.1'
p1901
g3
(g5
S'\x198\xbb\x82S6\x82@'
tRp1902
tp1903
a(S'YP_003046684.1'
p1904
g3
(g5
S'6J\xebWWJ\x82@'
tRp1905
tp1906
a(S'YP_003046345.1'
p1907
g3
(g5
S'7\x16|\xca\xda]\x82@'
tRp1908
tp1909
a(S'YP_003044323.1'
p1910
g3
(g5
S'P y\xe2\x9bb\x82@'
tRp1911
tp1912
a(S'YP_003045306.1'
p1913
g3
(g5
S'@T\xea\xceWi\x82@'
tRp1914
tp1915
a(S'YP_003044270.1'
p1916
g3
(g5
S"m\xf8\x8d\x81'u\x82@"
tRp1917
tp1918
a(S'YP_003046990.1'
p1919
g3
(g5
S'\xdd\xc0H\x9a\x9au\x82@'
tRp1920
tp1921
a(S'YP_003046095.1'
p1922
g3
(g5
S'\x15pM\x80T\x9e\x82@'
tRp1923
tp1924
a(S'YP_003044388.1'
p1925
g3
(g5
S'\x88\x85X16\xb9\x82@'
tRp1926
tp1927
a(S'YP_003043756.1'
p1928
g3
(g5
S'\xdc\xae`\x1e\xbb\xb9\x82@'
tRp1929
tp1930
a(S'YP_003043262.1'
p1931
g3
(g5
S'c\xd9\x91k\xbd\xc8\x82@'
tRp1932
tp1933
a(S'YP_003046866.1'
p1934
g3
(g5
S'\xd2J\xa2\x94\xe0\xd4\x82@'
tRp1935
tp1936
a(S'YP_003044645.1'
p1937
g3
(g5
S'\x8aF\x10l{\xe9\x82@'
tRp1938
tp1939
a(S'YP_003043639.1'
p1940
g3
(g5
S'UI50\xd3\xeb\x82@'
tRp1941
tp1942
a(S'YP_003045608.1'
p1943
g3
(g5
S'\xb6yF\x06\xb1\xff\x82@'
tRp1944
tp1945
a(S'YP_003044836.1'
p1946
g3
(g5
S'\x9f\x94\xd6\x84\x00\x01\x83@'
tRp1947
tp1948
a(S'YP_003044915.1'
p1949
g3
(g5
S'\xa7\x05\x107N\x05\x83@'
tRp1950
tp1951
a(S'YP_003045178.1'
p1952
g3
(g5
S'\x9b\xa8\x88y\x15\x18\x83@'
tRp1953
tp1954
a(S'YP_003044986.1'
p1955
g3
(g5
S'\x11\xe8:E?3\x83@'
tRp1956
tp1957
a(S'YP_003044296.1'
p1958
g3
(g5
S'\xc5\xfc\xea\xe4\x843\x83@'
tRp1959
tp1960
a(S'YP_003046464.1'
p1961
g3
(g5
S'NN\xeb\xdc\xe5@\x83@'
tRp1962
tp1963
a(S'YP_003047272.1'
p1964
g3
(g5
S'\xca\xd2\x9f\x9bxV\x83@'
tRp1965
tp1966
a(S'YP_003044884.1'
p1967
g3
(g5
S'b\x8f\xed\xf7\xc8\\\x83@'
tRp1968
tp1969
a(S'YP_003043288.1'
p1970
g3
(g5
S"\xc6\x98'\x1b\xab_\x83@"
tRp1971
tp1972
a(S'YP_003046784.1'
p1973
g3
(g5
S'\x0c\x06\xd6\xe1\xac{\x83@'
tRp1974
tp1975
a(S'YP_003045656.1'
p1976
g3
(g5
S'\x80\x86\xe3\xe9X\x81\x83@'
tRp1977
tp1978
a(S'YP_003046002.1'
p1979
g3
(g5
S'(\x1a\\v\xb3\x89\x83@'
tRp1980
tp1981
a(S'YP_003046838.1'
p1982
g3
(g5
S'?\\\xd7\xad\xf6\x9f\x83@'
tRp1983
tp1984
a(S'YP_003046156.1'
p1985
g3
(g5
S'H\xf4\xe6\xfc\xef\xac\x83@'
tRp1986
tp1987
a(S'YP_003046675.1'
p1988
g3
(g5
S'\x8b\xbefNi\xb8\x83@'
tRp1989
tp1990
a(S'YP_003045659.1'
p1991
g3
(g5
S'\xe9]\x82\x9a\x8f\xcb\x83@'
tRp1992
tp1993
a(S'YP_003046152.1'
p1994
g3
(g5
S'\x1c\xa4\xe1\x17\x12\xcc\x83@'
tRp1995
tp1996
a(S'YP_003043899.1'
p1997
g3
(g5
S'\x98n`\xd8U\xdc\x83@'
tRp1998
tp1999
a(S'YP_003045828.1'
p2000
g3
(g5
S'\xb9\xcb\xf3\xbc\xe2\xdc\x83@'
tRp2001
tp2002
a(S'YP_003046330.1'
p2003
g3
(g5
S'\r\x06B\xc6n\xe8\x83@'
tRp2004
tp2005
a(S'YP_003043316.1'
p2006
g3
(g5
S'\xab&/p\x95\xf9\x83@'
tRp2007
tp2008
a(S'YP_003045954.1'
p2009
g3
(g5
S'\x911#\xc63\x02\x84@'
tRp2010
tp2011
a(S'YP_003043283.1'
p2012
g3
(g5
S'\xb2\xeeI\x90\x90\x17\x84@'
tRp2013
tp2014
a(S'YP_003047195.1'
p2015
g3
(g5
S'=\x07\x9b_\xe3\x1c\x84@'
tRp2016
tp2017
a(S'YP_003043428.1'
p2018
g3
(g5
S'Z\x90F\xd7\xed*\x84@'
tRp2019
tp2020
a(S'YP_003043932.1'
p2021
g3
(g5
S'\x9a\xa8\x9f\x97\xdb;\x84@'
tRp2022
tp2023
a(S'YP_003046837.1'
p2024
g3
(g5
S'\xda\xb2\x0c\x06\xb5<\x84@'
tRp2025
tp2026
a(S'YP_003046856.1'
p2027
g3
(g5
S'N\xb2\x8f.\xa1m\x84@'
tRp2028
tp2029
a(S'YP_003044174.1'
p2030
g3
(g5
S'l\x13\x96\x95\x14}\x84@'
tRp2031
tp2032
a(S'YP_003044367.1'
p2033
g3
(g5
S'\xab\xd4\xf4\x97L}\x84@'
tRp2034
tp2035
a(S'YP_003046421.1'
p2036
g3
(g5
S'x\xc6I1\x88\x84\x84@'
tRp2037
tp2038
a(S'YP_003043967.1'
p2039
g3
(g5
S'\x12\xf6\xa0,\xa4\xa7\x84@'
tRp2040
tp2041
a(S'YP_003047279.1'
p2042
g3
(g5
S'\xed\x1cm\xb2D\xd1\x84@'
tRp2043
tp2044
a(S'YP_003044679.1'
p2045
g3
(g5
S'\xa8\xa0\x8a\x023\xd8\x84@'
tRp2046
tp2047
a(S'YP_003044878.1'
p2048
g3
(g5
S'\xe5\x075hn\xef\x84@'
tRp2049
tp2050
a(S'YP_003043324.1'
p2051
g3
(g5
S'\xa8\xb0\xa2B\xd2\xef\x84@'
tRp2052
tp2053
a(S'YP_003043318.1'
p2054
g3
(g5
S'\xf4\x16\xe2\xa5?\x10\x85@'
tRp2055
tp2056
a(S'YP_003046495.1'
p2057
g3
(g5
S'\xc2l\xac\xfcC\x16\x85@'
tRp2058
tp2059
a(S'YP_003044561.1'
p2060
g3
(g5
S'Y\x1d\x156\xf0#\x85@'
tRp2061
tp2062
a(S'YP_003046496.1'
p2063
g3
(g5
S'>i&^\xc7)\x85@'
tRp2064
tp2065
a(S'YP_003044792.1'
p2066
g3
(g5
S'\xed\x90\xf6_KZ\x85@'
tRp2067
tp2068
a(S'YP_003044856.1'
p2069
g3
(g5
S'\xfbz\xa4+\x06\x96\x85@'
tRp2070
tp2071
a(S'YP_003046279.1'
p2072
g3
(g5
S'\xd0n\x1d\xb8t\x9a\x85@'
tRp2073
tp2074
a(S'YP_003045650.1'
p2075
g3
(g5
S'hW\xa0pj\xb5\x85@'
tRp2076
tp2077
a(S'YP_003046572.1'
p2078
g3
(g5
S'\x7f\x08Nm\xcb\xc8\x85@'
tRp2079
tp2080
a(S'YP_003044370.1'
p2081
g3
(g5
S'B\xb4\xbc\xa9!\xc9\x85@'
tRp2082
tp2083
a(S'YP_003045597.1'
p2084
g3
(g5
S'\xe3\x1e\xc5Wi\xf8\x85@'
tRp2085
tp2086
a(S'YP_003043657.1'
p2087
g3
(g5
S'-~i\xedQ\x02\x86@'
tRp2088
tp2089
a(S'YP_003045706.1'
p2090
g3
(g5
S'\x99\xff \xef\xbc\x05\x86@'
tRp2091
tp2092
a(S'YP_003044806.1'
p2093
g3
(g5
S'SI\\\xd7\xa3\x15\x86@'
tRp2094
tp2095
a(S'YP_003045456.1'
p2096
g3
(g5
S'i\xe3\x99\xf4\x0e\x18\x86@'
tRp2097
tp2098
a(S'YP_003043989.1'
p2099
g3
(g5
S'\x19x#m\x8f\x1f\x86@'
tRp2100
tp2101
a(S'YP_003043426.1'
p2102
g3
(g5
S'\xccwYY\xf3\x1f\x86@'
tRp2103
tp2104
a(S'YP_003046900.1'
p2105
g3
(g5
S'\xd3&\xab\x9f\x87(\x86@'
tRp2106
tp2107
a(S'YP_003046461.1'
p2108
g3
(g5
S'd\xf3<\xca\t*\x86@'
tRp2109
tp2110
a(S'YP_003045558.1'
p2111
g3
(g5
S'\xc0\x08\xec+\xcf7\x86@'
tRp2112
tp2113
a(S'YP_003045141.1'
p2114
g3
(g5
S'\x87s=\xe4\x12F\x86@'
tRp2115
tp2116
a(S'YP_003047201.1'
p2117
g3
(g5
S'.\x17J\xd6Kb\x86@'
tRp2118
tp2119
a(S'YP_003045925.1'
p2120
g3
(g5
S'\xb9\xad\x838Vs\x86@'
tRp2121
tp2122
a(S'YP_003046001.1'
p2123
g3
(g5
S'\xba\xa4\xe5$\x93~\x86@'
tRp2124
tp2125
a(S'YP_003043854.1'
p2126
g3
(g5
S'\x08\x00M\xe6\xbd\x7f\x86@'
tRp2127
tp2128
a(S'YP_003045309.1'
p2129
g3
(g5
S'A\xba\xd9\x1d\xc6\x7f\x86@'
tRp2130
tp2131
a(S'YP_003045255.1'
p2132
g3
(g5
S'DW%\xa0`\x80\x86@'
tRp2133
tp2134
a(S'YP_003045421.1'
p2135
g3
(g5
S'"+o]\x84\x9f\x86@'
tRp2136
tp2137
a(S'YP_003045044.1'
p2138
g3
(g5
S'\x12V\x16\x87\xe5\xa1\x86@'
tRp2139
tp2140
a(S'YP_003044249.1'
p2141
g3
(g5
S'\x1c\x15\xb6&\x98\xa2\x86@'
tRp2142
tp2143
a(S'YP_003043398.1'
p2144
g3
(g5
S'\xdd\x18\xa7r\xbd\xc5\x86@'
tRp2145
tp2146
a(S'YP_003043924.1'
p2147
g3
(g5
S'\xc8\x86\xda\x89\x8e\xd4\x86@'
tRp2148
tp2149
a(S'YP_003043569.1'
p2150
g3
(g5
S'~d\x9f-]\xdb\x86@'
tRp2151
tp2152
a(S'YP_003046531.1'
p2153
g3
(g5
S'\x1c7\\5\xd5\xe7\x86@'
tRp2154
tp2155
a(S'YP_003044005.1'
p2156
g3
(g5
S'n\xeeyB\xcf\xf1\x86@'
tRp2157
tp2158
a(S'YP_003045032.1'
p2159
g3
(g5
S'\xfd\x8a\xf8\xb4m\xf2\x86@'
tRp2160
tp2161
a(S'YP_003043910.1'
p2162
g3
(g5
S')\xcao\x14\x10\x06\x87@'
tRp2163
tp2164
a(S'YP_003044290.1'
p2165
g3
(g5
S'\xf6\xea;U1\x0b\x87@'
tRp2166
tp2167
a(S'YP_003047321.1'
p2168
g3
(g5
S'\xb2\x1f\xfd-\x1d\x1e\x87@'
tRp2169
tp2170
a(S'YP_003046573.1'
p2171
g3
(g5
S'\xeb\xa3vu\xb5#\x87@'
tRp2172
tp2173
a(S'YP_003045398.1'
p2174
g3
(g5
S'\xcc\x8d5\xe9E&\x87@'
tRp2175
tp2176
a(S'YP_003045121.1'
p2177
g3
(g5
S'\xd8i\xde\xc3\xa3,\x87@'
tRp2178
tp2179
a(S'YP_003044472.1'
p2180
g3
(g5
S'\xf4\xca\x82\xa4U0\x87@'
tRp2181
tp2182
a(S'YP_003044973.1'
p2183
g3
(g5
S'\x1d\xff\xc29\x0c9\x87@'
tRp2184
tp2185
a(S'YP_003045829.1'
p2186
g3
(g5
S'U\x9bM\x8a\xea?\x87@'
tRp2187
tp2188
a(S'YP_003046098.1'
p2189
g3
(g5
S'\xbc9\xe1\xc9IH\x87@'
tRp2190
tp2191
a(S'YP_003046343.1'
p2192
g3
(g5
S'\xb5E/P\xf9_\x87@'
tRp2193
tp2194
a(S'YP_003047271.1'
p2195
g3
(g5
S'4l@\xf6\xf7p\x87@'
tRp2196
tp2197
a(S'YP_003043958.1'
p2198
g3
(g5
S'\xe9M\xc8\xef;|\x87@'
tRp2199
tp2200
a(S'YP_003047406.1'
p2201
g3
(g5
S'\x19\x8by\xb4w\xa8\x87@'
tRp2202
tp2203
a(S'YP_003043823.1'
p2204
g3
(g5
S'<\x8d\xa9~L\xab\x87@'
tRp2205
tp2206
a(S'YP_003046236.1'
p2207
g3
(g5
S'1\xe6\xad\xba\xca\xb3\x87@'
tRp2208
tp2209
a(S'YP_003044829.1'
p2210
g3
(g5
S'd^*Z\xd5\xbf\x87@'
tRp2211
tp2212
a(S'YP_003046862.1'
p2213
g3
(g5
S'\xa0\x99\xd3\xdd\xa1\xce\x87@'
tRp2214
tp2215
a(S'YP_003045913.1'
p2216
g3
(g5
S'!\x9e\x07\x8b\xa7\xe0\x87@'
tRp2217
tp2218
a(S'YP_003043853.1'
p2219
g3
(g5
S'\xfb1&\xdf\xf7\xe6\x87@'
tRp2220
tp2221
a(S'YP_003045841.1'
p2222
g3
(g5
S'\xa9\x8d\x81D\xc4\xed\x87@'
tRp2223
tp2224
a(S'YP_003046925.1'
p2225
g3
(g5
S'\xb7\t\xd9iM\xf8\x87@'
tRp2226
tp2227
a(S'YP_003044812.1'
p2228
g3
(g5
S'\x00\x1c\xd4r\xc6\x1f\x88@'
tRp2229
tp2230
a(S'YP_003043315.1'
p2231
g3
(g5
S"\x82\xe4\xd1'N1\x88@"
tRp2232
tp2233
a(S'YP_003043507.1'
p2234
g3
(g5
S'\x8f\x95#efa\x88@'
tRp2235
tp2236
a(S'YP_003043582.1'
p2237
g3
(g5
S'q\x10v\xd1Bd\x88@'
tRp2238
tp2239
a(S'YP_003044140.1'
p2240
g3
(g5
S'\xa3\x0b\xcd\xee%h\x88@'
tRp2241
tp2242
a(S'YP_003047047.1'
p2243
g3
(g5
S'\x140\xc3\x81\x80m\x88@'
tRp2244
tp2245
a(S'YP_003043930.1'
p2246
g3
(g5
S'eYZVn\x99\x88@'
tRp2247
tp2248
a(S'YP_003047019.1'
p2249
g3
(g5
S'\x94\xb0\x87y\xaa\xab\x88@'
tRp2250
tp2251
a(S'YP_003045396.1'
p2252
g3
(g5
S'V&\x13&I\xb5\x88@'
tRp2253
tp2254
a(S'YP_003045605.1'
p2255
g3
(g5
S'\x8c\x8f\xa14|\xb7\x88@'
tRp2256
tp2257
a(S'YP_003046254.1'
p2258
g3
(g5
S'\x1f\xb0\xab\xe8\xd6\xd4\x88@'
tRp2259
tp2260
a(S'YP_003044462.1'
p2261
g3
(g5
S'c\xd7\xdb`\x8f\xd8\x88@'
tRp2262
tp2263
a(S'YP_003045911.1'
p2264
g3
(g5
S'n\\\tq\x04\xf7\x88@'
tRp2265
tp2266
a(S'YP_003043855.1'
p2267
g3
(g5
S'\x00\xb3O\xed\xc5\x0c\x89@'
tRp2268
tp2269
a(S'YP_003043608.1'
p2270
g3
(g5
S'2\x89\x06\xc3\x05\x18\x89@'
tRp2271
tp2272
a(S'YP_003047080.1'
p2273
g3
(g5
S'\x14\xc6\\\xdd\x9d+\x89@'
tRp2274
tp2275
a(S'YP_003045987.1'
p2276
g3
(g5
S'\xd3\xa4\n\x1d\xe1.\x89@'
tRp2277
tp2278
a(S'YP_003046317.1'
p2279
g3
(g5
S'`\xd1\x94\xca\x8f9\x89@'
tRp2280
tp2281
a(S'YP_003043587.1'
p2282
g3
(g5
S'V\x01"\xcf,F\x89@'
tRp2283
tp2284
a(S'YP_003045732.1'
p2285
g3
(g5
S'\xa7\xa2\xf3[DG\x89@'
tRp2286
tp2287
a(S'YP_003045665.1'
p2288
g3
(g5
S'\x8f\xfd4\xc2GL\x89@'
tRp2289
tp2290
a(S'YP_003045523.1'
p2291
g3
(g5
S'\x95\x0fD\xcc\x99U\x89@'
tRp2292
tp2293
a(S'YP_003043914.1'
p2294
g3
(g5
S'\xd4\xf5\xb3\x0cNg\x89@'
tRp2295
tp2296
a(S'YP_003043352.1'
p2297
g3
(g5
S'\x1d\xefR\x1dwo\x89@'
tRp2298
tp2299
a(S'YP_003047432.1'
p2300
g3
(g5
S'B8\x96V\x81o\x89@'
tRp2301
tp2302
a(S'YP_003044093.1'
p2303
g3
(g5
S'J\xd6o`\x95\x8d\x89@'
tRp2304
tp2305
a(S'YP_003044459.1'
p2306
g3
(g5
S'\x8c@\xcb\xd9\x19\xd1\x89@'
tRp2307
tp2308
a(S'YP_003047020.1'
p2309
g3
(g5
S'\xb1\x0f\\\x95\xa8\xef\x89@'
tRp2310
tp2311
a(S'YP_003046465.1'
p2312
g3
(g5
S'\xbdSk\xa8\xc3\x1d\x8a@'
tRp2313
tp2314
a(S'YP_003046124.1'
p2315
g3
(g5
S'oX\xca\x9dR!\x8a@'
tRp2316
tp2317
a(S'YP_003046788.1'
p2318
g3
(g5
S'b\x9db\x92\x02(\x8a@'
tRp2319
tp2320
a(S'YP_003045382.1'
p2321
g3
(g5
S' \xb8\xd8J\x0e/\x8a@'
tRp2322
tp2323
a(S'YP_003046851.1'
p2324
g3
(g5
S'(h(\x00\xfaD\x8a@'
tRp2325
tp2326
a(S'YP_003046030.1'
p2327
g3
(g5
S'\x918\xd9\x95\xffa\x8a@'
tRp2328
tp2329
a(S'YP_003046069.1'
p2330
g3
(g5
S'3\x04Q\xde\xbfr\x8a@'
tRp2331
tp2332
a(S'YP_003045446.1'
p2333
g3
(g5
S'\xe5\xd99<\xddw\x8a@'
tRp2334
tp2335
a(S'YP_003045353.1'
p2336
g3
(g5
S'_S\x11l\xb1x\x8a@'
tRp2337
tp2338
a(S'YP_003044493.1'
p2339
g3
(g5
S'\x9cv\xf7y[\x82\x8a@'
tRp2340
tp2341
a(S'YP_003046911.1'
p2342
g3
(g5
S'{\x18\x1e`\xfc\x89\x8a@'
tRp2343
tp2344
a(S'YP_003047433.1'
p2345
g3
(g5
S'\x86\x00\xca\xbbt\x99\x8a@'
tRp2346
tp2347
a(S'YP_003044176.1'
p2348
g3
(g5
S'\xd0@\xcc\xb5"\xae\x8a@'
tRp2349
tp2350
a(S'YP_003046292.1'
p2351
g3
(g5
S'\xab;\xd9\xd3\xcb\xb2\x8a@'
tRp2352
tp2353
a(S'YP_003044783.1'
p2354
g3
(g5
S'\x18\x80oU\x9b\xc7\x8a@'
tRp2355
tp2356
a(S'YP_003046319.1'
p2357
g3
(g5
S'\x87\xcd\xa2v\x05\xea\x8a@'
tRp2358
tp2359
a(S'YP_003043235.1'
p2360
g3
(g5
S'\xb6\xb3\xef\xc5\xda\xeb\x8a@'
tRp2361
tp2362
a(S'YP_003047200.1'
p2363
g3
(g5
S'n\xab\x04o\x80\x14\x8b@'
tRp2364
tp2365
a(S'YP_003043330.1'
p2366
g3
(g5
S'\xa9\\\x9b4\xcb \x8b@'
tRp2367
tp2368
a(S'YP_003046424.1'
p2369
g3
(g5
S"'\x0b\xa2\xce\xd2B\x8b@"
tRp2370
tp2371
a(S'YP_003047085.1'
p2372
g3
(g5
S'\x93\xecR\x0fFG\x8b@'
tRp2373
tp2374
a(S'YP_003045679.1'
p2375
g3
(g5
S'\xdf\xc5$\x8b\xf1U\x8b@'
tRp2376
tp2377
a(S'YP_003044464.1'
p2378
g3
(g5
S'\xc9\x05\xd6\x8c{`\x8b@'
tRp2379
tp2380
a(S'YP_003043863.1'
p2381
g3
(g5
S'\x9eU\xd2*:k\x8b@'
tRp2382
tp2383
a(S'YP_003043927.1'
p2384
g3
(g5
S'WS\xa6N\xe3m\x8b@'
tRp2385
tp2386
a(S'YP_003046854.1'
p2387
g3
(g5
S'\xban\xe8mi\x96\x8b@'
tRp2388
tp2389
a(S'YP_003045595.1'
p2390
g3
(g5
S'\xdaU;\xe0\x8d\x98\x8b@'
tRp2391
tp2392
a(S'YP_003046349.1'
p2393
g3
(g5
S'\x87\xe4J\xcdz\x9c\x8b@'
tRp2394
tp2395
a(S'YP_003044833.1'
p2396
g3
(g5
S'}W*\xeb\xe4\xa3\x8b@'
tRp2397
tp2398
a(S'YP_003045651.1'
p2399
g3
(g5
S'_\x16HS\xe2\xad\x8b@'
tRp2400
tp2401
a(S'YP_003043321.1'
p2402
g3
(g5
S'\xd0I\xe5u\xed\xad\x8b@'
tRp2403
tp2404
a(S'YP_003044167.1'
p2405
g3
(g5
S'\x10i\xed\xd4\xae\xbb\x8b@'
tRp2406
tp2407
a(S'YP_003046474.1'
p2408
g3
(g5
S'\x1a\xf7\x85\xe45\xca\x8b@'
tRp2409
tp2410
a(S'YP_003045678.1'
p2411
g3
(g5
S'\xc0\xdf\xe8\x06_\xd5\x8b@'
tRp2412
tp2413
a(S'YP_003044700.1'
p2414
g3
(g5
S'\xc25\xa0\xcf\xe9\xf6\x8b@'
tRp2415
tp2416
a(S'YP_003043281.1'
p2417
g3
(g5
S'4#<9\xc4\xf7\x8b@'
tRp2418
tp2419
a(S'YP_003044894.1'
p2420
g3
(g5
S'8\x08\x07\xdad\t\x8c@'
tRp2421
tp2422
a(S'YP_003046333.1'
p2423
g3
(g5
S'i\xab%2]L\x8c@'
tRp2424
tp2425
a(S'YP_003045652.1'
p2426
g3
(g5
S'\xd3w\xf9P\x0cW\x8c@'
tRp2427
tp2428
a(S'YP_003046255.1'
p2429
g3
(g5
S'\xd0\xc2\xd5[\x1e^\x8c@'
tRp2430
tp2431
a(S'YP_003046425.1'
p2432
g3
(g5
S'\xe8?\xbc\xee\xbd\x84\x8c@'
tRp2433
tp2434
a(S'YP_003045615.1'
p2435
g3
(g5
S'\x81\xcc9\x11\x1a\x9e\x8c@'
tRp2436
tp2437
a(S'YP_003044151.1'
p2438
g3
(g5
S'\xf1p\xc0\xfbS\x9e\x8c@'
tRp2439
tp2440
a(S'YP_003043546.1'
p2441
g3
(g5
S'\xdb\x04\xe7?\x1b\xa0\x8c@'
tRp2442
tp2443
a(S'YP_003045106.1'
p2444
g3
(g5
S'\xc9au\x86\x86\xa7\x8c@'
tRp2445
tp2446
a(S'YP_003047417.1'
p2447
g3
(g5
S'\xd3y\xef\xa0\xf7\xc2\x8c@'
tRp2448
tp2449
a(S'YP_003045545.1'
p2450
g3
(g5
S'\x9c\x84\x7f\x95]\xd7\x8c@'
tRp2451
tp2452
a(S'YP_003046486.1'
p2453
g3
(g5
S'|Z\t1\x92\xf5\x8c@'
tRp2454
tp2455
a(S'YP_003046583.1'
p2456
g3
(g5
S'FD\x8f\xbe\xec\xfc\x8c@'
tRp2457
tp2458
a(S'YP_003045512.1'
p2459
g3
(g5
S'\x85\x9b*=\x94\x0b\x8d@'
tRp2460
tp2461
a(S'YP_003044916.1'
p2462
g3
(g5
S'\xbb\xc12s\x9a\x11\x8d@'
tRp2463
tp2464
a(S'YP_003047282.1'
p2465
g3
(g5
S'I\xb3\xb3\x0b1\x15\x8d@'
tRp2466
tp2467
a(S'YP_003046679.1'
p2468
g3
(g5
S"q\xe3's\xce\x1f\x8d@"
tRp2469
tp2470
a(S'YP_003044094.1'
p2471
g3
(g5
S'\x1d!bN\xc3J\x8d@'
tRp2472
tp2473
a(S'YP_003044872.1'
p2474
g3
(g5
S'\x9b\xc6\xdd\xda\xc5c\x8d@'
tRp2475
tp2476
a(S'YP_003047079.1'
p2477
g3
(g5
S'\xa9:\xb1\xb5\x81h\x8d@'
tRp2478
tp2479
a(S'YP_003047359.1'
p2480
g3
(g5
S'\x15xiM\x14z\x8d@'
tRp2481
tp2482
a(S'YP_003043473.1'
p2483
g3
(g5
S'\x95\xd6\x03H\xc9\x83\x8d@'
tRp2484
tp2485
a(S'YP_003046487.1'
p2486
g3
(g5
S'\x12F\xed\x05\xee\x89\x8d@'
tRp2487
tp2488
a(S'YP_003046756.1'
p2489
g3
(g5
S'\xb2\xf7\xa1\xe2\xc1\x90\x8d@'
tRp2490
tp2491
a(S'YP_003046828.1'
p2492
g3
(g5
S'\x05\xd0\xa5\x17\x9b\x95\x8d@'
tRp2493
tp2494
a(S'YP_003044389.1'
p2495
g3
(g5
S'nE\xa2\x90Q\xa0\x8d@'
tRp2496
tp2497
a(S'YP_003043467.1'
p2498
g3
(g5
S'\x16l\xafS\x9e\xa8\x8d@'
tRp2499
tp2500
a(S'YP_003046120.1'
p2501
g3
(g5
S'\x94\x97\xfe\x14h\xc4\x8d@'
tRp2502
tp2503
a(S'YP_003044460.1'
p2504
g3
(g5
S'\xf5\x82\r\xfc\x04\xce\x8d@'
tRp2505
tp2506
a(S'YP_003046110.1'
p2507
g3
(g5
S'\x1f}\xd7\x17\xe3\xdc\x8d@'
tRp2508
tp2509
a(S'YP_003047175.1'
p2510
g3
(g5
S'\x87\xe7&\xca\x9f\xe7\x8d@'
tRp2511
tp2512
a(S'YP_003045437.1'
p2513
g3
(g5
S'\x95r\xad\x15\x80\xf9\x8d@'
tRp2514
tp2515
a(S'YP_003045087.1'
p2516
g3
(g5
S'\xc5\x93l\xadE\x10\x8e@'
tRp2517
tp2518
a(S'YP_003044849.1'
p2519
g3
(g5
S'\xc2\xfc\x05Y\xaa/\x8e@'
tRp2520
tp2521
a(S'YP_003043796.1'
p2522
g3
(g5
S'9D\x0e\xfa\x1b4\x8e@'
tRp2523
tp2524
a(S'YP_003044782.1'
p2525
g3
(g5
S'\x8a\xca\x01\xdab7\x8e@'
tRp2526
tp2527
a(S'YP_003047273.1'
p2528
g3
(g5
S'\x06\xf6\xddE\xf3e\x8e@'
tRp2529
tp2530
a(S'YP_003044781.1'
p2531
g3
(g5
S'\xe6\x97\xa8\x18\xf1g\x8e@'
tRp2532
tp2533
a(S'YP_003044752.1'
p2534
g3
(g5
S'J5gV\xdds\x8e@'
tRp2535
tp2536
a(S'YP_003044314.1'
p2537
g3
(g5
S'\x88\x1b\x9c^\xf3w\x8e@'
tRp2538
tp2539
a(S'YP_003046852.1'
p2540
g3
(g5
S'\xa4O;\x03R|\x8e@'
tRp2541
tp2542
a(S'YP_003045459.1'
p2543
g3
(g5
S'\x89\xc3"\xee\xb1\x80\x8e@'
tRp2544
tp2545
a(S'YP_003043590.1'
p2546
g3
(g5
S'0*\xa6\xac\xd0\x9f\x8e@'
tRp2547
tp2548
a(S'YP_003043862.1'
p2549
g3
(g5
S'i\xe3\xc9\xc1|\xa3\x8e@'
tRp2550
tp2551
a(S'YP_003045928.1'
p2552
g3
(g5
S'R.f\xdc,\xc4\x8e@'
tRp2553
tp2554
a(S'YP_003045265.1'
p2555
g3
(g5
S'\xb1\xdc\xb3\xfb\xd9\xd0\x8e@'
tRp2556
tp2557
a(S'YP_003043361.1'
p2558
g3
(g5
S'\x88\x94\xe4\x8c\x15\xdf\x8e@'
tRp2559
tp2560
a(S'YP_003046920.1'
p2561
g3
(g5
S'TO\xcb\x9d\xbe\xeb\x8e@'
tRp2562
tp2563
a(S'YP_003046239.1'
p2564
g3
(g5
S'\xa8"\x8eT\xa5\xfe\x8e@'
tRp2565
tp2566
a(S'YP_003046241.1'
p2567
g3
(g5
S'\x0e\xea\x1f\xa1<\x00\x8f@'
tRp2568
tp2569
a(S'YP_003044861.1'
p2570
g3
(g5
S'\xf2\x9e\x17\xa2\xe4\x19\x8f@'
tRp2571
tp2572
a(S'YP_003043309.1'
p2573
g3
(g5
S'\xdf\x18V\x05A!\x8f@'
tRp2574
tp2575
a(S'YP_003046127.1'
p2576
g3
(g5
S'\x8f<\xdca\xfd6\x8f@'
tRp2577
tp2578
a(S'YP_003045546.1'
p2579
g3
(g5
S'\xc5\xd8\xac\xf3\x85=\x8f@'
tRp2580
tp2581
a(S'YP_003046226.1'
p2582
g3
(g5
S'\x12\x9bW\x89.E\x8f@'
tRp2583
tp2584
a(S'YP_003046219.1'
p2585
g3
(g5
S'\x11\x83ZN\x94F\x8f@'
tRp2586
tp2587
a(S'YP_003044169.1'
p2588
g3
(g5
S"\x82\x89\xc6U'G\x8f@"
tRp2589
tp2590
a(S'YP_003047419.1'
p2591
g3
(g5
S'\xe0\xa4\x82\xb7=j\x8f@'
tRp2592
tp2593
a(S'YP_003045350.1'
p2594
g3
(g5
S's\xe8\x04\x05\x99\x95\x8f@'
tRp2595
tp2596
a(S'YP_003045368.1'
p2597
g3
(g5
S'v(\xfb\xd8\xd7\xa6\x8f@'
tRp2598
tp2599
a(S'YP_003045400.1'
p2600
g3
(g5
S'<*}\xe8m\xa9\x8f@'
tRp2601
tp2602
a(S'YP_003045870.1'
p2603
g3
(g5
S'\x05wA\xb2\x8e\xb0\x8f@'
tRp2604
tp2605
a(S'YP_003044224.1'
p2606
g3
(g5
S'\x8d\x10Y\x0cg\xc4\x8f@'
tRp2607
tp2608
a(S'YP_003044930.1'
p2609
g3
(g5
S'\x88\t9\xf1\xfc\xe1\x8f@'
tRp2610
tp2611
a(S'YP_003044012.1'
p2612
g3
(g5
S'g{\xd2\xe5c\xe8\x8f@'
tRp2613
tp2614
a(S'YP_003046680.1'
p2615
g3
(g5
S'\xf1\x1d\x05SA\xeb\x8f@'
tRp2616
tp2617
a(S'YP_003046231.1'
p2618
g3
(g5
S'\xa7\x0cl\x9b\xc5\xef\x8f@'
tRp2619
tp2620
a(S'YP_003046393.1'
p2621
g3
(g5
S'\xc7\x0e\xd5\n\x8b$\x90@'
tRp2622
tp2623
a(S'YP_003046557.1'
p2624
g3
(g5
S'\x9a\xfb\xa9\xe9.O\x90@'
tRp2625
tp2626
a(S'YP_003047266.1'
p2627
g3
(g5
S'\xf1\xa7\x10\xb7wi\x90@'
tRp2628
tp2629
a(S'YP_003044580.1'
p2630
g3
(g5
S'\x9d\x9f\xb9J\xf2p\x90@'
tRp2631
tp2632
a(S'YP_003045404.1'
p2633
g3
(g5
S'n\xccVQ\xda\x81\x90@'
tRp2634
tp2635
a(S'YP_003044853.1'
p2636
g3
(g5
S'L\xc8@\xca^\x97\x90@'
tRp2637
tp2638
a(S'YP_003045966.1'
p2639
g3
(g5
S'\x9fR`G\xeb\x9a\x90@'
tRp2640
tp2641
a(S'YP_003046604.1'
p2642
g3
(g5
S'\x10L\xfd\xd6\x9b\xa8\x90@'
tRp2643
tp2644
a(S'YP_003047289.1'
p2645
g3
(g5
S'^\xa8c\x85\xb9\xc3\x90@'
tRp2646
tp2647
a(S'YP_003045436.1'
p2648
g3
(g5
S'\xe81-Q\x1d\xce\x90@'
tRp2649
tp2650
a(S'YP_003045015.1'
p2651
g3
(g5
S"'\xe3\xff,\xd7\xd6\x90@"
tRp2652
tp2653
a(S'YP_003044149.1'
p2654
g3
(g5
S'\xee\x91\x1a\xd5Y\xda\x90@'
tRp2655
tp2656
a(S'YP_003044701.1'
p2657
g3
(g5
S'\xf6\xe1\x1d\x99w\xe2\x90@'
tRp2658
tp2659
a(S'YP_003046645.1'
p2660
g3
(g5
S'ug\x93\x03P\xf0\x90@'
tRp2661
tp2662
a(S'YP_003046646.1'
p2663
g3
(g5
S'~\xc6\xce\xa5\xcf\xf2\x90@'
tRp2664
tp2665
a(S'YP_003047179.1'
p2666
g3
(g5
S'X\x92\xd1\x84p\x11\x91@'
tRp2667
tp2668
a(S'YP_003045714.1'
p2669
g3
(g5
S'M\xac)\x15\xcb\x11\x91@'
tRp2670
tp2671
a(S'YP_003044972.1'
p2672
g3
(g5
S'\xf4|\xfc\xae)\x14\x91@'
tRp2673
tp2674
a(S'YP_003045664.1'
p2675
g3
(g5
S'\xfe\xf7\x1e\x8eq\x14\x91@'
tRp2676
tp2677
a(S'YP_003043596.1'
p2678
g3
(g5
S'e \xf6$V\x1a\x91@'
tRp2679
tp2680
a(S'YP_003044343.1'
p2681
g3
(g5
S'\x89\xf5\x1e\xa4\x11!\x91@'
tRp2682
tp2683
a(S'YP_003043265.1'
p2684
g3
(g5
S'\xb7\x98\x86\xd2H%\x91@'
tRp2685
tp2686
a(S'YP_003046758.1'
p2687
g3
(g5
S'\xc3\x12\x89\xc3\xeb+\x91@'
tRp2688
tp2689
a(S'YP_003043615.1'
p2690
g3
(g5
S'\xceCT\x90\xd6.\x91@'
tRp2691
tp2692
a(S'YP_003047063.1'
p2693
g3
(g5
S'\x8d\x12\x14.\x97/\x91@'
tRp2694
tp2695
a(S'YP_003044260.1'
p2696
g3
(g5
S'\x078\x93o\nS\x91@'
tRp2697
tp2698
a(S'YP_003045120.1'
p2699
g3
(g5
S'\xed\x97\x96\xbe\xe1a\x91@'
tRp2700
tp2701
a(S'YP_003045416.1'
p2702
g3
(g5
S'&\x9e\xaa\xca\xffd\x91@'
tRp2703
tp2704
a(S'YP_003044139.1'
p2705
g3
(g5
S'\x86\xda\xd2wGg\x91@'
tRp2706
tp2707
a(S'YP_003046323.1'
p2708
g3
(g5
S'a\xd7\x19\x95\x9ep\x91@'
tRp2709
tp2710
a(S'YP_003043705.1'
p2711
g3
(g5
S'\xff\xbd\x99\x1d\x03t\x91@'
tRp2712
tp2713
a(S'YP_003045687.1'
p2714
g3
(g5
S'\x1c\xaf;@\\\x94\x91@'
tRp2715
tp2716
a(S'YP_003045410.1'
p2717
g3
(g5
S'\x06\xd7\x12\xcfA\x9d\x91@'
tRp2718
tp2719
a(S'YP_003046635.1'
p2720
g3
(g5
S',"<O\x14\x9f\x91@'
tRp2721
tp2722
a(S'YP_003044154.1'
p2723
g3
(g5
S'\xe7J\xcc^\x8b\xbf\x91@'
tRp2724
tp2725
a(S'YP_003044077.1'
p2726
g3
(g5
S'T\xb8>w\xb3\xc1\x91@'
tRp2727
tp2728
a(S'YP_003047249.1'
p2729
g3
(g5
S'\xd9\x11\x9d)\x96\xdf\x91@'
tRp2730
tp2731
a(S'YP_003043518.1'
p2732
g3
(g5
S'\xc4\xd4\xbe\xfc\x07\xe2\x91@'
tRp2733
tp2734
a(S'YP_003045874.1'
p2735
g3
(g5
S'\x1a\x12"\xbd;\xfa\x91@'
tRp2736
tp2737
a(S'YP_003045955.1'
p2738
g3
(g5
S'\xa2{\xf5\xcd\xc7\x00\x92@'
tRp2739
tp2740
a(S'YP_003046832.1'
p2741
g3
(g5
S'\xd9\xa7\xa1\xa1\x0b\x0c\x92@'
tRp2742
tp2743
a(S'YP_003044990.1'
p2744
g3
(g5
S'\x88\x83\xeb\xa5H\x10\x92@'
tRp2745
tp2746
a(S'YP_003044087.1'
p2747
g3
(g5
S'\x95%\xb8\xfb%%\x92@'
tRp2748
tp2749
a(S'YP_003046810.1'
p2750
g3
(g5
S"\x87T\x93\x9e\xeb'\x92@"
tRp2751
tp2752
a(S'YP_003043395.1'
p2753
g3
(g5
S'\xbe\xedg\x95\x17+\x92@'
tRp2754
tp2755
a(S'YP_003043920.1'
p2756
g3
(g5
S'!\xbb\xef=9H\x92@'
tRp2757
tp2758
a(S'YP_003043963.1'
p2759
g3
(g5
S'\xc6\xe6\xc0p\xa0Z\x92@'
tRp2760
tp2761
a(S'YP_003045969.1'
p2762
g3
(g5
S'\x9d\x88K\x9b\x01g\x92@'
tRp2763
tp2764
a(S'YP_003045603.1'
p2765
g3
(g5
S'\xff{sk,q\x92@'
tRp2766
tp2767
a(S'YP_003044469.1'
p2768
g3
(g5
S'\n\xc1\xc5 \x8ax\x92@'
tRp2769
tp2770
a(S'YP_003047180.1'
p2771
g3
(g5
S'\xd8\xe0\x902R~\x92@'
tRp2772
tp2773
a(S'YP_003045090.1'
p2774
g3
(g5
S'\xf8\xe9_\x8aJ\x8a\x92@'
tRp2775
tp2776
a(S'YP_003046637.1'
p2777
g3
(g5
S'\xcb\xb7\xc2n\xc0\x90\x92@'
tRp2778
tp2779
a(S'YP_003044273.1'
p2780
g3
(g5
S'\xfe\xb3^\xd7\xf4\x95\x92@'
tRp2781
tp2782
a(S'YP_003046813.1'
p2783
g3
(g5
S'\x97\x17\x10\x18\xd2\x97\x92@'
tRp2784
tp2785
a(S'YP_003045915.1'
p2786
g3
(g5
S'\xb0[#\x0b\x84\x9c\x92@'
tRp2787
tp2788
a(S'YP_003043466.1'
p2789
g3
(g5
S'\x04\xa5M\xb5\xec\x9d\x92@'
tRp2790
tp2791
a(S'YP_003044449.1'
p2792
g3
(g5
S'\x08\xae\xeb\x00\xe3\xb0\x92@'
tRp2793
tp2794
a(S'YP_003045707.1'
p2795
g3
(g5
S'\xc0\xa5\xd0X\x07\xd4\x92@'
tRp2796
tp2797
a(S'YP_003044250.1'
p2798
g3
(g5
S'oM\x12\xbc\xef\xfa\x92@'
tRp2799
tp2800
a(S'YP_003045635.1'
p2801
g3
(g5
S'\xfe\x0b\xa5\xa6-\x06\x93@'
tRp2802
tp2803
a(S'YP_003045165.1'
p2804
g3
(g5
S'F\x156S1\x0b\x93@'
tRp2805
tp2806
a(S'YP_003043846.1'
p2807
g3
(g5
S'\x9a\x11\xd2|F\x0e\x93@'
tRp2808
tp2809
a(S'YP_003044467.1'
p2810
g3
(g5
S'k\xfd"\xc1a\x1b\x93@'
tRp2811
tp2812
a(S'YP_003046275.1'
p2813
g3
(g5
S'\xaal\xc0R\x8e\x1b\x93@'
tRp2814
tp2815
a(S'YP_003045113.1'
p2816
g3
(g5
S'W\xc2(\xe19\x1d\x93@'
tRp2817
tp2818
a(S'YP_003045796.1'
p2819
g3
(g5
S'\xd1\xb2QZ0#\x93@'
tRp2820
tp2821
a(S'YP_003046591.1'
p2822
g3
(g5
S'\n\xe3E}\xe0(\x93@'
tRp2823
tp2824
a(S'YP_003046202.1'
p2825
g3
(g5
S'z\x9ch\x14\r)\x93@'
tRp2826
tp2827
a(S'YP_003043832.1'
p2828
g3
(g5
S'\x0c\x07\x89\xc5\xb3B\x93@'
tRp2829
tp2830
a(S'YP_003044024.1'
p2831
g3
(g5
S'\xf5\xd7\xbdL\x9dC\x93@'
tRp2832
tp2833
a(S'YP_003043619.1'
p2834
g3
(g5
S'D\x8e\x87\x90\xcf]\x93@'
tRp2835
tp2836
a(S'YP_003043856.1'
p2837
g3
(g5
S'\xc7\xba\x15\xf8\x0ca\x93@'
tRp2838
tp2839
a(S'YP_003045354.1'
p2840
g3
(g5
S'/VKJ7e\x93@'
tRp2841
tp2842
a(S'YP_003045923.1'
p2843
g3
(g5
S'3tM\x15\xaan\x93@'
tRp2844
tp2845
a(S'YP_003045034.1'
p2846
g3
(g5
S'0\xb8\xa5U?x\x93@'
tRp2847
tp2848
a(S'YP_003044474.1'
p2849
g3
(g5
S'c\xf8\x1f\x86\r\x95\x93@'
tRp2850
tp2851
a(S'YP_003043847.1'
p2852
g3
(g5
S'\xb5\xe0\xe6@a\xa2\x93@'
tRp2853
tp2854
a(S'YP_003044492.1'
p2855
g3
(g5
S'_\xa4\xae\xf6\x8b\xa4\x93@'
tRp2856
tp2857
a(S'YP_003044931.1'
p2858
g3
(g5
S'\xff\x17\x9b\x9dN\xae\x93@'
tRp2859
tp2860
a(S'YP_003045785.1'
p2861
g3
(g5
S'\xa05\xd0\x86^\xb6\x93@'
tRp2862
tp2863
a(S'YP_003045710.1'
p2864
g3
(g5
S'2~\xcb\xa27\xb8\x93@'
tRp2865
tp2866
a(S'YP_003043943.1'
p2867
g3
(g5
S'b\x19\x97O\x1a\xb9\x93@'
tRp2868
tp2869
a(S'YP_003044281.1'
p2870
g3
(g5
S'\xb8X*7r\xc2\x93@'
tRp2871
tp2872
a(S'YP_003043286.1'
p2873
g3
(g5
S'\x89\xd2\x13[\xf6\xc3\x93@'
tRp2874
tp2875
a(S'YP_003046452.1'
p2876
g3
(g5
S'>\x9fs\xc7\xaa\xcb\x93@'
tRp2877
tp2878
a(S'YP_003046825.1'
p2879
g3
(g5
S'\xc9\xc4\xb2\x85g\xde\x93@'
tRp2880
tp2881
a(S'YP_003044562.1'
p2882
g3
(g5
S'\x84\x80\x83\x07\xa3\x01\x94@'
tRp2883
tp2884
a(S'YP_003047239.1'
p2885
g3
(g5
S'\xdd\xc2\xb1%G\x06\x94@'
tRp2886
tp2887
a(S'YP_003047101.1'
p2888
g3
(g5
S'\xcc\x10\xfa\xf2\xd6\x14\x94@'
tRp2889
tp2890
a(S'YP_003044366.1'
p2891
g3
(g5
S'\x14\x95-{S$\x94@'
tRp2892
tp2893
a(S'YP_003045020.1'
p2894
g3
(g5
S'(\xb1Jh\xfa1\x94@'
tRp2895
tp2896
a(S'YP_003045022.1'
p2897
g3
(g5
S'\xcdw\xd7\x02\x86L\x94@'
tRp2898
tp2899
a(S'YP_003045582.1'
p2900
g3
(g5
S'\xadB\x16,\xaaP\x94@'
tRp2901
tp2902
a(S'YP_003046437.1'
p2903
g3
(g5
S'B\x8d\xe4N6]\x94@'
tRp2904
tp2905
a(S'YP_003045677.1'
p2906
g3
(g5
S'\xceU\xd0\xb4\xf4b\x94@'
tRp2907
tp2908
a(S'YP_003045956.1'
p2909
g3
(g5
S"\xc0'}\xe9\xdec\x94@"
tRp2910
tp2911
a(S'YP_003046585.1'
p2912
g3
(g5
S'\xbdpz\xc3di\x94@'
tRp2913
tp2914
a(S'YP_003044345.1'
p2915
g3
(g5
S'\x90\xccU\xc6\x9fl\x94@'
tRp2916
tp2917
a(S'YP_003045460.1'
p2918
g3
(g5
S'K\x1fB\x13\xcby\x94@'
tRp2919
tp2920
a(S'YP_003047024.1'
p2921
g3
(g5
S'EF\xa1\xd3\x99}\x94@'
tRp2922
tp2923
a(S'YP_003044023.1'
p2924
g3
(g5
S'\xe3\x95(Ek\x94\x94@'
tRp2925
tp2926
a(S'YP_003046803.1'
p2927
g3
(g5
S'\xc3\xa7\x1d\xfar\x98\x94@'
tRp2928
tp2929
a(S'YP_003043408.1'
p2930
g3
(g5
S'\xa4\xada\xf1I\xaa\x94@'
tRp2931
tp2932
a(S'YP_003046891.1'
p2933
g3
(g5
S'Db@}\xcb\xb3\x94@'
tRp2934
tp2935
a(S'YP_003043658.1'
p2936
g3
(g5
S'\xc7\xc5\x80+\xa6\xca\x94@'
tRp2937
tp2938
a(S'YP_003046237.1'
p2939
g3
(g5
S"\x9b']b\xf0\xe1\x94@"
tRp2940
tp2941
a(S'YP_003045118.1'
p2942
g3
(g5
S'\xc5\xa6zZ\\\xe2\x94@'
tRp2943
tp2944
a(S'YP_003046340.1'
p2945
g3
(g5
S'O\x9b\x1c\xbc\xbf\xee\x94@'
tRp2946
tp2947
a(S'YP_003046670.1'
p2948
g3
(g5
S'h\xa3\x81D\x86\t\x95@'
tRp2949
tp2950
a(S'YP_003044959.1'
p2951
g3
(g5
S'\xc0-q\xa6\x16\x0e\x95@'
tRp2952
tp2953
a(S'YP_003045069.1'
p2954
g3
(g5
S'\xcd\x87\xaf\xed\x88\x10\x95@'
tRp2955
tp2956
a(S'YP_003046311.1'
p2957
g3
(g5
S'6}r\xa7S\x11\x95@'
tRp2958
tp2959
a(S'YP_003046971.1'
p2960
g3
(g5
S'\xa0LP\xfe^\x1c\x95@'
tRp2961
tp2962
a(S'YP_003047281.1'
p2963
g3
(g5
S'\xa7\xdb\xf5\xba\x00\x1d\x95@'
tRp2964
tp2965
a(S'YP_003045814.1'
p2966
g3
(g5
S"\xa3R'yL\x1f\x95@"
tRp2967
tp2968
a(S'YP_003046086.1'
p2969
g3
(g5
S'\x9d\x00\xef0!2\x95@'
tRp2970
tp2971
a(S'YP_003043775.1'
p2972
g3
(g5
S'o\xe9pQI2\x95@'
tRp2973
tp2974
a(S'YP_003044113.1'
p2975
g3
(g5
S'L\xc8W\xfe\x89:\x95@'
tRp2976
tp2977
a(S'YP_003043349.1'
p2978
g3
(g5
S'\x84\xc2\xb4\xe9xM\x95@'
tRp2979
tp2980
a(S'YP_003043611.1'
p2981
g3
(g5
S'\x06\xaei\x8c\xbeR\x95@'
tRp2982
tp2983
a(S'YP_003046322.1'
p2984
g3
(g5
S'`\x13|\x97\x98Z\x95@'
tRp2985
tp2986
a(S'YP_003043353.1'
p2987
g3
(g5
S'\xca\xcf8\x803d\x95@'
tRp2988
tp2989
a(S'YP_003045918.1'
p2990
g3
(g5
S'p\xaf\x029Jh\x95@'
tRp2991
tp2992
a(S'YP_003043996.1'
p2993
g3
(g5
S'\xcf\x8a#)Iz\x95@'
tRp2994
tp2995
a(S'YP_003044089.1'
p2996
g3
(g5
S'\xec\xb8/\xf6)\x85\x95@'
tRp2997
tp2998
a(S'YP_003044870.1'
p2999
g3
(g5
S'\x1f\x9f\xa7\xa6F\x89\x95@'
tRp3000
tp3001
a(S'YP_003047098.1'
p3002
g3
(g5
S'\x03\x11gF\x83\xd2\x95@'
tRp3003
tp3004
a(S'YP_003044771.1'
p3005
g3
(g5
S'\x84 \xa1\xd7\xde\xda\x95@'
tRp3006
tp3007
a(S'YP_003043864.1'
p3008
g3
(g5
S'!\xc9`R\x11\xeb\x95@'
tRp3009
tp3010
a(S'YP_003047112.1'
p3011
g3
(g5
S's\x03\x1f\x17I\xf1\x95@'
tRp3012
tp3013
a(S'YP_003043244.1'
p3014
g3
(g5
S'\xb2\xc6P\xff\x81\x06\x96@'
tRp3015
tp3016
a(S'YP_003047280.1'
p3017
g3
(g5
S'a\xd7\xb9\x1b\xbd!\x96@'
tRp3018
tp3019
a(S'YP_003043783.1'
p3020
g3
(g5
S'\x9aS\x87\xb9,#\x96@'
tRp3021
tp3022
a(S'YP_003043782.1'
p3023
g3
(g5
S'*\xf4\xce ].\x96@'
tRp3024
tp3025
a(S'YP_003044393.1'
p3026
g3
(g5
S'\x98\xd8\xa3\xf6\xc24\x96@'
tRp3027
tp3028
a(S'YP_003045403.1'
p3029
g3
(g5
S'\x0f\xd4w\xf1j=\x96@'
tRp3030
tp3031
a(S'YP_003043416.1'
p3032
g3
(g5
S'\x90\xcf\xac\xde&R\x96@'
tRp3033
tp3034
a(S'YP_003046584.1'
p3035
g3
(g5
S't\x0c\x1a\xc0{V\x96@'
tRp3036
tp3037
a(S'YP_003046790.1'
p3038
g3
(g5
S'\xdb\x8a\xf7(\xb5p\x96@'
tRp3039
tp3040
a(S'YP_003047270.1'
p3041
g3
(g5
S'ag\x84s\xd9v\x96@'
tRp3042
tp3043
a(S'YP_003047059.1'
p3044
g3
(g5
S'\xc9\xeb\xad\xfb\xa3\x80\x96@'
tRp3045
tp3046
a(S'YP_003044248.1'
p3047
g3
(g5
S'\x9a\xf2\xff\x94Q\xae\x96@'
tRp3048
tp3049
a(S'YP_003043702.1'
p3050
g3
(g5
S'\x0b.\x15\xc8\r\xb6\x96@'
tRp3051
tp3052
a(S'YP_003046342.1'
p3053
g3
(g5
S'd\xf0\xcd\xe5\xe2\xb7\x96@'
tRp3054
tp3055
a(S'YP_003043985.1'
p3056
g3
(g5
S'\xf46\x9d\x8f?\xca\x96@'
tRp3057
tp3058
a(S'YP_003044985.1'
p3059
g3
(g5
S'\x15Z\xb2\xc31\x02\x97@'
tRp3060
tp3061
a(S'YP_003043850.1'
p3062
g3
(g5
S'\x0f&ou\xd1\x11\x97@'
tRp3063
tp3064
a(S'YP_003047427.1'
p3065
g3
(g5
S'oP\x1ct\x8f\x1b\x97@'
tRp3066
tp3067
a(S'YP_003046230.1'
p3068
g3
(g5
S'9N2\xcaG/\x97@'
tRp3069
tp3070
a(S'YP_003043378.1'
p3071
g3
(g5
S'\xd6\x87\x1f\x99\xc09\x97@'
tRp3072
tp3073
a(S'YP_003045611.1'
p3074
g3
(g5
S'\xc0/\xb6\x81\x16=\x97@'
tRp3075
tp3076
a(S'YP_003045117.1'
p3077
g3
(g5
S'5]\xf0\xd7\xfeW\x97@'
tRp3078
tp3079
a(S'YP_003044285.1'
p3080
g3
(g5
S'\xbb\xe8[K\x07o\x97@'
tRp3081
tp3082
a(S'YP_003044846.1'
p3083
g3
(g5
S'A\xfe\xca\xd7\x9cs\x97@'
tRp3084
tp3085
a(S'YP_003044887.1'
p3086
g3
(g5
S'\x1d\xc4>n\x1e{\x97@'
tRp3087
tp3088
a(S'YP_003043646.1'
p3089
g3
(g5
S's\x91=\xf8\x1d}\x97@'
tRp3090
tp3091
a(S'YP_003043406.1'
p3092
g3
(g5
S'\xd2g<\xb8\x9f\x8a\x97@'
tRp3093
tp3094
a(S'YP_003044454.1'
p3095
g3
(g5
S'\x12\xc3a*\x16\x95\x97@'
tRp3096
tp3097
a(S'YP_003046974.1'
p3098
g3
(g5
S'\xb5\xe6EH\xa1\x9d\x97@'
tRp3099
tp3100
a(S'YP_003046353.1'
p3101
g3
(g5
S'\xc4\xa7=\xdd\x15\xa7\x97@'
tRp3102
tp3103
a(S'YP_003045427.1'
p3104
g3
(g5
S'\x88\x19\xd4\x18\x00\xd5\x97@'
tRp3105
tp3106
a(S'YP_003043631.1'
p3107
g3
(g5
S'\x17R0\xcc]\xe7\x97@'
tRp3108
tp3109
a(S'YP_003045122.1'
p3110
g3
(g5
S'$n\r!\xcb\x02\x98@'
tRp3111
tp3112
a(S'YP_003044451.1'
p3113
g3
(g5
S'\xbc7Q-\xc7\x17\x98@'
tRp3114
tp3115
a(S'YP_003047212.1'
p3116
g3
(g5
S'\xcf\x04@b\x8e%\x98@'
tRp3117
tp3118
a(S'YP_003043827.1'
p3119
g3
(g5
S'kb\x16(\xec.\x98@'
tRp3120
tp3121
a(S'YP_003047411.1'
p3122
g3
(g5
S'\xce?q\xf0\x0bB\x98@'
tRp3123
tp3124
a(S'YP_003043698.1'
p3125
g3
(g5
S'#N\x15>G^\x98@'
tRp3126
tp3127
a(S'YP_003044289.1'
p3128
g3
(g5
S'\x8a-]\xb7\xb6c\x98@'
tRp3129
tp3130
a(S'YP_003045596.1'
p3131
g3
(g5
S"d\xf0\x13s'd\x98@"
tRp3132
tp3133
a(S'YP_003045607.1'
p3134
g3
(g5
S'j\r\x99:\x14r\x98@'
tRp3135
tp3136
a(S'YP_003046529.1'
p3137
g3
(g5
S'\xa6\xe6\xaf\xe5\xeav\x98@'
tRp3138
tp3139
a(S'YP_003044984.1'
p3140
g3
(g5
S"4\x077-'\x94\x98@"
tRp3141
tp3142
a(S'YP_003046315.1'
p3143
g3
(g5
S'\xbb\x94\x8c\xfa\xbd\xbf\x98@'
tRp3144
tp3145
a(S'YP_003047293.1'
p3146
g3
(g5
S'W\x89\xa5;\xd0\xbf\x98@'
tRp3147
tp3148
a(S'YP_003046441.1'
p3149
g3
(g5
S'\xa6\x9a\xc9\xc0H\xc2\x98@'
tRp3150
tp3151
a(S'YP_003044648.1'
p3152
g3
(g5
S'\xe5\xcaHn\xf2\xd2\x98@'
tRp3153
tp3154
a(S'YP_003045965.1'
p3155
g3
(g5
S'\x81t\x02\xff\x1e\xdd\x98@'
tRp3156
tp3157
a(S'YP_003044412.1'
p3158
g3
(g5
S'\xfe\x90\xd3\x0e\xd3\xde\x98@'
tRp3159
tp3160
a(S'YP_003043328.1'
p3161
g3
(g5
S'\x9b\xf1\x06\xec\xb4\xe4\x98@'
tRp3162
tp3163
a(S'YP_003046918.1'
p3164
g3
(g5
S'{\xfe\xb9S\x90\xeb\x98@'
tRp3165
tp3166
a(S'YP_003044346.1'
p3167
g3
(g5
S'\x80\x94b\xbe\xf0\x0c\x99@'
tRp3168
tp3169
a(S'YP_003045420.1'
p3170
g3
(g5
S'RT\x9e\xa2\x8b\r\x99@'
tRp3171
tp3172
a(S'YP_003045429.1'
p3173
g3
(g5
S'\xe3j\xc3\xfc\xb0\x0e\x99@'
tRp3174
tp3175
a(S'YP_003046298.1'
p3176
g3
(g5
S'\x05*\x82\xc5\xa1\x1b\x99@'
tRp3177
tp3178
a(S'YP_003046334.1'
p3179
g3
(g5
S'\x98\xb3\xc9\xbbd \x99@'
tRp3180
tp3181
a(S'YP_003046592.1'
p3182
g3
(g5
S"\x98Y\x90\x8f'%\x99@"
tRp3183
tp3184
a(S'YP_003044371.1'
p3185
g3
(g5
S"\xb0$\x97:U'\x99@"
tRp3186
tp3187
a(S'YP_003045007.1'
p3188
g3
(g5
S'&5\xbcY\xa6(\x99@'
tRp3189
tp3190
a(S'YP_003044845.1'
p3191
g3
(g5
S'\xf3\n\xbc\xe7\xe5+\x99@'
tRp3192
tp3193
a(S'YP_003045351.1'
p3194
g3
(g5
S'\x90\xf8\xd4\xa8\xe6I\x99@'
tRp3195
tp3196
a(S'YP_003045497.1'
p3197
g3
(g5
S'\xdb\xe6\xb6\xdc_S\x99@'
tRp3198
tp3199
a(S'YP_003047001.1'
p3200
g3
(g5
S'\xe3k\xef\xc5\xa2U\x99@'
tRp3201
tp3202
a(S'YP_003043905.1'
p3203
g3
(g5
S'\xd6\x06\x82\xc2\xf0U\x99@'
tRp3204
tp3205
a(S'YP_003046638.1'
p3206
g3
(g5
S'\xe6\xb1)\x0e\x9eY\x99@'
tRp3207
tp3208
a(S'YP_003045401.1'
p3209
g3
(g5
S'0\x82\xf3\xa5\x8et\x99@'
tRp3210
tp3211
a(S'YP_003044298.1'
p3212
g3
(g5
S'G\xdem\xa5&w\x99@'
tRp3213
tp3214
a(S'YP_003044307.1'
p3215
g3
(g5
S'\xd4\xf0O\xb6\xe6\x96\x99@'
tRp3216
tp3217
a(S'YP_003043560.1'
p3218
g3
(g5
S'\x83\xc9P\x13\xea\x9b\x99@'
tRp3219
tp3220
a(S'YP_003045115.1'
p3221
g3
(g5
S'\xb2\xf9X?\xf6\x9b\x99@'
tRp3222
tp3223
a(S'YP_003045562.1'
p3224
g3
(g5
S'\xce\x95\rgV\xf9\x99@'
tRp3225
tp3226
a(S'YP_003047058.1'
p3227
g3
(g5
S'\x1d\x1b\xe6\x87l\x19\x9a@'
tRp3228
tp3229
a(S'YP_003043267.1'
p3230
g3
(g5
S'\xa5\x05\x05\xc8\xcd\x1e\x9a@'
tRp3231
tp3232
a(S'YP_003046263.1'
p3233
g3
(g5
S'\xb2A\xf8\xae\xd2F\x9a@'
tRp3234
tp3235
a(S'YP_003045237.1'
p3236
g3
(g5
S'\x8d\xcc\xe3\xa9\x00S\x9a@'
tRp3237
tp3238
a(S'YP_003047420.1'
p3239
g3
(g5
S'\xca\xa6\x91\xd2\x00}\x9a@'
tRp3240
tp3241
a(S'YP_003043583.1'
p3242
g3
(g5
S'3\xe3 rF~\x9a@'
tRp3243
tp3244
a(S'YP_003043669.1'
p3245
g3
(g5
S"'\x11(\xadf\x86\x9a@"
tRp3246
tp3247
a(S'YP_003045797.1'
p3248
g3
(g5
S'\xb5\xa2asc\x89\x9a@'
tRp3249
tp3250
a(S'YP_003044999.1'
p3251
g3
(g5
S'\xd9\xbbH\xc0\xaf\x9c\x9a@'
tRp3252
tp3253
a(S'YP_003044892.1'
p3254
g3
(g5
S'\xba8\xa3PL\xd8\x9a@'
tRp3255
tp3256
a(S'YP_003046731.1'
p3257
g3
(g5
S'\xdc\x93E\x04\xc9\x02\x9b@'
tRp3258
tp3259
a(S'YP_003045941.1'
p3260
g3
(g5
S'\xdf\xf8\n\\\x96k\x9b@'
tRp3261
tp3262
a(S'YP_003046262.1'
p3263
g3
(g5
S'y\x08;\xe8V\x80\x9b@'
tRp3264
tp3265
a(S'YP_003045980.1'
p3266
g3
(g5
S'\xacey\xf3w\xa0\x9b@'
tRp3267
tp3268
a(S'YP_003047260.1'
p3269
g3
(g5
S'\x0c\xab29\x14\xb3\x9b@'
tRp3270
tp3271
a(S'YP_003045589.1'
p3272
g3
(g5
S'dIN!\xa0\xbf\x9b@'
tRp3273
tp3274
a(S'YP_003044185.1'
p3275
g3
(g5
S'h\xa9\x1a\xa2\xac\xda\x9b@'
tRp3276
tp3277
a(S'YP_003045123.1'
p3278
g3
(g5
S'\xcc\xc8\xdb\xd32\x1e\x9c@'
tRp3279
tp3280
a(S'YP_003043784.1'
p3281
g3
(g5
S'\xdb\x8c\x92H\x81\x1e\x9c@'
tRp3282
tp3283
a(S'YP_003045577.1'
p3284
g3
(g5
S'q\x82.\x95\xf0"\x9c@'
tRp3285
tp3286
a(S'YP_003043362.1'
p3287
g3
(g5
S'p\xae\x196M/\x9c@'
tRp3288
tp3289
a(S'YP_003046122.1'
p3290
g3
(g5
S'\xdd\xad\xbbZAD\x9c@'
tRp3291
tp3292
a(S'YP_003043308.1'
p3293
g3
(g5
S'sB\x8c\xe4\xa8R\x9c@'
tRp3294
tp3295
a(S'YP_003046997.1'
p3296
g3
(g5
S'\xfc\x1b\x1d\x10qc\x9c@'
tRp3297
tp3298
a(S'YP_003044421.1'
p3299
g3
(g5
S'yv\xdf\x05\xeb|\x9c@'
tRp3300
tp3301
a(S'YP_003047017.1'
p3302
g3
(g5
S'p/i\x9do\xb3\x9c@'
tRp3303
tp3304
a(S'YP_003043902.1'
p3305
g3
(g5
S'\xec\xb74\t\xf0\xb9\x9c@'
tRp3306
tp3307
a(S'YP_003043260.1'
p3308
g3
(g5
S'\x88\xaa\xb3\x8bQ\xbc\x9c@'
tRp3309
tp3310
a(S'YP_003045647.1'
p3311
g3
(g5
S'9\xd7@\x08\xe8\xc1\x9c@'
tRp3312
tp3313
a(S'YP_003045433.1'
p3314
g3
(g5
S'\x87\xdcIw\x95\xdc\x9c@'
tRp3315
tp3316
a(S'YP_003046274.1'
p3317
g3
(g5
S'`\x81?\xe0\xd9\xdd\x9c@'
tRp3318
tp3319
a(S'YP_003044881.1'
p3320
g3
(g5
S'\xf7\xc2\xaa\x05\xcd\xf2\x9c@'
tRp3321
tp3322
a(S'YP_003043459.1'
p3323
g3
(g5
S'\x95\xdf\xc6\xd3\x122\x9d@'
tRp3324
tp3325
a(S'YP_003044322.1'
p3326
g3
(g5
S'g\x922$O3\x9d@'
tRp3327
tp3328
a(S'YP_003046912.1'
p3329
g3
(g5
S'}\xcft\xd9BO\x9d@'
tRp3330
tp3331
a(S'YP_003043343.1'
p3332
g3
(g5
S'\xb3\x94z\x9e\x91R\x9d@'
tRp3333
tp3334
a(S'YP_003043821.1'
p3335
g3
(g5
S'-\xc8\x1d-SS\x9d@'
tRp3336
tp3337
a(S'YP_003045417.1'
p3338
g3
(g5
S'U\x15Z\x82\xa7b\x9d@'
tRp3339
tp3340
a(S'YP_003045798.1'
p3341
g3
(g5
S'\xfe\xdb\xe4\xa2q\x92\x9d@'
tRp3342
tp3343
a(S'YP_003045736.1'
p3344
g3
(g5
S'\xfanTf\xaf\x93\x9d@'
tRp3345
tp3346
a(S'YP_003045580.1'
p3347
g3
(g5
S'\xf1k\xda\xf2\xaa\xa2\x9d@'
tRp3348
tp3349
a(S'YP_003044450.1'
p3350
g3
(g5
S'\xee\xe8\x94\xb7\xb6\xaa\x9d@'
tRp3351
tp3352
a(S'YP_003044305.1'
p3353
g3
(g5
S'\xce\xa7\x19B\xef\xfd\x9d@'
tRp3354
tp3355
a(S'YP_003046989.1'
p3356
g3
(g5
S'\xde\xbdy\xb2\x00\x19\x9e@'
tRp3357
tp3358
a(S'YP_003046356.1'
p3359
g3
(g5
S'$fiFj5\x9e@'
tRp3360
tp3361
a(S'YP_003044130.1'
p3362
g3
(g5
S'4dJ\xbf\xa8e\x9e@'
tRp3363
tp3364
a(S'YP_003045116.1'
p3365
g3
(g5
S'\x17\xb8\x9a\xe4\x91\xbc\x9e@'
tRp3366
tp3367
a(S'YP_003043640.1'
p3368
g3
(g5
S'\xf9\xbf\xc5Dr\xd6\x9e@'
tRp3369
tp3370
a(S'YP_003046420.1'
p3371
g3
(g5
S'Pq\xbe\xf5\xef\xd6\x9e@'
tRp3372
tp3373
a(S'YP_003047069.1'
p3374
g3
(g5
S'8X\x90\xc2@\xfb\x9e@'
tRp3375
tp3376
a(S'YP_003047068.1'
p3377
g3
(g5
S'M.l\x13{\xfc\x9e@'
tRp3378
tp3379
a(S'YP_003044890.1'
p3380
g3
(g5
S'\xf3g\xd5\t\x7f\x03\x9f@'
tRp3381
tp3382
a(S'YP_003044338.1'
p3383
g3
(g5
S'\xcb\xe2\xb1U\xd3\x11\x9f@'
tRp3384
tp3385
a(S'YP_003046485.1'
p3386
g3
(g5
S'\x89\x1f\xc9\xa41 \x9f@'
tRp3387
tp3388
a(S'YP_003044276.1'
p3389
g3
(g5
S'\xb0\x1a\xeb\x97\xbd)\x9f@'
tRp3390
tp3391
a(S'YP_003045738.1'
p3392
g3
(g5
S'\xf6{\x823\xd6H\x9f@'
tRp3393
tp3394
a(S'YP_003044882.1'
p3395
g3
(g5
S'\x8e\xd7\xb2J\xa6X\x9f@'
tRp3396
tp3397
a(S'YP_003044618.1'
p3398
g3
(g5
S'm\xdd=4\xf0Y\x9f@'
tRp3399
tp3400
a(S'YP_003043346.1'
p3401
g3
(g5
S'\xb6\xf5D\x05L]\x9f@'
tRp3402
tp3403
a(S'YP_003044405.1'
p3404
g3
(g5
S'\xd91>\xbbWi\x9f@'
tRp3405
tp3406
a(S'YP_003045929.1'
p3407
g3
(g5
S'\xc7>\xab\xb4\xbdv\x9f@'
tRp3408
tp3409
a(S'YP_003046347.1'
p3410
g3
(g5
S'\t\xf3\xdd\n \x80\x9f@'
tRp3411
tp3412
a(S'YP_003044807.1'
p3413
g3
(g5
S'{\x9ae5*\x99\x9f@'
tRp3414
tp3415
a(S'YP_003046276.1'
p3416
g3
(g5
S"'#\xb9;u\x9a\x9f@"
tRp3417
tp3418
a(S'YP_003046295.1'
p3419
g3
(g5
S'\xc6\xea\x8b\xd5V\xe8\x9f@'
tRp3420
tp3421
a(S'YP_003043650.1'
p3422
g3
(g5
S'u\xba\xab \xe3\x11\xa0@'
tRp3423
tp3424
a(S'YP_003044315.1'
p3425
g3
(g5
S'\x07\xdd\xd0\xcc:3\xa0@'
tRp3426
tp3427
a(S'YP_003043231.1'
p3428
g3
(g5
S'\x1bW\xd6\xdfP@\xa0@'
tRp3429
tp3430
a(S'YP_003045018.1'
p3431
g3
(g5
S'x\xb4t=fD\xa0@'
tRp3432
tp3433
a(S'YP_003044115.1'
p3434
g3
(g5
S'\xd2c\xd8\xc0\xc8G\xa0@'
tRp3435
tp3436
a(S'YP_003043600.1'
p3437
g3
(g5
S'e\xdbc\x12jX\xa0@'
tRp3438
tp3439
a(S'YP_003044074.1'
p3440
g3
(g5
S'n#=\xc2-z\xa0@'
tRp3441
tp3442
a(S'YP_003045559.1'
p3443
g3
(g5
S'\xbd\x160\xffx~\xa0@'
tRp3444
tp3445
a(S'YP_003043427.1'
p3446
g3
(g5
S'\xc6\xcc{\xe2.\x8e\xa0@'
tRp3447
tp3448
a(S'YP_003045516.1'
p3449
g3
(g5
S';\x9cD%\xcf\xae\xa0@'
tRp3450
tp3451
a(S'YP_003046220.1'
p3452
g3
(g5
S'\xc9\xd5\xd0\x11*\xc4\xa0@'
tRp3453
tp3454
a(S'YP_003045125.1'
p3455
g3
(g5
S'[x\x9bR\x84\xf8\xa0@'
tRp3456
tp3457
a(S'YP_003044302.1'
p3458
g3
(g5
S'"\x81\xf8IJ\x17\xa1@'
tRp3459
tp3460
a(S'YP_003046833.1'
p3461
g3
(g5
S'\x07%\x86bw$\xa1@'
tRp3462
tp3463
a(S'YP_003043325.1'
p3464
g3
(g5
S'\x02\x8f`T\xd4,\xa1@'
tRp3465
tp3466
a(S'YP_003045694.1'
p3467
g3
(g5
S'\xe2\x0c\xcez^7\xa1@'
tRp3468
tp3469
a(S'YP_003046225.1'
p3470
g3
(g5
S'A\xd7RB\x90Z\xa1@'
tRp3471
tp3472
a(S'YP_003043833.1'
p3473
g3
(g5
S'S\xd3\x90\xc8\x9eZ\xa1@'
tRp3474
tp3475
a(S'YP_003046221.1'
p3476
g3
(g5
S'\x1eT\rV#t\xa1@'
tRp3477
tp3478
a(S'YP_003047211.1'
p3479
g3
(g5
S'\x88\xc3\xdeV\xacv\xa1@'
tRp3480
tp3481
a(S'YP_003046208.1'
p3482
g3
(g5
S'2Y\xcb\x82K~\xa1@'
tRp3483
tp3484
a(S'YP_003044906.1'
p3485
g3
(g5
S'\x1a.i*<\x84\xa1@'
tRp3486
tp3487
a(S'YP_003043888.1'
p3488
g3
(g5
S'\x14\x1e\xfe\x1d\x9f\x8b\xa1@'
tRp3489
tp3490
a(S'YP_003043651.1'
p3491
g3
(g5
S'\x16\xe4\xd5Gr\x94\xa1@'
tRp3492
tp3493
a(S'YP_003046299.1'
p3494
g3
(g5
S'\xa9\xf2\xba-\xb6\x98\xa1@'
tRp3495
tp3496
a(S'YP_003045119.1'
p3497
g3
(g5
S'\x1f;^\xb4\x05\xa3\xa1@'
tRp3498
tp3499
a(S'YP_003043305.1'
p3500
g3
(g5
S'*\xb0\nO~\xb7\xa1@'
tRp3501
tp3502
a(S'YP_003046216.1'
p3503
g3
(g5
S'X\x88\x826W\xcf\xa1@'
tRp3504
tp3505
a(S'YP_003046910.1'
p3506
g3
(g5
S'\xc7CI\xe0\x04\xdb\xa1@'
tRp3507
tp3508
a(S'YP_003043348.1'
p3509
g3
(g5
S'\xe2\x92\x92\xc9%\xde\xa1@'
tRp3510
tp3511
a(S'YP_003043903.1'
p3512
g3
(g5
S'\xae\x13*\x95\xc6\xe2\xa1@'
tRp3513
tp3514
a(S'YP_003047015.1'
p3515
g3
(g5
S'\x92\x82\x01\x99\x1b\x00\xa2@'
tRp3516
tp3517
a(S'YP_003045671.1'
p3518
g3
(g5
S'\xda?\xb0\xc3\x10\x16\xa2@'
tRp3519
tp3520
a(S'YP_003044223.1'
p3521
g3
(g5
S'\xafG\x0f\xcd*\x1c\xa2@'
tRp3522
tp3523
a(S'YP_003045684.1'
p3524
g3
(g5
S's\xac\\1o-\xa2@'
tRp3525
tp3526
a(S'YP_003046634.1'
p3527
g3
(g5
S'P\xd5P\xb0K=\xa2@'
tRp3528
tp3529
a(S'YP_003046732.1'
p3530
g3
(g5
S'\x9c\x83E&TG\xa2@'
tRp3531
tp3532
a(S'YP_003043389.1'
p3533
g3
(g5
S'\x01:5$iv\xa2@'
tRp3534
tp3535
a(S'YP_003047436.1'
p3536
g3
(g5
S'\xc2$)\x90\xfb}\xa2@'
tRp3537
tp3538
a(S'YP_003045561.1'
p3539
g3
(g5
S'\x170\xed\xb4e\x84\xa2@'
tRp3540
tp3541
a(S'YP_003046824.1'
p3542
g3
(g5
S'sD\xd5\xeb\xd8\x97\xa2@'
tRp3543
tp3544
a(S'YP_003046259.1'
p3545
g3
(g5
S'\xbdD\x9bK\xa5\xa6\xa2@'
tRp3546
tp3547
a(S'YP_003046399.1'
p3548
g3
(g5
S'\x85\xac\x94C^\xb3\xa2@'
tRp3549
tp3550
a(S'YP_003043399.1'
p3551
g3
(g5
S'\xfb\xd52OD\xb6\xa2@'
tRp3552
tp3553
a(S'YP_003044106.1'
p3554
g3
(g5
S'\x98^\x8f\x0be\xba\xa2@'
tRp3555
tp3556
a(S'YP_003046984.1'
p3557
g3
(g5
S'{\xaf\x8b\xc5:\xc3\xa2@'
tRp3558
tp3559
a(S'YP_003043904.1'
p3560
g3
(g5
S'E\rI}b\xd1\xa2@'
tRp3561
tp3562
a(S'YP_003043382.1'
p3563
g3
(g5
S'\xd8\xd0\x9f\xf8\xf1\xd2\xa2@'
tRp3564
tp3565
a(S'YP_003046795.1'
p3566
g3
(g5
S'\xcf\xe5\xc4\t)\xdb\xa2@'
tRp3567
tp3568
a(S'YP_003045414.1'
p3569
g3
(g5
S'\xc6+\xaf\xacM\xde\xa2@'
tRp3570
tp3571
a(S'YP_003045503.1'
p3572
g3
(g5
S'\xb9r/\xd9\r\xe8\xa2@'
tRp3573
tp3574
a(S'YP_003046892.1'
p3575
g3
(g5
S'\xadS\xfc_d\xeb\xa2@'
tRp3576
tp3577
a(S'YP_003046676.1'
p3578
g3
(g5
S'd\xdc\xcd\xbc\x8f\xfb\xa2@'
tRp3579
tp3580
a(S'YP_003044083.1'
p3581
g3
(g5
S'\xad~O\x8f\x98\xfc\xa2@'
tRp3582
tp3583
a(S'YP_003044111.1'
p3584
g3
(g5
S'\xdc\xe9\xb3\x82|\x1c\xa3@'
tRp3585
tp3586
a(S'YP_003043412.1'
p3587
g3
(g5
S'ym\xe1>\x15\x1e\xa3@'
tRp3588
tp3589
a(S'YP_003044425.1'
p3590
g3
(g5
S'\x04\x0c\xe4\x02\xc2!\xa3@'
tRp3591
tp3592
a(S'YP_003044086.1'
p3593
g3
(g5
S"\xce\x816\xce\x19'\xa3@"
tRp3594
tp3595
a(S'YP_003044907.1'
p3596
g3
(g5
S'\xfe\xab\xac0\x97*\xa3@'
tRp3597
tp3598
a(S'YP_003043918.1'
p3599
g3
(g5
S'\x8cG\xf8)\x0eB\xa3@'
tRp3600
tp3601
a(S'YP_003046649.1'
p3602
g3
(g5
S';|\xae\x96NP\xa3@'
tRp3603
tp3604
a(S'YP_003047036.1'
p3605
g3
(g5
S'\x18\xe8\xe6Z(Q\xa3@'
tRp3606
tp3607
a(S'YP_003047055.1'
p3608
g3
(g5
S'\xdeQ]\x0c\xc5a\xa3@'
tRp3609
tp3610
a(S'YP_003047214.1'
p3611
g3
(g5
S'\xa2\x95\x84\xb5\xc2l\xa3@'
tRp3612
tp3613
a(S'YP_003043391.1'
p3614
g3
(g5
S'\x98%\xe6K\xa2\x97\xa3@'
tRp3615
tp3616
a(S'YP_003046223.1'
p3617
g3
(g5
S'.\tr\xd3O\x9d\xa3@'
tRp3618
tp3619
a(S'YP_003044755.1'
p3620
g3
(g5
S'\x9f\xf7\xa8\x13f\xa6\xa3@'
tRp3621
tp3622
a(S'YP_003046648.1'
p3623
g3
(g5
S'\xc8\xc4<\x9a\xa3\xa7\xa3@'
tRp3624
tp3625
a(S'YP_003046372.1'
p3626
g3
(g5
S'\xf2}\xf8\x81\x95\xaa\xa3@'
tRp3627
tp3628
a(S'YP_003046384.1'
p3629
g3
(g5
S'\x9b\xca\xcb\x88a\xb9\xa3@'
tRp3630
tp3631
a(S'YP_003043612.1'
p3632
g3
(g5
S'L\xff\x07L\x03\xf8\xa3@'
tRp3633
tp3634
a(S'YP_003045017.1'
p3635
g3
(g5
S'P\x11a\x04\xc1\xf9\xa3@'
tRp3636
tp3637
a(S'YP_003044430.1'
p3638
g3
(g5
S'W\x1c\x94\x8f\x89\x07\xa4@'
tRp3639
tp3640
a(S'YP_003044428.1'
p3641
g3
(g5
S'\xd6\x18?\xb2\xc4\x12\xa4@'
tRp3642
tp3643
a(S'YP_003043422.1'
p3644
g3
(g5
S'\x985|V\x0cG\xa4@'
tRp3645
tp3646
a(S'YP_003045402.1'
p3647
g3
(g5
S'ne77\x13G\xa4@'
tRp3648
tp3649
a(S'YP_003045272.1'
p3650
g3
(g5
S'\xfa\xf1-\xd0Xj\xa4@'
tRp3651
tp3652
a(S'YP_003044088.1'
p3653
g3
(g5
S'\xb1\xcf\xdf\xf2\xc9o\xa4@'
tRp3654
tp3655
a(S'YP_003044946.1'
p3656
g3
(g5
S'\xe1 Gq\xa3\x87\xa4@'
tRp3657
tp3658
a(S'YP_003043743.1'
p3659
g3
(g5
S'\x84\x8d\x9d{d\x8c\xa4@'
tRp3660
tp3661
a(S'YP_003047056.1'
p3662
g3
(g5
S'D\xb9r&I\xa6\xa4@'
tRp3663
tp3664
a(S'YP_003043407.1'
p3665
g3
(g5
S'f\xae3\xd2\x18\xa8\xa4@'
tRp3666
tp3667
a(S'YP_003046490.1'
p3668
g3
(g5
S'\x86TW\x073\xab\xa4@'
tRp3669
tp3670
a(S'YP_003043266.1'
p3671
g3
(g5
S'KBE\x97\xdd\xb8\xa4@'
tRp3672
tp3673
a(S'YP_003046031.1'
p3674
g3
(g5
S'\xb3\x8at\xc7c\xca\xa4@'
tRp3675
tp3676
a(S'YP_003046422.1'
p3677
g3
(g5
S'\x83yw\x108\xce\xa4@'
tRp3678
tp3679
a(S'YP_003047014.1'
p3680
g3
(g5
S'\xd8 G,\x05\x02\xa5@'
tRp3681
tp3682
a(S'YP_003047103.1'
p3683
g3
(g5
S'\xd9\xa3\x06\x13\xdb\x02\xa5@'
tRp3684
tp3685
a(S'YP_003047016.1'
p3686
g3
(g5
S'\xcd\x91\xaf\xf4\xfb*\xa5@'
tRp3687
tp3688
a(S'YP_003047295.1'
p3689
g3
(g5
S'?\xfcJj\xf26\xa5@'
tRp3690
tp3691
a(S'YP_003046383.1'
p3692
g3
(g5
S'?\x05\xf2\x87pu\xa5@'
tRp3693
tp3694
a(S'YP_003044125.1'
p3695
g3
(g5
S'[\xce\xf3\xe6\x81\x80\xa5@'
tRp3696
tp3697
a(S'YP_003047060.1'
p3698
g3
(g5
S'\x15\x8b>\xdf\xa3\x9a\xa5@'
tRp3699
tp3700
a(S'YP_003043860.1'
p3701
g3
(g5
S'\x93\xe2\xf0\xb6\x08\x9e\xa5@'
tRp3702
tp3703
a(S'YP_003047031.1'
p3704
g3
(g5
S'.r\r\xde\x0f\xd9\xa5@'
tRp3705
tp3706
a(S'YP_003046793.1'
p3707
g3
(g5
S'\xc4?\xebL7\xe5\xa5@'
tRp3708
tp3709
a(S'YP_003046453.1'
p3710
g3
(g5
S':\x83/\x8c\xbd\xec\xa5@'
tRp3711
tp3712
a(S'YP_003043901.1'
p3713
g3
(g5
S'<\x8b\xa1\xed+\xf4\xa5@'
tRp3714
tp3715
a(S'YP_003044557.1'
p3716
g3
(g5
S'\xa4\x154\xf4s\x06\xa6@'
tRp3717
tp3718
a(S'YP_003043648.1'
p3719
g3
(g5
S'\xac\x19IB)J\xa6@'
tRp3720
tp3721
a(S'YP_003046004.1'
p3722
g3
(g5
S'\xc9\xf5\x87\xd4\xcdP\xa6@'
tRp3723
tp3724
a(S'YP_003043232.1'
p3725
g3
(g5
S'\x1b\x1b\x91\xefgW\xa6@'
tRp3726
tp3727
a(S'YP_003046385.1'
p3728
g3
(g5
S'\x86?o\xd6\xdfY\xa6@'
tRp3729
tp3730
a(S'YP_003047000.1'
p3731
g3
(g5
S'M\xa2\xe7\xb0\xcce\xa6@'
tRp3732
tp3733
a(S'YP_003043926.1'
p3734
g3
(g5
S'\xdd\xfa\xd0@\x80x\xa6@'
tRp3735
tp3736
a(S'YP_003046765.1'
p3737
g3
(g5
S'\x9cv$\\\x16|\xa6@'
tRp3738
tp3739
a(S'YP_003045581.1'
p3740
g3
(g5
S'\x10+\xa5\xc8\x99\x8c\xa6@'
tRp3741
tp3742
a(S'YP_003045843.1'
p3743
g3
(g5
S'1\x9c\xb0\xdc\xd3\xa0\xa6@'
tRp3744
tp3745
a(S'YP_003043359.1'
p3746
g3
(g5
S'\xbewO\x87\x19\xc5\xa6@'
tRp3747
tp3748
a(S'YP_003045639.1'
p3749
g3
(g5
S'P:*@\xb9\r\xa7@'
tRp3750
tp3751
a(S'YP_003044476.1'
p3752
g3
(g5
S'+8\xd5\x14\xa8$\xa7@'
tRp3753
tp3754
a(S'YP_003046092.1'
p3755
g3
(g5
S'\x91\x9d\xcf\xe3\xac0\xa7@'
tRp3756
tp3757
a(S'YP_003047209.1'
p3758
g3
(g5
S'\xb5\\\xcc\r\xaa<\xa7@'
tRp3759
tp3760
a(S'YP_003044772.1'
p3761
g3
(g5
S'\x80\x1c-\xbejL\xa7@'
tRp3762
tp3763
a(S'YP_003044880.1'
p3764
g3
(g5
S'M\xff\xde\xa0\xbbV\xa7@'
tRp3765
tp3766
a(S'YP_003045560.1'
p3767
g3
(g5
S'l\x00e\x00ht\xa7@'
tRp3768
tp3769
a(S'YP_003046797.1'
p3770
g3
(g5
S'\x0bp\xee\xe1R~\xa7@'
tRp3771
tp3772
a(S'YP_003044225.1'
p3773
g3
(g5
S')\xc5\x17;\xb4\x8c\xa7@'
tRp3774
tp3775
a(S'YP_003046789.1'
p3776
g3
(g5
S'o{oH\xdd\xda\xa7@'
tRp3777
tp3778
a(S'YP_003044826.1'
p3779
g3
(g5
S'\x08\xfbeb5\xf3\xa7@'
tRp3780
tp3781
a(S'YP_003044150.1'
p3782
g3
(g5
S'\xfb\x90\x86\xcc\xad\x00\xa8@'
tRp3783
tp3784
a(S'YP_003045411.1'
p3785
g3
(g5
S'\xd0\xc4\x7fs\xe1\x08\xa8@'
tRp3786
tp3787
a(S'YP_003046835.1'
p3788
g3
(g5
S"\xa9\xfd\xe6'\x8d'\xa8@"
tRp3789
tp3790
a(S'YP_003045563.1'
p3791
g3
(g5
S"x5\xa5\xa3\xca'\xa8@"
tRp3792
tp3793
a(S'YP_003044780.1'
p3794
g3
(g5
S'\xd9\xfaX\xb3\xe2N\xa8@'
tRp3795
tp3796
a(S'YP_003043906.1'
p3797
g3
(g5
S' \xa0=U\x95u\xa8@'
tRp3798
tp3799
a(S'YP_003046647.1'
p3800
g3
(g5
S'\xfe\xc8\x97\xb0+\xa6\xa8@'
tRp3801
tp3802
a(S'YP_003047078.1'
p3803
g3
(g5
S'Z"\xaavr\xb6\xa8@'
tRp3804
tp3805
a(S'YP_003046980.1'
p3806
g3
(g5
S'\x81\x1a\xc6\xff\xf1\xe9\xa8@'
tRp3807
tp3808
a(S'YP_003043859.1'
p3809
g3
(g5
S'\x03\xab\x82@>\xef\xa8@'
tRp3810
tp3811
a(S'YP_003043302.1'
p3812
g3
(g5
S'\x16\x1dP$\xa1\x00\xa9@'
tRp3813
tp3814
a(S'YP_003043237.1'
p3815
g3
(g5
S'6\xf0\xb5\xf0\xf8W\xa9@'
tRp3816
tp3817
a(S'YP_003045426.1'
p3818
g3
(g5
S'\xf4\x1f\xe2d\x01\x9a\xa9@'
tRp3819
tp3820
a(S'YP_003046818.1'
p3821
g3
(g5
S'WH8\xcd$\x9d\xa9@'
tRp3822
tp3823
a(S'YP_003045691.1'
p3824
g3
(g5
S'\xe1dO>\xa9\xbe\xa9@'
tRp3825
tp3826
a(S'YP_003043986.1'
p3827
g3
(g5
S'?!H\x19\xa7\xe8\xa9@'
tRp3828
tp3829
a(S'YP_003044133.1'
p3830
g3
(g5
S'\xb6\xa5\xb1\xaaD\xee\xa9@'
tRp3831
tp3832
a(S'YP_003045413.1'
p3833
g3
(g5
S'\xd1"\xc7\xd8\x90\xee\xa9@'
tRp3834
tp3835
a(S'YP_003043424.1'
p3836
g3
(g5
S'\x06r\x88\x03j\xef\xa9@'
tRp3837
tp3838
a(S'YP_003047037.1'
p3839
g3
(g5
S"8\x03\x12\xf3\xc7'\xaa@"
tRp3840
tp3841
a(S'YP_003047018.1'
p3842
g3
(g5
S'\x9d\x1d)\xaf\x97-\xaa@'
tRp3843
tp3844
a(S'YP_003044448.1'
p3845
g3
(g5
S'\xefy\n\xc4\x14B\xaa@'
tRp3846
tp3847
a(S'YP_003046395.1'
p3848
g3
(g5
S'\xd1JN\x82\xa9s\xaa@'
tRp3849
tp3850
a(S'YP_003045933.1'
p3851
g3
(g5
S'\x1f\xc1\x9c\x14\x85\x0f\xab@'
tRp3852
tp3853
a(S'YP_003043446.1'
p3854
g3
(g5
S'\xb6Y\r:\xa2$\xab@'
tRp3855
tp3856
a(S'YP_003044447.1'
p3857
g3
(g5
S'\xd4O\xfe\x8e\x0b)\xab@'
tRp3858
tp3859
a(S'YP_003046794.1'
p3860
g3
(g5
S'Z\x99m\r>:\xab@'
tRp3861
tp3862
a(S'YP_003044129.1'
p3863
g3
(g5
S'pS\xec\x1b\x81m\xab@'
tRp3864
tp3865
a(S'YP_003046377.1'
p3866
g3
(g5
S'\xb8\xc2&L\xce\x8b\xab@'
tRp3867
tp3868
a(S'YP_003046967.1'
p3869
g3
(g5
S'\x97\x13\xe2\xb8*\xa9\xab@'
tRp3870
tp3871
a(S'YP_003043999.1'
p3872
g3
(g5
S'\xf6%!\xf9\xef\xbb\xab@'
tRp3873
tp3874
a(S'YP_003043393.1'
p3875
g3
(g5
S';\x103\xefT\xe4\xab@'
tRp3876
tp3877
a(S'YP_003043303.1'
p3878
g3
(g5
S'\xcd\xcc(\xfb6\xfc\xab@'
tRp3879
tp3880
a(S'YP_003046355.1'
p3881
g3
(g5
S'P\xd1\xa0w\xe8\t\xac@'
tRp3882
tp3883
a(S'YP_003045508.1'
p3884
g3
(g5
S'e\x16h\xab\xe4\r\xac@'
tRp3885
tp3886
a(S'YP_003043342.1'
p3887
g3
(g5
S'\x90\xc8\xde\x12<%\xac@'
tRp3888
tp3889
a(S'YP_003046827.1'
p3890
g3
(g5
S'\xe3\xc15`<=\xac@'
tRp3891
tp3892
a(S'YP_003046994.1'
p3893
g3
(g5
S'\xac3\xfe\n\xd1v\xac@'
tRp3894
tp3895
a(S'YP_003046357.1'
p3896
g3
(g5
S'\xa3-\xe5\xd0>\xd7\xac@'
tRp3897
tp3898
a(S'YP_003044317.1'
p3899
g3
(g5
S'[RQ\xd0\xf9\xd8\xac@'
tRp3900
tp3901
a(S'YP_003046341.1'
p3902
g3
(g5
S'6~o\x99\x8d\x12\xad@'
tRp3903
tp3904
a(S'YP_003045590.1'
p3905
g3
(g5
S'\x1c\x07\xc1\x14\x17A\xad@'
tRp3906
tp3907
a(S'YP_003045440.1'
p3908
g3
(g5
S'\xd4\xa9\x03I\x15\x1a\xae@'
tRp3909
tp3910
a(S'YP_003043618.1'
p3911
g3
(g5
S'\n\xad\xa9\xb6\xd1\x1a\xae@'
tRp3912
tp3913
a(S'YP_003045507.1'
p3914
g3
(g5
S'\xebE\xce\xf4\xc78\xae@'
tRp3915
tp3916
a(S'YP_003043233.1'
p3917
g3
(g5
S'\xe5\xea\xe2\x87\xd3\xb7\xae@'
tRp3918
tp3919
a(S'YP_003043304.1'
p3920
g3
(g5
S')E\xd3\xe3\x97\xca\xae@'
tRp3921
tp3922
a(S'YP_003043511.1'
p3923
g3
(g5
S';UF+\xae\xec\xae@'
tRp3924
tp3925
a(S'YP_003046278.1'
p3926
g3
(g5
S'X9\x84\xe1\xd6\xf3\xae@'
tRp3927
tp3928
a(S'YP_003043898.1'
p3929
g3
(g5
S'O\x07`e!\xb8\xaf@'
tRp3930
tp3931
a(S'YP_003043701.1'
p3932
g3
(g5
S')\x97\xe4\x03\xf3\xd0\xaf@'
tRp3933
tp3934
a(S'YP_003044308.1'
p3935
g3
(g5
S'\xb0\x98\x1d\xaa\xc8\x12\xb0@'
tRp3936
tp3937
a(S'YP_003044134.1'
p3938
g3
(g5
S'\x95<\x1b\x9eQ\x15\xb0@'
tRp3939
tp3940
a(S'YP_003046217.1'
p3941
g3
(g5
S'~\xd312\xc7 \xb0@'
tRp3942
tp3943
a(S'YP_003047033.1'
p3944
g3
(g5
S'?p\x14\xff\xc5$\xb0@'
tRp3945
tp3946
a(S'YP_003047265.1'
p3947
g3
(g5
S'\xe0}\xb0&\xfak\xb0@'
tRp3948
tp3949
a(S'YP_003044886.1'
p3950
g3
(g5
S'\x03\xa9\xe4\xd4Do\xb0@'
tRp3951
tp3952
a(S'YP_003047034.1'
p3953
g3
(g5
S')`\xdf\x06\xf5\x88\xb0@'
tRp3954
tp3955
a(S'YP_003046685.1'
p3956
g3
(g5
S'\xcdW)\x073\x0e\xb1@'
tRp3957
tp3958
a(S'YP_003047322.1'
p3959
g3
(g5
S'1\xa3\xec\x10\xe8\x14\xb1@'
tRp3960
tp3961
a(S'YP_003046332.1'
p3962
g3
(g5
S'\xbe\xf3I\xb3,\x1e\xb1@'
tRp3963
tp3964
a(S'YP_003043919.1'
p3965
g3
(g5
S'\x10\xbdb\xc3*\x1f\xb1@'
tRp3966
tp3967
a(S'YP_003046351.1'
p3968
g3
(g5
S'\xa2\xd8\xf6G\xd8]\xb1@'
tRp3969
tp3970
a(S'YP_003047184.1'
p3971
g3
(g5
S'\x00JO(\xcb~\xb1@'
tRp3972
tp3973
a(S'YP_003045953.1'
p3974
g3
(g5
S'\xa0\xe5\xd5X\xaa\x80\xb1@'
tRp3975
tp3976
a(S'YP_003043613.1'
p3977
g3
(g5
S'\x1f\xea\x88Q\xe5\x98\xb1@'
tRp3978
tp3979
a(S'YP_003043925.1'
p3980
g3
(g5
S'9\x8d\x01^\xc0\xb0\xb1@'
tRp3981
tp3982
a(S'YP_003044927.1'
p3983
g3
(g5
S'-\xe2\x18>\x9c\xb2\xb1@'
tRp3984
tp3985
a(S'YP_003045600.1'
p3986
g3
(g5
S'\xae\x81v\xd1\xc3\xce\xb1@'
tRp3987
tp3988
a(S'YP_003043396.1'
p3989
g3
(g5
S'/\x878\xb5\x13Q\xb2@'
tRp3990
tp3991
a(S'YP_003044306.1'
p3992
g3
(g5
S'\x0f\x0ba}aZ\xb2@'
tRp3993
tp3994
a(S'YP_003047240.1'
p3995
g3
(g5
S'\xbb\xe0\xd3\xd3Ke\xb2@'
tRp3996
tp3997
a(S'YP_003046929.1'
p3998
g3
(g5
S'\xd0\xc1\x0e\xe5%m\xb2@'
tRp3999
tp4000
a(S'YP_003043397.1'
p4001
g3
(g5
S'\xf4\xb4\xaf\xcbb\x93\xb2@'
tRp4002
tp4003
a(S'YP_003046576.1'
p4004
g3
(g5
S'\xeeJ\xb8\xb29\xb3\xb2@'
tRp4005
tp4006
a(S'YP_003046346.1'
p4007
g3
(g5
S'S#<\x9f\x7f\xe2\xb2@'
tRp4008
tp4009
a(S'YP_003046809.1'
p4010
g3
(g5
S'Y\x98c$\x99\xe5\xb2@'
tRp4011
tp4012
a(S'YP_003044110.1'
p4013
g3
(g5
S'\x83\xe8R\x03\xa5_\xb3@'
tRp4014
tp4015
a(S'YP_003043795.1'
p4016
g3
(g5
S'\xf0\xa8W\xcf=\xba\xb3@'
tRp4017
tp4018
a(S'YP_003043699.1'
p4019
g3
(g5
S'\xabs\x0f\xcc!\xd5\xb3@'
tRp4020
tp4021
a(S'YP_003047256.1'
p4022
g3
(g5
S'Z\xfc\xbc\xa2<\x06\xb4@'
tRp4023
tp4024
a(S'YP_003046344.1'
p4025
g3
(g5
S'\xd8\r\xf5\x90\x9a\x0c\xb4@'
tRp4026
tp4027
a(S'YP_003043997.1'
p4028
g3
(g5
S'\xbeo\xba\x06r;\xb4@'
tRp4029
tp4030
a(S'YP_003044598.1'
p4031
g3
(g5
S'\xd8*\xf7x3\x8f\xb4@'
tRp4032
tp4033
a(S'YP_003045960.1'
p4034
g3
(g5
S'\xce-\tA\xd1\xb7\xb4@'
tRp4035
tp4036
a(S'YP_003045275.1'
p4037
g3
(g5
S'\xd2=\xd1\xbf\x1a\xc0\xb4@'
tRp4038
tp4039
a(S'YP_003047032.1'
p4040
g3
(g5
S'\xb5\xce{\x15R\xd0\xb4@'
tRp4041
tp4042
a(S'YP_003046468.1'
p4043
g3
(g5
S'B\x8b\x89\xe8$\xdc\xb4@'
tRp4044
tp4045
a(S'YP_003046791.1'
p4046
g3
(g5
S'1\x88\xe7\xb0\xdb\xe4\xb4@'
tRp4047
tp4048
a(S'YP_003044512.1'
p4049
g3
(g5
S'\xba\x03l]P\x1a\xb5@'
tRp4050
tp4051
a(S'YP_003043614.1'
p4052
g3
(g5
S'8I\x11\xba\xdey\xb5@'
tRp4053
tp4054
a(S'YP_003043842.1'
p4055
g3
(g5
S'\x89\xa0\x16\xb9\xc6\xaf\xb5@'
tRp4056
tp4057
a(S'YP_003046331.1'
p4058
g3
(g5
S'\x94\xf1\xfa\xefR\xb9\xb5@'
tRp4059
tp4060
a(S'YP_003045932.1'
p4061
g3
(g5
S'\x0c\x9an>\x8c:\xb6@'
tRp4062
tp4063
a(S'YP_003043425.1'
p4064
g3
(g5
S'\xf2G\x14w\xd5n\xb6@'
tRp4065
tp4066
a(S'YP_003046350.1'
p4067
g3
(g5
S'\x1bt\x12\x81hs\xb6@'
tRp4068
tp4069
a(S'YP_003045109.1'
p4070
g3
(g5
S'\x00\x0b\x1e\xd4\xf7\xa9\xb6@'
tRp4071
tp4072
a(S'YP_003046792.1'
p4073
g3
(g5
S'O\x9d\x05E\x92\xf2\xb6@'
tRp4074
tp4075
a(S'YP_003045944.1'
p4076
g3
(g5
S'i#1\xcb\x18.\xb9@'
tRp4077
tp4078
a(S'YP_003043581.1'
p4079
g3
(g5
S'\xd4\x88\x99o\xb6L\xb9@'
tRp4080
tp4081
a(S'YP_003045633.1'
p4082
g3
(g5
S'*\xf0\x9b#\tt\xb9@'
tRp4083
tp4084
a(S'YP_003047050.1'
p4085
g3
(g5
S'\x868\xc8\xf4\x99\xc7\xb9@'
tRp4086
tp4087
a(S'YP_003046281.1'
p4088
g3
(g5
S'\x06\xd2\xf0\xbc"\x0b\xba@'
tRp4089
tp4090
a(S'YP_003043243.1'
p4091
g3
(g5
S'\xc3\xdb\xb5\xb3\xaa\x9b\xba@'
tRp4092
tp4093
a(S'YP_003044811.1'
p4094
g3
(g5
S'GL\xa6\x8c\r\xd2\xbb@'
tRp4095
tp4096
a(S'YP_003044426.1'
p4097
g3
(g5
S'{0\xa1\xadH\xe5\xbc@'
tRp4098
tp4099
a(S'YP_003046977.1'
p4100
g3
(g5
S'p\x1e\xe1\xd5l\x12\xbd@'
tRp4101
tp4102
a(S'YP_003045945.1'
p4103
g3
(g5
S'%\xd2#\xb1a%\xbd@'
tRp4104
tp4105
a(S'YP_003046796.1'
p4106
g3
(g5
S'\x1d\xedhO\x97!\xbe@'
tRp4107
tp4108
a(S'YP_003043373.1'
p4109
g3
(g5
S"\xae\x14\xdc(7'\xbe@"
tRp4110
tp4111
a(S'YP_003046812.1'
p4112
g3
(g5
S'\xd0z\xb6\t\xe1G\xbe@'
tRp4113
tp4114
a(S'YP_003046304.1'
p4115
g3
(g5
S'\xb4\x7fU\xaf\xfcj\xbe@'
tRp4116
tp4117
a(S'YP_003046526.1'
p4118
g3
(g5
S'\x9c\xb1\x8b\x16.}\xbe@'
tRp4119
tp4120
a(S'YP_003045104.1'
p4121
g3
(g5
S'Co\xf1\xdd\xfd\xa1\xbe@'
tRp4122
tp4123
a(S'YP_003046823.1'
p4124
g3
(g5
S'\xfc\xefcv\xa7\xb3\xbe@'
tRp4125
tp4126
a(S'YP_003044152.1'
p4127
g3
(g5
S"'xU\xaa\xef\xeb\xbe@"
tRp4128
tp4129
a(S'YP_003046376.1'
p4130
g3
(g5
S', \xe9\xcd\xd2t\xbf@'
tRp4131
tp4132
a(S'YP_003046492.1'
p4133
g3
(g5
S'\x13=\xb3-\x99D\xc0@'
tRp4134
tp4135
a(S'YP_003044179.1'
p4136
g3
(g5
S'\xc0fo\xff`Y\xc0@'
tRp4137
tp4138
a(S'YP_003046882.1'
p4139
g3
(g5
S'\x1bM\x16\xd8\xfc\xfd\xc0@'
tRp4140
tp4141
a(S'YP_003047237.1'
p4142
g3
(g5
S'\xfe\xf4\xd5\xb9\xfbO\xc1@'
tRp4143
tp4144
a(S'YP_003045506.1'
p4145
g3
(g5
S'~yJz\x16S\xc1@'
tRp4146
tp4147
a(S'YP_003044309.1'
p4148
g3
(g5
S'YR\x17\xb2\xcc\x8c\xc1@'
tRp4149
tp4150
a(S'YP_003045813.1'
p4151
g3
(g5
S'\x8d\x1c\x8a\x81\x10x\xc3@'
tRp4152
tp4153
a(S'YP_003043609.1'
p4154
g3
(g5
S'D\xb5\x14\x0c[\x8d\xc3@'
tRp4155
tp4156
a(S'YP_003045505.1'
p4157
g3
(g5
S'\xee\xb9D\x01\xfc$\xc8@'
tRp4158
tp4159
a(S'YP_003046339.1'
p4160
g3
(g5
S'KP\x0f\x9b\xfdc\xc8@'
tRp4161
tp4162
a(S'YP_003047035.1'
p4163
g3
(g5
S'\x7f\xbc\x840H\x81\xcf@'
tRp4164
tp4165
a(S'YP_003044945.1'
p4166
g3
(g5
S'\x9f\xd5 k\x0e\x19\xd2@'
tRp4167
tp4168
a(S'YP_003047029.1'
p4169
g3
(g5
S'h\xda+\x0b#\x1d\xd5@'
tRp4170
tp4171
a(S'YP_003046375.1'
p4172
g3
(g5
S'\x98y7ZUf\xd8@'
tRp4173
tp4174
a(S'YP_003044438.1'
p4175
g3
(g5
S'\xaa\xf16\xaa\xc5\x93\xd8@'
tRp4176
tp4177
a.