(lp1
(S'YP_003045856.1'
p2
cnumpy.core.multiarray
scalar
p3
(cnumpy
dtype
p4
(S'f8'
I0
I1
tRp5
(I3
S'<'
NNNI-1
I-1
I0
tbS'S\x18\x9e\xba\x99\x85\x13@'
tRp6
tp7
a(S'YP_003045631.1'
p8
g3
(g5
S'*\xc5\xf8\xe0\x81\xff\x15@'
tRp9
tp10
a(S'YP_003043984.1'
p11
g3
(g5
S'\x8fG\x9fg e\x19@'
tRp12
tp13
a(S'YP_003043445.1'
p14
g3
(g5
S'\tH\x07\xd0\xecn\x1a@'
tRp15
tp16
a(S'YP_003047288.1'
p17
g3
(g5
S'\xb1\xab\xfa[\xe8\xdc\x1a@'
tRp18
tp19
a(S'YP_003046514.1'
p20
g3
(g5
S'\xe6\x04\xa9\t&B\x1d@'
tRp21
tp22
a(S'YP_003043617.1'
p23
g3
(g5
S'(\xb1B\xd9\x8b\xeb\x1e@'
tRp24
tp25
a(S'YP_003046374.1'
p26
g3
(g5
S'h\xaf\xac[\xcfQ @'
tRp27
tp28
a(S'YP_003045167.1'
p29
g3
(g5
S'"t\x04o\xf4l @'
tRp30
tp31
a(S'YP_003043673.1'
p32
g3
(g5
S'\xed\xe1]\xef$7"@'
tRp33
tp34
a(S'YP_003044634.1'
p35
g3
(g5
S'<\x86j\x07\x0cQ"@'
tRp36
tp37
a(S'YP_003043708.1'
p38
g3
(g5
S'YI\xd1\x8d\x18\xc0"@'
tRp39
tp40
a(S'YP_003043979.1'
p41
g3
(g5
S'f[\x1c>\x08\xd1"@'
tRp42
tp43
a(S'YP_003045239.1'
p44
g3
(g5
S'h!\xab\xed\xf0\xd7"@'
tRp45
tp46
a(S'YP_003045899.1'
p47
g3
(g5
S'K\x07\xa3\xb8\xb0;$@'
tRp48
tp49
a(S'YP_003045471.1'
p50
g3
(g5
S'Y\xc4<\xfc\xefR$@'
tRp51
tp52
a(S'YP_003047006.1'
p53
g3
(g5
S'sD\xc0uJY$@'
tRp54
tp55
a(S'YP_003044099.1'
p56
g3
(g5
S'F^\x1eb\xf7\x9b$@'
tRp57
tp58
a(S'YP_003044392.1'
p59
g3
(g5
S'W@ss\x829%@'
tRp60
tp61
a(S'YP_003047009.1'
p62
g3
(g5
S'f>}\x1c\xbf\x08&@'
tRp63
tp64
a(S'YP_003047113.1'
p65
g3
(g5
S'\xc4\xed\x91\x03fH&@'
tRp66
tp67
a(S'YP_003045855.1'
p68
g3
(g5
S'\xf8K\x04\xce\xccS&@'
tRp69
tp70
a(S'YP_003043736.1'
p71
g3
(g5
S'cI\xde\x1e\x93\xec&@'
tRp72
tp73
a(S'YP_003045755.1'
p74
g3
(g5
S'\xb96\xcc\xd8\xec\xf7&@'
tRp75
tp76
a(S'YP_003044391.1'
p77
g3
(g5
S'\xc4\xa4>\x0c\xc0\x19(@'
tRp78
tp79
a(S'YP_003044537.1'
p80
g3
(g5
S'\xc8@V\xce\x99\xe9(@'
tRp81
tp82
a(S'YP_003046077.1'
p83
g3
(g5
S'\x97\xb0[\x1f\xc8\x8e)@'
tRp84
tp85
a(S'YP_003046461.1'
p86
g3
(g5
S'\x00\xcd\xcb\x18\xc0\r*@'
tRp87
tp88
a(S'YP_003047061.1'
p89
g3
(g5
S'p\xcey\x7fC\xcb*@'
tRp90
tp91
a(S'YP_003043503.1'
p92
g3
(g5
S'F\xbc\xa8\x9d\xdfP+@'
tRp93
tp94
a(S'YP_003044615.1'
p95
g3
(g5
S'\xb9Fq\xb0\x91\xfc+@'
tRp96
tp97
a(S'YP_003047275.1'
p98
g3
(g5
S'\x7f\xa4\x1a\xbc\x8f(,@'
tRp99
tp100
a(S'YP_003046551.1'
p101
g3
(g5
S'\xf7\xd3x\x005\xda-@'
tRp102
tp103
a(S'YP_003046781.1'
p104
g3
(g5
S'\xadv(\xb9\xd8\xe1-@'
tRp105
tp106
a(S'YP_003045457.1'
p107
g3
(g5
S'n\xac?\xaf\xeb\xae.@'
tRp108
tp109
a(S'YP_003044899.1'
p110
g3
(g5
S'\xf0\xd7\xa6.;\x9a/@'
tRp111
tp112
a(S'YP_003047266.1'
p113
g3
(g5
S'g\xfd"P5\xe2/@'
tRp114
tp115
a(S'YP_003045299.1'
p116
g3
(g5
S'\xc5U\x81[\xd8`0@'
tRp117
tp118
a(S'YP_003045887.1'
p119
g3
(g5
S'\xbf\xe4@z\x93s0@'
tRp120
tp121
a(S'YP_003045709.1'
p122
g3
(g5
S'\xe1\xd3S\xf0m\xb50@'
tRp123
tp124
a(S'YP_003045344.1'
p125
g3
(g5
S'\xfcP\x0c\x1eo\x991@'
tRp126
tp127
a(S'YP_003046394.1'
p128
g3
(g5
S'}\x1d\xab\x04C\xde1@'
tRp129
tp130
a(S'YP_003046729.1'
p131
g3
(g5
S'\x02\x08\xab+y,2@'
tRp132
tp133
a(S'YP_003045300.1'
p134
g3
(g5
S'\xa4c\x9a\x1a\x08\xf82@'
tRp135
tp136
a(S'YP_003043593.1'
p137
g3
(g5
S'\x84)\xb1\xaf\x8c\x113@'
tRp138
tp139
a(S'YP_003044335.1'
p140
g3
(g5
S'H,"\xc6T\xf13@'
tRp141
tp142
a(S'YP_003044607.1'
p143
g3
(g5
S'\xc8\xd4\xb5n\xd6\x054@'
tRp144
tp145
a(S'YP_003044823.1'
p146
g3
(g5
S'=@\xff\x82\xe3O4@'
tRp147
tp148
a(S'YP_003043394.1'
p149
g3
(g5
S'\x19\xa4p\xf5\x84}4@'
tRp150
tp151
a(S'YP_003044415.1'
p152
g3
(g5
S'2\x8b\xa6\x00\xc9\x085@'
tRp153
tp154
a(S'YP_003047373.1'
p155
g3
(g5
S'\x88\xa7n\x88\x99\x885@'
tRp156
tp157
a(S'YP_003046759.1'
p158
g3
(g5
S'HJ\xd7z~\xaa5@'
tRp159
tp160
a(S'YP_003044417.1'
p161
g3
(g5
S'\xc7\r\xed\xa4\x84\xe95@'
tRp162
tp163
a(S'YP_003047004.1'
p164
g3
(g5
S'\xadbQvT\x1a6@'
tRp165
tp166
a(S'YP_003043754.1'
p167
g3
(g5
S'\xf4\xa5\x98\xab\x98\xf06@'
tRp168
tp169
a(S'YP_003045988.1'
p170
g3
(g5
S'bU\xd6\x88\xb5H7@'
tRp171
tp172
a(S'YP_003046643.1'
p173
g3
(g5
S'\x05/\xafw\xf4\xec7@'
tRp174
tp175
a(S'YP_003044981.1'
p176
g3
(g5
S'\xbd\xfbN\xca\xa4\x1e8@'
tRp177
tp178
a(S'YP_003046195.1'
p179
g3
(g5
S'\xe3h\xcc\x142_8@'
tRp180
tp181
a(S'YP_003045075.1'
p182
g3
(g5
S'\x84\\\xcd\xb9\xad\xb18@'
tRp183
tp184
a(S'YP_003045107.1'
p185
g3
(g5
S'\x1fRw 8\xd98@'
tRp186
tp187
a(S'YP_003045358.1'
p188
g3
(g5
S'Y\x91\x03Tx\x159@'
tRp189
tp190
a(S'YP_003043641.1'
p191
g3
(g5
S'\xe0y\xbeE\xc619@'
tRp192
tp193
a(S'YP_003045049.1'
p194
g3
(g5
S'\xafD\x13L\xa7^9@'
tRp195
tp196
a(S'YP_003047244.1'
p197
g3
(g5
S'\x92ed\x1a4p9@'
tRp198
tp199
a(S'YP_003045065.1'
p200
g3
(g5
S'\xa3\xa0 |\r\xda9@'
tRp201
tp202
a(S'YP_003044092.1'
p203
g3
(g5
S'\xcb\x1f\x90\x9b\x82\xe69@'
tRp204
tp205
a(S'YP_003044597.1'
p206
g3
(g5
S'a\x10\xf3\xb3\xb7\xf79@'
tRp207
tp208
a(S'YP_003044563.1'
p209
g3
(g5
S'Q\xbb\xe4\xee*Y:@'
tRp210
tp211
a(S'YP_003044070.1'
p212
g3
(g5
S'\xd9\xfa\xd4O\xd2h:@'
tRp213
tp214
a(S'YP_003046726.1'
p215
g3
(g5
S'\xf6g\xadlVW;@'
tRp216
tp217
a(S'YP_003043692.1'
p218
g3
(g5
S'\xe3\xb5\xcb\xfcc];@'
tRp219
tp220
a(S'YP_003046488.1'
p221
g3
(g5
S'\x99\x0b8\xc0Fn;@'
tRp222
tp223
a(S'YP_003044912.1'
p224
g3
(g5
S'\xf6\xe2\x1f\x8f\x80\x19<@'
tRp225
tp226
a(S'YP_003044194.1'
p227
g3
(g5
S'~\xc1\x85\x01^\xc7<@'
tRp228
tp229
a(S'YP_003047377.1'
p230
g3
(g5
S'qI&\xbf\xea\xd3<@'
tRp231
tp232
a(S'YP_003044216.1'
p233
g3
(g5
S'\x85\x9b-\xb5\xc7:=@'
tRp234
tp235
a(S'YP_003045271.1'
p236
g3
(g5
S'm\x8e\xd1\x0e\xb2h=@'
tRp237
tp238
a(S'YP_003047010.1'
p239
g3
(g5
S'\x89\xc9\x16w\xad\x88=@'
tRp240
tp241
a(S'YP_003046549.1'
p242
g3
(g5
S'\xc8\xbc\xbd\xefy7>@'
tRp243
tp244
a(S'YP_003046627.1'
p245
g3
(g5
S'l}\xc2\xfb\xd4i>@'
tRp246
tp247
a(S'YP_003044378.1'
p248
g3
(g5
S'\x96\xce\x82EG\x93>@'
tRp249
tp250
a(S'YP_003046466.1'
p251
g3
(g5
S'\xf2\x18\x8fR\x96\xc8>@'
tRp252
tp253
a(S'YP_003047251.1'
p254
g3
(g5
S'\x88\xb3\r\xe38i?@'
tRp255
tp256
a(S'YP_003046146.1'
p257
g3
(g5
S'_\x88\xc9\x8f!\xb3?@'
tRp258
tp259
a(S'YP_003044936.1'
p260
g3
(g5
S'\x1b\xe3\\7\x14\xfc?@'
tRp261
tp262
a(S'YP_003044102.1'
p263
g3
(g5
S'\xf5\xcf\xba4\x81\xcb@@'
tRp264
tp265
a(S'YP_003045693.1'
p266
g3
(g5
S'\xb6e\x7f\xf7\xcc>A@'
tRp267
tp268
a(S'YP_003046747.1'
p269
g3
(g5
S'\xd5\xa2\x98\xfb\x15\xa8A@'
tRp270
tp271
a(S'YP_003046493.1'
p272
g3
(g5
S'\x9c\n\xa6\x8aV\xe1A@'
tRp273
tp274
a(S'YP_003044235.1'
p275
g3
(g5
S'\x92\x19]\x96\x87\xf2A@'
tRp276
tp277
a(S'YP_003046145.1'
p278
g3
(g5
S'\x18\xf5\x1e\x98sMB@'
tRp279
tp280
a(S'YP_003045858.1'
p281
g3
(g5
S'ti\xcaI\r<C@'
tRp282
tp283
a(S'YP_003043443.1'
p284
g3
(g5
S'\x9c\x0e\xaf\xde\xc2LC@'
tRp285
tp286
a(S'YP_003044261.1'
p287
g3
(g5
S'y\xc8\xc9^\x81\x8aC@'
tRp288
tp289
a(S'YP_003043385.1'
p290
g3
(g5
S'\xe3\xce{w/\x03D@'
tRp291
tp292
a(S'YP_003046111.1'
p293
g3
(g5
S';\x93\x04\xdf\x86=D@'
tRp294
tp295
a(S'YP_003044215.1'
p296
g3
(g5
S'U\x06\x80\x9c:TD@'
tRp297
tp298
a(S'YP_003047354.1'
p299
g3
(g5
S'\x96\xe3\x8b\x14\xdb\xcdD@'
tRp300
tp301
a(S'YP_003046559.1'
p302
g3
(g5
S'F\xad:\xd6#(E@'
tRp303
tp304
a(S'YP_003044482.1'
p305
g3
(g5
S'nt\x8f\x95\x9fAE@'
tRp306
tp307
a(S'YP_003044578.1'
p308
g3
(g5
S'\xb9\xb2\xdci\xbfCE@'
tRp309
tp310
a(S'YP_003046603.1'
p311
g3
(g5
S'\xd4\xd7\x99\x155~E@'
tRp312
tp313
a(S'YP_003044679.1'
p314
g3
(g5
S'\xe1W\xb9O\x10jF@'
tRp315
tp316
a(S'YP_003045534.1'
p317
g3
(g5
S'Ut\x14\x01\xd7\x8cF@'
tRp318
tp319
a(S'YP_003044958.1'
p320
g3
(g5
S'\xf0\xaf\x80\xa7\xba\xb2F@'
tRp321
tp322
a(S'YP_003046943.1'
p323
g3
(g5
S'\xc9Fb\x13\xad\xd9F@'
tRp324
tp325
a(S'YP_003047077.1'
p326
g3
(g5
S'\xf8\x19|\xd5\xb2\xd9F@'
tRp327
tp328
a(S'YP_003043934.1'
p329
g3
(g5
S'\xd65OH\x94NG@'
tRp330
tp331
a(S'YP_003044138.1'
p332
g3
(g5
S'\xafq\x058\x8dQG@'
tRp333
tp334
a(S'YP_003045721.1'
p335
g3
(g5
S'q\x94j\x9f\x1fZG@'
tRp336
tp337
a(S'YP_003043249.1'
p338
g3
(g5
S'\x89\xca\x80\xc6\x106H@'
tRp339
tp340
a(S'YP_003046215.1'
p341
g3
(g5
S'\xe5\xde\x13\xd7\xfe~H@'
tRp342
tp343
a(S'YP_003045602.1'
p344
g3
(g5
S'\xcaO\x7f\xcb\xee\xb3H@'
tRp345
tp346
a(S'YP_003046523.1'
p347
g3
(g5
S'\xfb\xf0\x96\xa8\xa9\x02I@'
tRp348
tp349
a(S'YP_003045781.1'
p350
g3
(g5
S'\xb6\x8c\x98\x1c\x9fEI@'
tRp351
tp352
a(S'YP_003046651.1'
p353
g3
(g5
S'\xed\xb8\x15\xd1\xf5*J@'
tRp354
tp355
a(S'YP_003045163.1'
p356
g3
(g5
S'x\xb8\xf6IsEJ@'
tRp357
tp358
a(S'YP_003043989.1'
p359
g3
(g5
S"\xdd/\x04\xaf'\x7fJ@"
tRp360
tp361
a(S'YP_003045756.1'
p362
g3
(g5
S'3\x9cy\xa3\xc7\nK@'
tRp363
tp364
a(S'YP_003044910.1'
p365
g3
(g5
S'\xbb"\x1d^\xfb\xaeK@'
tRp366
tp367
a(S'YP_003046325.1'
p368
g3
(g5
S'\x95`\xf1\x99\xd5\xfeK@'
tRp369
tp370
a(S'YP_003044515.1'
p371
g3
(g5
S'\xef\x11\x99LG\xa1L@'
tRp372
tp373
a(S'YP_003047108.1'
p374
g3
(g5
S'\xbd\xf6\x9e\x89\xde\xcaL@'
tRp375
tp376
a(S'YP_003045847.1'
p377
g3
(g5
S'\xa1O\x87\x89V\x1eM@'
tRp378
tp379
a(S'YP_003045247.1'
p380
g3
(g5
S'\x8e\xfd\x8a\x0e\x16\xb9M@'
tRp381
tp382
a(S'YP_003044014.1'
p383
g3
(g5
S'\x99\xc1\xee\xfe\x83\xe9M@'
tRp384
tp385
a(S'YP_003044304.1'
p386
g3
(g5
S'\x96\x9b\xd2Hy\x11N@'
tRp387
tp388
a(S'YP_003044763.1'
p389
g3
(g5
S'O\x7faF\x13\xe9N@'
tRp390
tp391
a(S'YP_003043289.1'
p392
g3
(g5
S'o?\xca\x0cMCO@'
tRp393
tp394
a(S'YP_003047223.1'
p395
g3
(g5
S'\x04\xdb\xdd\xa5\xf1TO@'
tRp396
tp397
a(S'YP_003047298.1'
p398
g3
(g5
S'\xe5i(m\x15cO@'
tRp399
tp400
a(S'YP_003044280.1'
p401
g3
(g5
S'\xd8]O\xfd\xa7\xa8O@'
tRp402
tp403
a(S'YP_003043951.1'
p404
g3
(g5
S'\xf7x\x8a\xadM\xf5O@'
tRp405
tp406
a(S'YP_003045670.1'
p407
g3
(g5
S'\xca\xcc\xfeG\xcb\x06P@'
tRp408
tp409
a(S'YP_003045467.1'
p410
g3
(g5
S'!\xa6\xe8>w\x18P@'
tRp411
tp412
a(S'YP_003043527.1'
p413
g3
(g5
S'\xea`\xf9V~)P@'
tRp414
tp415
a(S'YP_003044184.1'
p416
g3
(g5
S'\x0e>X\x0b\xb2/P@'
tRp417
tp418
a(S'YP_003046666.1'
p419
g3
(g5
S'\xfe7\x04\x81\x1ayP@'
tRp420
tp421
a(S'YP_003046127.1'
p422
g3
(g5
S'\x96\xf8W\xba\xcb\x8cP@'
tRp423
tp424
a(S'YP_003043388.1'
p425
g3
(g5
S'\x02\xc8k\xacX\x95P@'
tRp426
tp427
a(S'YP_003046802.1'
p428
g3
(g5
S'\x8bj\xab\xd5\xb3\xdaP@'
tRp429
tp430
a(S'YP_003045672.1'
p431
g3
(g5
S'\rj\xe4U\x1b\xdeP@'
tRp432
tp433
a(S'YP_003046156.1'
p434
g3
(g5
S'\xcd\xd3a\x0e\x95\xeaP@'
tRp435
tp436
a(S'YP_003044640.1'
p437
g3
(g5
S'\xf5xq\xc4\n\tQ@'
tRp438
tp439
a(S'YP_003046090.1'
p440
g3
(g5
S'\x90\xf2^a\xf1\x11Q@'
tRp441
tp442
a(S'YP_003045220.1'
p443
g3
(g5
S'\xa9\x90\xae\x9e\x16#Q@'
tRp444
tp445
a(S'YP_003045343.1'
p446
g3
(g5
S"\x1d\xb7'\xa3\x0c_Q@"
tRp447
tp448
a(S'YP_003047027.1'
p449
g3
(g5
S'/\xa3\xe0\x9d\x8diQ@'
tRp450
tp451
a(S'YP_003046696.1'
p452
g3
(g5
S'\xac\xec\xc8\xb2SmQ@'
tRp453
tp454
a(S'YP_003047227.1'
p455
g3
(g5
S'\r\xdd\xac\xea\xd8\x7fQ@'
tRp456
tp457
a(S'YP_003043572.1'
p458
g3
(g5
S':\x8e\x89\xe7\x99\xcaQ@'
tRp459
tp460
a(S'YP_003045638.1'
p461
g3
(g5
S'\x9e\xe7E\xe4\x01\xfcQ@'
tRp462
tp463
a(S'YP_003045511.1'
p464
g3
(g5
S'\x01\xda\xab\xbf@"R@'
tRp465
tp466
a(S'YP_003046416.1'
p467
g3
(g5
S'\xb5\xcav\xe0\xad.R@'
tRp468
tp469
a(S'YP_003046863.1'
p470
g3
(g5
S'%\xf2X\xf8\xd69R@'
tRp471
tp472
a(S'YP_003043759.1'
p473
g3
(g5
S'\xfd7D!\xfdIR@'
tRp474
tp475
a(S'YP_003044468.1'
p476
g3
(g5
S'^h\xff}zKR@'
tRp477
tp478
a(S'YP_003047375.1'
p479
g3
(g5
S'P,\xdf\x05=]R@'
tRp480
tp481
a(S'YP_003044661.1'
p482
g3
(g5
S"\r'\xed\xb5KkR@"
tRp483
tp484
a(S'YP_003045177.1'
p485
g3
(g5
S'\x99\xc7?!9\xceR@'
tRp486
tp487
a(S'YP_003046260.1'
p488
g3
(g5
S'.\xe0\xc4\x125\xebR@'
tRp489
tp490
a(S'YP_003044143.1'
p491
g3
(g5
S'\xb4B,\xa8+;S@'
tRp492
tp493
a(S'YP_003046830.1'
p494
g3
(g5
S'\xc2\x95\xf6\nz>S@'
tRp495
tp496
a(S'YP_003047196.1'
p497
g3
(g5
S'\xce\x07k\xc4\xc8\xb6S@'
tRp498
tp499
a(S'YP_003044517.1'
p500
g3
(g5
S'\x80\xb7\x96\xc9~IT@'
tRp501
tp502
a(S'YP_003045821.1'
p503
g3
(g5
S']G\xbb\x0bPKT@'
tRp504
tp505
a(S'YP_003045981.1'
p506
g3
(g5
S'\xcbB\x9d\x0f(]T@'
tRp507
tp508
a(S'YP_003043506.1'
p509
g3
(g5
S'\xdfT\xfc\xcb\xbe\xedT@'
tRp510
tp511
a(S'YP_003043494.1'
p512
g3
(g5
S'n\x82\x1e\xc8h\xf5T@'
tRp513
tp514
a(S'YP_003044479.1'
p515
g3
(g5
S'f\xed\x83Q_\xfdT@'
tRp516
tp517
a(S'YP_003044342.1'
p518
g3
(g5
S'6\xe7\xaf\x8d\xdc*U@'
tRp519
tp520
a(S'YP_003046519.1'
p521
g3
(g5
S'\xf5k\xb0\xbe\x00BU@'
tRp522
tp523
a(S'YP_003045002.1'
p524
g3
(g5
S'\xaa\x18\xc254\xcfU@'
tRp525
tp526
a(S'YP_003044889.1'
p527
g3
(g5
S'\xb2\xb9W\x16\xb9\xe0U@'
tRp528
tp529
a(S'YP_003044002.1'
p530
g3
(g5
S':\xca\xbe\xc2-!V@'
tRp531
tp532
a(S'YP_003046175.1'
p533
g3
(g5
S'?\xbc\x13\xcd\x8b/V@'
tRp534
tp535
a(S'YP_003044971.1'
p536
g3
(g5
S'=D\x14\r\x8cPV@'
tRp537
tp538
a(S'YP_003043573.1'
p539
g3
(g5
S'\xcf\x85\xabVu|V@'
tRp540
tp541
a(S'YP_003045914.1'
p542
g3
(g5
S'\xb4\xf1\xd4\xc1\xc7\xd7V@'
tRp543
tp544
a(S'YP_003045591.1'
p545
g3
(g5
S'\xdfbR\xf5b\xe9V@'
tRp546
tp547
a(S'YP_003044787.1'
p548
g3
(g5
S'\x1b\xdc\xeb\xe4\x9a\xeeV@'
tRp549
tp550
a(S'YP_003045865.1'
p551
g3
(g5
S'A \xbe\xb0\xf4\xf0V@'
tRp552
tp553
a(S'YP_003043977.1'
p554
g3
(g5
S'i\xde\x93\xa4\xda\x05W@'
tRp555
tp556
a(S'YP_003044920.1'
p557
g3
(g5
S'\x9eT\xbd,\xc7\x06W@'
tRp558
tp559
a(S'YP_003047407.1'
p560
g3
(g5
S"\x08\xa0\xc0\xc5\xa9'W@"
tRp561
tp562
a(S'YP_003047195.1'
p563
g3
(g5
S'\xfb\xc1\x99o\xc08W@'
tRp564
tp565
a(S'YP_003043429.1'
p566
g3
(g5
S'\x1b\x9cb\xde\xe6aW@'
tRp567
tp568
a(S'YP_003044791.1'
p569
g3
(g5
S'\x9e\x952\xe5\x0fgW@'
tRp570
tp571
a(S'YP_003044400.1'
p572
g3
(g5
S'\xa8\xfbpj\x08kW@'
tRp573
tp574
a(S'YP_003045026.1'
p575
g3
(g5
S'\xec\x00\xc4MX\x87W@'
tRp576
tp577
a(S'YP_003046467.1'
p578
g3
(g5
S'.\xb8\xc0\xa6\xbd\x90W@'
tRp579
tp580
a(S'YP_003047398.1'
p581
g3
(g5
S'\x9d\xe3\xce<\x96\x9bW@'
tRp582
tp583
a(S'YP_003047297.1'
p584
g3
(g5
S'\xbd\x98\xdf\xb7\xeb\xe3W@'
tRp585
tp586
a(S'YP_003044123.1'
p587
g3
(g5
S'\xeb6\xf6X\x8a\xf8W@'
tRp588
tp589
a(S'YP_003045820.1'
p590
g3
(g5
S'\x0e\x13\xab\xce\x93hX@'
tRp591
tp592
a(S'YP_003047255.1'
p593
g3
(g5
S'\x91)\x99\xb0O\x90X@'
tRp594
tp595
a(S'YP_003047378.1'
p596
g3
(g5
S'\x89\x00\x17\x0c\x8a\xbdX@'
tRp597
tp598
a(S'YP_003043652.1'
p599
g3
(g5
S'\xa4\x98o\x8b<\xc8X@'
tRp600
tp601
a(S'YP_003043418.1'
p602
g3
(g5
S'k\xd7\xf0#O\xd5X@'
tRp603
tp604
a(S'YP_003044107.1'
p605
g3
(g5
S'\x13u\x1f`\x85\xefX@'
tRp606
tp607
a(S'YP_003044137.1'
p608
g3
(g5
S'\xc85\xba\xd80\x05Y@'
tRp609
tp610
a(S'YP_003044478.1'
p611
g3
(g5
S'$k\xa4\\\x89\x13Y@'
tRp612
tp613
a(S'YP_003043825.1'
p614
g3
(g5
S'B\x0bV\xf9\xa6\x1fY@'
tRp615
tp616
a(S'YP_003043411.1'
p617
g3
(g5
S'\xa6R\xc6\xb0tBY@'
tRp618
tp619
a(S'YP_003045311.1'
p620
g3
(g5
S'\xa6\x90\xbb\xc6LHY@'
tRp621
tp622
a(S'YP_003046853.1'
p623
g3
(g5
S'\x9f]\xf1\x0b\x03JY@'
tRp624
tp625
a(S'YP_003043781.1'
p626
g3
(g5
S'\x1b/\x1el\xf0nY@'
tRp627
tp628
a(S'YP_003046081.1'
p629
g3
(g5
S'\x98\xd7h\xbc8oY@'
tRp630
tp631
a(S'YP_003045880.1'
p632
g3
(g5
S'\xc3w[C\x8a\x0fZ@'
tRp633
tp634
a(S'YP_003045841.1'
p635
g3
(g5
S"\x0c',h\xc8\x1fZ@"
tRp636
tp637
a(S'YP_003044660.1'
p638
g3
(g5
S'\x18\x9d\xc4\xb0\xf08Z@'
tRp639
tp640
a(S'YP_003045710.1'
p641
g3
(g5
S'\xa1\xa2K\x95\x06HZ@'
tRp642
tp643
a(S'YP_003043647.1'
p644
g3
(g5
S']A\xb4\xeb\x93\x9dZ@'
tRp645
tp646
a(S'YP_003045971.1'
p647
g3
(g5
S'\x8fR\x97\x1f\x15\x9eZ@'
tRp648
tp649
a(S'YP_003045092.1'
p650
g3
(g5
S'\xd6\xec\x8c\x13\xdc\xd4Z@'
tRp651
tp652
a(S'YP_003043314.1'
p653
g3
(g5
S'\xfdS\xc2ty\xd6Z@'
tRp654
tp655
a(S'YP_003046970.1'
p656
g3
(g5
S'\xdc<\xc4\xf16\xdcZ@'
tRp657
tp658
a(S'YP_003045338.1'
p659
g3
(g5
S'z\x8b45\x03W[@'
tRp660
tp661
a(S'YP_003043347.1'
p662
g3
(g5
S'r\xcc\x06\t\xd3\xac[@'
tRp663
tp664
a(S'YP_003045159.1'
p665
g3
(g5
S'\xd8\xe7\xf8\xfe\xa6\xf1[@'
tRp666
tp667
a(S'YP_003045547.1'
p668
g3
(g5
S'\xf2\x98e>\x1c\x1e\\@'
tRp669
tp670
a(S'YP_003044344.1'
p671
g3
(g5
S'p\xff6z\x9b)\\@'
tRp672
tp673
a(S'YP_003043447.1'
p674
g3
(g5
S'.\x9b\xc5\xbc\xc5~\\@'
tRp675
tp676
a(S'YP_003046701.1'
p677
g3
(g5
S'T\xf4\x1d\xd37\x98\\@'
tRp678
tp679
a(S'YP_003045706.1'
p680
g3
(g5
S'\xf6\xf8\x0fM\x91\xb9\\@'
tRp681
tp682
a(S'YP_003044173.1'
p683
g3
(g5
S'\x85\xca"6\xa3\xe6\\@'
tRp684
tp685
a(S'YP_003044522.1'
p686
g3
(g5
S'\xc3\xb9\x05\xf7\xe6\x1f]@'
tRp687
tp688
a(S'YP_003046558.1'
p689
g3
(g5
S'\xe6\xf9\xbb\x9e\x1dY]@'
tRp690
tp691
a(S'YP_003044091.1'
p692
g3
(g5
S'\x95\xb8\xc3\x89\xe6\x82]@'
tRp693
tp694
a(S'YP_003043450.1'
p695
g3
(g5
S'-\x16z8\xd0)^@'
tRp696
tp697
a(S'YP_003043782.1'
p698
g3
(g5
S'O\x8br4\x8d\xcc^@'
tRp699
tp700
a(S'YP_003044427.1'
p701
g3
(g5
S'\x8f\xbbP\xd0\xb0\x0b_@'
tRp702
tp703
a(S'YP_003044915.1'
p704
g3
(g5
S'\xd7\xba6\x06\x891_@'
tRp705
tp706
a(S'YP_003046499.1'
p707
g3
(g5
S'\x9c\x06\xcb\xa4\x982_@'
tRp708
tp709
a(S'YP_003045148.1'
p710
g3
(g5
S'\xa7(A\x93\xa87_@'
tRp711
tp712
a(S'YP_003044852.1'
p713
g3
(g5
S'\xcb(6\xb3\xf6Q_@'
tRp714
tp715
a(S'YP_003044094.1'
p716
g3
(g5
S'"u8\xa96V_@'
tRp717
tp718
a(S'YP_003044470.1'
p719
g3
(g5
S'x^\xc33\xedq_@'
tRp720
tp721
a(S'YP_003047153.1'
p722
g3
(g5
S'n\xce\x1d\xc3\xa8\x8b_@'
tRp723
tp724
a(S'YP_003047422.1'
p725
g3
(g5
S'\xd6G#\x04\x18\xa2_@'
tRp726
tp727
a(S'YP_003046915.1'
p728
g3
(g5
S'\xaa\x90\xc3\x7fV\x1a`@'
tRp729
tp730
a(S'YP_003046658.1'
p731
g3
(g5
S"\x88\xae\x81\xd9i'`@"
tRp732
tp733
a(S'YP_003044035.1'
p734
g3
(g5
S'qI\x14\xf4\xb52`@'
tRp735
tp736
a(S'YP_003044854.1'
p737
g3
(g5
S'\x91\xcbA\xd0tA`@'
tRp738
tp739
a(S'YP_003046311.1'
p740
g3
(g5
S'\x1b\x1dnS\x83P`@'
tRp741
tp742
a(S'YP_003045014.1'
p743
g3
(g5
S';e\xfeMX\xdc`@'
tRp744
tp745
a(S'YP_003044685.1'
p746
g3
(g5
S'\xe1\xf62\x9c\xe7\xdc`@'
tRp747
tp748
a(S'YP_003043837.1'
p749
g3
(g5
S'\xd1\xf9\x94\x83\xd0\xf2`@'
tRp750
tp751
a(S'YP_003045986.1'
p752
g3
(g5
S'\x91k\xd1\xfe4\x05a@'
tRp753
tp754
a(S'YP_003045096.1'
p755
g3
(g5
S'\xf9-L\xb4@/a@'
tRp756
tp757
a(S'YP_003044844.1'
p758
g3
(g5
S'cz\xb3\xfbv<a@'
tRp759
tp760
a(S'YP_003043959.1'
p761
g3
(g5
S']c\xd8\xbfU\x81a@'
tRp762
tp763
a(S'YP_003046472.1'
p764
g3
(g5
S'y\xb0e\xab|\x91a@'
tRp765
tp766
a(S'YP_003045927.1'
p767
g3
(g5
S'\xa5<\xc5\x08r\xa6a@'
tRp768
tp769
a(S'YP_003046125.1'
p770
g3
(g5
S'\xb2;0\x94r\xafa@'
tRp771
tp772
a(S'YP_003044085.1'
p773
g3
(g5
S'\xf3l\xe1uO\xcba@'
tRp774
tp775
a(S'YP_003045583.1'
p776
g3
(g5
S"('GB\x12\xe7a@"
tRp777
tp778
a(S'YP_003043794.1'
p779
g3
(g5
S'\xd9)\xf5+\xa8\xeaa@'
tRp780
tp781
a(S'YP_003045313.1'
p782
g3
(g5
S'\xee}\xcf\x96\x8f\xfca@'
tRp783
tp784
a(S'YP_003046976.1'
p785
g3
(g5
S'#\x8fm0] b@'
tRp786
tp787
a(S'YP_003045663.1'
p788
g3
(g5
S'\xd44\x92\x90\xa0.b@'
tRp789
tp790
a(S'YP_003044379.1'
p791
g3
(g5
S'i\x13s)+Eb@'
tRp792
tp793
a(S'YP_003047207.1'
p794
g3
(g5
S'\xcd\xfb\xc0\x86bQb@'
tRp795
tp796
a(S'YP_003046625.1'
p797
g3
(g5
S'9@\t&\xdcfb@'
tRp798
tp799
a(S'YP_003043970.1'
p800
g3
(g5
S'\x8e\xcb\x8c(ykb@'
tRp801
tp802
a(S'YP_003045550.1'
p803
g3
(g5
S'\xbdIf\xcd\xd8sb@'
tRp804
tp805
a(S'YP_003044380.1'
p806
g3
(g5
S'\xba\xbd\x83\xb3\xff\x8bb@'
tRp807
tp808
a(S'YP_003044617.1'
p809
g3
(g5
S'Z\xe7\x7f\x08\xf3\xa8b@'
tRp810
tp811
a(S'YP_003043561.1'
p812
g3
(g5
S'\xcb\x8e\xa5*\x8b\xb9b@'
tRp813
tp814
a(S'YP_003045517.1'
p815
g3
(g5
S'\xc8*b\xe1I\xcab@'
tRp816
tp817
a(S'YP_003046561.1'
p818
g3
(g5
S'\x86L\xd5\x811\xceb@'
tRp819
tp820
a(S'YP_003046671.1'
p821
g3
(g5
S'b\xa3U\xf1\xf9\xeab@'
tRp822
tp823
a(S'YP_003046141.1'
p824
g3
(g5
S'B\x0e\x10\xd6\x05\x1bc@'
tRp825
tp826
a(S'YP_003043958.1'
p827
g3
(g5
S'\xa6\xb2K\x06\x19\x1cc@'
tRp828
tp829
a(S'YP_003044144.1'
p830
g3
(g5
S"m\xc9\x84\xf5E'c@"
tRp831
tp832
a(S'YP_003043574.1'
p833
g3
(g5
S'\xdc\x1d\xedL\xec+c@'
tRp834
tp835
a(S'YP_003046831.1'
p836
g3
(g5
S'\x08\x8ck \x9fDc@'
tRp837
tp838
a(S'YP_003046494.1'
p839
g3
(g5
S'\x02Ol\x0c\xa6Mc@'
tRp840
tp841
a(S'YP_003044510.1'
p842
g3
(g5
S'\x95L\xbf\xd7\x17hc@'
tRp843
tp844
a(S'YP_003046785.1'
p845
g3
(g5
S'\xea\x85M\x05;kc@'
tRp846
tp847
a(S'YP_003046463.1'
p848
g3
(g5
S'\xf9\x08\xa3.\xd6mc@'
tRp849
tp850
a(S'YP_003047413.1'
p851
g3
(g5
S'\xee\x12$B\x8b\x88c@'
tRp852
tp853
a(S'YP_003046864.1'
p854
g3
(g5
S'-w\xe4\x15\xa1\x99c@'
tRp855
tp856
a(S'YP_003047381.1'
p857
g3
(g5
S'xU\\_s\xa2c@'
tRp858
tp859
a(S'YP_003046121.1'
p860
g3
(g5
S'>q\x0c`7\xc1c@'
tRp861
tp862
a(S'YP_003047418.1'
p863
g3
(g5
S'\xea@\xa1+,\xe8c@'
tRp864
tp865
a(S'YP_003046534.1'
p866
g3
(g5
S'\xef\x8b\xb57\xcd\xe8c@'
tRp867
tp868
a(S'YP_003044874.1'
p869
g3
(g5
S'\xf2_\xdb`\n\rd@'
tRp870
tp871
a(S'YP_003043845.1'
p872
g3
(g5
S'V\xe3\xefX\x813d@'
tRp873
tp874
a(S'YP_003044104.1'
p875
g3
(g5
S'/=\xae\xfc\xe68d@'
tRp876
tp877
a(S'YP_003045091.1'
p878
g3
(g5
S'+Q\\\x17\xe6Md@'
tRp879
tp880
a(S'YP_003046436.1'
p881
g3
(g5
S'\xe6<$\xd89Od@'
tRp882
tp883
a(S'YP_003043332.1'
p884
g3
(g5
S'\x928e\xe0\x96Vd@'
tRp885
tp886
a(S'YP_003044321.1'
p887
g3
(g5
S'\x99E/\xd1\xbc\xa6d@'
tRp888
tp889
a(S'YP_003047132.1'
p890
g3
(g5
S'\xc3\xb8\t5\xed\xb2d@'
tRp891
tp892
a(S'YP_003047408.1'
p893
g3
(g5
S'\xd1\xd2C\xc4E\xbcd@'
tRp894
tp895
a(S'YP_003046501.1'
p896
g3
(g5
S'\x17`\x15\xff\x80\xc0d@'
tRp897
tp898
a(S'YP_003044464.1'
p899
g3
(g5
S'\xd3k\x7f9\xa9\xc5d@'
tRp900
tp901
a(S'YP_003046159.1'
p902
g3
(g5
S'4T\xea\xdb(\xd5d@'
tRp903
tp904
a(S'YP_003043964.1'
p905
g3
(g5
S'\x99sN\x17\xd9\xe2d@'
tRp906
tp907
a(S'YP_003046975.1'
p908
g3
(g5
S'\xf8f%\x17!\xe7d@'
tRp909
tp910
a(S'YP_003043783.1'
p911
g3
(g5
S'\x9e\xd2\x08!\xe0\xe8d@'
tRp912
tp913
a(S'YP_003046973.1'
p914
g3
(g5
S'E\xbb\xab\xe1_\x04e@'
tRp915
tp916
a(S'YP_003047353.1'
p917
g3
(g5
S'\xab&\xef\xc4\x8e\x19e@'
tRp918
tp919
a(S'YP_003046277.1'
p920
g3
(g5
S'\xae\xc2\xcd\xe5\xdaDe@'
tRp921
tp922
a(S'YP_003046841.1'
p923
g3
(g5
S'\x01\x8dX G\x91e@'
tRp924
tp925
a(S'YP_003046692.1'
p926
g3
(g5
S'W\xa5\x03\xb8\xc9\xb8e@'
tRp927
tp928
a(S'YP_003043644.1'
p929
g3
(g5
S'\x10\xaa\xfb[\x9d\x1df@'
tRp930
tp931
a(S'YP_003043929.1'
p932
g3
(g5
S'\xadBH\xd0\x90.f@'
tRp933
tp934
a(S'YP_003045046.1'
p935
g3
(g5
S'\x8a>\xf4\xe1\x96ff@'
tRp936
tp937
a(S'YP_003043511.1'
p938
g3
(g5
S'\x8a\x87\x97\xeb\x9f\xdcf@'
tRp939
tp940
a(S'YP_003045106.1'
p941
g3
(g5
S'"\xed$\xb3\xe8\x02g@'
tRp942
tp943
a(S'YP_003047179.1'
p944
g3
(g5
S'\xcc\x99\xcc99\x14g@'
tRp945
tp946
a(S'YP_003043374.1'
p947
g3
(g5
S'\x8fA\xe9\xb0\xff\x16g@'
tRp948
tp949
a(S'YP_003045435.1'
p950
g3
(g5
S'\x8e5\x98$\x03Tg@'
tRp951
tp952
a(S'YP_003045021.1'
p953
g3
(g5
S'!A\x11\xa8Ang@'
tRp954
tp955
a(S'YP_003043355.1'
p956
g3
(g5
S'\xb4F\xc5\x964\x8ag@'
tRp957
tp958
a(S'YP_003044788.1'
p959
g3
(g5
S'\x87<\xfe\x1a\xa9\x93g@'
tRp960
tp961
a(S'YP_003045482.1'
p962
g3
(g5
S'\x10+\xbf\x80;\x9ag@'
tRp963
tp964
a(S'YP_003045609.1'
p965
g3
(g5
S'\x91\xdfU8~\xa9g@'
tRp966
tp967
a(S'YP_003045226.1'
p968
g3
(g5
S'T\x8c\xc1!\x86\xa9g@'
tRp969
tp970
a(S'YP_003046087.1'
p971
g3
(g5
S'x\n\x97(i\xbbg@'
tRp972
tp973
a(S'YP_003045330.1'
p974
g3
(g5
S'x\xb8b \x1f\xbeg@'
tRp975
tp976
a(S'YP_003045734.1'
p977
g3
(g5
S')B\xe9$3\xdfg@'
tRp978
tp979
a(S'YP_003044753.1'
p980
g3
(g5
S'\x9c}mF|\xdfg@'
tRp981
tp982
a(S'YP_003045656.1'
p983
g3
(g5
S'y\x9c\x1eUe\xf8g@'
tRp984
tp985
a(S'YP_003045421.1'
p986
g3
(g5
S'\x00\x97\x0c\xc5K\x00h@'
tRp987
tp988
a(S'YP_003047197.1'
p989
g3
(g5
S'\xbf\xe1\x82\xf0O\nh@'
tRp990
tp991
a(S'YP_003043570.1'
p992
g3
(g5
S'\x89j\xb9\x18`\x19h@'
tRp993
tp994
a(S'YP_003044025.1'
p995
g3
(g5
S'zw|u~(h@'
tRp996
tp997
a(S'YP_003044275.1'
p998
g3
(g5
S'MY\xbc,\xd87h@'
tRp999
tp1000
a(S'YP_003044458.1'
p1001
g3
(g5
S' \x90\xd3\xa9FFh@'
tRp1002
tp1003
a(S'YP_003044177.1'
p1004
g3
(g5
S'\r\xabv\x92-\x9dh@'
tRp1005
tp1006
a(S'YP_003046485.1'
p1007
g3
(g5
S'\xcb\xee\xcc\x12\xdf\x9eh@'
tRp1008
tp1009
a(S'YP_003045642.1'
p1010
g3
(g5
S'\xae$\xce\xb3#\xa0h@'
tRp1011
tp1012
a(S'YP_003046657.1'
p1013
g3
(g5
S'\x995\xcc;\xc4\xc6h@'
tRp1014
tp1015
a(S'YP_003044849.1'
p1016
g3
(g5
S'\\W\x95*?\x14i@'
tRp1017
tp1018
a(S'YP_003045578.1'
p1019
g3
(g5
S'\xc2cg\x08\x8a\x1fi@'
tRp1020
tp1021
a(S'YP_003043461.1'
p1022
g3
(g5
S'I\x8e\x18\xbc\x05)i@'
tRp1023
tp1024
a(S'YP_003045296.1'
p1025
g3
(g5
S'\x05\xcbDM{)i@'
tRp1026
tp1027
a(S'YP_003045276.1'
p1028
g3
(g5
S'PH\xa8\xca\xbcCi@'
tRp1029
tp1030
a(S'YP_003043852.1'
p1031
g3
(g5
S'C\xc2\x08\xaca\x82i@'
tRp1032
tp1033
a(S'YP_003043436.1'
p1034
g3
(g5
S'3\xaa{o\x7f\x8ai@'
tRp1035
tp1036
a(S'YP_003043591.1'
p1037
g3
(g5
S'\xe4-+\x84\xd4\x8ci@'
tRp1038
tp1039
a(S'YP_003047059.1'
p1040
g3
(g5
S'\xa4\xe9Q\x03\xac\xb7i@'
tRp1041
tp1042
a(S'YP_003046108.1'
p1043
g3
(g5
S'\x1f\xce\x86\xd4D\xbci@'
tRp1044
tp1045
a(S'YP_003046910.1'
p1046
g3
(g5
S"\xee\r\x9cv'\xdai@"
tRp1047
tp1048
a(S'YP_003047120.1'
p1049
g3
(g5
S'\xa2\xb0}\x05{\xf6i@'
tRp1050
tp1051
a(S'YP_003043282.1'
p1052
g3
(g5
S'\x98\xfd\xcb\xc3:\x05j@'
tRp1053
tp1054
a(S'YP_003045818.1'
p1055
g3
(g5
S'|\x9f\x9f\xc0\xd67j@'
tRp1056
tp1057
a(S'YP_003047259.1'
p1058
g3
(g5
S'\xbc\xf0#\x9evSj@'
tRp1059
tp1060
a(S'YP_003043937.1'
p1061
g3
(g5
S'\xb4%$a7lj@'
tRp1062
tp1063
a(S'YP_003044973.1'
p1064
g3
(g5
S'\xd8B\x18\xeb\xafoj@'
tRp1065
tp1066
a(S'YP_003043415.1'
p1067
g3
(g5
S'\xf8\x1e\xf8/\x0c{j@'
tRp1068
tp1069
a(S'YP_003044589.1'
p1070
g3
(g5
S'.\xc5\xabb\xb4\x83j@'
tRp1071
tp1072
a(S'YP_003045019.1'
p1073
g3
(g5
S'\xf3\x94\xf1\xef5\x96j@'
tRp1074
tp1075
a(S'YP_003046946.1'
p1076
g3
(g5
S'whg\x1aD\x9dj@'
tRp1077
tp1078
a(S'YP_003043849.1'
p1079
g3
(g5
S'\xfe\xc5es\xb8\xc6j@'
tRp1080
tp1081
a(S'YP_003045685.1'
p1082
g3
(g5
S'\x8dc{\xaa\x16\xc7j@'
tRp1083
tp1084
a(S'YP_003045556.1'
p1085
g3
(g5
S'\xb3\x93\xb84%\xe2j@'
tRp1086
tp1087
a(S'YP_003047049.1'
p1088
g3
(g5
S'\x7fT\x97\xe5\xc0\xf2j@'
tRp1089
tp1090
a(S'YP_003046465.1'
p1091
g3
(g5
S'\xb55\xe1\xbd\xee\x02k@'
tRp1092
tp1093
a(S'YP_003043784.1'
p1094
g3
(g5
S'\xc3r\x92c\xbc&k@'
tRp1095
tp1096
a(S'YP_003046992.1'
p1097
g3
(g5
S'\xb7U\xb0;\x980k@'
tRp1098
tp1099
a(S'YP_003044579.1'
p1100
g3
(g5
S'\xe9V\x9d\x8c\xee9k@'
tRp1101
tp1102
a(S'YP_003045658.1'
p1103
g3
(g5
S'~\x93\xc1\x80\x01>k@'
tRp1104
tp1105
a(S'YP_003043414.1'
p1106
g3
(g5
S'\xb8\xa6\xe9]\xfdik@'
tRp1107
tp1108
a(S'YP_003045108.1'
p1109
g3
(g5
S'\x11#/\xc27\x9ak@'
tRp1110
tp1111
a(S'YP_003044171.1'
p1112
g3
(g5
S'TOvI\xae\xbbk@'
tRp1113
tp1114
a(S'YP_003045909.1'
p1115
g3
(g5
S'\xaa\x03\xe3\xe0\xd6\x17l@'
tRp1116
tp1117
a(S'YP_003046030.1'
p1118
g3
(g5
S'H\x95\x81J\x92&l@'
tRp1119
tp1120
a(S'YP_003046152.1'
p1121
g3
(g5
S'w\xa2\xc8]\x0e(l@'
tRp1122
tp1123
a(S'YP_003045089.1'
p1124
g3
(g5
S'\xe5\xf8\xc5\xb1?-l@'
tRp1125
tp1126
a(S'YP_003046944.1'
p1127
g3
(g5
S'>\x0c\xf4\x0e\xd3kl@'
tRp1128
tp1129
a(S'YP_003043992.1'
p1130
g3
(g5
S'\xcdp4O0\x87l@'
tRp1131
tp1132
a(S'YP_003046075.1'
p1133
g3
(g5
S'\xda\x03S`8\xa6l@'
tRp1134
tp1135
a(S'YP_003044892.1'
p1136
g3
(g5
S'y\xd3jn+\xc3l@'
tRp1137
tp1138
a(S'YP_003044007.1'
p1139
g3
(g5
S'\xf5($\xa9\x10Cm@'
tRp1140
tp1141
a(S'YP_003045864.1'
p1142
g3
(g5
S'4>\\\xb6\xeeVm@'
tRp1143
tp1144
a(S'YP_003044112.1'
p1145
g3
(g5
S'\xc1\x17z%pZm@'
tRp1146
tp1147
a(S'YP_003046907.1'
p1148
g3
(g5
S'\xf0\x9d\xe3\xe4\xe6\x8cm@'
tRp1149
tp1150
a(S'YP_003047112.1'
p1151
g3
(g5
S'5\xcd-\xd1X\x97m@'
tRp1152
tp1153
a(S'YP_003046757.1'
p1154
g3
(g5
S'Q\xf9\xdb!\xd5\xc4m@'
tRp1155
tp1156
a(S'YP_003045406.1'
p1157
g3
(g5
S't\x93\x03D\xca\xf9m@'
tRp1158
tp1159
a(S'YP_003047294.1'
p1160
g3
(g5
S'I\x96\x00\xfe\xa2\xfdm@'
tRp1161
tp1162
a(S'YP_003047374.1'
p1163
g3
(g5
S'\xbf4\xf2T\xec\x03n@'
tRp1164
tp1165
a(S'YP_003047208.1'
p1166
g3
(g5
S'\xc7M\xf1z\xb6\x0en@'
tRp1167
tp1168
a(S'YP_003044109.1'
p1169
g3
(g5
S'\x80\xcd\xf5T\x00\x14n@'
tRp1170
tp1171
a(S'YP_003045509.1'
p1172
g3
(g5
S'BUo\xab\xe0\x16n@'
tRp1173
tp1174
a(S'YP_003045003.1'
p1175
g3
(g5
S'\x01\xbe\x02\xc5\xe1`n@'
tRp1176
tp1177
a(S'YP_003046983.1'
p1178
g3
(g5
S'B-wWpcn@'
tRp1179
tp1180
a(S'YP_003043507.1'
p1181
g3
(g5
S'\x91\xb8\xbf\xe2k\x93n@'
tRp1182
tp1183
a(S'YP_003046138.1'
p1184
g3
(g5
S'9d\xa8\x98\x86\x98n@'
tRp1185
tp1186
a(S'YP_003045278.1'
p1187
g3
(g5
S';\xf2\x13>\xc9\xb5n@'
tRp1188
tp1189
a(S'YP_003043664.1'
p1190
g3
(g5
S'\xf2N <G\xc7n@'
tRp1191
tp1192
a(S'YP_003044972.1'
p1193
g3
(g5
S'\xd4\x84bm,\xcdn@'
tRp1194
tp1195
a(S'YP_003045428.1'
p1196
g3
(g5
S'\x1c25\x85}\xcdn@'
tRp1197
tp1198
a(S'YP_003044223.1'
p1199
g3
(g5
S'7\xbb\x19r\xf1\xddn@'
tRp1200
tp1201
a(S'YP_003043631.1'
p1202
g3
(g5
S'\x00\x06\xf3\x12\xbe\xe7n@'
tRp1203
tp1204
a(S'YP_003045290.1'
p1205
g3
(g5
S'\xcf\xe5\xfb\x1f\xda\xecn@'
tRp1206
tp1207
a(S'YP_003045502.1'
p1208
g3
(g5
S'{\x88p\x07\x07\x00o@'
tRp1209
tp1210
a(S'YP_003046372.1'
p1211
g3
(g5
S'\x9f\xb3\n8\x04-o@'
tRp1212
tp1213
a(S'YP_003044602.1'
p1214
g3
(g5
S'}\x8b\xa5\xb5\x99~o@'
tRp1215
tp1216
a(S'YP_003044580.1'
p1217
g3
(g5
S'm\xfe\x19\xea\xea\xabo@'
tRp1218
tp1219
a(S'YP_003046927.1'
p1220
g3
(g5
S'\xaf\x08\xf9\xbf\xc0\xddo@'
tRp1221
tp1222
a(S'YP_003043410.1'
p1223
g3
(g5
S'\xddg\x02\x8f\xb7\xfco@'
tRp1224
tp1225
a(S'YP_003045603.1'
p1226
g3
(g5
S'\xc4\x02\x01\xf5\x08\x02p@'
tRp1227
tp1228
a(S'YP_003046668.1'
p1229
g3
(g5
S'8\xed\x01\xc2\x87\x0fp@'
tRp1230
tp1231
a(S'YP_003046089.1'
p1232
g3
(g5
S'\x10\xe6\x03\x8ex\x14p@'
tRp1233
tp1234
a(S'YP_003044850.1'
p1235
g3
(g5
S'\x04!\x7f\x86!\x18p@'
tRp1236
tp1237
a(S'YP_003043379.1'
p1238
g3
(g5
S'k\x18F\xd2\xb47p@'
tRp1239
tp1240
a(S'YP_003044513.1'
p1241
g3
(g5
S'h\xb6\x83MJ<p@'
tRp1242
tp1243
a(S'YP_003046556.1'
p1244
g3
(g5
S'\xe1?\xb9\t\x89Kp@'
tRp1245
tp1246
a(S'YP_003043579.1'
p1247
g3
(g5
S'oE\x10C8_p@'
tRp1248
tp1249
a(S'YP_003045707.1'
p1250
g3
(g5
S'\x03\x01\x7f\x9f.`p@'
tRp1251
tp1252
a(S'YP_003043526.1'
p1253
g3
(g5
S'#=%\x8e\xfchp@'
tRp1254
tp1255
a(S'YP_003043928.1'
p1256
g3
(g5
S'\x87\x0e\x07\xd8\x96}p@'
tRp1257
tp1258
a(S'YP_003047083.1'
p1259
g3
(g5
S'\x98\xfa\x01X\xb3\x7fp@'
tRp1260
tp1261
a(S'YP_003046788.1'
p1262
g3
(g5
S'\xe2\x7f\xcc%a\x86p@'
tRp1263
tp1264
a(S'YP_003043409.1'
p1265
g3
(g5
S'\xa4)\xddp\xed\x8ap@'
tRp1266
tp1267
a(S'YP_003044127.1'
p1268
g3
(g5
S'm$x7\xeb\x9dp@'
tRp1269
tp1270
a(S'YP_003046069.1'
p1271
g3
(g5
S'\x92\xb4\x16\xf0\xc5\xa1p@'
tRp1272
tp1273
a(S'YP_003044277.1'
p1274
g3
(g5
S'\xb07N\xb2\xea\xc6p@'
tRp1275
tp1276
a(S'YP_003045826.1'
p1277
g3
(g5
S'\xd1\xc3%\x14\xe9\xe1p@'
tRp1278
tp1279
a(S'YP_003044328.1'
p1280
g3
(g5
S"\xab\x92'\t\xef\xebp@"
tRp1281
tp1282
a(S'YP_003046860.1'
p1283
g3
(g5
S'\xe0\t\xac\x9b_\x1aq@'
tRp1284
tp1285
a(S'YP_003046686.1'
p1286
g3
(g5
S'M\xe3~\x9b}0q@'
tRp1287
tp1288
a(S'YP_003046748.1'
p1289
g3
(g5
S'l\x16\xa2\x9d\xf5@q@'
tRp1290
tp1291
a(S'YP_003045604.1'
p1292
g3
(g5
S'}np\x8e\xa7Dq@'
tRp1293
tp1294
a(S'YP_003046302.1'
p1295
g3
(g5
S'7\xd2%n\x1eKq@'
tRp1296
tp1297
a(S'YP_003046626.1'
p1298
g3
(g5
S'\x18\x88.#\xd4\x8dq@'
tRp1299
tp1300
a(S'YP_003046635.1'
p1301
g3
(g5
S'g.\x152s\x93q@'
tRp1302
tp1303
a(S'YP_003044893.1'
p1304
g3
(g5
S'\x07\xee%@\xbf\x95q@'
tRp1305
tp1306
a(S'YP_003044414.1'
p1307
g3
(g5
S'\xd2*n[\xab\x96q@'
tRp1308
tp1309
a(S'YP_003043924.1'
p1310
g3
(g5
S'\xb6\xebk\x81\xbf\xa0q@'
tRp1311
tp1312
a(S'YP_003044399.1'
p1313
g3
(g5
S'\xdf_\x03a\x0f\xb0q@'
tRp1314
tp1315
a(S'YP_003043980.1'
p1316
g3
(g5
S'\x12\xd2\xa3#J\xb8q@'
tRp1317
tp1318
a(S'YP_003045425.1'
p1319
g3
(g5
S'h\xdaZ\x88\x01\xbaq@'
tRp1320
tp1321
a(S'YP_003046294.1'
p1322
g3
(g5
S'h\xb6[\xf9\xa5\xbeq@'
tRp1323
tp1324
a(S'YP_003045849.1'
p1325
g3
(g5
S'\x84\x94\xc27>\xc5q@'
tRp1326
tp1327
a(S'YP_003044777.1'
p1328
g3
(g5
S'\xd3\x9c\xe6~;\xc7q@'
tRp1329
tp1330
a(S'YP_003047097.1'
p1331
g3
(g5
S'\x17\xad\xf5\xe6U\xd6q@'
tRp1332
tp1333
a(S'YP_003045772.1'
p1334
g3
(g5
S'1\xb1%h?\xddq@'
tRp1335
tp1336
a(S'YP_003047411.1'
p1337
g3
(g5
S'\xf0>R\xd0\\\xefq@'
tRp1338
tp1339
a(S'YP_003043844.1'
p1340
g3
(g5
S'\xef\x02\x18\x0b\x8e\x1br@'
tRp1341
tp1342
a(S'YP_003045028.1'
p1343
g3
(g5
S'\x8f\xe2\xb0\x10\xf4+r@'
tRp1344
tp1345
a(S'YP_003047102.1'
p1346
g3
(g5
S'\x8c!6\xe5.Tr@'
tRp1347
tp1348
a(S'YP_003043657.1'
p1349
g3
(g5
S'\xd72\x170tWr@'
tRp1350
tp1351
a(S'YP_003045976.1'
p1352
g3
(g5
S'\xaeh\xf3\xa7*cr@'
tRp1353
tp1354
a(S'YP_003046669.1'
p1355
g3
(g5
S'k\xf1\xab\x9c\x9bnr@'
tRp1356
tp1357
a(S'YP_003044853.1'
p1358
g3
(g5
S'\xa2\xa5;\xf1H\x88r@'
tRp1359
tp1360
a(S'YP_003047429.1'
p1361
g3
(g5
S'\x85S\xf5q\xe0\x88r@'
tRp1362
tp1363
a(S'YP_003047028.1'
p1364
g3
(g5
S'\xf0\xc3T\x84?\xa4r@'
tRp1365
tp1366
a(S'YP_003044401.1'
p1367
g3
(g5
S'\x90f\x85V\x92\xa4r@'
tRp1368
tp1369
a(S'YP_003045379.1'
p1370
g3
(g5
S'\xf0\xeeB\xab,\xaar@'
tRp1371
tp1372
a(S'YP_003043969.1'
p1373
g3
(g5
S'\x83\n\x9b\x86#\xabr@'
tRp1374
tp1375
a(S'YP_003046926.1'
p1376
g3
(g5
S'\x10\xa1\xee\xa1n\xacr@'
tRp1377
tp1378
a(S'YP_003043545.1'
p1379
g3
(g5
S'-_\xf9\x82U\xb2r@'
tRp1380
tp1381
a(S'YP_003046655.1'
p1382
g3
(g5
S'X\x80\x1a\x7f\xd4\xcfr@'
tRp1383
tp1384
a(S'YP_003045637.1'
p1385
g3
(g5
S'\x1b\x10\xea\xbbm\xd0r@'
tRp1386
tp1387
a(S'YP_003045584.1'
p1388
g3
(g5
S'\xe5I#\xbb/\xe1r@'
tRp1389
tp1390
a(S'YP_003043890.1'
p1391
g3
(g5
S'\xc2\xedO\xc0\xa4\xe1r@'
tRp1392
tp1393
a(S'YP_003047399.1'
p1394
g3
(g5
S'\xbc[\x03\xa7\xf3\xf2r@'
tRp1395
tp1396
a(S'YP_003045405.1'
p1397
g3
(g5
S'\x07\x96"\xfe\xf51s@'
tRp1398
tp1399
a(S'YP_003043967.1'
p1400
g3
(g5
S"\xda\xe5'\x14\xa8bs@"
tRp1401
tp1402
a(S'YP_003045747.1'
p1403
g3
(g5
S'A\xf6\x16gifs@'
tRp1404
tp1405
a(S'YP_003045827.1'
p1406
g3
(g5
S'\x17\x81\xb7\xf5\xe3fs@'
tRp1407
tp1408
a(S'YP_003046811.1'
p1409
g3
(g5
S'\x86YHB\x11gs@'
tRp1410
tp1411
a(S'YP_003043495.1'
p1412
g3
(g5
S'\n\xca\xd7\x17tis@'
tRp1413
tp1414
a(S'YP_003043916.1'
p1415
g3
(g5
S'\xcb.\x93`7\x8es@'
tRp1416
tp1417
a(S'YP_003045164.1'
p1418
g3
(g5
S'H\xddP\xc2\xf6\xb4s@'
tRp1419
tp1420
a(S'YP_003045043.1'
p1421
g3
(g5
S'\xcd&"B"\xb6s@'
tRp1422
tp1423
a(S'YP_003046990.1'
p1424
g3
(g5
S'M\x10\x147\xd4\xccs@'
tRp1425
tp1426
a(S'YP_003044953.1'
p1427
g3
(g5
S'3I\x9b\x8e\x99\xdes@'
tRp1428
tp1429
a(S'YP_003045784.1'
p1430
g3
(g5
S'C\xa6\x93^^\xecs@'
tRp1431
tp1432
a(S'YP_003046448.1'
p1433
g3
(g5
S'uq\xfadw t@'
tRp1434
tp1435
a(S'YP_003044437.1'
p1436
g3
(g5
S'wl\x88\x08\x1b7t@'
tRp1437
tp1438
a(S'YP_003046949.1'
p1439
g3
(g5
S'\x06\xc4\x84\xc8\x089t@'
tRp1440
tp1441
a(S'YP_003043670.1'
p1442
g3
(g5
S'f\x1c\xad.b?t@'
tRp1443
tp1444
a(S'YP_003046982.1'
p1445
g3
(g5
S'\xc6\xbcm\x0cd\\t@'
tRp1446
tp1447
a(S'YP_003043326.1'
p1448
g3
(g5
S'\xcc\x81yt\xe6yt@'
tRp1449
tp1450
a(S'YP_003045977.1'
p1451
g3
(g5
S'\xacy^#\xd1}t@'
tRp1452
tp1453
a(S'YP_003047426.1'
p1454
g3
(g5
S']\x96\xa8\x9e]\x87t@'
tRp1455
tp1456
a(S'YP_003044741.1'
p1457
g3
(g5
S'\xaa=Sl\xdf\x90t@'
tRp1458
tp1459
a(S'YP_003043630.1'
p1460
g3
(g5
S"'(\xf4!b\x9at@"
tRp1461
tp1462
a(S'YP_003046497.1'
p1463
g3
(g5
S'g\xaf\xd5Ch\xbat@'
tRp1464
tp1465
a(S'YP_003044511.1'
p1466
g3
(g5
S'\xb9\xd4\xdd\x84U\xe7t@'
tRp1467
tp1468
a(S'YP_003047272.1'
p1469
g3
(g5
S'g=u\xad\xd5\x11u@'
tRp1470
tp1471
a(S'YP_003045447.1'
p1472
g3
(g5
S'\xb8\x99\x08\xc2\xdb\x19u@'
tRp1473
tp1474
a(S'YP_003047062.1'
p1475
g3
(g5
S'\x0c0\x16\x82@"u@'
tRp1476
tp1477
a(S'YP_003044433.1'
p1478
g3
(g5
S't\x1f\x8f\x80\x171u@'
tRp1479
tp1480
a(S'YP_003043377.1'
p1481
g3
(g5
S'\x08\xd1u\x8d\xf17u@'
tRp1482
tp1483
a(S'YP_003046388.1'
p1484
g3
(g5
S'\x10>j\xe1\xe5Du@'
tRp1485
tp1486
a(S'YP_003046690.1'
p1487
g3
(g5
S'\xec& \xab.Nu@'
tRp1488
tp1489
a(S'YP_003043671.1'
p1490
g3
(g5
S'\xdfj\x91K\xecdu@'
tRp1491
tp1492
a(S'YP_003047164.1'
p1493
g3
(g5
S'\x08\xe8l\xc4Lnu@'
tRp1494
tp1495
a(S'YP_003043535.1'
p1496
g3
(g5
S'\xc2\xc1\xf7\xadhou@'
tRp1497
tp1498
a(S'YP_003045418.1'
p1499
g3
(g5
S'\xaf\xc8_\xc3\xd1\x81u@'
tRp1500
tp1501
a(S'YP_003043370.1'
p1502
g3
(g5
S'b\x03c\xc5\xf8\xa3u@'
tRp1503
tp1504
a(S'YP_003047417.1'
p1505
g3
(g5
S'iU\xe0\xfbs\xb7u@'
tRp1506
tp1507
a(S'YP_003044463.1'
p1508
g3
(g5
S'\x96\xbd\x94\x80\xe7\xbdu@'
tRp1509
tp1510
a(S'YP_003045673.1'
p1511
g3
(g5
S'\xeb\x14!\x0e\x86\xd2u@'
tRp1512
tp1513
a(S'YP_003043537.1'
p1514
g3
(g5
S'`M\xbfH{\xd4u@'
tRp1515
tp1516
a(S'YP_003046606.1'
p1517
g3
(g5
S'\xf2S\x00\xf2\xf5\xdau@'
tRp1518
tp1519
a(S'YP_003044270.1'
p1520
g3
(g5
S'\x1a4m3X\xdbu@'
tRp1521
tp1522
a(S'YP_003043283.1'
p1523
g3
(g5
S'S\xab\xbbkz\xddu@'
tRp1524
tp1525
a(S'YP_003043612.1'
p1526
g3
(g5
S'a1Yf\x8d\xe5u@'
tRp1527
tp1528
a(S'YP_003047286.1'
p1529
g3
(g5
S's\x96\x0c\xf9\x8c\xfcu@'
tRp1530
tp1531
a(S'YP_003046761.1'
p1532
g3
(g5
S'%\x020\xfe?\nv@'
tRp1533
tp1534
a(S'YP_003044648.1'
p1535
g3
(g5
S'\\\xcd\xd5\xc2}/v@'
tRp1536
tp1537
a(S'YP_003045941.1'
p1538
g3
(g5
S'v\xcb\x9d\x9e\x8c4v@'
tRp1539
tp1540
a(S'YP_003043337.1'
p1541
g3
(g5
S'\n\xaf\x95\xd9\xb2Fv@'
tRp1542
tp1543
a(S'YP_003044389.1'
p1544
g3
(g5
S'\x87\x1c\xc5uB[v@'
tRp1545
tp1546
a(S'YP_003046464.1'
p1547
g3
(g5
S'\x1d\t\x02\xc5K_v@'
tRp1548
tp1549
a(S'YP_003044752.1'
p1550
g3
(g5
S'\x82jp\x9a\x87\x86v@'
tRp1551
tp1552
a(S'YP_003047025.1'
p1553
g3
(g5
S'\x89\xe9\x83\xda\x1d\x9av@'
tRp1554
tp1555
a(S'YP_003046396.1'
p1556
g3
(g5
S'eL\xa9Dw\xa7v@'
tRp1557
tp1558
a(S'YP_003043915.1'
p1559
g3
(g5
S'\xdf\xbf\x8bM\xf5\xbbv@'
tRp1560
tp1561
a(S'YP_003046654.1'
p1562
g3
(g5
S'AE\x9c\xc5<\xbev@'
tRp1563
tp1564
a(S'YP_003043891.1'
p1565
g3
(g5
S'j\x93>\xdd\x98\xc3v@'
tRp1566
tp1567
a(S'YP_003046232.1'
p1568
g3
(g5
S'\x15/\xbfm\x00\xf8v@'
tRp1569
tp1570
a(S'YP_003045281.1'
p1571
g3
(g5
S'HD/M\xfb\x03w@'
tRp1572
tp1573
a(S'YP_003044132.1'
p1574
g3
(g5
S'*@o&\x07[w@'
tRp1575
tp1576
a(S'YP_003046280.1'
p1577
g3
(g5
S'\xd6\xc3\xe8\xe4\thw@'
tRp1578
tp1579
a(S'YP_003046148.1'
p1580
g3
(g5
S'\xee\xc92\xc2O\x9cw@'
tRp1581
tp1582
a(S'YP_003046760.1'
p1583
g3
(g5
S'b\xcc\xdax\x88\xb8w@'
tRp1584
tp1585
a(S'YP_003045987.1'
p1586
g3
(g5
S'0e\xfez3\xcbw@'
tRp1587
tp1588
a(S'YP_003047170.1'
p1589
g3
(g5
S'\xb8\xfb{\x1e\x13\xe0w@'
tRp1590
tp1591
a(S'YP_003046856.1'
p1592
g3
(g5
S'\xa0\x0c\xe9Oh\xedw@'
tRp1593
tp1594
a(S'YP_003043931.1'
p1595
g3
(g5
S'\xc7\xa2\xael;\x02x@'
tRp1596
tp1597
a(S'YP_003044146.1'
p1598
g3
(g5
S'J\xfdb\xadK\x0ex@'
tRp1599
tp1600
a(S'YP_003043758.1'
p1601
g3
(g5
S'\xb5\x99n\x96c\x12x@'
tRp1602
tp1603
a(S'YP_003043788.1'
p1604
g3
(g5
S'\xa9\x15\xda\xb1j(x@'
tRp1605
tp1606
a(S'YP_003044260.1'
p1607
g3
(g5
S'\xe4\xb4\xdbL\x9c7x@'
tRp1608
tp1609
a(S'YP_003044382.1'
p1610
g3
(g5
S'd\x03(\xec}?x@'
tRp1611
tp1612
a(S'YP_003047432.1'
p1613
g3
(g5
S'\x82H\\\xc0\xfb@x@'
tRp1614
tp1615
a(S'YP_003044925.1'
p1616
g3
(g5
S'P=]Z\x9eRx@'
tRp1617
tp1618
a(S'YP_003046637.1'
p1619
g3
(g5
S'\xde\x9b\xdc_Crx@'
tRp1620
tp1621
a(S'YP_003046837.1'
p1622
g3
(g5
S'\xedo\xdeA\r\x80x@'
tRp1623
tp1624
a(S'YP_003046094.1'
p1625
g3
(g5
S'\xe9\xd1\x9b\xf3p\x84x@'
tRp1626
tp1627
a(S'YP_003043968.1'
p1628
g3
(g5
S'\xe8\x10\xf1\x11=\xaex@'
tRp1629
tp1630
a(S'YP_003043588.1'
p1631
g3
(g5
S'\x96\x87\x0b-\x88\xafx@'
tRp1632
tp1633
a(S'YP_003043262.1'
p1634
g3
(g5
S'\xbb\x80#\x8fo\xbax@'
tRp1635
tp1636
a(S'YP_003044986.1'
p1637
g3
(g5
S'\xa6\xddC>Q\xc4x@'
tRp1638
tp1639
a(S'YP_003043597.1'
p1640
g3
(g5
S'\xd4\x03`\xbcf\xd0x@'
tRp1641
tp1642
a(S'YP_003047107.1'
p1643
g3
(g5
S'0\x91\xf3N\x8e\xd3x@'
tRp1644
tp1645
a(S'YP_003045445.1'
p1646
g3
(g5
S'\xc0\xc2hGd\xd4x@'
tRp1647
tp1648
a(S'YP_003044108.1'
p1649
g3
(g5
S'-n\x00\x85\xe2\xd6x@'
tRp1650
tp1651
a(S'YP_003046851.1'
p1652
g3
(g5
S'\xfd\xa8\x1b(\x1b\xe6x@'
tRp1653
tp1654
a(S'YP_003043889.1'
p1655
g3
(g5
S'\x96\xf4\xda\xef\xb3\xe6x@'
tRp1656
tp1657
a(S'YP_003043598.1'
p1658
g3
(g5
S'\xfb\xa3\xe3\x10&0y@'
tRp1659
tp1660
a(S'YP_003045519.1'
p1661
g3
(g5
S'\xe0\x13:5\x88My@'
tRp1662
tp1663
a(S'YP_003047101.1'
p1664
g3
(g5
S'+3\t\x16joy@'
tRp1665
tp1666
a(S'YP_003047096.1'
p1667
g3
(g5
S'\xb3g\xd4U%\xa3y@'
tRp1668
tp1669
a(S'YP_003046839.1'
p1670
g3
(g5
S'\xe9\x84\r\xe7*\xa7y@'
tRp1671
tp1672
a(S'YP_003045946.1'
p1673
g3
(g5
S"\xbb\xb6' \x9c\xb2y@"
tRp1674
tp1675
a(S'YP_003045740.1'
p1676
g3
(g5
S'%\x92\xe74w\xc6y@'
tRp1677
tp1678
a(S'YP_003045294.1'
p1679
g3
(g5
S'\x08\xabE\xf4\x85\xfcy@'
tRp1680
tp1681
a(S'YP_003045431.1'
p1682
g3
(g5
S'\x0b\xf9\xd4\xd9\x96\rz@'
tRp1683
tp1684
a(S'YP_003044341.1'
p1685
g3
(g5
S'\xe4\x81-\xc9\xe6$z@'
tRp1686
tp1687
a(S'YP_003043661.1'
p1688
g3
(g5
S"\xe7\xccz\xba\xa9'z@"
tRp1689
tp1690
a(S'YP_003047278.1'
p1691
g3
(g5
S'_\xcc\x02lb+z@'
tRp1692
tp1693
a(S'YP_003043285.1'
p1694
g3
(g5
S'\xad\xbc\x03\xaf\x12Cz@'
tRp1695
tp1696
a(S'YP_003046265.1'
p1697
g3
(g5
S'\xac\xdaU\\\xbbFz@'
tRp1698
tp1699
a(S'YP_003044851.1'
p1700
g3
(g5
S'(\xceS\xa6\xdbMz@'
tRp1701
tp1702
a(S'YP_003043855.1'
p1703
g3
(g5
S'au{_\xb6Xz@'
tRp1704
tp1705
a(S'YP_003044933.1'
p1706
g3
(g5
S'j\x00\xe4\xa7?~z@'
tRp1707
tp1708
a(S'YP_003046066.1'
p1709
g3
(g5
S'\x95\xbc\xa7\xea\xd1\x83z@'
tRp1710
tp1711
a(S'YP_003044509.1'
p1712
g3
(g5
S'h\xc1;>\x95\x86z@'
tRp1713
tp1714
a(S'YP_003044820.1'
p1715
g3
(g5
S'!\x05!\x9f\xc8\x9az@'
tRp1716
tp1717
a(S'YP_003045854.1'
p1718
g3
(g5
S'\xf7\xc3\x16\\?\x9cz@'
tRp1719
tp1720
a(S'YP_003047080.1'
p1721
g3
(g5
S'\xad\xd03L\x14\xa4z@'
tRp1722
tp1723
a(S'YP_003044124.1'
p1724
g3
(g5
S'\xe7\xdf\xdd\x8bp\xb8z@'
tRp1725
tp1726
a(S'YP_003044434.1'
p1727
g3
(g5
S'\xcdd\xb9\xd6\xcd\xb8z@'
tRp1728
tp1729
a(S'YP_003047180.1'
p1730
g3
(g5
S'\x95{\x058\xdf\xcfz@'
tRp1731
tp1732
a(S'YP_003046763.1'
p1733
g3
(g5
S'4\xb0\xd4\x87\x1d\xdcz@'
tRp1734
tp1735
a(S'YP_003043263.1'
p1736
g3
(g5
S'M\xf4h2\xcc\xeaz@'
tRp1737
tp1738
a(S'YP_003046953.1'
p1739
g3
(g5
S'\xe4{h\xc0)\xffz@'
tRp1740
tp1741
a(S'YP_003046582.1'
p1742
g3
(g5
S'\x89#\xd1[\x07\x05{@'
tRp1743
tp1744
a(S'YP_003046909.1'
p1745
g3
(g5
S'b]Q\xf9\x0c#{@'
tRp1746
tp1747
a(S'YP_003043800.1'
p1748
g3
(g5
S'\x90y\xe2\xd0K%{@'
tRp1749
tp1750
a(S'YP_003046840.1'
p1751
g3
(g5
S'\xd7`\x891\xae+{@'
tRp1752
tp1753
a(S'YP_003043351.1'
p1754
g3
(g5
S'`\x9c\x85\xe4\x01:{@'
tRp1755
tp1756
a(S'YP_003047210.1'
p1757
g3
(g5
S's)?kBR{@'
tRp1758
tp1759
a(S'YP_003043320.1'
p1760
g3
(g5
S'\x97\x10z\x92\x04y{@'
tRp1761
tp1762
a(S'YP_003044557.1'
p1763
g3
(g5
S'\xb0\x04\x85\x14v\xb3{@'
tRp1764
tp1765
a(S'YP_003046076.1'
p1766
g3
(g5
S'\xb5\xd1\x82?\xac\xb4{@'
tRp1767
tp1768
a(S'YP_003047026.1'
p1769
g3
(g5
S'z\xecD\xb9\x9a\xc3{@'
tRp1770
tp1771
a(S'YP_003044078.1'
p1772
g3
(g5
S'+\xcc\xd4P\xaa\xdb{@'
tRp1773
tp1774
a(S'YP_003044493.1'
p1775
g3
(g5
S'\xc4U\xf8\xdc\x00/|@'
tRp1776
tp1777
a(S'YP_003043550.1'
p1778
g3
(g5
S'\xdc\xb0r+)=|@'
tRp1779
tp1780
a(S'YP_003043538.1'
p1781
g3
(g5
S'uw#\xfd\x99D|@'
tRp1782
tp1783
a(S'YP_003043982.1'
p1784
g3
(g5
S'\x84Ot\xea\x8fO|@'
tRp1785
tp1786
a(S'YP_003045921.1'
p1787
g3
(g5
S'(\xa9\xa5}\xb2X|@'
tRp1788
tp1789
a(S'YP_003044792.1'
p1790
g3
(g5
S'\xc4{R\xb8\x82d|@'
tRp1791
tp1792
a(S'YP_003046583.1'
p1793
g3
(g5
S'\xf4LX\x03Pk|@'
tRp1794
tp1795
a(S'YP_003043682.1'
p1796
g3
(g5
S'T\xc1\x00y\x18\x96|@'
tRp1797
tp1798
a(S'YP_003046524.1'
p1799
g3
(g5
S'\xc2A\x83Wk\x9e|@'
tRp1800
tp1801
a(S'YP_003047045.1'
p1802
g3
(g5
S'\x86p\x9cAb\xd3|@'
tRp1803
tp1804
a(S'YP_003044561.1'
p1805
g3
(g5
S'C@\x9f=/\xd7|@'
tRp1806
tp1807
a(S'YP_003044461.1'
p1808
g3
(g5
S'a\xd5,\xad\xcb\xd7|@'
tRp1809
tp1810
a(S'YP_003046908.1'
p1811
g3
(g5
S'\x00\x85\xf0\xe2\xbf\xda|@'
tRp1812
tp1813
a(S'YP_003046124.1'
p1814
g3
(g5
S'\xf4i\x9frw\xea|@'
tRp1815
tp1816
a(S'YP_003045460.1'
p1817
g3
(g5
S'\xe2\xdd\xac\x00u\xee|@'
tRp1818
tp1819
a(S'YP_003045983.1'
p1820
g3
(g5
S'\x92QQM2\x0e}@'
tRp1821
tp1822
a(S'YP_003044278.1'
p1823
g3
(g5
S'\xd7\xb2O\xed\x9eQ}@'
tRp1824
tp1825
a(S'YP_003046404.1'
p1826
g3
(g5
S'\xb7\x92\xd5\xf6<c}@'
tRp1827
tp1828
a(S'YP_003047079.1'
p1829
g3
(g5
S'9\xbbD\xbb\xddh}@'
tRp1830
tp1831
a(S'YP_003047410.1'
p1832
g3
(g5
S'\x9f?\xcb\xa1\xda\x88}@'
tRp1833
tp1834
a(S'YP_003044224.1'
p1835
g3
(g5
S'.:\xbbl\x05\xa0}@'
tRp1836
tp1837
a(S'YP_003044170.1'
p1838
g3
(g5
S"\xe8S['\x83\xa8}@"
tRp1839
tp1840
a(S'YP_003045729.1'
p1841
g3
(g5
S'\xcc\xee\xf7o\xf1\xa9}@'
tRp1842
tp1843
a(S'YP_003043756.1'
p1844
g3
(g5
S'6\x9e*\xe2x\xd5}@'
tRp1845
tp1846
a(S'YP_003047175.1'
p1847
g3
(g5
S'$\xb1\xbb\x86L\xde}@'
tRp1848
tp1849
a(S'YP_003045546.1'
p1850
g3
(g5
S'~\xb0\n\x1e\x93\xf8}@'
tRp1851
tp1852
a(S'YP_003046382.1'
p1853
g3
(g5
S'\x14\x04\xdfF\xa4\x00~@'
tRp1854
tp1855
a(S'YP_003045828.1'
p1856
g3
(g5
S'\x1f\xbe\xed\x93\xe7)~@'
tRp1857
tp1858
a(S'YP_003044948.1'
p1859
g3
(g5
S'\x8b#\x83\xf4\xa6G~@'
tRp1860
tp1861
a(S'YP_003045489.1'
p1862
g3
(g5
S'\x90{\x8a]\xdaL~@'
tRp1863
tp1864
a(S'YP_003047433.1'
p1865
g3
(g5
S'\x91\xf4&\xf0\xc2]~@'
tRp1866
tp1867
a(S'YP_003044145.1'
p1868
g3
(g5
S'\x108Z\x91\x9fk~@'
tRp1869
tp1870
a(S'YP_003043259.1'
p1871
g3
(g5
S'VRP\xd0\x01\xcf~@'
tRp1872
tp1873
a(S'YP_003043899.1'
p1874
g3
(g5
S'\xcb\xd9\xba\xd6]\xf3~@'
tRp1875
tp1876
a(S'YP_003046634.1'
p1877
g3
(g5
S'\x87\x16J\xec\xec\xff~@'
tRp1878
tp1879
a(S'YP_003045432.1'
p1880
g3
(g5
S'\x96\xbb\\Q\x0b\x1b\x7f@'
tRp1881
tp1882
a(S'YP_003047248.1'
p1883
g3
(g5
S'\x12\xb8\xc6\x10\x83!\x7f@'
tRp1884
tp1885
a(S'YP_003043309.1'
p1886
g3
(g5
S'=U\x84\xe8\xfeA\x7f@'
tRp1887
tp1888
a(S'YP_003045291.1'
p1889
g3
(g5
S'\xcdW\xd6]PG\x7f@'
tRp1890
tp1891
a(S'YP_003043704.1'
p1892
g3
(g5
S'\xdc<\x89M-R\x7f@'
tRp1893
tp1894
a(S'YP_003045029.1'
p1895
g3
(g5
S'\xa7`\xe1\xce\x84[\x7f@'
tRp1896
tp1897
a(S'YP_003047409.1'
p1898
g3
(g5
S'\xaf\x04I\xde\xa4[\x7f@'
tRp1899
tp1900
a(S'YP_003045558.1'
p1901
g3
(g5
S'\xde\x16\x03\xb9ld\x7f@'
tRp1902
tp1903
a(S'YP_003044136.1'
p1904
g3
(g5
S'S\xc9\x92t\xe8d\x7f@'
tRp1905
tp1906
a(S'YP_003047093.1'
p1907
g3
(g5
S'\x9b\x13Oj\xb1x\x7f@'
tRp1908
tp1909
a(S'YP_003047379.1'
p1910
g3
(g5
S'\xc0H\xd4\x93\x01\x81\x7f@'
tRp1911
tp1912
a(S'YP_003044312.1'
p1913
g3
(g5
S'\x8f\xade\x8ex\xa5\x7f@'
tRp1914
tp1915
a(S'YP_003046291.1'
p1916
g3
(g5
S'\x8eg\x93\x97\xd3\xbc\x7f@'
tRp1917
tp1918
a(S'YP_003045459.1'
p1919
g3
(g5
S'\xf3]\x126\xf5\x02\x80@'
tRp1920
tp1921
a(S'YP_003045255.1'
p1922
g3
(g5
S'"`\xe2\xd6\xbb\x12\x80@'
tRp1923
tp1924
a(S'YP_003045420.1'
p1925
g3
(g5
S'z\xebk\x88t\x13\x80@'
tRp1926
tp1927
a(S'YP_003044998.1'
p1928
g3
(g5
S'\xc1\x93\x82\xf6\x8e\x1e\x80@'
tRp1929
tp1930
a(S'YP_003046354.1'
p1931
g3
(g5
S'aC4\x01r\x1f\x80@'
tRp1932
tp1933
a(S'YP_003046920.1'
p1934
g3
(g5
S'\x17d\xfcB93\x80@'
tRp1935
tp1936
a(S'YP_003043340.1'
p1937
g3
(g5
S'\xc0?\xeeU\xa9:\x80@'
tRp1938
tp1939
a(S'YP_003045954.1'
p1940
g3
(g5
S's\xbeFf\x99D\x80@'
tRp1941
tp1942
a(S'YP_003046330.1'
p1943
g3
(g5
S'\x98\xf2\x93\\\x90H\x80@'
tRp1944
tp1945
a(S'YP_003044388.1'
p1946
g3
(g5
S'\xbd\xedP\\J\\\x80@'
tRp1947
tp1948
a(S'YP_003043930.1'
p1949
g3
(g5
S'<\xea\xf0\xef\xf4j\x80@'
tRp1950
tp1951
a(S'YP_003046233.1'
p1952
g3
(g5
S'\xf7\x05\xed\xf8\xb1m\x80@'
tRp1953
tp1954
a(S'YP_003045256.1'
p1955
g3
(g5
S'\xc6K\xc5\xdc\x02\x90\x80@'
tRp1956
tp1957
a(S'YP_003045139.1'
p1958
g3
(g5
S'^y\xeem\xf0\x95\x80@'
tRp1959
tp1960
a(S'YP_003044808.1'
p1961
g3
(g5
S'\xf3\x94\xc3\x94R\xa6\x80@'
tRp1962
tp1963
a(S'YP_003044822.1'
p1964
g3
(g5
S'\\7s\x85\xad\xa8\x80@'
tRp1965
tp1966
a(S'YP_003046923.1'
p1967
g3
(g5
S'e$\x1d\x12\x9b\xa9\x80@'
tRp1968
tp1969
a(S'YP_003046980.1'
p1970
g3
(g5
S'UC\x82\x0e\x18\xbc\x80@'
tRp1971
tp1972
a(S'YP_003043288.1'
p1973
g3
(g5
S'\x18\x00\x8fz\xad\xc3\x80@'
tRp1974
tp1975
a(S'YP_003045265.1'
p1976
g3
(g5
S'\xc9Ly\xeb\xb6\xc5\x80@'
tRp1977
tp1978
a(S'YP_003046474.1'
p1979
g3
(g5
S'\xeb\xdcC\xeb\xf6\xc5\x80@'
tRp1980
tp1981
a(S'YP_003044394.1'
p1982
g3
(g5
S'30-*\xef\xcc\x80@'
tRp1983
tp1984
a(S'YP_003046085.1'
p1985
g3
(g5
S'\xfej\x1eI9\xe7\x80@'
tRp1986
tp1987
a(S'YP_003044492.1'
p1988
g3
(g5
S'T\xda\x1a\x87\xa0\xea\x80@'
tRp1989
tp1990
a(S'YP_003045964.1'
p1991
g3
(g5
S'MS\xc5\x97&\xf5\x80@'
tRp1992
tp1993
a(S'YP_003043789.1'
p1994
g3
(g5
S'5\x88K:j\xfd\x80@'
tRp1995
tp1996
a(S'YP_003045289.1'
p1997
g3
(g5
S'\x8eS\x8d\x97\x97*\x81@'
tRp1998
tp1999
a(S'YP_003045665.1'
p2000
g3
(g5
S'\x05&\x87\x8fZ9\x81@'
tRp2001
tp2002
a(S'YP_003045732.1'
p2003
g3
(g5
S'\xa1\xd0\x1em\t;\x81@'
tRp2004
tp2005
a(S'YP_003044810.1'
p2006
g3
(g5
S'\x08gkyRP\x81@'
tRp2007
tp2008
a(S'YP_003045178.1'
p2009
g3
(g5
S'\xd9\xb9G\x9f(\x9e\x81@'
tRp2010
tp2011
a(S'YP_003043639.1'
p2012
g3
(g5
S'\x9c\x84\x85M]\xa0\x81@'
tRp2013
tp2014
a(S'YP_003045925.1'
p2015
g3
(g5
S'\xaa\xa4\x9b\xfe}\xaa\x81@'
tRp2016
tp2017
a(S'YP_003045545.1'
p2018
g3
(g5
S'\x1d\xd9;\t\xd5\xd5\x81@'
tRp2019
tp2020
a(S'YP_003046212.1'
p2021
g3
(g5
S'\xea\xe5\xa7x\x99\x10\x82@'
tRp2022
tp2023
a(S'YP_003045920.1'
p2024
g3
(g5
S'\x0b\xf2\x1cX\x1d\x11\x82@'
tRp2025
tp2026
a(S'YP_003046289.1'
p2027
g3
(g5
S'7\x95\x96\x98:\x18\x82@'
tRp2028
tp2029
a(S'YP_003046684.1'
p2030
g3
(g5
S'\x02\xaf-t\x03\x19\x82@'
tRp2031
tp2032
a(S'YP_003046279.1'
p2033
g3
(g5
S'\x1fP\x00\x9d\xd2,\x82@'
tRp2034
tp2035
a(S'YP_003045087.1'
p2036
g3
(g5
S'\xefZ\x01nh5\x82@'
tRp2037
tp2038
a(S'YP_003046838.1'
p2039
g3
(g5
S's\xabU\xc8HF\x82@'
tRp2040
tp2041
a(S'YP_003043854.1'
p2042
g3
(g5
S'\xe9\xebz\xcc\x82M\x82@'
tRp2043
tp2044
a(S'YP_003046095.1'
p2045
g3
(g5
S'\xdf\xceo\x0b\xdfT\x82@'
tRp2046
tp2047
a(S'YP_003046775.1'
p2048
g3
(g5
S'\xb2\x8dH\t\xd6V\x82@'
tRp2049
tp2050
a(S'YP_003046319.1'
p2051
g3
(g5
S'\x8d\xda\x84"\x84Y\x82@'
tRp2052
tp2053
a(S'YP_003047087.1'
p2054
g3
(g5
S'Nt\x8c\x9e\xbc`\x82@'
tRp2055
tp2056
a(S'YP_003047318.1'
p2057
g3
(g5
S'\xbf\xa0\x1e\xa9yd\x82@'
tRp2058
tp2059
a(S'YP_003043853.1'
p2060
g3
(g5
S'\x15@\x97\xc2\x7f\x91\x82@'
tRp2061
tp2062
a(S'YP_003043705.1'
p2063
g3
(g5
S'\x9f+R\x97\xfa\x96\x82@'
tRp2064
tp2065
a(S'YP_003045829.1'
p2066
g3
(g5
S'\x91\x8f\xf4\x83\x8f\xa6\x82@'
tRp2067
tp2068
a(S'YP_003046031.1'
p2069
g3
(g5
S'+\xb9/sY\xac\x82@'
tRp2070
tp2071
a(S'YP_003044377.1'
p2072
g3
(g5
S'RX\x92\x19\x03\xb2\x82@'
tRp2073
tp2074
a(S'YP_003047424.1'
p2075
g3
(g5
S'e\xedP7\x91\xbb\x82@'
tRp2076
tp2077
a(S'YP_003046241.1'
p2078
g3
(g5
S'\xce\xd4\x1c6[\xc2\x82@'
tRp2079
tp2080
a(S'YP_003043608.1'
p2081
g3
(g5
S'\xb8\x0f\x8e\xee\xaf\xc7\x82@'
tRp2082
tp2083
a(S'YP_003046109.1'
p2084
g3
(g5
S'I\xd0\xd1LI\xc8\x82@'
tRp2085
tp2086
a(S'YP_003043833.1'
p2087
g3
(g5
S':\x9a\x87#\x11\xcb\x82@'
tRp2088
tp2089
a(S'YP_003045427.1'
p2090
g3
(g5
S'\x19J\xac\xe6\xb0\xec\x82@'
tRp2091
tp2092
a(S'YP_003046810.1'
p2093
g3
(g5
S'9\xc7\x9d\x07\x89\xf1\x82@'
tRp2094
tp2095
a(S'YP_003044932.1'
p2096
g3
(g5
S'd\x9a\x80\xd6/\xf4\x82@'
tRp2097
tp2098
a(S'YP_003045659.1'
p2099
g3
(g5
S'E\xd7\xf5\x06\xff\xfb\x82@'
tRp2100
tp2101
a(S'YP_003047060.1'
p2102
g3
(g5
S'v\xf05\xeb\xef\r\x83@'
tRp2103
tp2104
a(S'YP_003047023.1'
p2105
g3
(g5
S'\x92d*\x05U\x1d\x83@'
tRp2106
tp2107
a(S'YP_003045668.1'
p2108
g3
(g5
S'\x92\x12b\x19\x02"\x83@'
tRp2109
tp2110
a(S'YP_003044439.1'
p2111
g3
(g5
S'\xf1\xf3\xc2\xbf\x15+\x83@'
tRp2112
tp2113
a(S'YP_003045408.1'
p2114
g3
(g5
S'\xd7\x07\xf9@cF\x83@'
tRp2115
tp2116
a(S'YP_003046999.1'
p2117
g3
(g5
S'\xd0DM\x04\x85K\x83@'
tRp2118
tp2119
a(S'YP_003044836.1'
p2120
g3
(g5
S'2%\x8a0xN\x83@'
tRp2121
tp2122
a(S'YP_003043910.1'
p2123
g3
(g5
S'\xa7\x83y$\x01{\x83@'
tRp2124
tp2125
a(S'YP_003045015.1'
p2126
g3
(g5
S'\xb4\xc0!?2\x85\x83@'
tRp2127
tp2128
a(S'YP_003046252.1'
p2129
g3
(g5
S'\x17\x7f}\x06\x0c\x8c\x83@'
tRp2130
tp2131
a(S'YP_003043281.1'
p2132
g3
(g5
S'\x93\\\xf6@\xe0\x8c\x83@'
tRp2133
tp2134
a(S'YP_003043569.1'
p2135
g3
(g5
S'\x05\xa8\xaa\xd8\xb1\x93\x83@'
tRp2136
tp2137
a(S'YP_003045225.1'
p2138
g3
(g5
S'"\xb9A\xbeL\xa8\x83@'
tRp2139
tp2140
a(S'YP_003044459.1'
p2141
g3
(g5
S'\xbe\xca\x98\x01\x17\xb7\x83@'
tRp2142
tp2143
a(S'YP_003046013.1'
p2144
g3
(g5
S'\x10\x01\xae!\xdf\xb7\x83@'
tRp2145
tp2146
a(S'YP_003045523.1'
p2147
g3
(g5
S'}TE\x03\xb8\xc2\x83@'
tRp2148
tp2149
a(S'YP_003043352.1'
p2150
g3
(g5
S'\xf8\x94=\xa7\xee\xf7\x83@'
tRp2151
tp2152
a(S'YP_003046843.1'
p2153
g3
(g5
S'\xda*\x13N\x18\xf8\x83@'
tRp2154
tp2155
a(S'YP_003046784.1'
p2156
g3
(g5
S'\xb3\xc6"\x16\xe9\x06\x84@'
tRp2157
tp2158
a(S'YP_003045714.1'
p2159
g3
(g5
S'\x04\xd1n\x9e\xf0\t\x84@'
tRp2160
tp2161
a(S'YP_003046227.1'
p2162
g3
(g5
S'$\x93\x13`t\x0b\x84@'
tRp2163
tp2164
a(S'YP_003044645.1'
p2165
g3
(g5
S'j\xe0\x05\xb0\xe9\x0f\x84@'
tRp2166
tp2167
a(S'YP_003045140.1'
p2168
g3
(g5
S'\xdbt@\xbcz\x1d\x84@'
tRp2169
tp2170
a(S'YP_003047279.1'
p2171
g3
(g5
S'\x89\x11t\xd3\xd80\x84@'
tRp2172
tp2173
a(S'YP_003045224.1'
p2174
g3
(g5
S'y<Z\n\xf50\x84@'
tRp2175
tp2176
a(S'YP_003043371.1'
p2177
g3
(g5
S'I\xa3\x06-\xa7U\x84@'
tRp2178
tp2179
a(S'YP_003046852.1'
p2180
g3
(g5
S'G\xd5\xc1 2Z\x84@'
tRp2181
tp2182
a(S'YP_003044174.1'
p2183
g3
(g5
S'\x9a\xd8\xfdn\xc2w\x84@'
tRp2184
tp2185
a(S'YP_003046687.1'
p2186
g3
(g5
S'\xe6\x80y\xf0\xa7x\x84@'
tRp2187
tp2188
a(S'YP_003045553.1'
p2189
g3
(g5
S'=(i\xd4K\x7f\x84@'
tRp2190
tp2191
a(S'YP_003045608.1'
p2192
g3
(g5
S'\xc6\x16\xfc\x08\xdb\xa0\x84@'
tRp2193
tp2194
a(S'YP_003044370.1'
p2195
g3
(g5
S'\xd9\x10;\xa5z\xa3\x84@'
tRp2196
tp2197
a(S'YP_003044153.1'
p2198
g3
(g5
S'?h\xd3\xc6\xdb\xb0\x84@'
tRp2199
tp2200
a(S'YP_003043428.1'
p2201
g3
(g5
S'\xc1\xa3\x88\x07\x10\xb9\x84@'
tRp2202
tp2203
a(S'YP_003045205.1'
p2204
g3
(g5
S'\x15(\xeb\xfbt\xd0\x84@'
tRp2205
tp2206
a(S'YP_003046292.1'
p2207
g3
(g5
S'\x8b\xf5\x91qk\xd9\x84@'
tRp2208
tp2209
a(S'YP_003046110.1'
p2210
g3
(g5
S'\xdf\x1b\x8f_\xf4\xda\x84@'
tRp2211
tp2212
a(S'YP_003046675.1'
p2213
g3
(g5
S'd2\x8b\xefV\xdb\x84@'
tRp2214
tp2215
a(S'YP_003046680.1'
p2216
g3
(g5
S'\xa39\xb5u\xa4\xe5\x84@'
tRp2217
tp2218
a(S'YP_003043318.1'
p2219
g3
(g5
S'<d\xac\xb1+\xea\x84@'
tRp2220
tp2221
a(S'YP_003045649.1'
p2222
g3
(g5
S'\x8dA\xc0S\xec\xea\x84@'
tRp2223
tp2224
a(S'YP_003045073.1'
p2225
g3
(g5
S'\xa1[\xd1\xbb\xc7\xeb\x84@'
tRp2226
tp2227
a(S'YP_003045824.1'
p2228
g3
(g5
S'\xd6\xfe\x9cU\x9d\xed\x84@'
tRp2229
tp2230
a(S'YP_003043316.1'
p2231
g3
(g5
S'\x94\xc7\xa8S\xb4\x0e\x85@'
tRp2232
tp2233
a(S'YP_003046557.1'
p2234
g3
(g5
S'w\x8e\x9b\x18f\x1c\x85@'
tRp2235
tp2236
a(S'YP_003044878.1'
p2237
g3
(g5
S'\t\xe4?Oy7\x85@'
tRp2238
tp2239
a(S'YP_003043398.1'
p2240
g3
(g5
S'\xd3gFZ\xaf7\x85@'
tRp2241
tp2242
a(S'YP_003047419.1'
p2243
g3
(g5
S'NLQ\t\t?\x85@'
tRp2244
tp2245
a(S'YP_003043333.1'
p2246
g3
(g5
S'r\xc9\x19&KC\x85@'
tRp2247
tp2248
a(S'YP_003044462.1'
p2249
g3
(g5
S'Z\x0c\xf2\x9b\x0cD\x85@'
tRp2250
tp2251
a(S'YP_003047200.1'
p2252
g3
(g5
S'\xfb\xf5r\xcfwp\x85@'
tRp2253
tp2254
a(S'YP_003046984.1'
p2255
g3
(g5
S'\xa4\xd5\xb7\xe8\xedw\x85@'
tRp2256
tp2257
a(S'YP_003045913.1'
p2258
g3
(g5
S'(\x83Q\xb2\x95~\x85@'
tRp2259
tp2260
a(S'YP_003046678.1'
p2261
g3
(g5
S'\xcccj\x9cu\xa6\x85@'
tRp2262
tp2263
a(S'YP_003044365.1'
p2264
g3
(g5
S'2\xea\xd4\x1ag\xab\x85@'
tRp2265
tp2266
a(S'YP_003045610.1'
p2267
g3
(g5
S'v\xab\xf1\x8dP\xbb\x85@'
tRp2268
tp2269
a(S'YP_003043582.1'
p2270
g3
(g5
S'YC\x02\xd5)\xc4\x85@'
tRp2271
tp2272
a(S'YP_003046486.1'
p2273
g3
(g5
S'\xd78\xad$I\xc7\x85@'
tRp2274
tp2275
a(S'YP_003046496.1'
p2276
g3
(g5
S'&\xb3\xa5\xd8d\xd0\x85@'
tRp2277
tp2278
a(S'YP_003047201.1'
p2279
g3
(g5
S'\x11t\xce\x18\x00\xd2\x85@'
tRp2280
tp2281
a(S'YP_003044465.1'
p2282
g3
(g5
S'9\x89\x06\x1e\x89\xd3\x85@'
tRp2283
tp2284
a(S'YP_003044154.1'
p2285
g3
(g5
S'\xe8\xf7\xbdC\xfa\xf1\x85@'
tRp2286
tp2287
a(S'YP_003043932.1'
p2288
g3
(g5
S'\xb7\x92\x0e\x91\xf2\r\x86@'
tRp2289
tp2290
a(S'YP_003043391.1'
p2291
g3
(g5
S">\\9'B\x1d\x86@"
tRp2292
tp2293
a(S'YP_003046002.1'
p2294
g3
(g5
S')>?\xd6\x86+\x86@'
tRp2295
tp2296
a(S'YP_003047406.1'
p2297
g3
(g5
S'B\xfcBl45\x86@'
tRp2298
tp2299
a(S'YP_003044979.1'
p2300
g3
(g5
S'wQ\x1c\x1e\x9eH\x86@'
tRp2301
tp2302
a(S'YP_003044005.1'
p2303
g3
(g5
S'\x17G\xebQ\x16L\x86@'
tRp2304
tp2305
a(S'YP_003044281.1'
p2306
g3
(g5
S'\x88B\xff\xa5\x8ci\x86@'
tRp2307
tp2308
a(S'YP_003045180.1'
p2309
g3
(g5
S'\xe8Z\xd5\x07\x04o\x86@'
tRp2310
tp2311
a(S'YP_003044618.1'
p2312
g3
(g5
S'3c\xcbL\xf6y\x86@'
tRp2313
tp2314
a(S'YP_003043562.1'
p2315
g3
(g5
S'd\xac\xa0\xf3y~\x86@'
tRp2316
tp2317
a(S'YP_003043594.1'
p2318
g3
(g5
S'9\x86\xbc\xfa\x03\x94\x86@'
tRp2319
tp2320
a(S'YP_003046202.1'
p2321
g3
(g5
S'10B\x9b2\xd1\x86@'
tRp2322
tp2323
a(S'YP_003044700.1'
p2324
g3
(g5
S'\xfc>\xa6\xc9\xd0\xd9\x86@'
tRp2325
tp2326
a(S'YP_003044294.1'
p2327
g3
(g5
S'>\x91\x8a @\xdd\x86@'
tRp2328
tp2329
a(S'YP_003045404.1'
p2330
g3
(g5
S'\xd3\x0e\xcc\xda\xfa\xe0\x86@'
tRp2331
tp2332
a(S'YP_003046998.1'
p2333
g3
(g5
S'\xf9\xf8\x91\x0c\x07\xe9\x86@'
tRp2334
tp2335
a(S'YP_003044367.1'
p2336
g3
(g5
S'_"\r\x88\xcd\xf1\x86@'
tRp2337
tp2338
a(S'YP_003046756.1'
p2339
g3
(g5
S'"\x99!\x9aV\xf8\x86@'
tRp2340
tp2341
a(S'YP_003045368.1'
p2342
g3
(g5
S'\xf7\xd0\xd6\xd84\xfb\x86@'
tRp2343
tp2344
a(S'YP_003045870.1'
p2345
g3
(g5
S'\xed\xbag\xfa\xcc\xfb\x86@'
tRp2346
tp2347
a(S'YP_003043921.1'
p2348
g3
(g5
S'\xe4\xbb\xfa\xe8k\xfc\x86@'
tRp2349
tp2350
a(S'YP_003043863.1'
p2351
g3
(g5
S'\x04\x9dF\x99\x90\x03\x87@'
tRp2352
tp2353
a(S'YP_003043580.1'
p2354
g3
(g5
S'\r\x8es\x99\xfb\x05\x87@'
tRp2355
tp2356
a(S'YP_003046854.1'
p2357
g3
(g5
S'b3R\xd5+\x1a\x87@'
tRp2358
tp2359
a(S'YP_003045309.1'
p2360
g3
(g5
S'T\xb1\xb2\x1a<=\x87@'
tRp2361
tp2362
a(S'YP_003047359.1'
p2363
g3
(g5
S"'\xeb\xcd\xef\xfaS\x87@"
tRp2364
tp2365
a(S'YP_003046925.1'
p2366
g3
(g5
S'hST/"U\x87@'
tRp2367
tp2368
a(S'YP_003045789.1'
p2369
g3
(g5
S'\xa8\x05\x91\xb2\xf6y\x87@'
tRp2370
tp2371
a(S'YP_003045446.1'
p2372
g3
(g5
S'\xb4\x8e1@\xab\x84\x87@'
tRp2373
tp2374
a(S'YP_003043378.1'
p2375
g3
(g5
S'\x03\x1e\xf1c>\x85\x87@'
tRp2376
tp2377
a(S'YP_003044077.1'
p2378
g3
(g5
S"1\x1eZ\xb9'\x9c\x87@"
tRp2379
tp2380
a(S'YP_003043416.1'
p2381
g3
(g5
S'L\x86\x00\x8c\xf3\xa0\x87@'
tRp2382
tp2383
a(S'YP_003045044.1'
p2384
g3
(g5
S'Y\x86\x1a\xe9\xeb\xca\x87@'
tRp2385
tp2386
a(S'YP_003044931.1'
p2387
g3
(g5
S':Q\x9b\xf8n\xe2\x87@'
tRp2388
tp2389
a(S'YP_003044093.1'
p2390
g3
(g5
S'7\xa4\xd4\x87\x89\xe4\x87@'
tRp2391
tp2392
a(S'YP_003046433.1'
p2393
g3
(g5
S'GK\xf9\x03\xb7\xe8\x87@'
tRp2394
tp2395
a(S'YP_003045688.1'
p2396
g3
(g5
S'\x851\x05\xb1\x05\xee\x87@'
tRp2397
tp2398
a(S'YP_003047271.1'
p2399
g3
(g5
S'\xd2\x1f\xc6_g\xf5\x87@'
tRp2400
tp2401
a(S'YP_003047047.1'
p2402
g3
(g5
S'\x1d\xc5\xd4\x0f\xf2\r\x88@'
tRp2403
tp2404
a(S'YP_003046679.1'
p2405
g3
(g5
S'\xa9\xdbu"\xbc\x1b\x88@'
tRp2406
tp2407
a(S'YP_003046098.1'
p2408
g3
(g5
S'\x85\xae\xee\xed\xc9%\x88@'
tRp2409
tp2410
a(S'YP_003044371.1'
p2411
g3
(g5
S'\xac\x1e\x98\xbd\xe5R\x88@'
tRp2412
tp2413
a(S'YP_003046891.1'
p2414
g3
(g5
S'\xe0\xcb\xb2\xb2\x89\\\x88@'
tRp2415
tp2416
a(S'YP_003043235.1'
p2417
g3
(g5
S'\xe3\xd5\xc2\xc0\x97n\x88@'
tRp2418
tp2419
a(S'YP_003044072.1'
p2420
g3
(g5
S'\xc5E\\B?p\x88@'
tRp2421
tp2422
a(S'YP_003044916.1'
p2423
g3
(g5
S'\x8e\x94\xda\x86\xddy\x88@'
tRp2424
tp2425
a(S'YP_003043324.1'
p2426
g3
(g5
S'a\xf95i\n}\x88@'
tRp2427
tp2428
a(S'YP_003045272.1'
p2429
g3
(g5
S'\x9a\x18\x89\xf6\x8e\x92\x88@'
tRp2430
tp2431
a(S'YP_003044343.1'
p2432
g3
(g5
S'3,\xd9\xf5\xbe\xc9\x88@'
tRp2433
tp2434
a(S'YP_003043460.1'
p2435
g3
(g5
S'\x15\xcd\x87\x1b \xde\x88@'
tRp2436
tp2437
a(S'YP_003045423.1'
p2438
g3
(g5
S'zl\x8d\xd5\xd8\xe0\x88@'
tRp2439
tp2440
a(S'YP_003046487.1'
p2441
g3
(g5
S'\xe3\x86\x8fF\xda\xe5\x88@'
tRp2442
tp2443
a(S'YP_003043587.1'
p2444
g3
(g5
S'N\x8e\xd4\x82\xfd\xf2\x88@'
tRp2445
tp2446
a(S'YP_003045165.1'
p2447
g3
(g5
S'\n\x80\xc91/\x10\x89@'
tRp2448
tp2449
a(S'YP_003046441.1'
p2450
g3
(g5
S'\x0f\x9e\xadx*\x18\x89@'
tRp2451
tp2452
a(S'YP_003044249.1'
p2453
g3
(g5
S'L^y\x1c~.\x89@'
tRp2454
tp2455
a(S'YP_003045928.1'
p2456
g3
(g5
S'?\xc3k\xc0\x16P\x89@'
tRp2457
tp2458
a(S'YP_003045655.1'
p2459
g3
(g5
S'z\xbe\xfcG\xe5Q\x89@'
tRp2460
tp2461
a(S'YP_003045304.1'
p2462
g3
(g5
S'\xc9Y\xe6a\xe5u\x89@'
tRp2463
tp2464
a(S'YP_003047085.1'
p2465
g3
(g5
S'\x90\xc5\x0c\xda\xe6~\x89@'
tRp2466
tp2467
a(S'YP_003046952.1'
p2468
g3
(g5
S'B\xd2\x06\xb0\xdd\x81\x89@'
tRp2469
tp2470
a(S'YP_003044225.1'
p2471
g3
(g5
S'\xd2\x03\x8b\xb0\x14\x8a\x89@'
tRp2472
tp2473
a(S'YP_003044323.1'
p2474
g3
(g5
S'\xaaRW\xc3W\x92\x89@'
tRp2475
tp2476
a(S'YP_003046801.1'
p2477
g3
(g5
S'\x88\xe2\x15\x8d\xa7\xa4\x89@'
tRp2478
tp2479
a(S'YP_003047321.1'
p2480
g3
(g5
S'w\x90\x85\x84\x85\xa7\x89@'
tRp2481
tp2482
a(S'YP_003046862.1'
p2483
g3
(g5
S'\x98\xda\xf6{H\xac\x89@'
tRp2484
tp2485
a(S'YP_003043596.1'
p2486
g3
(g5
S'%\xb9\xf7\xcbJ\xaf\x89@'
tRp2487
tp2488
a(S'YP_003043823.1'
p2489
g3
(g5
S'\xf8\x12\x14\xb2-\xcd\x89@'
tRp2490
tp2491
a(S'YP_003043862.1'
p2492
g3
(g5
S';\xfb9\x9b]\xf4\x89@'
tRp2493
tp2494
a(S'YP_003045651.1'
p2495
g3
(g5
S'e\xb0{g\xf2\x0f\x8a@'
tRp2496
tp2497
a(S'YP_003046443.1'
p2498
g3
(g5
S'\xa6\xd3\xcd\x1a\xff\x15\x8a@'
tRp2499
tp2500
a(S'YP_003046065.1'
p2501
g3
(g5
S'\xbb,0\xbe&&\x8a@'
tRp2502
tp2503
a(S'YP_003045090.1'
p2504
g3
(g5
S'\xb9\x9b\xff\xcc\xc4(\x8a@'
tRp2505
tp2506
a(S'YP_003044812.1'
p2507
g3
(g5
S'\x95\xd0\x0f\xe8iF\x8a@'
tRp2508
tp2509
a(S'YP_003045016.1'
p2510
g3
(g5
S'\x1c$\x068\xbfH\x8a@'
tRp2511
tp2512
a(S'YP_003046531.1'
p2513
g3
(g5
S'\xc1.\xd8\xc7\x19a\x8a@'
tRp2514
tp2515
a(S'YP_003044870.1'
p2516
g3
(g5
S'\xe5\xc6j\xb6&h\x8a@'
tRp2517
tp2518
a(S'YP_003044880.1'
p2519
g3
(g5
S'_A6_Wj\x8a@'
tRp2520
tp2521
a(S'YP_003044113.1'
p2522
g3
(g5
S'\xf5lL\x9e\x10v\x8a@'
tRp2523
tp2524
a(S'YP_003045236.1'
p2525
g3
(g5
S'\xc4:\xe7{"}\x8a@'
tRp2526
tp2527
a(S'YP_003044783.1'
p2528
g3
(g5
S'\xa3\x1a\x92\xf0\xc3\x84\x8a@'
tRp2529
tp2530
a(S'YP_003045113.1'
p2531
g3
(g5
S'\xebs\x1e\x88\x1a\x93\x8a@'
tRp2532
tp2533
a(S'YP_003047024.1'
p2534
g3
(g5
S'\x9f\xaf\xe3\x12\x99\xaa\x8a@'
tRp2535
tp2536
a(S'YP_003046276.1'
p2537
g3
(g5
S'\tL\xe0dR\xba\x8a@'
tRp2538
tp2539
a(S'YP_003046208.1'
p2540
g3
(g5
S'R\xe8Q\xeem\xc4\x8a@'
tRp2541
tp2542
a(S'YP_003045396.1'
p2543
g3
(g5
S'\xe5\xa1\xa5 [\xe8\x8a@'
tRp2544
tp2545
a(S'YP_003046254.1'
p2546
g3
(g5
S'\xb1\x95\xdf\x97W\xeb\x8a@'
tRp2547
tp2548
a(S'YP_003046317.1'
p2549
g3
(g5
S'T\xc9\xb6\x89\x94\xf1\x8a@'
tRp2550
tp2551
a(S'YP_003044806.1'
p2552
g3
(g5
S'\xd1\x8d=\xbd\x7f\xf2\x8a@'
tRp2553
tp2554
a(S'YP_003045650.1'
p2555
g3
(g5
S'\xf5\x19\xba\x98\x83\xf4\x8a@'
tRp2556
tp2557
a(S'YP_003044024.1'
p2558
g3
(g5
S'0\x86\xef\xd3q\xf8\x8a@'
tRp2559
tp2560
a(S'YP_003044460.1'
p2561
g3
(g5
S'\xder\x16\xe9\x05\x11\x8b@'
tRp2562
tp2563
a(S'YP_003044896.1'
p2564
g3
(g5
S'\xdft@y\t\x11\x8b@'
tRp2565
tp2566
a(S'YP_003044894.1'
p2567
g3
(g5
S'4\x0b"\xbc\xde!\x8b@'
tRp2568
tp2569
a(S'YP_003043658.1'
p2570
g3
(g5
S'\x17\xe8Sr]0\x8b@'
tRp2571
tp2572
a(S'YP_003045966.1'
p2573
g3
(g5
S'\xc5is>\x869\x8b@'
tRp2574
tp2575
a(S'YP_003044906.1'
p2576
g3
(g5
S'\xcbz\x19L\xaeA\x8b@'
tRp2577
tp2578
a(S'YP_003044250.1'
p2579
g3
(g5
S'\xe0/@\xe5\x7fC\x8b@'
tRp2580
tp2581
a(S'YP_003046495.1'
p2582
g3
(g5
S' Ob5)Z\x8b@'
tRp2583
tp2584
a(S'YP_003047020.1'
p2585
g3
(g5
S'\xce\xf1\xdbg\x80o\x8b@'
tRp2586
tp2587
a(S'YP_003044833.1'
p2588
g3
(g5
S' \xfe\xf9\xf6i\x95\x8b@'
tRp2589
tp2590
a(S'YP_003044930.1'
p2591
g3
(g5
S'\xa1\xd7\x01\xc0.\x97\x8b@'
tRp2592
tp2593
a(S'YP_003044269.1'
p2594
g3
(g5
S';\x14K9\xf8\x9b\x8b@'
tRp2595
tp2596
a(S'YP_003044782.1'
p2597
g3
(g5
S'\x14\x89\xfa\xadB\xba\x8b@'
tRp2598
tp2599
a(S'YP_003044012.1'
p2600
g3
(g5
S'\xe96\x83\xb9b\xba\x8b@'
tRp2601
tp2602
a(S'YP_003044846.1'
p2603
g3
(g5
S'\x9a\x81\n\xa6]\xdc\x8b@'
tRp2604
tp2605
a(S'YP_003045060.1'
p2606
g3
(g5
S'\xf8/d\x94\x05\xe4\x8b@'
tRp2607
tp2608
a(S'YP_003043996.1'
p2609
g3
(g5
S'\xb8\x95-u\xc8\xf7\x8b@'
tRp2610
tp2611
a(S'YP_003045654.1'
p2612
g3
(g5
S'\xfc\xc2Y\xae\x94\x0e\x8c@'
tRp2613
tp2614
a(S'YP_003044454.1'
p2615
g3
(g5
S'\xe3\xabeI\xd5,\x8c@'
tRp2616
tp2617
a(S'YP_003047420.1'
p2618
g3
(g5
S'\xccx\xc5\x1b\xdd`\x8c@'
tRp2619
tp2620
a(S'YP_003045605.1'
p2621
g3
(g5
S'+\x03"\x10\x9ce\x8c@'
tRp2622
tp2623
a(S'YP_003046323.1'
p2624
g3
(g5
S'P\x9aW\xb8\xe5y\x8c@'
tRp2625
tp2626
a(S'YP_003043595.1'
p2627
g3
(g5
S'\xd7\xd8\x02vD\x9e\x8c@'
tRp2628
tp2629
a(S'YP_003045863.1'
p2630
g3
(g5
S'\xbb\x90\x9a\xbc\xf6\xad\x8c@'
tRp2631
tp2632
a(S'YP_003044149.1'
p2633
g3
(g5
S'\x0e\xd5eL\xb2\xc0\x8c@'
tRp2634
tp2635
a(S'YP_003043927.1'
p2636
g3
(g5
S'\xa5\x98\xf1\xc1A\xc9\x8c@'
tRp2637
tp2638
a(S'YP_003045382.1'
p2639
g3
(g5
S'\x86\x07\x88\xdf\x8c\xd8\x8c@'
tRp2640
tp2641
a(S'YP_003044829.1'
p2642
g3
(g5
S'\xb5\xa6\x13\xd9k\xe1\x8c@'
tRp2643
tp2644
a(S'YP_003044771.1'
p2645
g3
(g5
S'\xd2f\xa4%j\xfc\x8c@'
tRp2646
tp2647
a(S'YP_003045020.1'
p2648
g3
(g5
S'\xc7\xc0\x02\x03\x18\x18\x8d@'
tRp2649
tp2650
a(S'YP_003045007.1'
p2651
g3
(g5
S'E\xf3\xbc\x8d\xe9\x19\x8d@'
tRp2652
tp2653
a(S'YP_003045120.1'
p2654
g3
(g5
S'[\x13\xe9\x0c\x8f!\x8d@'
tRp2655
tp2656
a(S'YP_003045554.1'
p2657
g3
(g5
S'\x01\x1eg8\xf65\x8d@'
tRp2658
tp2659
a(S'YP_003046384.1'
p2660
g3
(g5
S'\xec\xcc\xef\xbb\xaaU\x8d@'
tRp2661
tp2662
a(S'YP_003045166.1'
p2663
g3
(g5
S'\xd3\xf6(\x1e\xca_\x8d@'
tRp2664
tp2665
a(S'YP_003046670.1'
p2666
g3
(g5
S'B\x90\xf6\x8d\x16r\x8d@'
tRp2667
tp2668
a(S'YP_003046991.1'
p2669
g3
(g5
S'\x1eci\xfa\xe2}\x8d@'
tRp2670
tp2671
a(S'YP_003043985.1'
p2672
g3
(g5
S'\\ \x03+\xfe\x88\x8d@'
tRp2673
tp2674
a(S'YP_003044089.1'
p2675
g3
(g5
S'\xdf\xab\x84\xff\xfc\xe3\x8d@'
tRp2676
tp2677
a(S'YP_003043796.1'
p2678
g3
(g5
S'\xe9]Q\x9b\xb9\xf3\x8d@'
tRp2679
tp2680
a(S'YP_003043473.1'
p2681
g3
(g5
S'\xcb\xe8\x8e\x19L\xfb\x8d@'
tRp2682
tp2683
a(S'YP_003046572.1'
p2684
g3
(g5
S'_\xc5\xa1\x13\xa9\x14\x8e@'
tRp2685
tp2686
a(S'YP_003044296.1'
p2687
g3
(g5
S'!\xdaE0\xa9\x17\x8e@'
tRp2688
tp2689
a(S'YP_003043654.1'
p2690
g3
(g5
S'\x98E\xd5f\x1d \x8e@'
tRp2691
tp2692
a(S'YP_003045350.1'
p2693
g3
(g5
S'$\xbe\x00Q\x1eG\x8e@'
tRp2694
tp2695
a(S'YP_003044959.1'
p2696
g3
(g5
S'\xdb\xf4\xfaq\xafJ\x8e@'
tRp2697
tp2698
a(S'YP_003043584.1'
p2699
g3
(g5
S'\x133\xed$\xe9R\x8e@'
tRp2700
tp2701
a(S'YP_003045635.1'
p2702
g3
(g5
S'\xd0u\xcc\x07\xd5e\x8e@'
tRp2703
tp2704
a(S'YP_003047273.1'
p2705
g3
(g5
S'0\xeee\x037g\x8e@'
tRp2706
tp2707
a(S'YP_003046064.1'
p2708
g3
(g5
S'[\xc7\x9a\x05\x9dm\x8e@'
tRp2709
tp2710
a(S'YP_003045955.1'
p2711
g3
(g5
S'F\xe7[\xfa\xddr\x8e@'
tRp2712
tp2713
a(S'YP_003043321.1'
p2714
g3
(g5
S'@\xc2\x01\xcc\x18\x8b\x8e@'
tRp2715
tp2716
a(S'YP_003045306.1'
p2717
g3
(g5
S':\x91\xb5\x98\xab\xb2\x8e@'
tRp2718
tp2719
a(S'YP_003046226.1'
p2720
g3
(g5
S'J\xc3R\xa2_\xb7\x8e@'
tRp2721
tp2722
a(S'YP_003046971.1'
p2723
g3
(g5
S'\x1f_\r~\xa4\xb8\x8e@'
tRp2724
tp2725
a(S'YP_003044412.1'
p2726
g3
(g5
S'\x17\xde\x12\x96#\xc2\x8e@'
tRp2727
tp2728
a(S'YP_003045410.1'
p2729
g3
(g5
S'\x04\x91b\xcf\xbf\xc3\x8e@'
tRp2730
tp2731
a(S'YP_003046900.1'
p2732
g3
(g5
S'.\xd5\xbeL\xb0\xf9\x8e@'
tRp2733
tp2734
a(S'YP_003046282.1'
p2735
g3
(g5
S'\xf6=\x926\xb0\x0b\x8f@'
tRp2736
tp2737
a(S'YP_003045022.1'
p2738
g3
(g5
S'\x9b\x1a\xaf\x8f\xb0\x0b\x8f@'
tRp2739
tp2740
a(S'YP_003045437.1'
p2741
g3
(g5
S'\xbe\x0f\xe8-\xf4\x19\x8f@'
tRp2742
tp2743
a(S'YP_003043315.1'
p2744
g3
(g5
S'\x7f\xdb\xe7\xb4\x80#\x8f@'
tRp2745
tp2746
a(S'YP_003045615.1'
p2747
g3
(g5
S'\xbaZ\x06M\x9e+\x8f@'
tRp2748
tp2749
a(S'YP_003045353.1'
p2750
g3
(g5
S'\xc3\x08\xdc\xbfC<\x8f@'
tRp2751
tp2752
a(S'YP_003046591.1'
p2753
g3
(g5
S'\x13\xde\x8f\x07\x97j\x8f@'
tRp2754
tp2755
a(S'YP_003046001.1'
p2756
g3
(g5
S'0_w\xf7Q\x8a\x8f@'
tRp2757
tp2758
a(S'YP_003044472.1'
p2759
g3
(g5
S'\x99\x80\x180\x1c\xae\x8f@'
tRp2760
tp2761
a(S'YP_003045354.1'
p2762
g3
(g5
S'p\x9f\xf2\x1f\x94\xb9\x8f@'
tRp2763
tp2764
a(S'YP_003047282.1'
p2765
g3
(g5
S'\xde1Cp\xaf\xc9\x8f@'
tRp2766
tp2767
a(S'YP_003047249.1'
p2768
g3
(g5
S'\xdf\xf2~!\xf9\xd0\x8f@'
tRp2769
tp2770
a(S'YP_003044140.1'
p2771
g3
(g5
S'\x84\xf8\xce\xf6J\xe7\x8f@'
tRp2772
tp2773
a(S'YP_003046832.1'
p2774
g3
(g5
S'\x15\xdc\xd6L\x16\xec\x8f@'
tRp2775
tp2776
a(S'YP_003045678.1'
p2777
g3
(g5
S'\x91\xfa\xef\xd2F\x00\x90@'
tRp2778
tp2779
a(S'YP_003044872.1'
p2780
g3
(g5
S"'i\x83\x1a\x0b\x0f\x90@"
tRp2781
tp2782
a(S'YP_003044185.1'
p2783
g3
(g5
S'\xb0\xc8~,\xf2\x11\x90@'
tRp2784
tp2785
a(S'YP_003046881.1'
p2786
g3
(g5
S'\x02\x10,\xb5\x14\x12\x90@'
tRp2787
tp2788
a(S'YP_003046086.1'
p2789
g3
(g5
S'5\x8c\x14P\xd9\x15\x90@'
tRp2790
tp2791
a(S'YP_003045398.1'
p2792
g3
(g5
S'\xebb2\x02\x80!\x90@'
tRp2793
tp2794
a(S'YP_003043649.1'
p2795
g3
(g5
S'\x93\xf8}\r\x11"\x90@'
tRp2796
tp2797
a(S'YP_003045969.1'
p2798
g3
(g5
S'&\x19\xe83\xab%\x90@'
tRp2799
tp2800
a(S'YP_003044469.1'
p2801
g3
(g5
S'\xaa\xdb\xc6\x96\x8c=\x90@'
tRp2802
tp2803
a(S'YP_003047270.1'
p2804
g3
(g5
S'\x19\xae\xbc*\xa9Y\x90@'
tRp2805
tp2806
a(S'YP_003043546.1'
p2807
g3
(g5
S'1qju\xb0f\x90@'
tRp2808
tp2809
a(S'YP_003044856.1'
p2810
g3
(g5
S'\xf5&\xbd\xc7iy\x90@'
tRp2811
tp2812
a(S'YP_003045652.1'
p2813
g3
(g5
S'\x1f\xef+\x13\xad\x8f\x90@'
tRp2814
tp2815
a(S'YP_003043847.1'
p2816
g3
(g5
S'\xb5\x85\x19]\x83\xa5\x90@'
tRp2817
tp2818
a(S'YP_003044345.1'
p2819
g3
(g5
S'\xcb\x01\xe7\xb7\x85\xa7\x90@'
tRp2820
tp2821
a(S'YP_003043818.1'
p2822
g3
(g5
S'\x07\xcd\xe9\x8e\x04\xab\x90@'
tRp2823
tp2824
a(S'YP_003047289.1'
p2825
g3
(g5
S'w\xedr\x8d\xd2\xac\x90@'
tRp2826
tp2827
a(S'YP_003043467.1'
p2828
g3
(g5
S'\x1e\xb37\x1f\xd6\xc1\x90@'
tRp2829
tp2830
a(S'YP_003043943.1'
p2831
g3
(g5
S'\xc8<\xdf\x1b\x7f\xc4\x90@'
tRp2832
tp2833
a(S'YP_003046513.1'
p2834
g3
(g5
S'\x8bMU\x99u\xc6\x90@'
tRp2835
tp2836
a(S'YP_003045141.1'
p2837
g3
(g5
S'\x1e\x9f\xfa?\x13\xcd\x90@'
tRp2838
tp2839
a(S'YP_003044020.1'
p2840
g3
(g5
S'\xbd\xdd+\xff\xe9\xd7\x90@'
tRp2841
tp2842
a(S'YP_003046828.1'
p2843
g3
(g5
S'\xfb.\x0b\xea\x07\xd9\x90@'
tRp2844
tp2845
a(S'YP_003044781.1'
p2846
g3
(g5
S"6\x85\xea'n\xda\x90@"
tRp2847
tp2848
a(S'YP_003044169.1'
p2849
g3
(g5
S'\x88\x9c\xc0\x06}\xed\x90@'
tRp2850
tp2851
a(S'YP_003044366.1'
p2852
g3
(g5
S'jY\xcd{&\xf8\x90@'
tRp2853
tp2854
a(S'YP_003044521.1'
p2855
g3
(g5
S'8\xb4aL \xfb\x90@'
tRp2856
tp2857
a(S'YP_003043330.1'
p2858
g3
(g5
S'\xde\xff\x0e\xac\xe5\r\x91@'
tRp2859
tp2860
a(S'YP_003047019.1'
p2861
g3
(g5
S'\x9f\xc3\x9b\x1f\xf7\x10\x91@'
tRp2862
tp2863
a(S'YP_003046255.1'
p2864
g3
(g5
S'ER\x16\xd1\xa2\x12\x91@'
tRp2865
tp2866
a(S'YP_003044167.1'
p2867
g3
(g5
S'|\xf6lUq \x91@'
tRp2868
tp2869
a(S'YP_003047376.1'
p2870
g3
(g5
S'Ff\xaf\xc65>\x91@'
tRp2871
tp2872
a(S'YP_003045911.1'
p2873
g3
(g5
S'\x8c\xca/\xbf[A\x91@'
tRp2874
tp2875
a(S'YP_003043361.1'
p2876
g3
(g5
S'\xa5\xd0\xcf\x03"T\x91@'
tRp2877
tp2878
a(S'YP_003044088.1'
p2879
g3
(g5
S'\x0e[\x9d\xb9][\x91@'
tRp2880
tp2881
a(S'YP_003046813.1'
p2882
g3
(g5
S'\xb4\x9b\x16\xe9\xa7k\x91@'
tRp2883
tp2884
a(S'YP_003045918.1'
p2885
g3
(g5
S'\xeaj\xe9\x91\x89p\x91@'
tRp2886
tp2887
a(S'YP_003044293.1'
p2888
g3
(g5
S'\xc9\xb0\x97\xc6Wv\x91@'
tRp2889
tp2890
a(S'YP_003046646.1'
p2891
g3
(g5
S'\x86N%\xb2Bw\x91@'
tRp2892
tp2893
a(S'YP_003046425.1'
p2894
g3
(g5
S'\xd76d\x067|\x91@'
tRp2895
tp2896
a(S'YP_003044861.1'
p2897
g3
(g5
S'\x9b\xc1\x01\x95\xf1}\x91@'
tRp2898
tp2899
a(S'YP_003043997.1'
p2900
g3
(g5
S'\x1a\xd9\x86\x90B\x80\x91@'
tRp2901
tp2902
a(S'YP_003043637.1'
p2903
g3
(g5
S'\x96\xaaO\x92,\x81\x91@'
tRp2904
tp2905
a(S'YP_003046356.1'
p2906
g3
(g5
S'\xe8J\n\xda%\x8a\x91@'
tRp2907
tp2908
a(S'YP_003043286.1'
p2909
g3
(g5
S'\x02h\xa4\xb4\x96\x8a\x91@'
tRp2910
tp2911
a(S'YP_003045664.1'
p2912
g3
(g5
S'o\x7f\x108\xdb\x8d\x91@'
tRp2913
tp2914
a(S'YP_003045513.1'
p2915
g3
(g5
S'3\xdf\xcdk\x16\xa0\x91@'
tRp2916
tp2917
a(S'YP_003044297.1'
p2918
g3
(g5
S'\xabg\x18\xaeY\xc3\x91@'
tRp2919
tp2920
a(S'YP_003045400.1'
p2921
g3
(g5
S'\xfd#\x02\xd3\xf9\xd1\x91@'
tRp2922
tp2923
a(S'YP_003046758.1'
p2924
g3
(g5
S'"\xa9\x1f\x14W\xe2\x91@'
tRp2925
tp2926
a(S'YP_003044984.1'
p2927
g3
(g5
S'\xdc7\xe1\xfd\\\xe3\x91@'
tRp2928
tp2929
a(S'YP_003044985.1'
p2930
g3
(g5
S'i\x0f\x0e\xc9F\xe8\x91@'
tRp2931
tp2932
a(S'YP_003043590.1'
p2933
g3
(g5
S'\x07\x9bq\xddD\x02\x92@'
tRp2934
tp2935
a(S'YP_003047001.1'
p2936
g3
(g5
S'*\x9e\xe6\xc3A)\x92@'
tRp2937
tp2938
a(S'YP_003045597.1'
p2939
g3
(g5
S'{\xa5\x8d\xf0E0\x92@'
tRp2940
tp2941
a(S'YP_003044562.1'
p2942
g3
(g5
S'j\xd2[[B:\x92@'
tRp2943
tp2944
a(S'YP_003044780.1'
p2945
g3
(g5
S'\x99\x93P2\xd8=\x92@'
tRp2946
tp2947
a(S'YP_003044322.1'
p2948
g3
(g5
S'`4JB\xafJ\x92@'
tRp2949
tp2950
a(S'YP_003046393.1'
p2951
g3
(g5
S'\xed?\xf0m\xdcK\x92@'
tRp2952
tp2953
a(S'YP_003044997.1'
p2954
g3
(g5
S'Wt\xae&\x1bc\x92@'
tRp2955
tp2956
a(S'YP_003045436.1'
p2957
g3
(g5
S'\xce\xc8\xc19\xf0j\x92@'
tRp2958
tp2959
a(S'YP_003046122.1'
p2960
g3
(g5
S'o\x1e\xe9\xe2\x87r\x92@'
tRp2961
tp2962
a(S'YP_003045034.1'
p2963
g3
(g5
S'F\xb8\xc56\xaet\x92@'
tRp2964
tp2965
a(S'YP_003045032.1'
p2966
g3
(g5
S'\x9dA\xfb\xf2\x8cu\x92@'
tRp2967
tp2968
a(S'YP_003045980.1'
p2969
g3
(g5
S'\x9d"\xf08\xf6u\x92@'
tRp2970
tp2971
a(S'YP_003046912.1'
p2972
g3
(g5
S'\xd0\x9c\x90\x96\x90\x82\x92@'
tRp2973
tp2974
a(S'YP_003044248.1'
p2975
g3
(g5
S'\xc5F5\xd1\xb4\x8c\x92@'
tRp2976
tp2977
a(S'YP_003045874.1'
p2978
g3
(g5
S'\x86\xdb\xdd \xb8\x96\x92@'
tRp2979
tp2980
a(S'YP_003046005.1'
p2981
g3
(g5
S'\x14\x0b\xccm\xfb\x96\x92@'
tRp2982
tp2983
a(S'YP_003047256.1'
p2984
g3
(g5
S'5\xc5\xeb\xb6\xfc\x9f\x92@'
tRp2985
tp2986
a(S'YP_003044314.1'
p2987
g3
(g5
S'\x92\xc4\xadM\x16\xaa\x92@'
tRp2988
tp2989
a(S'YP_003046421.1'
p2990
g3
(g5
S'zf\x94sL\xbd\x92@'
tRp2991
tp2992
a(S'YP_003047260.1'
p2993
g3
(g5
S'a\x93-W\xc7\xbf\x92@'
tRp2994
tp2995
a(S'YP_003043864.1'
p2996
g3
(g5
S'\x965\xec\x92\xca\xed\x92@'
tRp2997
tp2998
a(S'YP_003044023.1'
p2999
g3
(g5
S'\xeb)\xc7t\x13\xf6\x92@'
tRp3000
tp3001
a(S'YP_003046322.1'
p3002
g3
(g5
S'9\x15o\xe3(\x01\x93@'
tRp3003
tp3004
a(S'YP_003044338.1'
p3005
g3
(g5
S'@\x88\x86\x9d1\x07\x93@'
tRp3006
tp3007
a(S'YP_003046219.1'
p3008
g3
(g5
S'\xd5\xee\x18e\xec\x11\x93@'
tRp3009
tp3010
a(S'YP_003045121.1'
p3011
g3
(g5
S'Y\xbc\x97\x80C(\x93@'
tRp3012
tp3013
a(S'YP_003046452.1'
p3014
g3
(g5
S'\xcaEN\xa71/\x93@'
tRp3015
tp3016
a(S'YP_003044755.1'
p3017
g3
(g5
S'b\xdf\xc5\x1fOA\x93@'
tRp3018
tp3019
a(S'YP_003046424.1'
p3020
g3
(g5
S'\xca\xffK\x92\x05H\x93@'
tRp3021
tp3022
a(S'YP_003043902.1'
p3023
g3
(g5
S'&\xaa\xac\x8e\xd2N\x93@'
tRp3024
tp3025
a(S'YP_003045965.1'
p3026
g3
(g5
S'\x06[e\xf3#n\x93@'
tRp3027
tp3028
a(S'YP_003046604.1'
p3029
g3
(g5
S'4V\x9d.Et\x93@'
tRp3030
tp3031
a(S'YP_003046721.1'
p3032
g3
(g5
S'\x92|\xf0\x1a%}\x93@'
tRp3033
tp3034
a(S'YP_003045915.1'
p3035
g3
(g5
S'\xb5\xc0\xeb\xe7\x1e~\x93@'
tRp3036
tp3037
a(S'YP_003046273.1'
p3038
g3
(g5
S'\xee\x01\x9e@\t\x9a\x93@'
tRp3039
tp3040
a(S'YP_003047078.1'
p3041
g3
(g5
S'\xb1x {\x10\x9f\x93@'
tRp3042
tp3043
a(S'YP_003043265.1'
p3044
g3
(g5
S'7\xd82\xcc\x12\xa1\x93@'
tRp3045
tp3046
a(S'YP_003043856.1'
p3047
g3
(g5
S'\xaf\x89_\xe1\x8c\xa1\x93@'
tRp3048
tp3049
a(S'YP_003045647.1'
p3050
g3
(g5
S'{\x9b\xd1\x93\xac\xa4\x93@'
tRp3051
tp3052
a(S'YP_003045923.1'
p3053
g3
(g5
S'\xd52 \x13-\xc2\x93@'
tRp3054
tp3055
a(S'YP_003043832.1'
p3056
g3
(g5
S'\xf9\xa6\x8ag\xb3\xc2\x93@'
tRp3057
tp3058
a(S'YP_003045785.1'
p3059
g3
(g5
S'~\xad\x8d\rc\xfe\x93@'
tRp3060
tp3061
a(S'YP_003044890.1'
p3062
g3
(g5
S'1\x7f\x00\xcf\xa9\xff\x93@'
tRp3063
tp3064
a(S'YP_003045843.1'
p3065
g3
(g5
S'}Ru\xb3\xf2\r\x94@'
tRp3066
tp3067
a(S'YP_003047427.1'
p3068
g3
(g5
S'Q\xb2Q\xdaT*\x94@'
tRp3069
tp3070
a(S'YP_003043328.1'
p3071
g3
(g5
S'4+U\xbd\x8a,\x94@'
tRp3072
tp3073
a(S'YP_003047212.1'
p3074
g3
(g5
S'\xc3t]\x0f\xbcF\x94@'
tRp3075
tp3076
a(S'YP_003046214.1'
p3077
g3
(g5
S'Z\xf9U\xae\xf9G\x94@'
tRp3078
tp3079
a(S'YP_003043702.1'
p3080
g3
(g5
S'\xcc\x1c\x01\xc1\xecQ\x94@'
tRp3081
tp3082
a(S'YP_003046673.1'
p3083
g3
(g5
S'J\xf5\x97\x13\xb0S\x94@'
tRp3084
tp3085
a(S'YP_003046231.1'
p3086
g3
(g5
S'`\xe5\x85\xe1\xdcT\x94@'
tRp3087
tp3088
a(S'YP_003045069.1'
p3089
g3
(g5
S'\xb8\xa0$\x9afp\x94@'
tRp3090
tp3091
a(S'YP_003046529.1'
p3092
g3
(g5
S'P\xa0\xe1\x00\x9fu\x94@'
tRp3093
tp3094
a(S'YP_003045577.1'
p3095
g3
(g5
S'\xfe-m\xd4\x8e\x88\x94@'
tRp3096
tp3097
a(S'YP_003046437.1'
p3098
g3
(g5
S'\xb1\xc6\x00\xf8\xa3\xa8\x94@'
tRp3099
tp3100
a(S'YP_003045403.1'
p3101
g3
(g5
S'\x1c\xe4\x12\x05\xf8\xc1\x94@'
tRp3102
tp3103
a(S'YP_003046746.1'
p3104
g3
(g5
S'K\x9e\xdd\xc8v\xca\x94@'
tRp3105
tp3106
a(S'YP_003045796.1'
p3107
g3
(g5
S'\x18\x06\xb2*\xcf\xd4\x94@'
tRp3108
tp3109
a(S'YP_003045237.1'
p3110
g3
(g5
S'\x89t\xe3*"\xef\x94@'
tRp3111
tp3112
a(S'YP_003043960.1'
p3113
g3
(g5
S'@\xd3\xe5\xcb\x9f\x0b\x95@'
tRp3114
tp3115
a(S'YP_003045118.1'
p3116
g3
(g5
S'#\xaa\x01o\xa6 \x95@'
tRp3117
tp3118
a(S'YP_003043518.1'
p3119
g3
(g5
S'&\x13\xd4\x7f)?\x95@'
tRp3120
tp3121
a(S'YP_003045595.1'
p3122
g3
(g5
S'\xf1\x88Y\xc1\x16A\x95@'
tRp3123
tp3124
a(S'YP_003043466.1'
p3125
g3
(g5
S'\xd8~\x85\x8a)L\x95@'
tRp3126
tp3127
a(S'YP_003043920.1'
p3128
g3
(g5
S'\x1f\xd9\xcaO{O\x95@'
tRp3129
tp3130
a(S'YP_003046638.1'
p3131
g3
(g5
S"\x83\x05\xd1'\xc3d\x95@"
tRp3132
tp3133
a(S'YP_003043560.1'
p3134
g3
(g5
S'q\x99\xc8\x0e\xa1z\x95@'
tRp3135
tp3136
a(S'YP_003047063.1'
p3137
g3
(g5
S'\xdbT4\x1f\x8f\x96\x95@'
tRp3138
tp3139
a(S'YP_003044701.1'
p3140
g3
(g5
S'\xf0@\x02P(\xa1\x95@'
tRp3141
tp3142
a(S'YP_003045671.1'
p3143
g3
(g5
S'\x00\xe4I2N\xbc\x95@'
tRp3144
tp3145
a(S'YP_003043822.1'
p3146
g3
(g5
S'u\xce+\x90 \xcd\x95@'
tRp3147
tp3148
a(S'YP_003045115.1'
p3149
g3
(g5
S'\xee\xddJT<\xd2\x95@'
tRp3150
tp3151
a(S'YP_003045738.1'
p3152
g3
(g5
S'\xa6\xde\x85\x13\x0e\xd5\x95@'
tRp3153
tp3154
a(S'YP_003046573.1'
p3155
g3
(g5
S'8\xa2\xf8\xddH\xdc\x95@'
tRp3156
tp3157
a(S'YP_003043611.1'
p3158
g3
(g5
S'\x9a\x1f\xdf\xfdW\xe2\x95@'
tRp3159
tp3160
a(S'YP_003046997.1'
p3161
g3
(g5
S'\x8b\xd4-\x19\xc1\x03\x96@'
tRp3162
tp3163
a(S'YP_003043244.1'
p3164
g3
(g5
S'\xbd\n\xd7\xeak\x14\x96@'
tRp3165
tp3166
a(S'YP_003044087.1'
p3167
g3
(g5
S'&O\xa4\xb4\xd94\x96@'
tRp3168
tp3169
a(S'YP_003046239.1'
p3170
g3
(g5
S'\xbfd\x8f\x07CF\x96@'
tRp3171
tp3172
a(S'YP_003044887.1'
p3173
g3
(g5
S'm\xeb\ru}I\x96@'
tRp3174
tp3175
a(S'YP_003045512.1'
p3176
g3
(g5
S'\xb9\xf1\x82\x97\x87\x83\x96@'
tRp3177
tp3178
a(S'YP_003045582.1'
p3179
g3
(g5
S'\x1d\xf6\x1a\x12\xd2\x8e\x96@'
tRp3180
tp3181
a(S'YP_003047293.1'
p3182
g3
(g5
S'\x0cY\x15M\xa0\x9d\x96@'
tRp3183
tp3184
a(S'YP_003043772.1'
p3185
g3
(g5
S'\x83\xe4\xec\x8b\x8f\x9e\x96@'
tRp3186
tp3187
a(S'YP_003045116.1'
p3188
g3
(g5
S'\xa3\xe5b\x80\xc8\xa5\x96@'
tRp3189
tp3190
a(S'YP_003043646.1'
p3191
g3
(g5
S'ib\xdagd\xd2\x96@'
tRp3192
tp3193
a(S'YP_003044307.1'
p3194
g3
(g5
S'\xa8B\x0e\xf1J\xd7\x96@'
tRp3195
tp3196
a(S'YP_003045677.1'
p3197
g3
(g5
S'\x10tn.\n\xf2\x96@'
tRp3198
tp3199
a(S'YP_003044346.1'
p3200
g3
(g5
S'e\xcc\x00\xe4P\xf8\x96@'
tRp3201
tp3202
a(S'YP_003047103.1'
p3203
g3
(g5
S'\xa9j\n`\xd4\xfa\x96@'
tRp3204
tp3205
a(S'YP_003045433.1'
p3206
g3
(g5
S'\xad0\x81\xd4\xca\x07\x97@'
tRp3207
tp3208
a(S'YP_003044845.1'
p3209
g3
(g5
S'\x82\xe2\xf9\xc8\xee\x08\x97@'
tRp3210
tp3211
a(S'YP_003047281.1'
p3212
g3
(g5
S'\xe8\x95\xe2\x06\x16\x0b\x97@'
tRp3213
tp3214
a(S'YP_003043343.1'
p3215
g3
(g5
S'\x93=}_\xbd\x0f\x97@'
tRp3216
tp3217
a(S'YP_003047280.1'
p3218
g3
(g5
S'\xc4\xf8Ar\x89\x15\x97@'
tRp3219
tp3220
a(S'YP_003046825.1'
p3221
g3
(g5
S'=\xc1\xc9\x98\x8f\x1e\x97@'
tRp3222
tp3223
a(S'YP_003044292.1'
p3224
g3
(g5
S'\xa2\xd2\xd2EK&\x97@'
tRp3225
tp3226
a(S'YP_003045790.1'
p3227
g3
(g5
S'cP\xb1\x1ef(\x97@'
tRp3228
tp3229
a(S'YP_003046790.1'
p3230
g3
(g5
S'\xd3\xe0\x97e\xc98\x97@'
tRp3231
tp3232
a(S'YP_003044298.1'
p3233
g3
(g5
S'\x80\xa3f\x86qC\x97@'
tRp3234
tp3235
a(S'YP_003044139.1'
p3236
g3
(g5
S'\xf8\x13\xbf\x14\xfbD\x97@'
tRp3237
tp3238
a(S'YP_003045596.1'
p3239
g3
(g5
S'\x91h\xf2\x10\xe9\\\x97@'
tRp3240
tp3241
a(S'YP_003046592.1'
p3242
g3
(g5
S'\xa5R(\xf3\xb6v\x97@'
tRp3243
tp3244
a(S'YP_003043669.1'
p3245
g3
(g5
S'-?\r(\x80\x80\x97@'
tRp3246
tp3247
a(S'YP_003045416.1'
p3248
g3
(g5
S'Jg\xf1J\xd3\xa3\x97@'
tRp3249
tp3250
a(S'YP_003044598.1'
p3251
g3
(g5
S"'U\x8cZT\xb2\x97@"
tRp3252
tp3253
a(S'YP_003045497.1'
p3254
g3
(g5
S'\x07R%\x85\xad\xc1\x97@'
tRp3255
tp3256
a(S'YP_003045414.1'
p3257
g3
(g5
S'E\xcd\xdc\xa1\xff\xc4\x97@'
tRp3258
tp3259
a(S'YP_003044273.1'
p3260
g3
(g5
S'\xbd\xe5G=\x1f\xe3\x97@'
tRp3261
tp3262
a(S'YP_003045956.1'
p3263
g3
(g5
S' 9\x7f\x96u\xfb\x97@'
tRp3264
tp3265
a(S'YP_003046645.1'
p3266
g3
(g5
S'\xe4\xd1\xe5\x8f\xc6\xfc\x97@'
tRp3267
tp3268
a(S'YP_003043905.1'
p3269
g3
(g5
S'\xa7\xc7+e\x06\x07\x98@'
tRp3270
tp3271
a(S'YP_003043850.1'
p3272
g3
(g5
S'X#AI\x1c7\x98@'
tRp3273
tp3274
a(S'YP_003043619.1'
p3275
g3
(g5
S'\xaa\xee\x1f\x9b#Y\x98@'
tRp3276
tp3277
a(S'YP_003045814.1'
p3278
g3
(g5
S'l\xa9\xc5\xce\x92{\x98@'
tRp3279
tp3280
a(S'YP_003045589.1'
p3281
g3
(g5
S's\x18nl\xda\x8d\x98@'
tRp3282
tp3283
a(S'YP_003046237.1'
p3284
g3
(g5
S'\xdb\xe8Hh\x97\x98\x98@'
tRp3285
tp3286
a(S'YP_003043308.1'
p3287
g3
(g5
S' \x0c\x85\xfe\x96\xba\x98@'
tRp3288
tp3289
a(S'YP_003043408.1'
p3290
g3
(g5
S'\x17\xfai\xa7\x7f\xbd\x98@'
tRp3291
tp3292
a(S'YP_003046731.1'
p3293
g3
(g5
S'\x10s\xb0\xeb\x91\xd6\x98@'
tRp3294
tp3295
a(S'YP_003047436.1'
p3296
g3
(g5
S'\n\xb4\xa4\x89\xd9\xea\x98@'
tRp3297
tp3298
a(S'YP_003045117.1'
p3299
g3
(g5
S'\x93&4\x19\xdd\x13\x99@'
tRp3300
tp3301
a(S'YP_003046974.1'
p3302
g3
(g5
S"\\\x93\x90B\x1d'\x99@"
tRp3303
tp3304
a(S'YP_003043459.1'
p3305
g3
(g5
S'^\x87\xdb\xa7\xdcl\x99@'
tRp3306
tp3307
a(S'YP_003044451.1'
p3308
g3
(g5
S'l\\\x874\x93q\x99@'
tRp3309
tp3310
a(S'YP_003045910.1'
p3311
g3
(g5
S'p\xa3/\xca\x0et\x99@'
tRp3312
tp3313
a(S'YP_003043583.1'
p3314
g3
(g5
S'\xfc\xc5\xea5\x14\x80\x99@'
tRp3315
tp3316
a(S'YP_003043600.1'
p3317
g3
(g5
S'\xc3\xa1\x04\x00\xdf\xa4\x99@'
tRp3318
tp3319
a(S'YP_003045429.1'
p3320
g3
(g5
S'\xaf\rs\x0em\xae\x99@'
tRp3321
tp3322
a(S'YP_003044151.1'
p3323
g3
(g5
S'\xb8\xf0\x8f\x02\xa5\xb5\x99@'
tRp3324
tp3325
a(S'YP_003045516.1'
p3326
g3
(g5
S'\x0b\x1a\x1d\x0c\x17\xd8\x99@'
tRp3327
tp3328
a(S'YP_003043904.1'
p3329
g3
(g5
S'e\xef^\xe6T\xd8\x99@'
tRp3330
tp3331
a(S'YP_003044449.1'
p3332
g3
(g5
S'\xfac\xe3\xe7\x04\x00\x9a@'
tRp3333
tp3334
a(S'YP_003046422.1'
p3335
g3
(g5
S'\x10.\x02\x0b%4\x9a@'
tRp3336
tp3337
a(S'YP_003046315.1'
p3338
g3
(g5
S'\xa8\x97q\x11pF\x9a@'
tRp3339
tp3340
a(S'YP_003044291.1'
p3341
g3
(g5
S'\x9d\xed$\xae\xe7S\x9a@'
tRp3342
tp3343
a(S'YP_003044405.1'
p3344
g3
(g5
S'\x98a\xcdl\x81c\x9a@'
tRp3345
tp3346
a(S'YP_003045613.1'
p3347
g3
(g5
S'\x94\x96\xfel\xcag\x9a@'
tRp3348
tp3349
a(S'YP_003045417.1'
p3350
g3
(g5
S'\xf1\x85\x15\x94I\x86\x9a@'
tRp3351
tp3352
a(S'YP_003046918.1'
p3353
g3
(g5
S'&5\x1b\xf5\x9e\x90\x9a@'
tRp3354
tp3355
a(S'YP_003043698.1'
p3356
g3
(g5
S'\xeaX\x0fDs\x93\x9a@'
tRp3357
tp3358
a(S'YP_003045401.1'
p3359
g3
(g5
S'#.\xad\xeb[\xa5\x9a@'
tRp3360
tp3361
a(S'YP_003046351.1'
p3362
g3
(g5
S'\x1cy\x05\r\xe5\xbf\x9a@'
tRp3363
tp3364
a(S'YP_003044393.1'
p3365
g3
(g5
S'6o\xf5\xb2\x90\xdc\x9a@'
tRp3366
tp3367
a(S'YP_003043651.1'
p3368
g3
(g5
S"\x8a\x01d't\xec\x9a@"
tRp3369
tp3370
a(S'YP_003044086.1'
p3371
g3
(g5
S'\x86\xa2\xb0\xbcY+\x9b@'
tRp3372
tp3373
a(S'YP_003043362.1'
p3374
g3
(g5
S'\x83\xcf\x9a+6X\x9b@'
tRp3375
tp3376
a(S'YP_003043615.1'
p3377
g3
(g5
S'\xd4\xf1\xa5N\x1f\\\x9b@'
tRp3378
tp3379
a(S'YP_003043395.1'
p3380
g3
(g5
S'*8\xdc\x1aE_\x9b@'
tRp3381
tp3382
a(S'YP_003043353.1'
p3383
g3
(g5
S'^\x1bM<\x95z\x9b@'
tRp3384
tp3385
a(S'YP_003047098.1'
p3386
g3
(g5
S'<\x10\xae\x05O\x8b\x9b@'
tRp3387
tp3388
a(S'YP_003046221.1'
p3389
g3
(g5
S"$NR'\xfa\xc4\x9b@"
tRp3390
tp3391
a(S'YP_003044474.1'
p3392
g3
(g5
S'\xdcOBN%\xcb\x9b@'
tRp3393
tp3394
a(S'YP_003046585.1'
p3395
g3
(g5
S'a\x19\x88\x1b#\xcc\x9b@'
tRp3396
tp3397
a(S'YP_003044317.1'
p3398
g3
(g5
S'\xebB,\xbf\xc9\xd6\x9b@'
tRp3399
tp3400
a(S'YP_003043267.1'
p3401
g3
(g5
S'O\x9cc\x8a\x89\x03\x9c@'
tRp3402
tp3403
a(S'YP_003043640.1'
p3404
g3
(g5
S'\xc75\xb7\x0c\x03&\x9c@'
tRp3405
tp3406
a(S'YP_003044302.1'
p3407
g3
(g5
S'\x0ce\x07\x8a\x87[\x9c@'
tRp3408
tp3409
a(S'YP_003046584.1'
p3410
g3
(g5
S'\xbdI>\x82\xa3e\x9c@'
tRp3411
tp3412
a(S'YP_003044315.1'
p3413
g3
(g5
S'H\xb3\xfeX\x02\x81\x9c@'
tRp3414
tp3415
a(S'YP_003047069.1'
p3416
g3
(g5
S'\xf1B\xdc`D\xc9\x9c@'
tRp3417
tp3418
a(S'YP_003046490.1'
p3419
g3
(g5
S'\xc0\xb6\x8e\x01\xa5\xe6\x9c@'
tRp3420
tp3421
a(S'YP_003043999.1'
p3422
g3
(g5
S'\x96\xe4\xa2g\x9d\r\x9d@'
tRp3423
tp3424
a(S'YP_003045562.1'
p3425
g3
(g5
S'\x8c\xb9\x884\xf0\x0f\x9d@'
tRp3426
tp3427
a(S'YP_003045123.1'
p3428
g3
(g5
S'E\xa0\x9aZ\x96\x13\x9d@'
tRp3429
tp3430
a(S'YP_003044881.1'
p3431
g3
(g5
S'/\x9c\xcc!\xaf\x1a\x9d@'
tRp3432
tp3433
a(S'YP_003043406.1'
p3434
g3
(g5
S'|\x8b\x96\xf8l.\x9d@'
tRp3435
tp3436
a(S'YP_003045736.1'
p3437
g3
(g5
S'\xf5\xd2/\x8b\xf7F\x9d@'
tRp3438
tp3439
a(S'YP_003046989.1'
p3440
g3
(g5
S'\xf4\xb0x2\xddI\x9d@'
tRp3441
tp3442
a(S'YP_003043412.1'
p3443
g3
(g5
S'\xa0\xc5:\xfa!L\x9d@'
tRp3444
tp3445
a(S'YP_003046676.1'
p3446
g3
(g5
S'S\xf3\x89\xc7\x0f\x9f\x9d@'
tRp3447
tp3448
a(S'YP_003045119.1'
p3449
g3
(g5
S'MN\x0c?7\xaa\x9d@'
tRp3450
tp3451
a(S'YP_003046295.1'
p3452
g3
(g5
S'\r\x94\xdc\xe6J\xb2\x9d@'
tRp3453
tp3454
a(S'YP_003044772.1'
p3455
g3
(g5
S'\x16\xcez\xf30\xbf\x9d@'
tRp3456
tp3457
a(S'YP_003044421.1'
p3458
g3
(g5
S'\xd5\xf9\x02;\x80\xe1\x9d@'
tRp3459
tp3460
a(S'YP_003043650.1'
p3461
g3
(g5
S'$g\xdbd&\xe4\x9d@'
tRp3462
tp3463
a(S'YP_003043888.1'
p3464
g3
(g5
S'\x83i\xb3\xa1\x8c\xf1\x9d@'
tRp3465
tp3466
a(S'YP_003044425.1'
p3467
g3
(g5
S'\xc9\xfa?e\xa9\x0c\x9e@'
tRp3468
tp3469
a(S'YP_003043260.1'
p3470
g3
(g5
S'\xb0\xe2\xf1\x1bf\x14\x9e@'
tRp3471
tp3472
a(S'YP_003046230.1'
p3473
g3
(g5
S'\xbbR\xe0\xc7)%\x9e@'
tRp3474
tp3475
a(S'YP_003043743.1'
p3476
g3
(g5
S"\xafe\xcf\xb06'\x9e@"
tRp3477
tp3478
a(S'YP_003044807.1'
p3479
g3
(g5
S'&\x87\xdf\xdc\x0b\\\x9e@'
tRp3480
tp3481
a(S'YP_003044115.1'
p3482
g3
(g5
S'\x7f\x1c\xc7\xfb\xa7z\x9e@'
tRp3483
tp3484
a(S'YP_003045694.1'
p3485
g3
(g5
S'\xc2\xd3U\ro\x93\x9e@'
tRp3486
tp3487
a(S'YP_003046345.1'
p3488
g3
(g5
S'Lr5\xb8\x84\x97\x9e@'
tRp3489
tp3490
a(S'YP_003046793.1'
p3491
g3
(g5
S'\x9cZH\xe0a\x9c\x9e@'
tRp3492
tp3493
a(S'YP_003046833.1'
p3494
g3
(g5
S'#."\xaaC\x9e\x9e@'
tRp3495
tp3496
a(S'YP_003044276.1'
p3497
g3
(g5
S'N`\xb8\xf6\xc2\xaf\x9e@'
tRp3498
tp3499
a(S'YP_003044083.1'
p3500
g3
(g5
S'\x8e\xa8S\x99#\xc8\x9e@'
tRp3501
tp3502
a(S'YP_003046399.1'
p3503
g3
(g5
S'\xab4\x8a\x06v\xc9\x9e@'
tRp3504
tp3505
a(S'YP_003043963.1'
p3506
g3
(g5
S'\xca\xa5\xf2\x1dF\xfe\x9e@'
tRp3507
tp3508
a(S'YP_003047322.1'
p3509
g3
(g5
S"\x15'>\xa6\xb1\xfe\x9e@"
tRp3510
tp3511
a(S'YP_003045351.1'
p3512
g3
(g5
S'\x8dwh\x88\xf7\x12\x9f@'
tRp3513
tp3514
a(S'YP_003046337.1'
p3515
g3
(g5
S'\xb4K@\xe5\xf0 \x9f@'
tRp3516
tp3517
a(S'YP_003046453.1'
p3518
g3
(g5
S'>TI\x98\x85(\x9f@'
tRp3519
tp3520
a(S'YP_003046225.1'
p3521
g3
(g5
S'\xaa>\x98#jU\x9f@'
tRp3522
tp3523
a(S'YP_003043903.1'
p3524
g3
(g5
S'%\xed\xffCm`\x9f@'
tRp3525
tp3526
a(S'YP_003044284.1'
p3527
g3
(g5
S'&9P\xed]\x8a\x9f@'
tRp3528
tp3529
a(S'YP_003046648.1'
p3530
g3
(g5
S'\xd8\x0e\x02\xc9\xfd\x96\x9f@'
tRp3531
tp3532
a(S'YP_003044882.1'
p3533
g3
(g5
S'\xd3\xb5j\x89\xf4\xc7\x9f@'
tRp3534
tp3535
a(S'YP_003045607.1'
p3536
g3
(g5
S'X\xc08\xa6\x8b\xd4\x9f@'
tRp3537
tp3538
a(S'YP_003044450.1'
p3539
g3
(g5
S'\x89\x95Q\xd8Y\xe1\x9f@'
tRp3540
tp3541
a(S'YP_003046892.1'
p3542
g3
(g5
S'\xea\x19Vz(\x02\xa0@'
tRp3543
tp3544
a(S'YP_003043926.1'
p3545
g3
(g5
S'\xa4\x03;\xb7\xc1\x05\xa0@'
tRp3546
tp3547
a(S'YP_003044907.1'
p3548
g3
(g5
S'\xe1$\x80\r\xfb$\xa0@'
tRp3549
tp3550
a(S'YP_003044125.1'
p3551
g3
(g5
S'\x1e\xc7(\xf0\\@\xa0@'
tRp3552
tp3553
a(S'YP_003045018.1'
p3554
g3
(g5
S'\xe1\x0bYH\xaeN\xa0@'
tRp3555
tp3556
a(S'YP_003045508.1'
p3557
g3
(g5
S'<\xec"\xc7)P\xa0@'
tRp3558
tp3559
a(S'YP_003046420.1'
p3560
g3
(g5
S'\x8bk\xaa\xde\xb4Y\xa0@'
tRp3561
tp3562
a(S'YP_003044305.1'
p3563
g3
(g5
S'yT\xc8r,[\xa0@'
tRp3564
tp3565
a(S'YP_003046216.1'
p3566
g3
(g5
S'\x9a\x11Y\n\xa7\\\xa0@'
tRp3567
tp3568
a(S'YP_003044946.1'
p3569
g3
(g5
S'x\xea\x92\x9c\xbcb\xa0@'
tRp3570
tp3571
a(S'YP_003043399.1'
p3572
g3
(g5
S'\xcb\x98QOop\xa0@'
tRp3573
tp3574
a(S'YP_003046274.1'
p3575
g3
(g5
S'C\x89P\xf3\x98\xaa\xa0@'
tRp3576
tp3577
a(S'YP_003045580.1'
p3578
g3
(g5
S'\xbb \xf8l\x85\xb0\xa0@'
tRp3579
tp3580
a(S'YP_003046803.1'
p3581
g3
(g5
S'.\x1d\xf7\xd5\xb7\xb4\xa0@'
tRp3582
tp3583
a(S'YP_003046967.1'
p3584
g3
(g5
S'\xf4\x03\xc8\xce\xa8\xb7\xa0@'
tRp3585
tp3586
a(S'YP_003044999.1'
p3587
g3
(g5
S'B\xf7\x1f\x141\xeb\xa0@'
tRp3588
tp3589
a(S'YP_003045679.1'
p3590
g3
(g5
S'u\xed\xba>\x86\x03\xa1@'
tRp3591
tp3592
a(S'YP_003047036.1'
p3593
g3
(g5
S'i\xcbK\x90\x93\x0e\xa1@'
tRp3594
tp3595
a(S'YP_003043382.1'
p3596
g3
(g5
S'xO\xc0B\x92\x10\xa1@'
tRp3597
tp3598
a(S'YP_003045797.1'
p3599
g3
(g5
S':\x7fS\x90B"\xa1@'
tRp3600
tp3601
a(S'YP_003045122.1'
p3602
g3
(g5
S'\x8b\xcb~\x96\xc8%\xa1@'
tRp3603
tp3604
a(S'YP_003043860.1'
p3605
g3
(g5
S'Nf\x94\xd8aZ\xa1@'
tRp3606
tp3607
a(S'YP_003043648.1'
p3608
g3
(g5
S'\xbcYd\xb2dm\xa1@'
tRp3609
tp3610
a(S'YP_003043231.1'
p3611
g3
(g5
S'\xd0\x9ck\xe3(\x8f\xa1@'
tRp3612
tp3613
a(S'YP_003047068.1'
p3614
g3
(g5
S'\x87\x80\xf8\xca\xbd\x9f\xa1@'
tRp3615
tp3616
a(S'YP_003045426.1'
p3617
g3
(g5
S'm\x18J\xedQ\xaa\xa1@'
tRp3618
tp3619
a(S'YP_003046298.1'
p3620
g3
(g5
S'd\x02\x0f\xdc\xc5\xb6\xa1@'
tRp3621
tp3622
a(S'YP_003043901.1'
p3623
g3
(g5
S'\xea\xf6\xd10\x07\xcc\xa1@'
tRp3624
tp3625
a(S'YP_003044430.1'
p3626
g3
(g5
S'r\x96<\xbf\xa4\xd0\xa1@'
tRp3627
tp3628
a(S'YP_003043346.1'
p3629
g3
(g5
S'-\x1dH\xff\xfb\xd6\xa1@'
tRp3630
tp3631
a(S'YP_003043918.1'
p3632
g3
(g5
S'+\xe1\x97\xd1p\xf4\xa1@'
tRp3633
tp3634
a(S'YP_003043821.1'
p3635
g3
(g5
S'H\xd7\xfcnz\x07\xa2@'
tRp3636
tp3637
a(S'YP_003043348.1'
p3638
g3
(g5
S'r8\x7f\x03X\x14\xa2@'
tRp3639
tp3640
a(S'YP_003045791.1'
p3641
g3
(g5
S'\x11\xbc1<\x1d\x16\xa2@'
tRp3642
tp3643
a(S'YP_003046383.1'
p3644
g3
(g5
S'\x8dm\x97F\n\x1b\xa2@'
tRp3645
tp3646
a(S'YP_003045559.1'
p3647
g3
(g5
S'\x01\xcd\x9c\xedf.\xa2@'
tRp3648
tp3649
a(S'YP_003045561.1'
p3650
g3
(g5
S':\x12a\xdcu3\xa2@'
tRp3651
tp3652
a(S'YP_003047211.1'
p3653
g3
(g5
S'\xc5\xa9"\x83sf\xa2@'
tRp3654
tp3655
a(S'YP_003045125.1'
p3656
g3
(g5
S'\t\xdby\xf8E}\xa2@'
tRp3657
tp3658
a(S'YP_003046092.1'
p3659
g3
(g5
S"\xf0\xea'%r\x89\xa2@"
tRp3660
tp3661
a(S'YP_003045411.1'
p3662
g3
(g5
S'\xdc\xaf\xd5\x88\xc7\x8a\xa2@'
tRp3663
tp3664
a(S'YP_003044428.1'
p3665
g3
(g5
S'Hb*F\xb9\x90\xa2@'
tRp3666
tp3667
a(S'YP_003046259.1'
p3668
g3
(g5
S'\xad\xb4\x18\n\xe3\x9b\xa2@'
tRp3669
tp3670
a(S'YP_003047058.1'
p3671
g3
(g5
S'Q#\xf0\x95M\x9c\xa2@'
tRp3672
tp3673
a(S'YP_003046223.1'
p3674
g3
(g5
S'\xf9\x9b\x12\x84\xa2\xb8\xa2@'
tRp3675
tp3676
a(S'YP_003045798.1'
p3677
g3
(g5
S'\x0c\xd1\xdc\x13\x01\xb9\xa2@'
tRp3678
tp3679
a(S'YP_003045503.1'
p3680
g3
(g5
S'7\x1er\xcf\x9c\xda\xa2@'
tRp3681
tp3682
a(S'YP_003046275.1'
p3683
g3
(g5
S'\x9cs;*Y\xdb\xa2@'
tRp3684
tp3685
a(S'YP_003046340.1'
p3686
g3
(g5
S'\xb2#:\xdf\x06\xe6\xa2@'
tRp3687
tp3688
a(S'YP_003043427.1'
p3689
g3
(g5
S'\x87|\xa5\xad%\xf8\xa2@'
tRp3690
tp3691
a(S'YP_003047056.1'
p3692
g3
(g5
S'T\x1cTw\x865\xa3@'
tRp3693
tp3694
a(S'YP_003045929.1'
p3695
g3
(g5
S'\xafxDr\xbfT\xa3@'
tRp3696
tp3697
a(S'YP_003047214.1'
p3698
g3
(g5
S'\xdeX,\x12\x00Y\xa3@'
tRp3699
tp3700
a(S'YP_003046812.1'
p3701
g3
(g5
S'\xd8\x19\x84>\xc7c\xa3@'
tRp3702
tp3703
a(S'YP_003043407.1'
p3704
g3
(g5
S'\xd5\x88b\x062g\xa3@'
tRp3705
tp3706
a(S'YP_003046789.1'
p3707
g3
(g5
S'\x87\xf8\xb7\x189l\xa3@'
tRp3708
tp3709
a(S'YP_003044134.1'
p3710
g3
(g5
S'4\xa2\x1dc\xef\x7f\xa3@'
tRp3711
tp3712
a(S'YP_003046220.1'
p3713
g3
(g5
S'lA\x17@9\x86\xa3@'
tRp3714
tp3715
a(S'YP_003045933.1'
p3716
g3
(g5
S'!\xa4\x1c\xa4)\xa0\xa3@'
tRp3717
tp3718
a(S'YP_003043232.1'
p3719
g3
(g5
S'\x7fu\xb4rL\xa1\xa3@'
tRp3720
tp3721
a(S'YP_003045611.1'
p3722
g3
(g5
S'2\xdfnF>\xd4\xa3@'
tRp3723
tp3724
a(S'YP_003043422.1'
p3725
g3
(g5
S'\xbb\xa93\xb5\xb7\xe8\xa3@'
tRp3726
tp3727
a(S'YP_003044111.1'
p3728
g3
(g5
S'\x19<\xb5\xab\xf4\x07\xa4@'
tRp3729
tp3730
a(S'YP_003046299.1'
p3731
g3
(g5
S'BN\xb5\xbe\x8b\t\xa4@'
tRp3732
tp3733
a(S'YP_003046262.1'
p3734
g3
(g5
S'6\xbfK5\xac*\xa4@'
tRp3735
tp3736
a(S'YP_003043424.1'
p3737
g3
(g5
S'\xef\xff\xc1\xabE,\xa4@'
tRp3738
tp3739
a(S'YP_003046732.1'
p3740
g3
(g5
S'\x9e\x86\xd9e[<\xa4@'
tRp3741
tp3742
a(S'YP_003047055.1'
p3743
g3
(g5
S'\xd4\x1a\xefJFe\xa4@'
tRp3744
tp3745
a(S'YP_003045442.1'
p3746
g3
(g5
S'\xc4J\xf4s[h\xa4@'
tRp3747
tp3748
a(S'YP_003046649.1'
p3749
g3
(g5
S']0s\xd4[l\xa4@'
tRp3750
tp3751
a(S'YP_003047031.1'
p3752
g3
(g5
S'\xe5\xe8P\xe7\xbf\x96\xa4@'
tRp3753
tp3754
a(S'YP_003046263.1'
p3755
g3
(g5
S'+\x8f\xb09\xee\xab\xa4@'
tRp3756
tp3757
a(S'YP_003045684.1'
p3758
g3
(g5
S'a\xd3\xddQ\xc6\xba\xa4@'
tRp3759
tp3760
a(S'YP_003043446.1'
p3761
g3
(g5
S'i\xd7\xf1\xc1X\xcc\xa4@'
tRp3762
tp3763
a(S'YP_003044826.1'
p3764
g3
(g5
S'7\x85U\x96\xa7\xec\xa4@'
tRp3765
tp3766
a(S'YP_003047014.1'
p3767
g3
(g5
S'\xfaS;\xcd\x96\xed\xa4@'
tRp3768
tp3769
a(S'YP_003046672.1'
p3770
g3
(g5
S'\x02\xff\xd4\\:\x18\xa5@'
tRp3771
tp3772
a(S'YP_003046824.1'
p3773
g3
(g5
S"\x1e\xdf\xb0\xa4i'\xa5@"
tRp3774
tp3775
a(S'YP_003044106.1'
p3776
g3
(g5
S'y\xea\x95\xf6\\/\xa5@'
tRp3777
tp3778
a(S'YP_003045691.1'
p3779
g3
(g5
S'\xeeO\x83\xb3\x12:\xa5@'
tRp3780
tp3781
a(S'YP_003044130.1'
p3782
g3
(g5
S'\xe9,\xddO\xd4X\xa5@'
tRp3783
tp3784
a(S'YP_003045017.1'
p3785
g3
(g5
S'z%5\x8d\xd1Z\xa5@'
tRp3786
tp3787
a(S'YP_003044074.1'
p3788
g3
(g5
S'g\xc6\xfd0\xf6d\xa5@'
tRp3789
tp3790
a(S'YP_003043898.1'
p3791
g3
(g5
S'\x06\xf5\x81jPg\xa5@'
tRp3792
tp3793
a(S'YP_003047015.1'
p3794
g3
(g5
S'\xd5\x8b7\xb7\xdd\x9a\xa5@'
tRp3795
tp3796
a(S'YP_003047017.1'
p3797
g3
(g5
S'\xec\xfb\x89Y\x8a\xd3\xa5@'
tRp3798
tp3799
a(S'YP_003045563.1'
p3800
g3
(g5
S'\xb5g\xaa$\x80\xee\xa5@'
tRp3801
tp3802
a(S'YP_003043906.1'
p3803
g3
(g5
S'F\xb2\xe8\x9f\xce\xf6\xa5@'
tRp3804
tp3805
a(S'YP_003047209.1'
p3806
g3
(g5
S'\xed\xde\x89@\x803\xa6@'
tRp3807
tp3808
a(S'YP_003043389.1'
p3809
g3
(g5
S'\xfdC_\xcep\x85\xa6@'
tRp3810
tp3811
a(S'YP_003046338.1'
p3812
g3
(g5
S'n\xb7Sh\xf5\x90\xa6@'
tRp3813
tp3814
a(S'YP_003047295.1'
p3815
g3
(g5
S'\x19h2\x19\x7f\x9e\xa6@'
tRp3816
tp3817
a(S'YP_003046795.1'
p3818
g3
(g5
S'mP\xf2\x06<\xe1\xa6@'
tRp3819
tp3820
a(S'YP_003044476.1'
p3821
g3
(g5
S'\xf2\x0c\xb3!\x06\xf2\xa6@'
tRp3822
tp3823
a(S'YP_003043842.1'
p3824
g3
(g5
S'4Ck\xe0\x00\x08\xa7@'
tRp3825
tp3826
a(S'YP_003044289.1'
p3827
g3
(g5
S'\xb7\xa1\x18\x1f\xc2\x16\xa7@'
tRp3828
tp3829
a(S'YP_003046765.1'
p3830
g3
(g5
S'k[\xb6\x1e\xdd$\xa7@'
tRp3831
tp3832
a(S'YP_003044447.1'
p3833
g3
(g5
S"Z\x9a\x1b\x91'4\xa7@"
tRp3834
tp3835
a(S'YP_003045560.1'
p3836
g3
(g5
S'\r\x80\x18T\xd8l\xa7@'
tRp3837
tp3838
a(S'YP_003045639.1'
p3839
g3
(g5
S'w\x10Q\xf9\xe5{\xa7@'
tRp3840
tp3841
a(S'YP_003044150.1'
p3842
g3
(g5
S'T\x97\x93\x9d;\x85\xa7@'
tRp3843
tp3844
a(S'YP_003043919.1'
p3845
g3
(g5
S'j\x0b\x8a\xa7\xd5\x8a\xa7@'
tRp3846
tp3847
a(S'YP_003047018.1'
p3848
g3
(g5
S'\xd3\x89\x1b9z\x90\xa7@'
tRp3849
tp3850
a(S'YP_003045456.1'
p3851
g3
(g5
S'\xc1\xb8\xf59/\xd9\xa7@'
tRp3852
tp3853
a(S'YP_003046395.1'
p3854
g3
(g5
S'\xbf\x10\xb8aPF\xa8@'
tRp3855
tp3856
a(S'YP_003043237.1'
p3857
g3
(g5
S'Qt"\x80RY\xa8@'
tRp3858
tp3859
a(S'YP_003043325.1'
p3860
g3
(g5
S'g\x8e2\x8e\x15{\xa8@'
tRp3861
tp3862
a(S'YP_003046818.1'
p3863
g3
(g5
S'\x8f8\x1b\xf7\xd9\x8f\xa8@'
tRp3864
tp3865
a(S'YP_003044129.1'
p3866
g3
(g5
S'\xca\xfc\xf8\x88W\x9a\xa8@'
tRp3867
tp3868
a(S'YP_003047037.1'
p3869
g3
(g5
S'\x92vk\xf9\r\xa2\xa8@'
tRp3870
tp3871
a(S'YP_003046333.1'
p3872
g3
(g5
S'\xb0\xbc\x86*\xb6\xa2\xa8@'
tRp3873
tp3874
a(S'YP_003047265.1'
p3875
g3
(g5
S'\xf6v\r\xcb\xf1\xa6\xa8@'
tRp3876
tp3877
a(S'YP_003043342.1'
p3878
g3
(g5
S'\xb3\xfe\xa1"\x00\xad\xa8@'
tRp3879
tp3880
a(S'YP_003044285.1'
p3881
g3
(g5
S'\x965\x82\xa8\xc3\xca\xa8@'
tRp3882
tp3883
a(S'YP_003043266.1'
p3884
g3
(g5
S'\x1e\x91z\x12H\xf0\xa8@'
tRp3885
tp3886
a(S'YP_003043701.1'
p3887
g3
(g5
S'\x8aTm,|-\xa9@'
tRp3888
tp3889
a(S'YP_003043986.1'
p3890
g3
(g5
S'\xc2\xf7$>"M\xa9@'
tRp3891
tp3892
a(S'YP_003043393.1'
p3893
g3
(g5
S'@\xc6\xd4\xf3iv\xa9@'
tRp3894
tp3895
a(S'YP_003046357.1'
p3896
g3
(g5
S')\x94\xa6\x00\xc8\x98\xa9@'
tRp3897
tp3898
a(S'YP_003046342.1'
p3899
g3
(g5
S'|\x06=\xf9\x06\xdc\xa9@'
tRp3900
tp3901
a(S'YP_003044448.1'
p3902
g3
(g5
S'\xa4\xd5\xa9\x8dz\xe0\xa9@'
tRp3903
tp3904
a(S'YP_003047016.1'
p3905
g3
(g5
S'\xb5\x85\x86\x0cA\xf7\xa9@'
tRp3906
tp3907
a(S'YP_003046647.1'
p3908
g3
(g5
S'\x87\x15W\x02\xeeF\xaa@'
tRp3909
tp3910
a(S'YP_003047184.1'
p3911
g3
(g5
S'\x1e\xe2\xbbi\x08K\xaa@'
tRp3912
tp3913
a(S'YP_003045402.1'
p3914
g3
(g5
S':\x8e:\x85\xe5h\xaa@'
tRp3915
tp3916
a(S'YP_003045413.1'
p3917
g3
(g5
S'\xd7\xe0m\xedo\x8c\xaa@'
tRp3918
tp3919
a(S'YP_003043859.1'
p3920
g3
(g5
S'G\x81\xa1\xdfw\x8f\xaa@'
tRp3921
tp3922
a(S'YP_003046797.1'
p3923
g3
(g5
S'\xc2*\xd5v3\xb7\xaa@'
tRp3924
tp3925
a(S'YP_003046348.1'
p3926
g3
(g5
S'\xb6\xb9z9\xf4\xcd\xaa@'
tRp3927
tp3928
a(S'YP_003045440.1'
p3929
g3
(g5
S'\x08\xf7\xa0p*O\xab@'
tRp3930
tp3931
a(S'YP_003046835.1'
p3932
g3
(g5
S'z\x0e\x81X\x1e[\xab@'
tRp3933
tp3934
a(S'YP_003045581.1'
p3935
g3
(g5
S'\xfe1T\xc5r\\\xab@'
tRp3936
tp3937
a(S'YP_003046827.1'
p3938
g3
(g5
S'\xbe(\xcf\x1d\xceu\xab@'
tRp3939
tp3940
a(S'YP_003047000.1'
p3941
g3
(g5
S'\x0bA\x8f\xc3r\x84\xab@'
tRp3942
tp3943
a(S'YP_003046794.1'
p3944
g3
(g5
S'\xafR\xbd\xfd\xd4\xdc\xab@'
tRp3945
tp3946
a(S'YP_003046349.1'
p3947
g3
(g5
S'y\xfe\xd7_\xa6\x1d\xac@'
tRp3948
tp3949
a(S'YP_003046385.1'
p3950
g3
(g5
S'\x01\xf30<z\x87\xac@'
tRp3951
tp3952
a(S'YP_003043618.1'
p3953
g3
(g5
S'V\x9fw\xc7\xe8\xb7\xac@'
tRp3954
tp3955
a(S'YP_003046809.1'
p3956
g3
(g5
S'f\x82\xdc\x14S\xdb\xac@'
tRp3957
tp3958
a(S'YP_003043305.1'
p3959
g3
(g5
S'C[\x11X6\xdc\xac@'
tRp3960
tp3961
a(S'YP_003043827.1'
p3962
g3
(g5
S'\x1d=J\x04\x8f\xe2\xac@'
tRp3963
tp3964
a(S'YP_003045590.1'
p3965
g3
(g5
S'\x08p\xc5g\xc44\xad@'
tRp3966
tp3967
a(S'YP_003045953.1'
p3968
g3
(g5
S';\n\xd5>9\x82\xad@'
tRp3969
tp3970
a(S'YP_003043359.1'
p3971
g3
(g5
S'\xb6?\xffu\x94\x98\xad@'
tRp3972
tp3973
a(S'YP_003044179.1'
p3974
g3
(g5
S'\x1c\x13\x92\xb4\x8a\xb5\xad@'
tRp3975
tp3976
a(S'YP_003046343.1'
p3977
g3
(g5
S'\x06\x88\x9b\xacY\x06\xae@'
tRp3978
tp3979
a(S'YP_003047032.1'
p3980
g3
(g5
S'.b*Ol;\xae@'
tRp3981
tp3982
a(S'YP_003044438.1'
p3983
g3
(g5
S'\xac\x9c\xbfu\xdct\xae@'
tRp3984
tp3985
a(S'YP_003043425.1'
p3986
g3
(g5
S'\xfd/S\x99z\xed\xae@'
tRp3987
tp3988
a(S'YP_003045507.1'
p3989
g3
(g5
S'\xe1\xcd\xc3I\xc4\xff\xae@'
tRp3990
tp3991
a(S'YP_003046526.1'
p3992
g3
(g5
S'\xa5N\xc6\xde\xbc\n\xaf@'
tRp3993
tp3994
a(S'YP_003043614.1'
p3995
g3
(g5
S'\\\x031\xeaC\x0c\xaf@'
tRp3996
tp3997
a(S'YP_003046355.1'
p3998
g3
(g5
S'\x0fui\xd4\xec"\xaf@'
tRp3999
tp4000
a(S'YP_003047239.1'
p4001
g3
(g5
S'(\xdb;\x8a&E\xaf@'
tRp4002
tp4003
a(S'YP_003043613.1'
p4004
g3
(g5
S"@\xd3'\x94>X\xaf@"
tRp4005
tp4006
a(S'YP_003044886.1'
p4007
g3
(g5
S'v\xc46\xff\xfc\xdd\xaf@'
tRp4008
tp4009
a(S'YP_003044290.1'
p4010
g3
(g5
S'\x02\x8e\xa0\xe6Y\xf1\xaf@'
tRp4011
tp4012
a(S'YP_003046341.1'
p4013
g3
(g5
S'\xd64\x16\xb7\xbf\x07\xb0@'
tRp4014
tp4015
a(S'YP_003046278.1'
p4016
g3
(g5
S'\x15\xb3/,xr\xb0@'
tRp4017
tp4018
a(S'YP_003045600.1'
p4019
g3
(g5
S'\xf5\x7fBg\xbe\x91\xb0@'
tRp4020
tp4021
a(S'YP_003046576.1'
p4022
g3
(g5
S'\x955\xdd\x12\xa0\x96\xb0@'
tRp4023
tp4024
a(S'YP_003046685.1'
p4025
g3
(g5
S'\x80\x86\xa2B\x88\xb2\xb0@'
tRp4026
tp4027
a(S'YP_003044306.1'
p4028
g3
(g5
S'\x88V0\xb2Q\xb3\xb0@'
tRp4029
tp4030
a(S'YP_003044308.1'
p4031
g3
(g5
S'\xcbqscc\xb8\xb0@'
tRp4032
tp4033
a(S'YP_003045308.1'
p4034
g3
(g5
S'\xc6\xa5\x18\xb7\x17\x12\xb1@'
tRp4035
tp4036
a(S'YP_003046929.1'
p4037
g3
(g5
S'\xa5Y\x88\xb6@B\xb1@'
tRp4038
tp4039
a(S'YP_003046347.1'
p4040
g3
(g5
S'\x86uG\xd3\xad_\xb1@'
tRp4041
tp4042
a(S'YP_003046796.1'
p4043
g3
(g5
S'\xa8\r\x8e"\xff\xb0\xb1@'
tRp4044
tp4045
a(S'YP_003046791.1'
p4046
g3
(g5
S'*^e\xb0^\xd1\xb1@'
tRp4047
tp4048
a(S'YP_003044133.1'
p4049
g3
(g5
S'S(\x8e\xea\xea%\xb2@'
tRp4050
tp4051
a(S'YP_003044811.1'
p4052
g3
(g5
S'\x163s>\xc9o\xb2@'
tRp4053
tp4054
a(S'YP_003046792.1'
p4055
g3
(g5
S'\x177o\xbd9r\xb2@'
tRp4056
tp4057
a(S'YP_003044110.1'
p4058
g3
(g5
S'\xf7\xd9R\xfeO\x93\xb2@'
tRp4059
tp4060
a(S'YP_003044426.1'
p4061
g3
(g5
S'\xa3\x9bY\x1bw\xaa\xb2@'
tRp4062
tp4063
a(S'YP_003043303.1'
p4064
g3
(g5
S'4\xaeJ-\x0f\xb3\xb2@'
tRp4065
tp4066
a(S'YP_003043233.1'
p4067
g3
(g5
S'X\x9dD\x15\xe3\xe0\xb2@'
tRp4068
tp4069
a(S'YP_003044927.1'
p4070
g3
(g5
S'\x05\xfb\xb7\xc77\xe1\xb2@'
tRp4071
tp4072
a(S'YP_003043925.1'
p4073
g3
(g5
S'z\xbb\x04\nH\r\xb3@'
tRp4074
tp4075
a(S'YP_003046281.1'
p4076
g3
(g5
S'\xef=*8I;\xb3@'
tRp4077
tp4078
a(S'YP_003046004.1'
p4079
g3
(g5
S'\xca\xa3\xbe\x8f\xdbM\xb3@'
tRp4080
tp4081
a(S'YP_003046120.1'
p4082
g3
(g5
S'\x7f\xdf\xc0\xb2DZ\xb3@'
tRp4083
tp4084
a(S'YP_003046492.1'
p4085
g3
(g5
S'$i\x99\xeb\\{\xb3@'
tRp4086
tp4087
a(S'YP_003047033.1'
p4088
g3
(g5
S'\x94\xd97\x16\xf8\xc3\xb3@'
tRp4089
tp4090
a(S'YP_003047034.1'
p4091
g3
(g5
S'\x9b}ETL\x1b\xb4@'
tRp4092
tp4093
a(S'YP_003043699.1'
p4094
g3
(g5
S'\xccI\x8d\xbb\xecd\xb4@'
tRp4095
tp4096
a(S'YP_003043304.1'
p4097
g3
(g5
S'\xf4vm\xbb2y\xb4@'
tRp4098
tp4099
a(S'YP_003046346.1'
p4100
g3
(g5
S"\x8c'(}~\xb2\xb4@"
tRp4101
tp4102
a(S'YP_003046304.1'
p4103
g3
(g5
S'\xd1\x0f\t\xdf\xc5\xb2\xb4@'
tRp4104
tp4105
a(S'YP_003044512.1'
p4106
g3
(g5
S's\xce\xfa\x93\x19\xbe\xb4@'
tRp4107
tp4108
a(S'YP_003046468.1'
p4109
g3
(g5
S'\xc9#\x11\xb1\xdf\xcb\xb4@'
tRp4110
tp4111
a(S'YP_003043302.1'
p4112
g3
(g5
S"'qk\x1b\x81\xd0\xb4@"
tRp4113
tp4114
a(S'YP_003043243.1'
p4115
g3
(g5
S'\xee\x996\x85R~\xb5@'
tRp4116
tp4117
a(S'YP_003046378.1'
p4118
g3
(g5
S'A\xe4=[7\xa9\xb5@'
tRp4119
tp4120
a(S'YP_003045687.1'
p4121
g3
(g5
S'\x0e)\xeb\t\xb3\xb5\xb5@'
tRp4122
tp4123
a(S'YP_003046377.1'
p4124
g3
(g5
S'\x03\x9b\xa7\x15\xa6\xc8\xb5@'
tRp4125
tp4126
a(S'YP_003047050.1'
p4127
g3
(g5
S'\x06\x1a\xd2\xed\xe6\xda\xb5@'
tRp4128
tp4129
a(S'YP_003043373.1'
p4130
g3
(g5
S'XF=`\xb6\xfe\xb5@'
tRp4131
tp4132
a(S'YP_003046353.1'
p4133
g3
(g5
S'\r\xe36\xf5\x99\x0b\xb6@'
tRp4134
tp4135
a(S'YP_003045633.1'
p4136
g3
(g5
S"\xf2\\'\x11\x00\xc4\xb6@"
tRp4137
tp4138
a(S'YP_003045960.1'
p4139
g3
(g5
S'\x8b\x95\x100.\xf8\xb6@'
tRp4140
tp4141
a(S'YP_003046587.1'
p4142
g3
(g5
S'\x1a\xb4\xe4\xcdk\x85\xb7@'
tRp4143
tp4144
a(S'YP_003045932.1'
p4145
g3
(g5
S'\x99\xca\x91\xb3{\xb4\xb7@'
tRp4146
tp4147
a(S'YP_003043795.1'
p4148
g3
(g5
S'7\xfd/\xb07\xe7\xb8@'
tRp4149
tp4150
a(S'YP_003045275.1'
p4151
g3
(g5
S'\rd[\xd2\xda\x92\xb9@'
tRp4152
tp4153
a(S'YP_003045944.1'
p4154
g3
(g5
S'E\x08B\x1aY\x95\xb9@'
tRp4155
tp4156
a(S'YP_003046350.1'
p4157
g3
(g5
S'\x9e\x8f\xefa\x04\x9d\xb9@'
tRp4158
tp4159
a(S'YP_003045104.1'
p4160
g3
(g5
S'\xa2\xc0\x02\xed\xb4\n\xba@'
tRp4161
tp4162
a(S'YP_003046344.1'
p4163
g3
(g5
S'Q\x82!\xdc\xbc\xb4\xba@'
tRp4164
tp4165
a(S'YP_003046331.1'
p4166
g3
(g5
S'\x92=\x98\x86\x9d\xc6\xba@'
tRp4167
tp4168
a(S'YP_003045945.1'
p4169
g3
(g5
S'R\xa1\xa4\x9f\x06 \xbb@'
tRp4170
tp4171
a(S'YP_003044152.1'
p4172
g3
(g5
S'\xcch\xa5<k\xe9\xbb@'
tRp4173
tp4174
a(S'YP_003043581.1'
p4175
g3
(g5
S'X\xd7\\\x1c\xa1\x1e\xbc@'
tRp4176
tp4177
a(S'YP_003043397.1'
p4178
g3
(g5
S'oi]X\xc5\x00\xbd@'
tRp4179
tp4180
a(S'YP_003046376.1'
p4181
g3
(g5
S"'\xc6\x87\xa9\x95\xe7\xbd@"
tRp4182
tp4183
a(S'YP_003047240.1'
p4184
g3
(g5
S'\xb8)\xa8w \x14\xbe@'
tRp4185
tp4186
a(S'YP_003046217.1'
p4187
g3
(g5
S'\xa6V\xc3CS\x88\xbe@'
tRp4188
tp4189
a(S'YP_003047237.1'
p4190
g3
(g5
S'\xe6\xe5*W\xf9\xb0\xbe@'
tRp4191
tp4192
a(S'YP_003043396.1'
p4193
g3
(g5
S'8\x15\x8d\xb25\xee\xbe@'
tRp4194
tp4195
a(S'YP_003044309.1'
p4196
g3
(g5
S'\x1a\xb7\x834\x85\x96\xc0@'
tRp4197
tp4198
a(S'YP_003045109.1'
p4199
g3
(g5
S'v\xce\x804\xe6\xc7\xc0@'
tRp4200
tp4201
a(S'YP_003046334.1'
p4202
g3
(g5
S'\x18\xe38\xdb\xe6\x8d\xc1@'
tRp4203
tp4204
a(S'YP_003046882.1'
p4205
g3
(g5
S'H\xb37/\xb8\xc6\xc1@'
tRp4206
tp4207
a(S'YP_003046977.1'
p4208
g3
(g5
S'g\x90\xb3{\x1e\xfe\xc2@'
tRp4209
tp4210
a(S'YP_003045505.1'
p4211
g3
(g5
S'\xc9\n\x89\xe4\xb0\xb5\xc3@'
tRp4212
tp4213
a(S'YP_003045813.1'
p4214
g3
(g5
S'\xcav<\xc3\xaa\xd0\xc3@'
tRp4215
tp4216
a(S'YP_003043609.1'
p4217
g3
(g5
S'$\x87\xd9\x1d\x9f)\xc4@'
tRp4218
tp4219
a(S'YP_003046823.1'
p4220
g3
(g5
S'\xfa\xff\xc0\xf4\xce>\xc4@'
tRp4221
tp4222
a(S'YP_003043257.1'
p4223
g3
(g5
S'0G\x93pd\xc5\xc4@'
tRp4224
tp4225
a(S'YP_003044303.1'
p4226
g3
(g5
S'\x97\xc4\xc1\x12\xf8"\xc5@'
tRp4227
tp4228
a(S'YP_003046332.1'
p4229
g3
(g5
S'P\xfa\x11$0\xad\xc5@'
tRp4230
tp4231
a(S'YP_003045506.1'
p4232
g3
(g5
S"\xdb\x98\xc5\x9d\xb1'\xc7@"
tRp4233
tp4234
a(S'YP_003046352.1'
p4235
g3
(g5
S'WX\x813/\x0f\xc8@'
tRp4236
tp4237
a(S'YP_003046994.1'
p4238
g3
(g5
S'\xec\xbb&s\xf03\xcc@'
tRp4239
tp4240
a(S'YP_003047035.1'
p4241
g3
(g5
S'\xc6 \xbd\x89\xa3\xf8\xcc@'
tRp4242
tp4243
a(S'YP_003044990.1'
p4244
g3
(g5
S'4y\x8a\xfbP\xe6\xcd@'
tRp4245
tp4246
a(S'YP_003046339.1'
p4247
g3
(g5
S'0l\xa4@\xa8\xd4\xd1@'
tRp4248
tp4249
a(S'YP_003044945.1'
p4250
g3
(g5
S'\xd2\x1c\x8f]\x93(\xd2@'
tRp4251
tp4252
a(S'YP_003046375.1'
p4253
g3
(g5
S'i\x8b;\x84\x86\xf7\xd6@'
tRp4254
tp4255
a(S'YP_003047029.1'
p4256
g3
(g5
S'Y\xb4\x84&\x18:\xda@'
tRp4257
tp4258
a.