(dp0
S'HACD1i'
p1
cnumpy.core.multiarray
scalar
p2
(cnumpy
dtype
p3
(S'f8'
p4
I0
I1
tp5
Rp6
(I3
S'<'
p7
NNNI-1
I-1
I0
tp8
bS'\xabv\x11a\xdf.\xfc?'
p9
tp10
Rp11
sS'ACOAD6f'
p12
g2
(g6
S'\xd1*4\x19\x1a.\x93?'
p13
tp14
Rp15
sS'HACD7i'
p16
g2
(g6
S'\xabv\x11a\xdf.\xfc?'
p17
tp18
Rp19
sS'ACOAD8f'
p20
g2
(g6
S'\xd1*4\x19\x1a.\x93?'
p21
tp22
Rp23
sS'HACD5i'
p24
g2
(g6
S'\xabv\x11a\xdf.\xfc?'
p25
tp26
Rp27
sS'MALS'
p28
g2
(g6
S'l\xf0(\xc0l\xcbS@'
p29
tp30
Rp31
sS'HACD3i'
p32
g2
(g6
S'\xabv\x11a\xdf.\xfc?'
p33
tp34
Rp35
sS'SSALy'
p36
g2
(g6
S'\x19\xe0\xd2\x97"\xbaD@'
p37
tp38
Rp39
sS'NO3R2bpp'
p40
g2
(g6
S'\xfd\x8c\xf0\xc7+&\xf0?'
p41
tp42
Rp43
sS'ACACT2r'
p44
g2
(g6
S'{(\xad?Y\x175@'
p45
tp46
Rp47
sS'LCADi'
p48
g2
(g6
S'\xbd=\x9c\xde\x11\xc2W@'
p49
tp50
Rp51
sS'MDDCP1pp'
p52
g2
(g6
S'\xc9\x1bk\x00\xa3\xe7\xc2?'
p53
tp54
Rp55
sS'HACD8i'
p56
g2
(g6
S'\xabv\x11a\xdf.\xfc?'
p57
tp58
Rp59
sS'ACACT6r'
p60
g2
(g6
S'{(\xad?Y\x175@'
p61
tp62
Rp63
sS'ACACT4r'
p64
g2
(g6
S'{(\xad?Y\x175@'
p65
tp66
Rp67
sS'PPM'
p68
g2
(g6
S'\x9am\xdb\xda\xbeK\xc0?'
p69
tp70
Rp71
sS'SADH'
p72
g2
(g6
S'p*V\x94n2L@'
p73
tp74
Rp75
sS'ACOAD2f'
p76
g2
(g6
S'\xd1*4\x19\x1a.\x93?'
p77
tp78
Rp79
sS'ACACT8r'
p80
g2
(g6
S'{(\xad?Y\x175@'
p81
tp82
Rp83
sS'ECOAH8'
p84
g2
(g6
S'\xb2CMU\x93\xf9\x15@'
p85
tp86
Rp87
sS'NO3R1pp'
p88
g2
(g6
S'\x16C\x05i\xd8\n\xd9?'
p89
tp90
Rp91
sS'ACOAD4f'
p92
g2
(g6
S'\xd1*4\x19\x1a.\x93?'
p93
tp94
Rp95
sS'MDDCP5pp'
p96
g2
(g6
S'\xc9\x1bk\x00\xa3\xe7\xc2?'
p97
tp98
Rp99
sS'ACOAD7f'
p100
g2
(g6
S'\xd1*4\x19\x1a.\x93?'
p101
tp102
Rp103
sS'MDDCP4pp'
p104
g2
(g6
S'\xc9\x1bk\x00\xa3\xe7\xc2?'
p105
tp106
Rp107
sS'HACD6i'
p108
g2
(g6
S'\xabv\x11a\xdf.\xfc?'
p109
tp110
Rp111
sS'NO3R1bpp'
p112
g2
(g6
S'\xfd\x8c\xf0\xc7+&\xf0?'
p113
tp114
Rp115
sS'HACD4i'
p116
g2
(g6
S'\xabv\x11a\xdf.\xfc?'
p117
tp118
Rp119
sS'MDDCP2pp'
p120
g2
(g6
S'\xc9\x1bk\x00\xa3\xe7\xc2?'
p121
tp122
Rp123
sS'ACACT1r'
p124
g2
(g6
S'2\xbb\x10\xa0M>\x01@'
p125
tp126
Rp127
sS'ACACT7r'
p128
g2
(g6
S'{(\xad?Y\x175@'
p129
tp130
Rp131
sS'G3PD5'
p132
g2
(g6
S'#\x8f}\xcf\xe3\x912@'
p133
tp134
Rp135
sS'ACACT3r'
p136
g2
(g6
S'{(\xad?Y\x175@'
p137
tp138
Rp139
sS'HACD2i'
p140
g2
(g6
S'\xabv\x11a\xdf.\xfc?'
p141
tp142
Rp143
sS'TKT2'
p144
g2
(g6
S'\x84G\xb1\xfe\xe1\xa6\x89@'
p145
tp146
Rp147
sS'TREH'
p148
g2
(g6
S'84\xff\xfa\xeaD\xce?'
p149
tp150
Rp151
sS'GCALDD'
p152
g2
(g6
S'\xbd=\x9c\xde\x11\xc2W@'
p153
tp154
Rp155
sS'TKT1'
p156
g2
(g6
S'\x84G\xb1\xfe\xe1\xa6\x89@'
p157
tp158
Rp159
sS'ALTRH'
p160
g2
(g6
S'"I_\xdd\x0e\\D@'
p161
tp162
Rp163
sS'ECOAH6'
p164
g2
(g6
S'\xb2CMU\x93\xf9\x15@'
p165
tp166
Rp167
sS'ECOAH7'
p168
g2
(g6
S'\xb2CMU\x93\xf9\x15@'
p169
tp170
Rp171
sS'ECOAH4'
p172
g2
(g6
S'\xb2CMU\x93\xf9\x15@'
p173
tp174
Rp175
sS'ECOAH5'
p176
g2
(g6
S'\xb2CMU\x93\xf9\x15@'
p177
tp178
Rp179
sS'ECOAH2'
p180
g2
(g6
S'\xb2CMU\x93\xf9\x15@'
p181
tp182
Rp183
sS'ECOAH3'
p184
g2
(g6
S'\xb2CMU\x93\xf9\x15@'
p185
tp186
Rp187
sS'ACACT5r'
p188
g2
(g6
S'{(\xad?Y\x175@'
p189
tp190
Rp191
sS'ECOAH1'
p192
g2
(g6
S'\xb2CMU\x93\xf9\x15@'
p193
tp194
Rp195
sS'CTECOAI6'
p196
g2
(g6
S'\xe5U\x03\xfak\xc0\xe0?'
p197
tp198
Rp199
sS'CTECOAI7'
p200
g2
(g6
S'\xe5U\x03\xfak\xc0\xe0?'
p201
tp202
Rp203
sS'ACOAD1f'
p204
g2
(g6
S'\x1a]X\xb2\x92\xfc$@'
p205
tp206
Rp207
sS'ACOAD5f'
p208
g2
(g6
S'\xd1*4\x19\x1a.\x93?'
p209
tp210
Rp211
sS'MDDCP3pp'
p212
g2
(g6
S'\xc9\x1bk\x00\xa3\xe7\xc2?'
p213
tp214
Rp215
sS'ACOAD3f'
p216
g2
(g6
S'\xd1*4\x19\x1a.\x93?'
p217
tp218
Rp219
sS'PTRCTA'
p220
g2
(g6
S'\x15z\xdcA\xae\xfa4@'
p221
tp222
Rp223
sS'SERD_L'
p224
g2
(g6
S'v/1mv\xce\xd7?'
p225
tp226
Rp227
sS'CTECOAI8'
p228
g2
(g6
S'\xe5U\x03\xfak\xc0\xe0?'
p229
tp230
Rp231
sS'XAND'
p232
g2
(g6
S'\x9b\xc4\x95GE\xd2\x12@'
p233
tp234
Rp235
s.