(dp0
S'LPLIPAL1G160pp'
p1
cnumpy.core.multiarray
scalar
p2
(cnumpy
dtype
p3
(S'f8'
p4
I0
I1
tp5
Rp6
(I3
S'<'
p7
NNNI-1
I-1
I0
tp8
bS"\xa5\x96'H\xcdNV@"
p9
tp10
Rp11
sS'ACOAD6f'
p12
g2
(g6
S'\r\xf5\x8e\xda\x84@w?'
p13
tp14
Rp15
sS'LPLIPAL1E160pp'
p16
g2
(g6
S"\xa5\x96'H\xcdNV@"
p17
tp18
Rp19
sS'LPLIPAL1G161pp'
p20
g2
(g6
S"\xa5\x96'H\xcdNV@"
p21
tp22
Rp23
sS'ACOAD8f'
p24
g2
(g6
S'\r\xf5\x8e\xda\x84@w?'
p25
tp26
Rp27
sS'ALLTAMH'
p28
g2
(g6
S'f\x91)\x1b\xb5\xf1\x18@'
p29
tp30
Rp31
sS'LPLIPAL1E161pp'
p32
g2
(g6
S"\xa5\x96'H\xcdNV@"
p33
tp34
Rp35
sS'CAT'
p36
g2
(g6
S'm\xad\x8b2\xce\x16\x94@'
p37
tp38
Rp39
sS'HACD7'
p40
g2
(g6
S'\xae\x1bp\xab\xd2M\xf0?'
p41
tp42
Rp43
sS'ALAR'
p44
g2
(g6
S'<msA\x03\xbf(@'
p45
tp46
Rp47
sS'LPLIPAL1A181pp'
p48
g2
(g6
S"\xa5\x96'H\xcdNV@"
p49
tp50
Rp51
sS'ACACT5r'
p52
g2
(g6
S'\xf2\xfb\x84\xb6ssE@'
p53
tp54
Rp55
sS'LPLIPAL1G181pp'
p56
g2
(g6
S"\xa5\x96'H\xcdNV@"
p57
tp58
Rp59
sS'SSALy'
p60
g2
(g6
S'\xbd\xc6O*\xbd\x1fJ@'
p61
tp62
Rp63
sS'LPLIPAL1A141pp'
p64
g2
(g6
S"\xa5\x96'H\xcdNV@"
p65
tp66
Rp67
sS'ACACT2r'
p68
g2
(g6
S'\xf2\xfb\x84\xb6ssE@'
p69
tp70
Rp71
sS'LPLIPAL1E181pp'
p72
g2
(g6
S"\xa5\x96'H\xcdNV@"
p73
tp74
Rp75
sS'LPLIPAL1E141pp'
p76
g2
(g6
S"\xa5\x96'H\xcdNV@"
p77
tp78
Rp79
sS'MDDCP1pp'
p80
g2
(g6
S'\xe7jn|!\xfe\xbb?'
p81
tp82
Rp83
sS'LPLIPAL1G140pp'
p84
g2
(g6
S"\xa5\x96'H\xcdNV@"
p85
tp86
Rp87
sS'ACACT4r'
p88
g2
(g6
S'\xf2\xfb\x84\xb6ssE@'
p89
tp90
Rp91
sS'LPLIPAL1A120pp'
p92
g2
(g6
S"\xa5\x96'H\xcdNV@"
p93
tp94
Rp95
sS'ASPT'
p96
g2
(g6
S'^m;*\xaeM\xd9?'
p97
tp98
Rp99
sS'MALS'
p100
g2
(g6
S'\x02\x00\xe4\x87\x9bHU@'
p101
tp102
Rp103
sS'LPLIPAL1G141pp'
p104
g2
(g6
S"\xa5\x96'H\xcdNV@"
p105
tp106
Rp107
sS'ACOAD2f'
p108
g2
(g6
S'\r\xf5\x8e\xda\x84@w?'
p109
tp110
Rp111
sS'ACACT8r'
p112
g2
(g6
S'\xf2\xfb\x84\xb6ssE@'
p113
tp114
Rp115
sS'ECOAH7'
p116
g2
(g6
S'^\x97h\x1b\xd2l\t@'
p117
tp118
Rp119
sS'NO3R1pp'
p120
g2
(g6
S'Z\xe2\x12\xf7"w\xe6?'
p121
tp122
Rp123
sS'ACOAD4f'
p124
g2
(g6
S'\r\xf5\x8e\xda\x84@w?'
p125
tp126
Rp127
sS'MDDCP5pp'
p128
g2
(g6
S'\xe7jn|!\xfe\xbb?'
p129
tp130
Rp131
sS'LPLIPAL1A180pp'
p132
g2
(g6
S"\xa5\x96'H\xcdNV@"
p133
tp134
Rp135
sS'XAND'
p136
g2
(g6
S'y\xa1\xaeHO\xea2@'
p137
tp138
Rp139
sS'ACOAD7f'
p140
g2
(g6
S'\r\xf5\x8e\xda\x84@w?'
p141
tp142
Rp143
sS'ECOAH4'
p144
g2
(g6
S'^\x97h\x1b\xd2l\t@'
p145
tp146
Rp147
sS'SERD_L'
p148
g2
(g6
S'\xbd\xaf2\xa9v\xf7\xe9?'
p149
tp150
Rp151
sS'MDDCP4pp'
p152
g2
(g6
S'\xe7jn|!\xfe\xbb?'
p153
tp154
Rp155
sS'PPKr'
p156
g2
(g6
S'S"\xb9\xb7\xfb\xdf\xd2?'
p157
tp158
Rp159
sS'ACOAD5f'
p160
g2
(g6
S'\r\xf5\x8e\xda\x84@w?'
p161
tp162
Rp163
sS'LPLIPAL1G120pp'
p164
g2
(g6
S"\xa5\x96'H\xcdNV@"
p165
tp166
Rp167
sS'L-LACD2'
p168
g2
(g6
S'b\x86F\xee}\x1a\xbf?'
p169
tp170
Rp171
sS'L-LACD3'
p172
g2
(g6
S'b\x86F\xee}\x1a\xbf?'
p173
tp174
Rp175
sS'MDDCP2pp'
p176
g2
(g6
S'\xe7jn|!\xfe\xbb?'
p177
tp178
Rp179
sS'ACACT1r'
p180
g2
(g6
S'A\xd0\xa8\xa19\xbb\x03@'
p181
tp182
Rp183
sS'LPLIPAL1A160pp'
p184
g2
(g6
S"\xa5\x96'H\xcdNV@"
p185
tp186
Rp187
sS'ACACT7r'
p188
g2
(g6
S'\xf2\xfb\x84\xb6ssE@'
p189
tp190
Rp191
sS'LPLIPAL1G180pp'
p192
g2
(g6
S"\xa5\x96'H\xcdNV@"
p193
tp194
Rp195
sS'ACACT3r'
p196
g2
(g6
S'\xf2\xfb\x84\xb6ssE@'
p197
tp198
Rp199
sS'LPLIPAL1A140pp'
p200
g2
(g6
S"\xa5\x96'H\xcdNV@"
p201
tp202
Rp203
sS'LPLIPAL1E120pp'
p204
g2
(g6
S"\xa5\x96'H\xcdNV@"
p205
tp206
Rp207
sS'HACD4'
p208
g2
(g6
S'\xae\x1bp\xab\xd2M\xf0?'
p209
tp210
Rp211
sS'HACD1'
p212
g2
(g6
S'\xae\x1bp\xab\xd2M\xf0?'
p213
tp214
Rp215
sS'TREH'
p216
g2
(g6
S'\x96\x1c1\xe5\xdcx\xc2?'
p217
tp218
Rp219
sS'HACD3'
p220
g2
(g6
S'\xae\x1bp\xab\xd2M\xf0?'
p221
tp222
Rp223
sS'HACD2'
p224
g2
(g6
S'\xae\x1bp\xab\xd2M\xf0?'
p225
tp226
Rp227
sS'HACD5'
p228
g2
(g6
S'\xae\x1bp\xab\xd2M\xf0?'
p229
tp230
Rp231
sS'ECOAH8'
p232
g2
(g6
S'^\x97h\x1b\xd2l\t@'
p233
tp234
Rp235
sS'ALTRH'
p236
g2
(g6
S'\x8b\xd6\xab\x14v9B@'
p237
tp238
Rp239
sS'HACD6'
p240
g2
(g6
S'\xae\x1bp\xab\xd2M\xf0?'
p241
tp242
Rp243
sS'ECOAH6'
p244
g2
(g6
S'^\x97h\x1b\xd2l\t@'
p245
tp246
Rp247
sS'LPLIPAL1E180pp'
p248
g2
(g6
S"\xa5\x96'H\xcdNV@"
p249
tp250
Rp251
sS'LPLIPAL1A161pp'
p252
g2
(g6
S"\xa5\x96'H\xcdNV@"
p253
tp254
Rp255
sS'HACD8'
p256
g2
(g6
S'\xae\x1bp\xab\xd2M\xf0?'
p257
tp258
Rp259
sS'ECOAH2'
p260
g2
(g6
S'^\x97h\x1b\xd2l\t@'
p261
tp262
Rp263
sS'ECOAH3'
p264
g2
(g6
S'^\x97h\x1b\xd2l\t@'
p265
tp266
Rp267
sS'PPK2r'
p268
g2
(g6
S'S"\xb9\xb7\xfb\xdf\xd2?'
p269
tp270
Rp271
sS'ECOAH1'
p272
g2
(g6
S'^\x97h\x1b\xd2l\t@'
p273
tp274
Rp275
sS'CTECOAI6'
p276
g2
(g6
S'!\xc3\x11\x9e\x91\xe5\xc6?'
p277
tp278
Rp279
sS'CTECOAI7'
p280
g2
(g6
S'!\xc3\x11\x9e\x91\xe5\xc6?'
p281
tp282
Rp283
sS'ACOAD1f'
p284
g2
(g6
S'\xdb\xab\xf7A,q\t@'
p285
tp286
Rp287
sS'ACACT6r'
p288
g2
(g6
S'\xf2\xfb\x84\xb6ssE@'
p289
tp290
Rp291
sS'MDDCP3pp'
p292
g2
(g6
S'\xe7jn|!\xfe\xbb?'
p293
tp294
Rp295
sS'ACOAD3f'
p296
g2
(g6
S'\r\xf5\x8e\xda\x84@w?'
p297
tp298
Rp299
sS'PTRCTA'
p300
g2
(g6
S"\r\xb1\x97\x8b\x8a\x18'@"
p301
tp302
Rp303
sS'G6PP'
p304
g2
(g6
S'\xd5[2\xf6\x10\xb7\x07@'
p305
tp306
Rp307
sS'LPLIPAL1E140pp'
p308
g2
(g6
S"\xa5\x96'H\xcdNV@"
p309
tp310
Rp311
sS'CTECOAI8'
p312
g2
(g6
S'!\xc3\x11\x9e\x91\xe5\xc6?'
p313
tp314
Rp315
sS'ECOAH5'
p316
g2
(g6
S'^\x97h\x1b\xd2l\t@'
p317
tp318
Rp319
s.