(dp0
S'G6PDH2r'
p1
cnumpy.core.multiarray
scalar
p2
(cnumpy
dtype
p3
(S'f8'
p4
I0
I1
tp5
Rp6
(I3
S'<'
p7
NNNI-1
I-1
I0
tp8
bS'X\xca\x85\x1c\xcd\x19\x88@'
p9
tp10
Rp11
sS'GTPDPDP'
p12
g2
(g6
S'\xcfl\x10\xa0\xd5on?'
p13
tp14
Rp15
sS'HACD3i'
p16
g2
(g6
S'W\x7faYC,E@'
p17
tp18
Rp19
sS'LPLIPAL1E141pp'
p20
g2
(g6
S'\xd6\xcd\xa7G\xcc\x08I@'
p21
tp22
Rp23
sS'ACACT4r'
p24
g2
(g6
S'A/\xa0G\xcdA\x91@'
p25
tp26
Rp27
sS'LPLIPAL1A120pp'
p28
g2
(g6
S'\xd6\xcd\xa7G\xcc\x08I@'
p29
tp30
Rp31
sS'PLIPA1E180pp'
p32
g2
(g6
S'1\x0bE@\x94Py?'
p33
tp34
Rp35
sS'METSOXR1'
p36
g2
(g6
S'\x18B\xef8\x95\x8b\x98@'
p37
tp38
Rp39
sS'GTHOr'
p40
g2
(g6
S'hJ0b\xaa\xb30@'
p41
tp42
Rp43
sS'PLIPA1G140pp'
p44
g2
(g6
S'1\x0bE@\x94Py?'
p45
tp46
Rp47
sS'G1PACT'
p48
g2
(g6
S'\x19E\x07\xd5h\x96\xd9?'
p49
tp50
Rp51
sS'KAS14'
p52
g2
(g6
S'\x97J~\x06\x90\xa9b@'
p53
tp54
Rp55
sS'ACACT3r'
p56
g2
(g6
S'A/\xa0G\xcdA\x91@'
p57
tp58
Rp59
sS'PANTS'
p60
g2
(g6
S'\x8a\xc4bS)^\xc0?'
p61
tp62
Rp63
sS'FMETTRS'
p64
g2
(g6
S'd\tJ\x1c\xed\xc0\xf5?'
p65
tp66
Rp67
sS'PLIPA2A180pp'
p68
g2
(g6
S'}\xeeTF\xd9#\xcf?'
p69
tp70
Rp71
sS'PPNCL2'
p72
g2
(g6
S'\x05\xc2\xc15-\x90\xa5?'
p73
tp74
Rp75
sS'ACOAD1f'
p76
g2
(g6
S'D\x93\x95\xba\xe7Eh@'
p77
tp78
Rp79
sS'ACLS'
p80
g2
(g6
S'G\xbe\xaf\xd9\xea4\x93@'
p81
tp82
Rp83
sS'LPLIPAL1A161pp'
p84
g2
(g6
S'\xd6\xcd\xa7G\xcc\x08I@'
p85
tp86
Rp87
sS'G3PAT140'
p88
g2
(g6
S'\x90\x8aLT\x85\x9au@'
p89
tp90
Rp91
sS'ACODA'
p92
g2
(g6
S'\x9eM\xcf#\x86ek@'
p93
tp94
Rp95
sS'MAN6PI'
p96
g2
(g6
S'd\xf7\xeeee\xd8\x93@'
p97
tp98
Rp99
sS'LPLIPAL1A180pp'
p100
g2
(g6
S'\xd6\xcd\xa7G\xcc\x08I@'
p101
tp102
Rp103
sS'3HAD100'
p104
g2
(g6
S'Hh\x9e\x8a1j\x97@'
p105
tp106
Rp107
sS'PLIPA1E141pp'
p108
g2
(g6
S'1\x0bE@\x94Py?'
p109
tp110
Rp111
sS'LCADi'
p112
g2
(g6
S'\x08\x03\xc6s\xce\xb9w@'
p113
tp114
Rp115
sS'PPND'
p116
g2
(g6
S"\xb8\x92\x0e'\x92\xaa\x1d@"
p117
tp118
Rp119
sS'ADSL2r'
p120
g2
(g6
S'\xa2D=w\xe3\x11\xd0?'
p121
tp122
Rp123
sS'LPLIPAL1G120pp'
p124
g2
(g6
S'\xd6\xcd\xa7G\xcc\x08I@'
p125
tp126
Rp127
sS'HACD4i'
p128
g2
(g6
S'W\x7faYC,E@'
p129
tp130
Rp131
sS'PSSA181'
p132
g2
(g6
S'\x83\xa5\xbd\xcdt~j@'
p133
tp134
Rp135
sS'PSSA180'
p136
g2
(g6
S'\x83\xa5\xbd\xcdt~j@'
p137
tp138
Rp139
sS'ASPTA'
p140
g2
(g6
S'{\x07)\x8d\x80EB@'
p141
tp142
Rp143
sS'P5CD'
p144
g2
(g6
S'\xc66\x92\xaa\xde\x86\x81?'
p145
tp146
Rp147
sS'EAR160x'
p148
g2
(g6
S'c\xc6`\xbc\xc8~\x11@'
p149
tp150
Rp151
sS'EAR160y'
p152
g2
(g6
S'%\xe9[\xdf;\xa8#@'
p153
tp154
Rp155
sS'PPK2r'
p156
g2
(g6
S'\xcdM\xa1\xd2&\xc0\xd5?'
p157
tp158
Rp159
sS'EAR121y'
p160
g2
(g6
S'%\xe9[\xdf;\xa8#@'
p161
tp162
Rp163
sS'EAR121x'
p164
g2
(g6
S'c\xc6`\xbc\xc8~\x11@'
p165
tp166
Rp167
sS'ALATRS'
p168
g2
(g6
S'\xda\xdby\xd2cJ\x13@'
p169
tp170
Rp171
sS'ACOAD5f'
p172
g2
(g6
S'/\x81\xa2!\x03/\xd6?'
p173
tp174
Rp175
sS'MDDCP2pp'
p176
g2
(g6
S'\xa3v\xb0\xf4@\\1@'
p177
tp178
Rp179
sS'EAR141y'
p180
g2
(g6
S'%\xe9[\xdf;\xa8#@'
p181
tp182
Rp183
sS'EAR141x'
p184
g2
(g6
S'c\xc6`\xbc\xc8~\x11@'
p185
tp186
Rp187
sS'SHK3Dr'
p188
g2
(g6
S'\xb7\xff\xab\xcb\x91\xe4\xb4@'
p189
tp190
Rp191
sS'TYRTA'
p192
g2
(g6
S'\xe0\xc2\xe2\x01i\xe3J@'
p193
tp194
Rp195
sS'ASPK'
p196
g2
(g6
S'\xdb\xf3{})U7@'
p197
tp198
Rp199
sS'ASPT'
p200
g2
(g6
S'\xee\xc1N\xb8\x04l\x0e@'
p201
tp202
Rp203
sS'PTAr'
p204
g2
(g6
S'\xfd\xca\x12\xf4N\xcdo@'
p205
tp206
Rp207
sS'CYSTRS'
p208
g2
(g6
S'\x908^PrB\x13@'
p209
tp210
Rp211
sS'HISTRS'
p212
g2
(g6
S'\x82d\xb9@C\xe8\x14@'
p213
tp214
Rp215
sS'CBPS'
p216
g2
(g6
S'\xc2\xa7\xd3\xd5JRY@'
p217
tp218
Rp219
sS'PLIPA1G141pp'
p220
g2
(g6
S'1\x0bE@\x94Py?'
p221
tp222
Rp223
sS'DHDPS'
p224
g2
(g6
S'F^\x9c\xd69\xbd#@'
p225
tp226
Rp227
sS'NTP10'
p228
g2
(g6
S'\xbfVO\xc9\xaa0T@'
p229
tp230
Rp231
sS'PLIPA1G181pp'
p232
g2
(g6
S'1\x0bE@\x94Py?'
p233
tp234
Rp235
sS'DHAD1'
p236
g2
(g6
S'\xa8rS\x9b\x9bh\x0c@'
p237
tp238
Rp239
sS'LPLIPAL1A160pp'
p240
g2
(g6
S'\xd6\xcd\xa7G\xcc\x08I@'
p241
tp242
Rp243
sS'EDD'
p244
g2
(g6
S'\xf12z\xa8\xa06R@'
p245
tp246
Rp247
sS'HSTPT'
p248
g2
(g6
S'-:G*\x06p\xc2?'
p249
tp250
Rp251
sS'PHETA1'
p252
g2
(g6
S'\x83\xef(`\xad\xd9\xb4@'
p253
tp254
Rp255
sS'FRUK'
p256
g2
(g6
S'\xe4=0\x17\xbd\xecF@'
p257
tp258
Rp259
sS'3OAS180'
p260
g2
(g6
S'\x97J~\x06\x90\xa9b@'
p261
tp262
Rp263
sS'3OAS181'
p264
g2
(g6
S'\x1e\r\x18\x9f"dZ@'
p265
tp266
Rp267
sS'THFAT'
p268
g2
(g6
S'g\xb1#?\xb85\x0b@'
p269
tp270
Rp271
sS'EAR80x'
p272
g2
(g6
S'c\xc6`\xbc\xc8~\x11@'
p273
tp274
Rp275
sS'EAR80y'
p276
g2
(g6
S'%\xe9[\xdf;\xa8#@'
p277
tp278
Rp279
sS'EAR180x'
p280
g2
(g6
S'c\xc6`\xbc\xc8~\x11@'
p281
tp282
Rp283
sS'EAR180y'
p284
g2
(g6
S'%\xe9[\xdf;\xa8#@'
p285
tp286
Rp287
sS'LPLIPAL1G161pp'
p288
g2
(g6
S'\xd6\xcd\xa7G\xcc\x08I@'
p289
tp290
Rp291
sS'DHFS'
p292
g2
(g6
S'G\x0f_q\xf6Dk@'
p293
tp294
Rp295
sS'CAT'
p296
g2
(g6
S'Cx\x00\x02+\xf0\xf4@'
p297
tp298
Rp299
sS'AMALT1'
p300
g2
(g6
S'\x93\x869d"\r&@'
p301
tp302
Rp303
sS'OGMEACPD'
p304
g2
(g6
S'ML\xa1f\xe3$\x92@'
p305
tp306
Rp307
sS'PGM'
p308
g2
(g6
S'\xf6\\\xe6P\xe2\xc1@@'
p309
tp310
Rp311
sS'PGK'
p312
g2
(g6
S'\xeaH|\xb8\xfck{@'
p313
tp314
Rp315
sS'ADK1'
p316
g2
(g6
S'\xfat\xb3\x18L\xb4E@'
p317
tp318
Rp319
sS'PLIPA2E141pp'
p320
g2
(g6
S'}\xeeTF\xd9#\xcf?'
p321
tp322
Rp323
sS'ACOATA'
p324
g2
(g6
S'\xa1\x03*Z\x85\xec\xc6?'
p325
tp326
Rp327
sS'ASPTRS'
p328
g2
(g6
S'\xd8\xc9$\xeb\xce\xaa\x01@'
p329
tp330
Rp331
sS'TRPTRS'
p332
g2
(g6
S'\xfb\xc33%+01@'
p333
tp334
Rp335
sS'PLIPA1G161pp'
p336
g2
(g6
S'1\x0bE@\x94Py?'
p337
tp338
Rp339
sS'KDOPS'
p340
g2
(g6
S'G\xad\x18\xfbjR\x8a@'
p341
tp342
Rp343
sS'SADH'
p344
g2
(g6
S'\xc0\xd8`\xa5K\xd3^@'
p345
tp346
Rp347
sS'PLIPA1A180pp'
p348
g2
(g6
S'1\x0bE@\x94Py?'
p349
tp350
Rp351
sS'LPLIPAL1A140pp'
p352
g2
(g6
S'\xd6\xcd\xa7G\xcc\x08I@'
p353
tp354
Rp355
sS'OHPBAT'
p356
g2
(g6
S'h\xb6=\x89\xa64\x96@'
p357
tp358
Rp359
sS'UAAGDS'
p360
g2
(g6
S'\xe1\x1d\xfa\x9a\x05Su@'
p361
tp362
Rp363
sS'GLCP2'
p364
g2
(g6
S'\xd5\xbc\x9f_U!3@'
p365
tp366
Rp367
sS'PLIPA2E180pp'
p368
g2
(g6
S'}\xeeTF\xd9#\xcf?'
p369
tp370
Rp371
sS'DUTPDP'
p372
g2
(g6
S'{\xa4\xaf.\xfa\xe9\x11@'
p373
tp374
Rp375
sS'LPLIPAL1E161pp'
p376
g2
(g6
S'\xd6\xcd\xa7G\xcc\x08I@'
p377
tp378
Rp379
sS'CYSSADS'
p380
g2
(g6
S'\xb1\xdd\xaa\xe0;H\x00@'
p381
tp382
Rp383
sS'PAPSR'
p384
g2
(g6
S'\xcb\xd8S\x95\xb4\xaf\xc6?'
p385
tp386
Rp387
sS'PGI'
p388
g2
(g6
S'g`3Q\x08\x9ba@'
p389
tp390
Rp391
sS'PLIPA1A161pp'
p392
g2
(g6
S'1\x0bE@\x94Py?'
p393
tp394
Rp395
sS'DHDPRy'
p396
g2
(g6
S'\xcb79I\x98;\xda?'
p397
tp398
Rp399
sS'ACOAD2f'
p400
g2
(g6
S'/\x81\xa2!\x03/\xd6?'
p401
tp402
Rp403
sS'LYSTRS'
p404
g2
(g6
S'\xbd0\x91(7\x08\r@'
p405
tp406
Rp407
sS'DDGLK'
p408
g2
(g6
S'\x06\x0c\x9e,\x9a\xa8\xca?'
p409
tp410
Rp411
sS'PLIPA1E161pp'
p412
g2
(g6
S'1\x0bE@\x94Py?'
p413
tp414
Rp415
sS'PPKr'
p416
g2
(g6
S'\xcdM\xa1\xd2&\xc0\xd5?'
p417
tp418
Rp419
sS'TPI'
p420
g2
(g6
S']/\xb3\xb8\xcf\x18\xc5@'
p421
tp422
Rp423
sS'ACONTa'
p424
g2
(g6
S'\xafS%\x19.5\xc8?'
p425
tp426
Rp427
sS'ACONTb'
p428
g2
(g6
S'\xafS%\x19.5\xc8?'
p429
tp430
Rp431
sS'3OAS60'
p432
g2
(g6
S'\x97J~\x06\x90\xa9b@'
p433
tp434
Rp435
sS'PRFGS'
p436
g2
(g6
S'Gq\x15,\xd4\xbd\xc5?'
p437
tp438
Rp439
sS'DAPDC'
p440
g2
(g6
S'o^\xcaB\x00*\xd7?'
p441
tp442
Rp443
sS'3OAS140'
p444
g2
(g6
S'\x97J~\x06\x90\xa9b@'
p445
tp446
Rp447
sS'3OAS141'
p448
g2
(g6
S'\x1d\x10\xc9\xdb\xfa\xddE@'
p449
tp450
Rp451
sS'PSSA161'
p452
g2
(g6
S'\x83\xa5\xbd\xcdt~j@'
p453
tp454
Rp455
sS'PSSA160'
p456
g2
(g6
S'\x83\xa5\xbd\xcdt~j@'
p457
tp458
Rp459
sS'PYK'
p460
g2
(g6
S'\xc9->\x0f\xcc\x87h@'
p461
tp462
Rp463
sS'ATPS4rpp'
p464
g2
(g6
S'\x17\xf1\xd90\xecxN@'
p465
tp466
Rp467
sS'XAND'
p468
g2
(g6
S'\xa3\xee\xc9l\x881\x1a@'
p469
tp470
Rp471
sS'CYTK1'
p472
g2
(g6
S'\xd5\r\x83\xe7\x1e\x95\x15@'
p473
tp474
Rp475
sS'CYTK2'
p476
g2
(g6
S'\xd5\r\x83\xe7\x1e\x95\x15@'
p477
tp478
Rp479
sS'NTP3'
p480
g2
(g6
S'\xbfVO\xc9\xaa0T@'
p481
tp482
Rp483
sS'NTP1'
p484
g2
(g6
S'\xbfVO\xc9\xaa0T@'
p485
tp486
Rp487
sS'HACD5i'
p488
g2
(g6
S'W\x7faYC,E@'
p489
tp490
Rp491
sS'NTP5'
p492
g2
(g6
S'\xbfVO\xc9\xaa0T@'
p493
tp494
Rp495
sS'ACOAD7f'
p496
g2
(g6
S'/\x81\xa2!\x03/\xd6?'
p497
tp498
Rp499
sS'FUM'
p500
g2
(g6
S'hA\x14c\xa1\xaaZ@'
p501
tp502
Rp503
sS'PLIPA2E120pp'
p504
g2
(g6
S'}\xeeTF\xd9#\xcf?'
p505
tp506
Rp507
sS'DAPE'
p508
g2
(g6
S'\xae\x95\\\xd7\xbb\xe9\xf0?'
p509
tp510
Rp511
sS'EAR120x'
p512
g2
(g6
S'c\xc6`\xbc\xc8~\x11@'
p513
tp514
Rp515
sS'EAR120y'
p516
g2
(g6
S'%\xe9[\xdf;\xa8#@'
p517
tp518
Rp519
sS'DCTPD'
p520
g2
(g6
S'\xa0\xcbi\xbd\xf2\xef\xe8?'
p521
tp522
Rp523
sS'UPP3MT'
p524
g2
(g6
S'\xb3\x11\xea\xaa\x99\x81\xf2?'
p525
tp526
Rp527
sS'FMNAT'
p528
g2
(g6
S'\x93\x94\x82\xb0p\x11K?'
p529
tp530
Rp531
sS'DHBS'
p532
g2
(g6
S'\x1aJr\x10^\xbd\xc8?'
p533
tp534
Rp535
sS'ENO'
p536
g2
(g6
S'\xa0FXP\n\x9fH@'
p537
tp538
Rp539
sS'PLIPA1A181pp'
p540
g2
(g6
S'1\x0bE@\x94Py?'
p541
tp542
Rp543
sS'LPLIPAL1A141pp'
p544
g2
(g6
S'\xd6\xcd\xa7G\xcc\x08I@'
p545
tp546
Rp547
sS'AMALT4'
p548
g2
(g6
S'\x93\x869d"\r&@'
p549
tp550
Rp551
sS'AMALT3'
p552
g2
(g6
S'\x93\x869d"\r&@'
p553
tp554
Rp555
sS'AMALT2'
p556
g2
(g6
S'\x93\x869d"\r&@'
p557
tp558
Rp559
sS'ACACT5r'
p560
g2
(g6
S'A/\xa0G\xcdA\x91@'
p561
tp562
Rp563
sS'3HAD180'
p564
g2
(g6
S'Hh\x9e\x8a1j\x97@'
p565
tp566
Rp567
sS'3HAD181'
p568
g2
(g6
S'Hh\x9e\x8a1j\x97@'
p569
tp570
Rp571
sS'G3PAT141'
p572
g2
(g6
S'\x90\x8aLT\x85\x9au@'
p573
tp574
Rp575
sS'ACOAD6f'
p576
g2
(g6
S'/\x81\xa2!\x03/\xd6?'
p577
tp578
Rp579
sS'ADSS'
p580
g2
(g6
S'\x12e\x88d=\x9d\xd4?'
p581
tp582
Rp583
sS'SHSL1'
p584
g2
(g6
S'\x17\x9e+\xd1v\xadn@'
p585
tp586
Rp587
sS'GRXR'
p588
g2
(g6
S'm][\xfa\xa6\x0f\xa0@'
p589
tp590
Rp591
sS'PPA2'
p592
g2
(g6
S'\x93y\x80?s\n?@'
p593
tp594
Rp595
sS'G5SD'
p596
g2
(g6
S'\x8c\xf1\xed\x973\xf1x@'
p597
tp598
Rp599
sS'VALTRS'
p600
g2
(g6
S'\xe0\xfa\x0b\xdf\xb3\x08\x01@'
p601
tp602
Rp603
sS'PLIPA2A141pp'
p604
g2
(g6
S'}\xeeTF\xd9#\xcf?'
p605
tp606
Rp607
sS'LPLIPAL1G141pp'
p608
g2
(g6
S'\xd6\xcd\xa7G\xcc\x08I@'
p609
tp610
Rp611
sS'SERTRS'
p612
g2
(g6
S'k`\xe9?\xc9\x83\xd4?'
p613
tp614
Rp615
sS'3OAS100'
p616
g2
(g6
S'\x97J~\x06\x90\xa9b@'
p617
tp618
Rp619
sS'CYSDS'
p620
g2
(g6
S'\xbd\xc6\xc0\xfb\xf0\xdc\xdf?'
p621
tp622
Rp623
sS'G3PAT180'
p624
g2
(g6
S'\x90\x8aLT\x85\x9au@'
p625
tp626
Rp627
sS'G3PAT181'
p628
g2
(g6
S'\x90\x8aLT\x85\x9au@'
p629
tp630
Rp631
sS'AMPTASECG'
p632
g2
(g6
S'\xb7\xf7vHG\x05\x91@'
p633
tp634
Rp635
sS'TDPDRR'
p636
g2
(g6
S'\xda\x9e\x19<\xbb\xd1\xd4?'
p637
tp638
Rp639
sS'PSSA120'
p640
g2
(g6
S'\x83\xa5\xbd\xcdt~j@'
p641
tp642
Rp643
sS'PLIPA1G120pp'
p644
g2
(g6
S'1\x0bE@\x94Py?'
p645
tp646
Rp647
sS'GALM2pp'
p648
g2
(g6
S'\x8d\x92<+?cr@'
p649
tp650
Rp651
sS'THRTRS'
p652
g2
(g6
S'j\xd9\xa0\x08\xd2\x1b\x07@'
p653
tp654
Rp655
sS'SSALy'
p656
g2
(g6
S'\x14J\xe8\n\xb6My@'
p657
tp658
Rp659
sS'LPLIPAL1E181pp'
p660
g2
(g6
S'\xd6\xcd\xa7G\xcc\x08I@'
p661
tp662
Rp663
sS'PGAMT'
p664
g2
(g6
S'\x80\x90\xc4i\x07\xde\xc9?'
p665
tp666
Rp667
sS'THRA2i'
p668
g2
(g6
S'\x14>p\xc1\xb8\x9d\x1e@'
p669
tp670
Rp671
sS'SERD_L'
p672
g2
(g6
S'4\x19\x10\x83\t\xb2\x03@'
p673
tp674
Rp675
sS'HACD1i'
p676
g2
(g6
S'W\x7faYC,E@'
p677
tp678
Rp679
sS'OPMEACPD'
p680
g2
(g6
S'ML\xa1f\xe3$\x92@'
p681
tp682
Rp683
sS'PLIPA2G120pp'
p684
g2
(g6
S'}\xeeTF\xd9#\xcf?'
p685
tp686
Rp687
sS'LPLIPAL1G180pp'
p688
g2
(g6
S'\xd6\xcd\xa7G\xcc\x08I@'
p689
tp690
Rp691
sS'OPMEACPS'
p692
g2
(g6
S'\x1d\x10\xc9\xdb\xfa\xddE@'
p693
tp694
Rp695
sS'NADH17pp'
p696
g2
(g6
S'\xb0\xe70s\x94\xf6 @'
p697
tp698
Rp699
sS'HACD8i'
p700
g2
(g6
S'W\x7faYC,E@'
p701
tp702
Rp703
sS'NDPK8'
p704
g2
(g6
S'\xda\x87\x9b)[^\xaa@'
p705
tp706
Rp707
sS'NDPK2'
p708
g2
(g6
S'\xda\x87\x9b)[^\xaa@'
p709
tp710
Rp711
sS'NDPK3'
p712
g2
(g6
S'\xda\x87\x9b)[^\xaa@'
p713
tp714
Rp715
sS'NDPK1'
p716
g2
(g6
S'\xda\x87\x9b)[^\xaa@'
p717
tp718
Rp719
sS'NDPK6'
p720
g2
(g6
S'\xda\x87\x9b)[^\xaa@'
p721
tp722
Rp723
sS'NDPK7'
p724
g2
(g6
S'\xda\x87\x9b)[^\xaa@'
p725
tp726
Rp727
sS'NDPK4'
p728
g2
(g6
S'\xda\x87\x9b)[^\xaa@'
p729
tp730
Rp731
sS'NDPK5'
p732
g2
(g6
S'\xda\x87\x9b)[^\xaa@'
p733
tp734
Rp735
sS'PLIPA2G180pp'
p736
g2
(g6
S'}\xeeTF\xd9#\xcf?'
p737
tp738
Rp739
sS'MCOATA'
p740
g2
(g6
S'.\xcdO\xe9\t\xf1_@'
p741
tp742
Rp743
sS'PLIPA1A120pp'
p744
g2
(g6
S'1\x0bE@\x94Py?'
p745
tp746
Rp747
sS'G3PD2'
p748
g2
(g6
S'[\x81\xcc\xf6(N\x80@'
p749
tp750
Rp751
sS'ACACT1r'
p752
g2
(g6
S'\x91\xb8\x91l|%I@'
p753
tp754
Rp755
sS'DTMPK'
p756
g2
(g6
S'\x9e\x87\xac.\xdc\x8a\xb2?'
p757
tp758
Rp759
sS'G3PD5'
p760
g2
(g6
S'\x0f\xa8\x88\x0cJ\x9fq@'
p761
tp762
Rp763
sS'EAR140x'
p764
g2
(g6
S'c\xc6`\xbc\xc8~\x11@'
p765
tp766
Rp767
sS'EAR140y'
p768
g2
(g6
S'%\xe9[\xdf;\xa8#@'
p769
tp770
Rp771
sS'PFK_3'
p772
g2
(g6
S'\xde\x88 \xc0W\x8d\x19@'
p773
tp774
Rp775
sS'PFK_2'
p776
g2
(g6
S'\xde\x88 \xc0W\x8d\x19@'
p777
tp778
Rp779
sS'ALLTAMH'
p780
g2
(g6
S'\xb5\x92\xda3\xd8R\x1a@'
p781
tp782
Rp783
sS'TMDS'
p784
g2
(g6
S'b8ch\x9c\x02\xd1?'
p785
tp786
Rp787
sS'3HAD40'
p788
g2
(g6
S'Hh\x9e\x8a1j\x97@'
p789
tp790
Rp791
sS'GLYCLTDy'
p792
g2
(g6
S'\x02\x87_\x93R\x9d\xec?'
p793
tp794
Rp795
sS'G3PAT161'
p796
g2
(g6
S'\x90\x8aLT\x85\x9au@'
p797
tp798
Rp799
sS'GHMT2r'
p800
g2
(g6
S'\xbb\x8aE\xd7\xfde#@'
p801
tp802
Rp803
sS'UPPDC1'
p804
g2
(g6
S'\xfcH\xbd\xb2\xdb\xde{?'
p805
tp806
Rp807
sS'NADH18pp'
p808
g2
(g6
S'\xb0\xe70s\x94\xf6 @'
p809
tp810
Rp811
sS'3HAD160'
p812
g2
(g6
S'Hh\x9e\x8a1j\x97@'
p813
tp814
Rp815
sS'3HAD161'
p816
g2
(g6
S'Hh\x9e\x8a1j\x97@'
p817
tp818
Rp819
sS'ACOTA'
p820
g2
(g6
S'+\x99\x06v5\xb9\xc1?'
p821
tp822
Rp823
sS'ALCD2x'
p824
g2
(g6
S'\xe6\xd5\x13?\xa02o@'
p825
tp826
Rp827
sS'PLIPA1E181pp'
p828
g2
(g6
S'1\x0bE@\x94Py?'
p829
tp830
Rp831
sS'PPGPPDP'
p832
g2
(g6
S'\x98\xeb;\x8f\xfe_\x8d?'
p833
tp834
Rp835
sS'GAPD'
p836
g2
(g6
S'"/\xdf\xe6\\lg@'
p837
tp838
Rp839
sS'EPMEACPR'
p840
g2
(g6
S'%\xe9[\xdf;\xa8#@'
p841
tp842
Rp843
sS'EAR40x'
p844
g2
(g6
S'c\xc6`\xbc\xc8~\x11@'
p845
tp846
Rp847
sS'EAR40y'
p848
g2
(g6
S'%\xe9[\xdf;\xa8#@'
p849
tp850
Rp851
sS'LPLIPAL1E120pp'
p852
g2
(g6
S'\xd6\xcd\xa7G\xcc\x08I@'
p853
tp854
Rp855
sS'GMPR'
p856
g2
(g6
S'\x0e\xd3\xa0\xcd\xa3~u@'
p857
tp858
Rp859
sS'SERTRS2'
p860
g2
(g6
S'k`\xe9?\xc9\x83\xd4?'
p861
tp862
Rp863
sS'EGMEACPR'
p864
g2
(g6
S'%\xe9[\xdf;\xa8#@'
p865
tp866
Rp867
sS'THRD_L'
p868
g2
(g6
S'\xa1\xe94\xc9\xe4@\x1e@'
p869
tp870
Rp871
sS'GLYOX'
p872
g2
(g6
S'\x8c\x91)\xda\x1b\x17G@'
p873
tp874
Rp875
sS'DHQS'
p876
g2
(g6
S'\xdfw\x10\xa1f\x0b\xd9?'
p877
tp878
Rp879
sS'PLIPA1E140pp'
p880
g2
(g6
S'1\x0bE@\x94Py?'
p881
tp882
Rp883
sS'MDDCP1pp'
p884
g2
(g6
S'\xa3v\xb0\xf4@\\1@'
p885
tp886
Rp887
sS'GK1'
p888
g2
(g6
S'\xe0}\x8a\xa2\xdd\\/@'
p889
tp890
Rp891
sS'ACACT6r'
p892
g2
(g6
S'A/\xa0G\xcdA\x91@'
p893
tp894
Rp895
sS'MALS'
p896
g2
(g6
S'\xee\xf6nn\x94\x81\x8c@'
p897
tp898
Rp899
sS'UAPGR'
p900
g2
(g6
S'b;7\x896\xfa]@'
p901
tp902
Rp903
sS'GRTT'
p904
g2
(g6
S'lX+,\xa1I\x81?'
p905
tp906
Rp907
sS'GLNTRS'
p908
g2
(g6
S'\xa1\x9f\xcd\x873\x90\xc5?'
p909
tp910
Rp911
sS'UMPK'
p912
g2
(g6
S"6\x08\x1c\x1bJS'@"
p913
tp914
Rp915
sS'GCALDD'
p916
g2
(g6
S'\x08\x03\xc6s\xce\xb9w@'
p917
tp918
Rp919
sS'ECOAH8'
p920
g2
(g6
S'\xd8W2\xa9H\x82`@'
p921
tp922
Rp923
sS'ECOAH6'
p924
g2
(g6
S'\xd8W2\xa9H\x82`@'
p925
tp926
Rp927
sS'AMPTASEPG'
p928
g2
(g6
S'\xb7\xf7vHG\x05\x91@'
p929
tp930
Rp931
sS'ECOAH4'
p932
g2
(g6
S'\xd8W2\xa9H\x82`@'
p933
tp934
Rp935
sS'ECOAH5'
p936
g2
(g6
S'\xd8W2\xa9H\x82`@'
p937
tp938
Rp939
sS'ECOAH2'
p940
g2
(g6
S'\xd8W2\xa9H\x82`@'
p941
tp942
Rp943
sS'ECOAH3'
p944
g2
(g6
S'\xd8W2\xa9H\x82`@'
p945
tp946
Rp947
sS'ECOAH1'
p948
g2
(g6
S'\xd8W2\xa9H\x82`@'
p949
tp950
Rp951
sS'MICITDr'
p952
g2
(g6
S'\xee\xde\x07\x89\xefR\x8a@'
p953
tp954
Rp955
sS'G3PAT120'
p956
g2
(g6
S'\x90\x8aLT\x85\x9au@'
p957
tp958
Rp959
sS'ACOAD3f'
p960
g2
(g6
S'/\x81\xa2!\x03/\xd6?'
p961
tp962
Rp963
sS'POR5'
p964
g2
(g6
S'F\x0f`\x8e\x99\x05B@'
p965
tp966
Rp967
sS'L_LACD2'
p968
g2
(g6
S'\x1b\x02\xf83\x8c\xdb\xd9?'
p969
tp970
Rp971
sS'L_LACD3'
p972
g2
(g6
S'\x1b\x02\xf83\x8c\xdb\xd9?'
p973
tp974
Rp975
sS'3HAD120'
p976
g2
(g6
S'Hh\x9e\x8a1j\x97@'
p977
tp978
Rp979
sS'3HAD121'
p980
g2
(g6
S'Hh\x9e\x8a1j\x97@'
p981
tp982
Rp983
sS'ARGDCpp'
p984
g2
(g6
S'\x0fk\xd9B\xa9\x10\xd3?'
p985
tp986
Rp987
sS'UAGCVT'
p988
g2
(g6
S'\x98\xf6\xca9UW\xcd?'
p989
tp990
Rp991
sS'NO3R2bpp'
p992
g2
(g6
S'\xa0jd\t\x97\x9a\xc6?'
p993
tp994
Rp995
sS'A5PISO'
p996
g2
(g6
S'\x19\xe6i\xd5\xbe\xfc\x08@'
p997
tp998
Rp999
sS'THRAi'
p1000
g2
(g6
S'\x14>p\xc1\xb8\x9d\x1e@'
p1001
tp1002
Rp1003
sS'ARGSS'
p1004
g2
(g6
S'\x81IfiV\x1c\x90@'
p1005
tp1006
Rp1007
sS'NO3R1pp'
p1008
g2
(g6
S'\xcbi\xf6o_\xff\xef?'
p1009
tp1010
Rp1011
sS'PPCDC'
p1012
g2
(g6
S'\x05\xc2\xc15-\x90\xa5?'
p1013
tp1014
Rp1015
sS'NADH16pp'
p1016
g2
(g6
S'\xb0\xe70s\x94\xf6 @'
p1017
tp1018
Rp1019
sS'HACD6i'
p1020
g2
(g6
S'W\x7faYC,E@'
p1021
tp1022
Rp1023
sS'GLCP'
p1024
g2
(g6
S'\xd5\xbc\x9f_U!3@'
p1025
tp1026
Rp1027
sS'PLIPA1G180pp'
p1028
g2
(g6
S'1\x0bE@\x94Py?'
p1029
tp1030
Rp1031
sS'UGMDDS'
p1032
g2
(g6
S'\x01o\x95#0xp@'
p1033
tp1034
Rp1035
sS'PAPSR2'
p1036
g2
(g6
S'\xb73x\xd8\xb1\xaa\xd3?'
p1037
tp1038
Rp1039
sS'PLIPA2G141pp'
p1040
g2
(g6
S'}\xeeTF\xd9#\xcf?'
p1041
tp1042
Rp1043
sS'PUNP4'
p1044
g2
(g6
S'\xf2\x1a\xd3\xd5sS\x8c@'
p1045
tp1046
Rp1047
sS'PUNP5'
p1048
g2
(g6
S'\xf2\x1a\xd3\xd5sS\x8c@'
p1049
tp1050
Rp1051
sS'PUNP6'
p1052
g2
(g6
S'\xf2\x1a\xd3\xd5sS\x8c@'
p1053
tp1054
Rp1055
sS'PUNP1'
p1056
g2
(g6
S'\xf2\x1a\xd3\xd5sS\x8c@'
p1057
tp1058
Rp1059
sS'PUNP2'
p1060
g2
(g6
S'\xf2\x1a\xd3\xd5sS\x8c@'
p1061
tp1062
Rp1063
sS'PUNP3'
p1064
g2
(g6
S'\xf2\x1a\xd3\xd5sS\x8c@'
p1065
tp1066
Rp1067
sS'ASNN'
p1068
g2
(g6
S'\xcf\xc6<b\xacz,@'
p1069
tp1070
Rp1071
sS'PLIPA1A140pp'
p1072
g2
(g6
S'1\x0bE@\x94Py?'
p1073
tp1074
Rp1075
sS'ECOAH7'
p1076
g2
(g6
S'\xd8W2\xa9H\x82`@'
p1077
tp1078
Rp1079
sS'PDX5POi'
p1080
g2
(g6
S'\xd6\x9b]B\xb3\xb4\xd4?'
p1081
tp1082
Rp1083
sS'LPLIPAL1G160pp'
p1084
g2
(g6
S'\xd6\xcd\xa7G\xcc\x08I@'
p1085
tp1086
Rp1087
sS'PLIPA2A120pp'
p1088
g2
(g6
S'}\xeeTF\xd9#\xcf?'
p1089
tp1090
Rp1091
sS'ACKr'
p1092
g2
(g6
S'\xc7R]\xa7\x1dU\x80@'
p1093
tp1094
Rp1095
sS'NADH10'
p1096
g2
(g6
S'\x8b\xb2U\xeb\xf1\xc62@'
p1097
tp1098
Rp1099
sS'ACACT2r'
p1100
g2
(g6
S'A/\xa0G\xcdA\x91@'
p1101
tp1102
Rp1103
sS'PPC'
p1104
g2
(g6
S'd\xcf\x96\x8e\xb8\x0f@@'
p1105
tp1106
Rp1107
sS'PPA'
p1108
g2
(g6
S'\xf4\xd3Oc\xc1\x88\x80@'
p1109
tp1110
Rp1111
sS'PLIPA2E181pp'
p1112
g2
(g6
S'}\xeeTF\xd9#\xcf?'
p1113
tp1114
Rp1115
sS'METTRS'
p1116
g2
(g6
S'E\x85:z\xbd9\xfb?'
p1117
tp1118
Rp1119
sS'PPM'
p1120
g2
(g6
S'\xbdV7(69\x10@'
p1121
tp1122
Rp1123
sS'PPS'
p1124
g2
(g6
S'7\xf3\xa4$\xcc\xe0F@'
p1125
tp1126
Rp1127
sS'PLIPA2A161pp'
p1128
g2
(g6
S'}\xeeTF\xd9#\xcf?'
p1129
tp1130
Rp1131
sS'PLIPA1G160pp'
p1132
g2
(g6
S'1\x0bE@\x94Py?'
p1133
tp1134
Rp1135
sS'PLIPA2E140pp'
p1136
g2
(g6
S'}\xeeTF\xd9#\xcf?'
p1137
tp1138
Rp1139
sS'PYAM5PO'
p1140
g2
(g6
S'\xd6\x9b]B\xb3\xb4\xd4?'
p1141
tp1142
Rp1143
sS'3OAS80'
p1144
g2
(g6
S'\x97J~\x06\x90\xa9b@'
p1145
tp1146
Rp1147
sS'PLIPA2G161pp'
p1148
g2
(g6
S'}\xeeTF\xd9#\xcf?'
p1149
tp1150
Rp1151
sS'DADK'
p1152
g2
(g6
S'\rt;`\xf4\xd8\x8e@'
p1153
tp1154
Rp1155
sS'PSSA141'
p1156
g2
(g6
S'\x83\xa5\xbd\xcdt~j@'
p1157
tp1158
Rp1159
sS'PSSA140'
p1160
g2
(g6
S'\x83\xa5\xbd\xcdt~j@'
p1161
tp1162
Rp1163
sS'EAR100x'
p1164
g2
(g6
S'c\xc6`\xbc\xc8~\x11@'
p1165
tp1166
Rp1167
sS'EAR100y'
p1168
g2
(g6
S'%\xe9[\xdf;\xa8#@'
p1169
tp1170
Rp1171
sS'LPLIPAL1E160pp'
p1172
g2
(g6
S'\xd6\xcd\xa7G\xcc\x08I@'
p1173
tp1174
Rp1175
sS'PSERT'
p1176
g2
(g6
S'h\xb6=\x89\xa64\x96@'
p1177
tp1178
Rp1179
sS'LPLIPAL1A181pp'
p1180
g2
(g6
S'\xd6\xcd\xa7G\xcc\x08I@'
p1181
tp1182
Rp1183
sS'PLIPA1A160pp'
p1184
g2
(g6
S'1\x0bE@\x94Py?'
p1185
tp1186
Rp1187
sS'LPADSS'
p1188
g2
(g6
S'_H\xf0\x06\x02kY@'
p1189
tp1190
Rp1191
sS'EAR161y'
p1192
g2
(g6
S'%\xe9[\xdf;\xa8#@'
p1193
tp1194
Rp1195
sS'EAR161x'
p1196
g2
(g6
S'c\xc6`\xbc\xc8~\x11@'
p1197
tp1198
Rp1199
sS'NNDPR'
p1200
g2
(g6
S'l\x11,\xd1*G\x88?'
p1201
tp1202
Rp1203
sS'PLIPA1E160pp'
p1204
g2
(g6
S'1\x0bE@\x94Py?'
p1205
tp1206
Rp1207
sS'RBFK'
p1208
g2
(g6
S'\xac"Z\xbaC9{?'
p1209
tp1210
Rp1211
sS'DHFR'
p1212
g2
(g6
S',R\xac\x92n*\x1d@'
p1213
tp1214
Rp1215
sS'RPI'
p1216
g2
(g6
S'uZ\x92o\xf6\x03\xae@'
p1217
tp1218
Rp1219
sS'PLIPA2E161pp'
p1220
g2
(g6
S'}\xeeTF\xd9#\xcf?'
p1221
tp1222
Rp1223
sS'HACD2i'
p1224
g2
(g6
S'W\x7faYC,E@'
p1225
tp1226
Rp1227
sS'NADS1'
p1228
g2
(g6
S'\xe6\x05*/\x97\x88\x9a?'
p1229
tp1230
Rp1231
sS'TREH'
p1232
g2
(g6
S'L&Lm\x0b\xaa\xd4?'
p1233
tp1234
Rp1235
sS'GLGC'
p1236
g2
(g6
S'\xd4e\xf1\xb6\xb7< @'
p1237
tp1238
Rp1239
sS'TKT2'
p1240
g2
(g6
S'Fiv]\xf2\x8a\xe3@'
p1241
tp1242
Rp1243
sS'TKT1'
p1244
g2
(g6
S'Fiv]\xf2\x8a\xe3@'
p1245
tp1246
Rp1247
sS'TRDR'
p1248
g2
(g6
S'\xfd+t\x15\x9b\xfe`@'
p1249
tp1250
Rp1251
sS'2DGULRGy'
p1252
g2
(g6
S'\xbf\xaeS"\x9a\x03\x85@'
p1253
tp1254
Rp1255
sS'PLIPA2G140pp'
p1256
g2
(g6
S'}\xeeTF\xd9#\xcf?'
p1257
tp1258
Rp1259
sS'PPM2'
p1260
g2
(g6
S'"DB\x02\x0b\xdf\x0e@'
p1261
tp1262
Rp1263
sS'RNDR4'
p1264
g2
(g6
S'\\8y.\xf3\t\xe0?'
p1265
tp1266
Rp1267
sS'RNDR3'
p1268
g2
(g6
S'\\8y.\xf3\t\xe0?'
p1269
tp1270
Rp1271
sS'RNDR2'
p1272
g2
(g6
S'\\8y.\xf3\t\xe0?'
p1273
tp1274
Rp1275
sS'RNDR1'
p1276
g2
(g6
S'\\8y.\xf3\t\xe0?'
p1277
tp1278
Rp1279
sS'PLIPA1A141pp'
p1280
g2
(g6
S'1\x0bE@\x94Py?'
p1281
tp1282
Rp1283
sS'KDOCT2'
p1284
g2
(g6
S'\xdc\xf0\x04}Bpw@'
p1285
tp1286
Rp1287
sS'LEUTRS'
p1288
g2
(g6
S'\xb3\x00\x0f\xf7\xcbA\x11@'
p1289
tp1290
Rp1291
sS'PROD2'
p1292
g2
(g6
S')R\xdb\xffMJ\x9a?'
p1293
tp1294
Rp1295
sS'GLUR'
p1296
g2
(g6
S'\xd4\xb5\xbb\xb4\x17i\x93@'
p1297
tp1298
Rp1299
sS'GLUN'
p1300
g2
(g6
S'Hb\x15j\xbc\xbcH@'
p1301
tp1302
Rp1303
sS'PGMT'
p1304
g2
(g6
S'8Z\xa7a\n\xba.@'
p1305
tp1306
Rp1307
sS'ACALD'
p1308
g2
(g6
S'\x0bR\xe6\x9b\xc78\x90@'
p1309
tp1310
Rp1311
sS'ACOAD4f'
p1312
g2
(g6
S'/\x81\xa2!\x03/\xd6?'
p1313
tp1314
Rp1315
sS'PLIPA2A160pp'
p1316
g2
(g6
S'}\xeeTF\xd9#\xcf?'
p1317
tp1318
Rp1319
sS'MDDCP5pp'
p1320
g2
(g6
S'\xa3v\xb0\xf4@\\1@'
p1321
tp1322
Rp1323
sS'DGK1'
p1324
g2
(g6
S'\xe0}\x8a\xa2\xdd\\/@'
p1325
tp1326
Rp1327
sS'GDPTPDP'
p1328
g2
(g6
S'\x98\xeb;\x8f\xfe_\x8d?'
p1329
tp1330
Rp1331
sS'GLUCYS'
p1332
g2
(g6
S'\xcd\x99\xa4\x84\x8b7t@'
p1333
tp1334
Rp1335
sS'3OAS160'
p1336
g2
(g6
S'\x97J~\x06\x90\xa9b@'
p1337
tp1338
Rp1339
sS'3OAS161'
p1340
g2
(g6
S'\x1d\x10\xc9\xdb\xfa\xddE@'
p1341
tp1342
Rp1343
sS'3HAD80'
p1344
g2
(g6
S'Hh\x9e\x8a1j\x97@'
p1345
tp1346
Rp1347
sS'ADNK1'
p1348
g2
(g6
S'\xe6Q\t\xc8!#\xf4?'
p1349
tp1350
Rp1351
sS'PLIPA2G160pp'
p1352
g2
(g6
S'}\xeeTF\xd9#\xcf?'
p1353
tp1354
Rp1355
sS'NADH5'
p1356
g2
(g6
S'\x8b\xb2U\xeb\xf1\xc62@'
p1357
tp1358
Rp1359
sS'NADH9'
p1360
g2
(g6
S'\x8b\xb2U\xeb\xf1\xc62@'
p1361
tp1362
Rp1363
sS'CHORM'
p1364
g2
(g6
S'\xaa{\x85\x85\xf4>\xd1@'
p1365
tp1366
Rp1367
sS'PLIPA1E120pp'
p1368
g2
(g6
S'1\x0bE@\x94Py?'
p1369
tp1370
Rp1371
sS'G6PP'
p1372
g2
(g6
S'\xe0\x1bd\x81\x8a\xc8\x10@'
p1373
tp1374
Rp1375
sS'HACD7i'
p1376
g2
(g6
S'W\x7faYC,E@'
p1377
tp1378
Rp1379
sS'GMPS2'
p1380
g2
(g6
S'\xa2\xa6A\xe8\xf0\x0b\x8e?'
p1381
tp1382
Rp1383
sS'ORNDC'
p1384
g2
(g6
S'\x19E\xc1\xe4\xdc\x86\xe3?'
p1385
tp1386
Rp1387
sS'ALAR'
p1388
g2
(g6
S'\x96\x80\x0e\x90\x18,T@'
p1389
tp1390
Rp1391
sS'ME2'
p1392
g2
(g6
S'd\xc9\xe0\x90\x10\xa5V@'
p1393
tp1394
Rp1395
sS'DMATT'
p1396
g2
(g6
S'u\xc7\xf4\xf5S\xb2\x98?'
p1397
tp1398
Rp1399
sS'LPLIPAL1G140pp'
p1400
g2
(g6
S'\xd6\xcd\xa7G\xcc\x08I@'
p1401
tp1402
Rp1403
sS'PLIPA2A140pp'
p1404
g2
(g6
S'}\xeeTF\xd9#\xcf?'
p1405
tp1406
Rp1407
sS'ACACT8r'
p1408
g2
(g6
S'A/\xa0G\xcdA\x91@'
p1409
tp1410
Rp1411
sS'EAR60x'
p1412
g2
(g6
S'c\xc6`\xbc\xc8~\x11@'
p1413
tp1414
Rp1415
sS'EAR60y'
p1416
g2
(g6
S'%\xe9[\xdf;\xa8#@'
p1417
tp1418
Rp1419
sS'ACACT7r'
p1420
g2
(g6
S'A/\xa0G\xcdA\x91@'
p1421
tp1422
Rp1423
sS'PLIPA2A181pp'
p1424
g2
(g6
S'}\xeeTF\xd9#\xcf?'
p1425
tp1426
Rp1427
sS'ALTRH'
p1428
g2
(g6
S'\xa1\x1f,\xad\xa7rA@'
p1429
tp1430
Rp1431
sS'LPLIPAL1E180pp'
p1432
g2
(g6
S'\xd6\xcd\xa7G\xcc\x08I@'
p1433
tp1434
Rp1435
sS'PLIPA2E160pp'
p1436
g2
(g6
S'}\xeeTF\xd9#\xcf?'
p1437
tp1438
Rp1439
sS'FBA'
p1440
g2
(g6
S'\xd1\x1b\x7fK\xac\xa0#@'
p1441
tp1442
Rp1443
sS'3HAD60'
p1444
g2
(g6
S'Hh\x9e\x8a1j\x97@'
p1445
tp1446
Rp1447
sS'PTRCTA'
p1448
g2
(g6
S'\x1c\x81\xf3\x95d\xc8z@'
p1449
tp1450
Rp1451
sS'LPLIPAL1E140pp'
p1452
g2
(g6
S'\xd6\xcd\xa7G\xcc\x08I@'
p1453
tp1454
Rp1455
sS'CPPPGO'
p1456
g2
(g6
S'\x1avAl\xabu\x81?'
p1457
tp1458
Rp1459
sS'ACOAD8f'
p1460
g2
(g6
S'/\x81\xa2!\x03/\xd6?'
p1461
tp1462
Rp1463
sS'UAGDP'
p1464
g2
(g6
S'\xd1,"P\xabG%@'
p1465
tp1466
Rp1467
sS'3HAD140'
p1468
g2
(g6
S'Hh\x9e\x8a1j\x97@'
p1469
tp1470
Rp1471
sS'3HAD141'
p1472
g2
(g6
S'Hh\x9e\x8a1j\x97@'
p1473
tp1474
Rp1475
sS'LPLIPAL1G181pp'
p1476
g2
(g6
S'\xd6\xcd\xa7G\xcc\x08I@'
p1477
tp1478
Rp1479
sS'ADMDC'
p1480
g2
(g6
S'2\xd6\x91\xaa\x0cq\xd6?'
p1481
tp1482
Rp1483
sS'GLUSy'
p1484
g2
(g6
S'L\xbe;{Q\x16\xf9?'
p1485
tp1486
Rp1487
sS'NADDP'
p1488
g2
(g6
S'\xbdB\x02\xe4\xaf\x1e\xf7>'
p1489
tp1490
Rp1491
sS'PLIPA2G181pp'
p1492
g2
(g6
S'}\xeeTF\xd9#\xcf?'
p1493
tp1494
Rp1495
sS'EAR181y'
p1496
g2
(g6
S'%\xe9[\xdf;\xa8#@'
p1497
tp1498
Rp1499
sS'EAR181x'
p1500
g2
(g6
S'c\xc6`\xbc\xc8~\x11@'
p1501
tp1502
Rp1503
sS'MDDCP4pp'
p1504
g2
(g6
S'\xa3v\xb0\xf4@\\1@'
p1505
tp1506
Rp1507
sS'NO3R1bpp'
p1508
g2
(g6
S'\xa0jd\t\x97\x9a\xc6?'
p1509
tp1510
Rp1511
sS'G3PAT160'
p1512
g2
(g6
S'\x90\x8aLT\x85\x9au@'
p1513
tp1514
Rp1515
sS'HSDy'
p1516
g2
(g6
S'#.\x98\xcd\xeb\xaa\xf4?'
p1517
tp1518
Rp1519
sS'METAT'
p1520
g2
(g6
S'\x9a0i\x86\xf06\xec?'
p1521
tp1522
Rp1523
sS'3OAS120'
p1524
g2
(g6
S'\x97J~\x06\x90\xa9b@'
p1525
tp1526
Rp1527
sS'3OAS121'
p1528
g2
(g6
S'\x1d\x10\xc9\xdb\xfa\xddE@'
p1529
tp1530
Rp1531
sS'ILETRS'
p1532
g2
(g6
S'\nT\xdf\xfe>E\x11@'
p1533
tp1534
Rp1535
sS'PFK'
p1536
g2
(g6
S'\x1cC\xb4`\xbf\xb4,@'
p1537
tp1538
Rp1539
sS'CTECOAI6'
p1540
g2
(g6
S'pC-#qM @'
p1541
tp1542
Rp1543
sS'CTECOAI7'
p1544
g2
(g6
S'pC-#qM @'
p1545
tp1546
Rp1547
sS'GLYAT'
p1548
g2
(g6
S'\x95\x0c?,\x98\xcac@'
p1549
tp1550
Rp1551
sS'ADSL1r'
p1552
g2
(g6
S'\xa2D=w\xe3\x11\xd0?'
p1553
tp1554
Rp1555
sS'MDDCP3pp'
p1556
g2
(g6
S'\xa3v\xb0\xf4@\\1@'
p1557
tp1558
Rp1559
sS'CTECOAI8'
p1560
g2
(g6
S'pC-#qM @'
p1561
tp1562
Rp1563
s.