(dp0
S'GHMT2r'
p1
cnumpy.core.multiarray
scalar
p2
(cnumpy
dtype
p3
(S'f8'
p4
I0
I1
tp5
Rp6
(I3
S'<'
p7
NNNI-1
I-1
I0
tp8
bS'\xbb\x8aE\xd7\xfde#@'
p9
tp10
Rp11
sS'3HAD160'
p12
g2
(g6
S'ML\xa1f\xe3$\x92@'
p13
tp14
Rp15
sS'3HAD161'
p16
g2
(g6
S'ML\xa1f\xe3$\x92@'
p17
tp18
Rp19
sS'ACACT4r'
p20
g2
(g6
S'A/\xa0G\xcdA\x91@'
p21
tp22
Rp23
sS'ACOTA'
p24
g2
(g6
S'+\x99\x06v5\xb9\xc1?'
p25
tp26
Rp27
sS'ALCD2x'
p28
g2
(g6
S'\xe6\xd5\x13?\xa02o@'
p29
tp30
Rp31
sS'LYSTRS'
p32
g2
(g6
S'\x89,\xd5\x99\xb0\xd1\x06@'
p33
tp34
Rp35
sS'GAPD'
p36
g2
(g6
S'"/\xdf\xe6\\lg@'
p37
tp38
Rp39
sS'KAS14'
p40
g2
(g6
S'\x97J~\x06\x90\xa9b@'
p41
tp42
Rp43
sS'TPI'
p44
g2
(g6
S']/\xb3\xb8\xcf\x18\xc5@'
p45
tp46
Rp47
sS'ACONTa'
p48
g2
(g6
S'\xafS%\x19.5\xc8?'
p49
tp50
Rp51
sS'NDPK2'
p52
g2
(g6
S'\xda\x87\x9b)[^\xaa@'
p53
tp54
Rp55
sS'ACONTb'
p56
g2
(g6
S'\xafS%\x19.5\xc8?'
p57
tp58
Rp59
sS'ACACT3r'
p60
g2
(g6
S'A/\xa0G\xcdA\x91@'
p61
tp62
Rp63
sS'3OAS60'
p64
g2
(g6
S'\x97J~\x06\x90\xa9b@'
p65
tp66
Rp67
sS'PHETA1'
p68
g2
(g6
S'\x83\xef(`\xad\xd9\xb4@'
p69
tp70
Rp71
sS'TKT2'
p72
g2
(g6
S'Fiv]\xf2\x8a\xe3@'
p73
tp74
Rp75
sS'TKT1'
p76
g2
(g6
S'Fiv]\xf2\x8a\xe3@'
p77
tp78
Rp79
sS'NDPK6'
p80
g2
(g6
S'\xda\x87\x9b)[^\xaa@'
p81
tp82
Rp83
sS'3OAS140'
p84
g2
(g6
S'\x97J~\x06\x90\xa9b@'
p85
tp86
Rp87
sS'3OAS141'
p88
g2
(g6
S'\x1d\x10\xc9\xdb\xfa\xddE@'
p89
tp90
Rp91
sS'PYK'
p92
g2
(g6
S'\xc9->\x0f\xcc\x87h@'
p93
tp94
Rp95
sS'THRD_L'
p96
g2
(g6
S'\xa1\xe94\xc9\xe4@\x1e@'
p97
tp98
Rp99
sS'ATPS4rpp'
p100
g2
(g6
S'V\xa3\x13\x8e-\xcb_@'
p101
tp102
Rp103
sS'G3PAT140'
p104
g2
(g6
S'\x84\xe1j\x1b-E\x99@'
p105
tp106
Rp107
sS'G3PAT141'
p108
g2
(g6
S'\x84\xe1j\x1b-E\x99@'
p109
tp110
Rp111
sS'NTP1'
p112
g2
(g6
S'\xbfVO\xc9\xaa0T@'
p113
tp114
Rp115
sS'GLUN'
p116
g2
(g6
S'Hb\x15j\xbc\xbcH@'
p117
tp118
Rp119
sS'3HAD100'
p120
g2
(g6
S'ML\xa1f\xe3$\x92@'
p121
tp122
Rp123
sS'FUM'
p124
g2
(g6
S'hA\x14c\xa1\xaaZ@'
p125
tp126
Rp127
sS'FBA3'
p128
g2
(g6
S'\xd1\x1b\x7fK\xac\xa0#@'
p129
tp130
Rp131
sS'MDDCP1pp'
p132
g2
(g6
S'\xa3v\xb0\xf4@\\1@'
p133
tp134
Rp135
sS'PGMT'
p136
g2
(g6
S'8Z\xa7a\n\xba.@'
p137
tp138
Rp139
sS'ACACT6r'
p140
g2
(g6
S'A/\xa0G\xcdA\x91@'
p141
tp142
Rp143
sS'ACALD'
p144
g2
(g6
S'\x0bR\xe6\x9b\xc78\x90@'
p145
tp146
Rp147
sS'MALS'
p148
g2
(g6
S'\xee\xf6nn\x94\x81\x8c@'
p149
tp150
Rp151
sS'UPP3MT'
p152
g2
(g6
S'\xb3\x11\xea\xaa\x99\x81\xf2?'
p153
tp154
Rp155
sS'ACACT1r'
p156
g2
(g6
S'\x91\xb8\x91l|%I@'
p157
tp158
Rp159
sS'MDDCP5pp'
p160
g2
(g6
S'\xa3v\xb0\xf4@\\1@'
p161
tp162
Rp163
sS'THRA2i'
p164
g2
(g6
S'\x14>p\xc1\xb8\x9d\x1e@'
p165
tp166
Rp167
sS'L-LACD2'
p168
g2
(g6
S'\x1b\x02\xf83\x8c\xdb\xd9?'
p169
tp170
Rp171
sS'ENO'
p172
g2
(g6
S'\xa0FXP\n\x9fH@'
p173
tp174
Rp175
sS'3OAS160'
p176
g2
(g6
S'\x97J~\x06\x90\xa9b@'
p177
tp178
Rp179
sS'3OAS161'
p180
g2
(g6
S'\x1d\x10\xc9\xdb\xfa\xddE@'
p181
tp182
Rp183
sS'L-LACD3'
p184
g2
(g6
S'\x1b\x02\xf83\x8c\xdb\xd9?'
p185
tp186
Rp187
sS'3HAD80'
p188
g2
(g6
S'ML\xa1f\xe3$\x92@'
p189
tp190
Rp191
sS'UMPK'
p192
g2
(g6
S"6\x08\x1c\x1bJS'@"
p193
tp194
Rp195
sS'HACD1'
p196
g2
(g6
S'W\x7faYC,E@'
p197
tp198
Rp199
sS'HACD3'
p200
g2
(g6
S'W\x7faYC,E@'
p201
tp202
Rp203
sS'HACD2'
p204
g2
(g6
S'W\x7faYC,E@'
p205
tp206
Rp207
sS'HACD5'
p208
g2
(g6
S'W\x7faYC,E@'
p209
tp210
Rp211
sS'HACD4'
p212
g2
(g6
S'W\x7faYC,E@'
p213
tp214
Rp215
sS'HACD7'
p216
g2
(g6
S'W\x7faYC,E@'
p217
tp218
Rp219
sS'HACD6'
p220
g2
(g6
S'W\x7faYC,E@'
p221
tp222
Rp223
sS'ECOAH6'
p224
g2
(g6
S'\xd8W2\xa9H\x82`@'
p225
tp226
Rp227
sS'ECOAH7'
p228
g2
(g6
S'\xd8W2\xa9H\x82`@'
p229
tp230
Rp231
sS'ECOAH4'
p232
g2
(g6
S'\xd8W2\xa9H\x82`@'
p233
tp234
Rp235
sS'ECOAH5'
p236
g2
(g6
S'\xd8W2\xa9H\x82`@'
p237
tp238
Rp239
sS'ECOAH2'
p240
g2
(g6
S'\xd8W2\xa9H\x82`@'
p241
tp242
Rp243
sS'ECOAH3'
p244
g2
(g6
S'\xd8W2\xa9H\x82`@'
p245
tp246
Rp247
sS'ACACT5r'
p248
g2
(g6
S'A/\xa0G\xcdA\x91@'
p249
tp250
Rp251
sS'ECOAH1'
p252
g2
(g6
S'\xd8W2\xa9H\x82`@'
p253
tp254
Rp255
sS'3HAD180'
p256
g2
(g6
S'ML\xa1f\xe3$\x92@'
p257
tp258
Rp259
sS'3HAD181'
p260
g2
(g6
S'ML\xa1f\xe3$\x92@'
p261
tp262
Rp263
sS'G3PAT120'
p264
g2
(g6
S'\x84\xe1j\x1b-E\x99@'
p265
tp266
Rp267
sS'3OAS80'
p268
g2
(g6
S'\x97J~\x06\x90\xa9b@'
p269
tp270
Rp271
sS'MDDCP2pp'
p272
g2
(g6
S'\xa3v\xb0\xf4@\\1@'
p273
tp274
Rp275
sS'3HAD120'
p276
g2
(g6
S'ML\xa1f\xe3$\x92@'
p277
tp278
Rp279
sS'3HAD121'
p280
g2
(g6
S'ML\xa1f\xe3$\x92@'
p281
tp282
Rp283
sS'TYRTA'
p284
g2
(g6
S'\xe0\xc2\xe2\x01i\xe3J@'
p285
tp286
Rp287
sS'ALAR'
p288
g2
(g6
S'\x96\x80\x0e\x90\x18,T@'
p289
tp290
Rp291
sS'PPA2'
p292
g2
(g6
S'\x93y\x80?s\n?@'
p293
tp294
Rp295
sS'A5PISO'
p296
g2
(g6
S'\x19\xe6i\xd5\xbe\xfc\x08@'
p297
tp298
Rp299
sS'SHK3Dr'
p300
g2
(g6
S'\xb7\xff\xab\xcb\x91\xe4\xb4@'
p301
tp302
Rp303
sS'THRAi'
p304
g2
(g6
S'\x14>p\xc1\xb8\x9d\x1e@'
p305
tp306
Rp307
sS'ASPK'
p308
g2
(g6
S'\xdb\xf3{})U7@'
p309
tp310
Rp311
sS'PTAr'
p312
g2
(g6
S'\xfd\xca\x12\xf4N\xcdo@'
p313
tp314
Rp315
sS'ACACT8r'
p316
g2
(g6
S'A/\xa0G\xcdA\x91@'
p317
tp318
Rp319
sS'SERD_L'
p320
g2
(g6
S'4\x19\x10\x83\t\xb2\x03@'
p321
tp322
Rp323
sS'GLCP'
p324
g2
(g6
S'\xd5\xbc\x9f_U!3@'
p325
tp326
Rp327
sS'3OAS100'
p328
g2
(g6
S'\x97J~\x06\x90\xa9b@'
p329
tp330
Rp331
sS'CYSDS'
p332
g2
(g6
S'\xbd\xc6\xc0\xfb\xf0\xdc\xdf?'
p333
tp334
Rp335
sS'G3PAT180'
p336
g2
(g6
S'\x84\xe1j\x1b-E\x99@'
p337
tp338
Rp339
sS'G3PAT181'
p340
g2
(g6
S'\x84\xe1j\x1b-E\x99@'
p341
tp342
Rp343
sS'AMPTASECG'
p344
g2
(g6
S'\xb7\xf7vHG\x05\x91@'
p345
tp346
Rp347
sS'NTP10'
p348
g2
(g6
S'\xbfVO\xc9\xaa0T@'
p349
tp350
Rp351
sS'ECOAH8'
p352
g2
(g6
S'\xd8W2\xa9H\x82`@'
p353
tp354
Rp355
sS'PUNP4'
p356
g2
(g6
S'\xf2\x1a\xd3\xd5sS\x8c@'
p357
tp358
Rp359
sS'PUNP5'
p360
g2
(g6
S'\xf2\x1a\xd3\xd5sS\x8c@'
p361
tp362
Rp363
sS'PUNP6'
p364
g2
(g6
S'\xf2\x1a\xd3\xd5sS\x8c@'
p365
tp366
Rp367
sS'SSALy'
p368
g2
(g6
S'\x14J\xe8\n\xb6My@'
p369
tp370
Rp371
sS'ASNN'
p372
g2
(g6
S'\xcf\xc6<b\xacz,@'
p373
tp374
Rp375
sS'FBA'
p376
g2
(g6
S'\xd1\x1b\x7fK\xac\xa0#@'
p377
tp378
Rp379
sS'3HAD60'
p380
g2
(g6
S'ML\xa1f\xe3$\x92@'
p381
tp382
Rp383
sS'HACD8'
p384
g2
(g6
S'W\x7faYC,E@'
p385
tp386
Rp387
sS'3OAS180'
p388
g2
(g6
S'\x97J~\x06\x90\xa9b@'
p389
tp390
Rp391
sS'3OAS181'
p392
g2
(g6
S'\x1e\r\x18\x9f"dZ@'
p393
tp394
Rp395
sS'AMPTASEPG'
p396
g2
(g6
S'\xb7\xf7vHG\x05\x91@'
p397
tp398
Rp399
sS'THFAT'
p400
g2
(g6
S'g\xb1#?\xb85\x0b@'
p401
tp402
Rp403
sS'CHORM'
p404
g2
(g6
S'\xaa{\x85\x85\xf4>\xd1@'
p405
tp406
Rp407
sS'CAT'
p408
g2
(g6
S'Cx\x00\x02+\xf0\xf4@'
p409
tp410
Rp411
sS'OPMEACPS'
p412
g2
(g6
S'\x1d\x10\xc9\xdb\xfa\xddE@'
p413
tp414
Rp415
sS'3HAD140'
p416
g2
(g6
S'ML\xa1f\xe3$\x92@'
p417
tp418
Rp419
sS'3HAD141'
p420
g2
(g6
S'ML\xa1f\xe3$\x92@'
p421
tp422
Rp423
sS'ACKr'
p424
g2
(g6
S'\xc7R]\xa7\x1dU\x80@'
p425
tp426
Rp427
sS'ACACT2r'
p428
g2
(g6
S'A/\xa0G\xcdA\x91@'
p429
tp430
Rp431
sS'PPA'
p432
g2
(g6
S'\xf4\xd3Oc\xc1\x88\x80@'
p433
tp434
Rp435
sS'PGM'
p436
g2
(g6
S'\xf6\\\xe6P\xe2\xc1@@'
p437
tp438
Rp439
sS'PGK'
p440
g2
(g6
S'\xeaH|\xb8\xfck{@'
p441
tp442
Rp443
sS'PPM'
p444
g2
(g6
S'"DB\x02\x0b\xdf\x0e@'
p445
tp446
Rp447
sS'NDPK8'
p448
g2
(g6
S'\xda\x87\x9b)[^\xaa@'
p449
tp450
Rp451
sS'PUNP3'
p452
g2
(g6
S'\xf2\x1a\xd3\xd5sS\x8c@'
p453
tp454
Rp455
sS'NADDP'
p456
g2
(g6
S'\xbdB\x02\xe4\xaf\x1e\xf7>'
p457
tp458
Rp459
sS'ACOATA'
p460
g2
(g6
S'*\x82?\xcf\x86\xbc\xd5?'
p461
tp462
Rp463
sS'RPI'
p464
g2
(g6
S'uZ\x92o\xf6\x03\xae@'
p465
tp466
Rp467
sS'NDPK3'
p468
g2
(g6
S'\xda\x87\x9b)[^\xaa@'
p469
tp470
Rp471
sS'NDPK1'
p472
g2
(g6
S'\xda\x87\x9b)[^\xaa@'
p473
tp474
Rp475
sS'TRDR'
p476
g2
(g6
S'2D\xe9\x1c\x99\x13w@'
p477
tp478
Rp479
sS'NDPK7'
p480
g2
(g6
S'\xda\x87\x9b)[^\xaa@'
p481
tp482
Rp483
sS'NDPK4'
p484
g2
(g6
S'\xda\x87\x9b)[^\xaa@'
p485
tp486
Rp487
sS'NDPK5'
p488
g2
(g6
S'\xda\x87\x9b)[^\xaa@'
p489
tp490
Rp491
sS'MCOATA'
p492
g2
(g6
S'.\xcdO\xe9\t\xf1_@'
p493
tp494
Rp495
sS'MDDCP4pp'
p496
g2
(g6
S'\xa3v\xb0\xf4@\\1@'
p497
tp498
Rp499
sS'GLYCLTDy'
p500
g2
(g6
S'\x02\x87_\x93R\x9d\xec?'
p501
tp502
Rp503
sS'HSDy'
p504
g2
(g6
S'#.\x98\xcd\xeb\xaa\xf4?'
p505
tp506
Rp507
sS'METAT'
p508
g2
(g6
S'\x9a0i\x86\xf06\xec?'
p509
tp510
Rp511
sS'G3PD5'
p512
g2
(g6
S'\x0f\xa8\x88\x0cJ\x9fq@'
p513
tp514
Rp515
sS'ACACT7r'
p516
g2
(g6
S'A/\xa0G\xcdA\x91@'
p517
tp518
Rp519
sS'3OAS120'
p520
g2
(g6
S'\x97J~\x06\x90\xa9b@'
p521
tp522
Rp523
sS'3OAS121'
p524
g2
(g6
S'\x1d\x10\xc9\xdb\xfa\xddE@'
p525
tp526
Rp527
sS'PFK'
p528
g2
(g6
S'\x1cC\xb4`\xbf\xb4,@'
p529
tp530
Rp531
sS'GLCP2'
p532
g2
(g6
S'\xd5\xbc\x9f_U!3@'
p533
tp534
Rp535
sS'3HAD40'
p536
g2
(g6
S'ML\xa1f\xe3$\x92@'
p537
tp538
Rp539
sS'GRXR'
p540
g2
(g6
S'm][\xfa\xa6\x0f\xa0@'
p541
tp542
Rp543
sS'MDDCP3pp'
p544
g2
(g6
S'\xa3v\xb0\xf4@\\1@'
p545
tp546
Rp547
sS'G3PAT160'
p548
g2
(g6
S'\x84\xe1j\x1b-E\x99@'
p549
tp550
Rp551
sS'G3PAT161'
p552
g2
(g6
S'\x84\xe1j\x1b-E\x99@'
p553
tp554
Rp555
sS'DUTPDP'
p556
g2
(g6
S'{\xa4\xaf.\xfa\xe9\x11@'
p557
tp558
Rp559
s.