(dp0
S'GHMT2r'
p1
cnumpy.core.multiarray
scalar
p2
(cnumpy
dtype
p3
(S'f8'
p4
I0
I1
tp5
Rp6
(I3
S'<'
p7
NNNI-1
I-1
I0
tp8
bS'|\t\x07\x08\xd9\x8b"@'
p9
tp10
Rp11
sS'NADH18pp'
p12
g2
(g6
S'\xddY\xed\x8coa`@'
p13
tp14
Rp15
sS'3HAD160'
p16
g2
(g6
S'\xa9l\x9b\x9b\x07\xa1\x98@'
p17
tp18
Rp19
sS'3HAD161'
p20
g2
(g6
S'\xa9l\x9b\x9b\x07\xa1\x98@'
p21
tp22
Rp23
sS'ACACT4r'
p24
g2
(g6
S'v\x90%\xdaK\x16\x80@'
p25
tp26
Rp27
sS'ACOTA'
p28
g2
(g6
S'h\xb0\xa6\xbd\x16\xc4\xbe?'
p29
tp30
Rp31
sS'ALCD2x'
p32
g2
(g6
S'\xc1\x0f\xed\x03\xfc\xd2e@'
p33
tp34
Rp35
sS'LYSTRS'
p36
g2
(g6
S'0\x1c\x12\xde\xa3\xca\x1c@'
p37
tp38
Rp39
sS'GAPD'
p40
g2
(g6
S'P:\xc6W\x90\xa9c@'
p41
tp42
Rp43
sS'KAS14'
p44
g2
(g6
S'Z\xceBUB\xcfb@'
p45
tp46
Rp47
sS'TPI'
p48
g2
(g6
S'RG\x0b\x8a\xa74\xc9@'
p49
tp50
Rp51
sS'ACONTa'
p52
g2
(g6
S'q8\x8e\x1c\xe00\xc3?'
p53
tp54
Rp55
sS'NDPK2'
p56
g2
(g6
S'\xd41\xf4\xc0\xe2-\xa9@'
p57
tp58
Rp59
sS'ACONTb'
p60
g2
(g6
S'q8\x8e\x1c\xe00\xc3?'
p61
tp62
Rp63
sS'ACACT3r'
p64
g2
(g6
S'v\x90%\xdaK\x16\x80@'
p65
tp66
Rp67
sS'3OAS60'
p68
g2
(g6
S'Z\xceBUB\xcfb@'
p69
tp70
Rp71
sS'PHETA1'
p72
g2
(g6
S'\xb0\xac:\xf6\xf4\xc0\xb6@'
p73
tp74
Rp75
sS'TKT2'
p76
g2
(g6
S'GLF\x913\xc1\xdd@'
p77
tp78
Rp79
sS'TKT1'
p80
g2
(g6
S'GLF\x913\xc1\xdd@'
p81
tp82
Rp83
sS'NDPK6'
p84
g2
(g6
S'\xd41\xf4\xc0\xe2-\xa9@'
p85
tp86
Rp87
sS'3OAS140'
p88
g2
(g6
S'Z\xceBUB\xcfb@'
p89
tp90
Rp91
sS'PYK'
p92
g2
(g6
S'\x1d\xda\x98)\xcddb@'
p93
tp94
Rp95
sS'THRD_L'
p96
g2
(g6
S'\xf0/l\x15#\xd4%@'
p97
tp98
Rp99
sS'ATPS4rpp'
p100
g2
(g6
S'\x18\xf0\xeb\xbfw\x94_@'
p101
tp102
Rp103
sS'G3PAT140'
p104
g2
(g6
S'HRk7\xdb2\x9c@'
p105
tp106
Rp107
sS'G3PAT141'
p108
g2
(g6
S'HRk7\xdb2\x9c@'
p109
tp110
Rp111
sS'NTP1'
p112
g2
(g6
S'\x89\r\x88\xc0\xec\x90R@'
p113
tp114
Rp115
sS'GLUN'
p116
g2
(g6
S'\xe6\xc1\xa8\x9a82M@'
p117
tp118
Rp119
sS'3HAD100'
p120
g2
(g6
S'\xa9l\x9b\x9b\x07\xa1\x98@'
p121
tp122
Rp123
sS'FUM'
p124
g2
(g6
S'\xc8\r\x98\x1a"%P@'
p125
tp126
Rp127
sS'FBA3'
p128
g2
(g6
S'l%\xcc=a\x05!@'
p129
tp130
Rp131
sS'MDDCP1pp'
p132
g2
(g6
S'\x8a#\xc3~4\xd93@'
p133
tp134
Rp135
sS'PGMT'
p136
g2
(g6
S'\x1c\xc0@\xfd"\xcc/@'
p137
tp138
Rp139
sS'ACACT6r'
p140
g2
(g6
S'v\x90%\xdaK\x16\x80@'
p141
tp142
Rp143
sS'ACALD'
p144
g2
(g6
S'9p\x1c\x8b\x17\xb2\x86@'
p145
tp146
Rp147
sS'MALS'
p148
g2
(g6
S'\x9d\xe2?\xc5\xbarp@'
p149
tp150
Rp151
sS'UPP3MT'
p152
g2
(g6
S'6\xe9\xbcv\xe1\xa8\xef?'
p153
tp154
Rp155
sS'ACACT1r'
p156
g2
(g6
S'\xd3\x13\x8a\xae\xce{7@'
p157
tp158
Rp159
sS'MDDCP5pp'
p160
g2
(g6
S'\x8a#\xc3~4\xd93@'
p161
tp162
Rp163
sS'THRA2i'
p164
g2
(g6
S'\xe3\xf1\xe1"&\xd9\x1d@'
p165
tp166
Rp167
sS'L-LACD2'
p168
g2
(g6
S'\xdas\xc9+\xef\xa5\xda?'
p169
tp170
Rp171
sS'ENO'
p172
g2
(g6
S'\x1f#\x8c2\x82\xd4H@'
p173
tp174
Rp175
sS'3OAS160'
p176
g2
(g6
S'Z\xceBUB\xcfb@'
p177
tp178
Rp179
sS'L-LACD3'
p180
g2
(g6
S'\xdas\xc9+\xef\xa5\xda?'
p181
tp182
Rp183
sS'3HAD80'
p184
g2
(g6
S'\xa9l\x9b\x9b\x07\xa1\x98@'
p185
tp186
Rp187
sS'UMPK'
p188
g2
(g6
S'\xa9oy/\n6$@'
p189
tp190
Rp191
sS'HACD1'
p192
g2
(g6
S'g)\xf2\x8b\xbf\xb5+@'
p193
tp194
Rp195
sS'HACD3'
p196
g2
(g6
S'g)\xf2\x8b\xbf\xb5+@'
p197
tp198
Rp199
sS'HACD2'
p200
g2
(g6
S'g)\xf2\x8b\xbf\xb5+@'
p201
tp202
Rp203
sS'HACD5'
p204
g2
(g6
S'g)\xf2\x8b\xbf\xb5+@'
p205
tp206
Rp207
sS'HACD4'
p208
g2
(g6
S'g)\xf2\x8b\xbf\xb5+@'
p209
tp210
Rp211
sS'ECOAH8'
p212
g2
(g6
S'Dx]\xed!\x9bE@'
p213
tp214
Rp215
sS'HACD6'
p216
g2
(g6
S'g)\xf2\x8b\xbf\xb5+@'
p217
tp218
Rp219
sS'ECOAH6'
p220
g2
(g6
S'Dx]\xed!\x9bE@'
p221
tp222
Rp223
sS'ECOAH7'
p224
g2
(g6
S'Dx]\xed!\x9bE@'
p225
tp226
Rp227
sS'CHORM'
p228
g2
(g6
S'\xf3\xaf\xcan\x82\xaa\xd4@'
p229
tp230
Rp231
sS'ECOAH5'
p232
g2
(g6
S'Dx]\xed!\x9bE@'
p233
tp234
Rp235
sS'ECOAH2'
p236
g2
(g6
S'Dx]\xed!\x9bE@'
p237
tp238
Rp239
sS'ECOAH3'
p240
g2
(g6
S'Dx]\xed!\x9bE@'
p241
tp242
Rp243
sS'ACACT5r'
p244
g2
(g6
S'v\x90%\xdaK\x16\x80@'
p245
tp246
Rp247
sS'ECOAH1'
p248
g2
(g6
S'Dx]\xed!\x9bE@'
p249
tp250
Rp251
sS'3HAD180'
p252
g2
(g6
S'\xa9l\x9b\x9b\x07\xa1\x98@'
p253
tp254
Rp255
sS'3HAD181'
p256
g2
(g6
S'\xa9l\x9b\x9b\x07\xa1\x98@'
p257
tp258
Rp259
sS'G3PAT120'
p260
g2
(g6
S'HRk7\xdb2\x9c@'
p261
tp262
Rp263
sS'3OAS80'
p264
g2
(g6
S'Z\xceBUB\xcfb@'
p265
tp266
Rp267
sS'MDDCP2pp'
p268
g2
(g6
S'\x8a#\xc3~4\xd93@'
p269
tp270
Rp271
sS'3HAD120'
p272
g2
(g6
S'\xa9l\x9b\x9b\x07\xa1\x98@'
p273
tp274
Rp275
sS'3HAD121'
p276
g2
(g6
S'\xa9l\x9b\x9b\x07\xa1\x98@'
p277
tp278
Rp279
sS'THRAi'
p280
g2
(g6
S'\xe3\xf1\xe1"&\xd9\x1d@'
p281
tp282
Rp283
sS'ORNDC'
p284
g2
(g6
S'=p\xd6W{\xa3\xdf?'
p285
tp286
Rp287
sS'ALAR'
p288
g2
(g6
S'\xac\xc5\xda\xfb}\xa7S@'
p289
tp290
Rp291
sS'A5PISO'
p292
g2
(g6
S'd\x0c\xf2\x13\xc6\xc0\x06@'
p293
tp294
Rp295
sS'SHK3Dr'
p296
g2
(g6
S'\x16\x11\xa3s\x1b\xce\xb4@'
p297
tp298
Rp299
sS'TYRTA'
p300
g2
(g6
S'TO\x06%b:L@'
p301
tp302
Rp303
sS'ASPK'
p304
g2
(g6
S',WP\xd1\x94\x147@'
p305
tp306
Rp307
sS'PTAr'
p308
g2
(g6
S'D\x01\x0c\x0fW\xd5j@'
p309
tp310
Rp311
sS'ACACT8r'
p312
g2
(g6
S'v\x90%\xdaK\x16\x80@'
p313
tp314
Rp315
sS'NADH16pp'
p316
g2
(g6
S'\xddY\xed\x8coa`@'
p317
tp318
Rp319
sS'CBPS'
p320
g2
(g6
S'\x95l\t^\x93gm@'
p321
tp322
Rp323
sS'GLCP'
p324
g2
(g6
S'\x91\xb8\x90\x7f6\xf90@'
p325
tp326
Rp327
sS'3OAS100'
p328
g2
(g6
S'Z\xceBUB\xcfb@'
p329
tp330
Rp331
sS'CYSDS'
p332
g2
(g6
S'\xd1t \x03\xcb\x0b\xe0?'
p333
tp334
Rp335
sS'G3PAT180'
p336
g2
(g6
S'HRk7\xdb2\x9c@'
p337
tp338
Rp339
sS'G3PAT181'
p340
g2
(g6
S'HRk7\xdb2\x9c@'
p341
tp342
Rp343
sS'AMPTASECG'
p344
g2
(g6
S'Q!\x05\x8e\xa6\x0f\x8c@'
p345
tp346
Rp347
sS'NTP10'
p348
g2
(g6
S'\x89\r\x88\xc0\xec\x90R@'
p349
tp350
Rp351
sS'HACD7'
p352
g2
(g6
S'g)\xf2\x8b\xbf\xb5+@'
p353
tp354
Rp355
sS'SSALy'
p356
g2
(g6
S'@\xfdj\xf8q^f@'
p357
tp358
Rp359
sS'ASNN'
p360
g2
(g6
S'\x8e\x85\x8a2]\x044@'
p361
tp362
Rp363
sS'FBA'
p364
g2
(g6
S'l%\xcc=a\x05!@'
p365
tp366
Rp367
sS'3HAD60'
p368
g2
(g6
S'\xa9l\x9b\x9b\x07\xa1\x98@'
p369
tp370
Rp371
sS'HACD8'
p372
g2
(g6
S'g)\xf2\x8b\xbf\xb5+@'
p373
tp374
Rp375
sS'3OAS180'
p376
g2
(g6
S'Z\xceBUB\xcfb@'
p377
tp378
Rp379
sS'3OAS181'
p380
g2
(g6
S'\xf7U\x0f\x8c&B]@'
p381
tp382
Rp383
sS'AMPTASEPG'
p384
g2
(g6
S'O!\x05\x8e\xa6\x0f\x8c@'
p385
tp386
Rp387
sS'THFAT'
p388
g2
(g6
S'U\\%\x98\xbb\x03\n@'
p389
tp390
Rp391
sS'ECOAH4'
p392
g2
(g6
S'Dx]\xed!\x9bE@'
p393
tp394
Rp395
sS'CAT'
p396
g2
(g6
S'\xfa\x86\xe2\xf2\xe1\xe0\xf3@'
p397
tp398
Rp399
sS'3HAD140'
p400
g2
(g6
S'\xa9l\x9b\x9b\x07\xa1\x98@'
p401
tp402
Rp403
sS'3HAD141'
p404
g2
(g6
S'\xa9l\x9b\x9b\x07\xa1\x98@'
p405
tp406
Rp407
sS'ACKr'
p408
g2
(g6
S'%\xa9[\x1d\x91\xea}@'
p409
tp410
Rp411
sS'NADH17pp'
p412
g2
(g6
S'\xddY\xed\x8coa`@'
p413
tp414
Rp415
sS'ACACT2r'
p416
g2
(g6
S'v\x90%\xdaK\x16\x80@'
p417
tp418
Rp419
sS'PPA'
p420
g2
(g6
S'&S\xd0jG\x04z@'
p421
tp422
Rp423
sS'PGM'
p424
g2
(g6
S'\xcb\xd04\xb0\xbc\x849@'
p425
tp426
Rp427
sS'PGK'
p428
g2
(g6
S'c\x80Sms\xe5v@'
p429
tp430
Rp431
sS'PPM'
p432
g2
(g6
S'r\xf1\xf0\xf4\xd7\x8e\x03@'
p433
tp434
Rp435
sS'NDPK8'
p436
g2
(g6
S'\xd41\xf4\xc0\xe2-\xa9@'
p437
tp438
Rp439
sS'NADDP'
p440
g2
(g6
S'yi*\x91U\x13\xf2>'
p441
tp442
Rp443
sS'ACOATA'
p444
g2
(g6
S'\xc4\xe1,\x17_A\xd8?'
p445
tp446
Rp447
sS'RPI'
p448
g2
(g6
S'\x84\xe1;\xdd\xcb\xc2\xad@'
p449
tp450
Rp451
sS'NDPK3'
p452
g2
(g6
S'\xd41\xf4\xc0\xe2-\xa9@'
p453
tp454
Rp455
sS'NDPK1'
p456
g2
(g6
S'\xd41\xf4\xc0\xe2-\xa9@'
p457
tp458
Rp459
sS'TRDR'
p460
g2
(g6
S'\\F\x89Q\x01\x0eu@'
p461
tp462
Rp463
sS'NDPK7'
p464
g2
(g6
S'\xd41\xf4\xc0\xe2-\xa9@'
p465
tp466
Rp467
sS'NDPK4'
p468
g2
(g6
S'\xd41\xf4\xc0\xe2-\xa9@'
p469
tp470
Rp471
sS'NDPK5'
p472
g2
(g6
S'\xd41\xf4\xc0\xe2-\xa9@'
p473
tp474
Rp475
sS'MCOATA'
p476
g2
(g6
S'\xee\xb0h3Q\xd2a@'
p477
tp478
Rp479
sS'MDDCP4pp'
p480
g2
(g6
S'\x8a#\xc3~4\xd93@'
p481
tp482
Rp483
sS'GLYCLTDy'
p484
g2
(g6
S',\xdaP\xc4\xda8\xef?'
p485
tp486
Rp487
sS'HSDy'
p488
g2
(g6
S'\x0e\x1b\x941\x16\xde\xf5?'
p489
tp490
Rp491
sS'METAT'
p492
g2
(g6
S'\xee\x94\x06\n\xa98\xee?'
p493
tp494
Rp495
sS'G3PD5'
p496
g2
(g6
S'\x12\x1a\xfc\xd6\xd8\x16T@'
p497
tp498
Rp499
sS'ACACT7r'
p500
g2
(g6
S'v\x90%\xdaK\x16\x80@'
p501
tp502
Rp503
sS'3OAS120'
p504
g2
(g6
S'Z\xceBUB\xcfb@'
p505
tp506
Rp507
sS'PFK'
p508
g2
(g6
S'q|\xf1R\xa2H*@'
p509
tp510
Rp511
sS'GLCP2'
p512
g2
(g6
S'\x91\xb8\x90\x7f6\xf90@'
p513
tp514
Rp515
sS'3HAD40'
p516
g2
(g6
S'\xa9l\x9b\x9b\x07\xa1\x98@'
p517
tp518
Rp519
sS'GRXR'
p520
g2
(g6
S'RG\xdc\xfb\xc6\xa5\x92@'
p521
tp522
Rp523
sS'MDDCP3pp'
p524
g2
(g6
S'\x8a#\xc3~4\xd93@'
p525
tp526
Rp527
sS'G3PAT160'
p528
g2
(g6
S'HRk7\xdb2\x9c@'
p529
tp530
Rp531
sS'G3PAT161'
p532
g2
(g6
S'HRk7\xdb2\x9c@'
p533
tp534
Rp535
sS'DUTPDP'
p536
g2
(g6
S'\x9e\x1elE\x04\xd6\x0b@'
p537
tp538
Rp539
s.