(dp0
S'GHMT2r'
p1
cnumpy.core.multiarray
scalar
p2
(cnumpy
dtype
p3
(S'f8'
p4
I0
I1
tp5
Rp6
(I3
S'<'
p7
NNNI-1
I-1
I0
tp8
bS'\xbb\x8aE\xd7\xfde#@'
p9
tp10
Rp11
sS'PSERT'
p12
g2
(g6
S'h\xb6=\x89\xa64\x96@'
p13
tp14
Rp15
sS'PAPSR'
p16
g2
(g6
S'\x9fl\xb8\x8b\xd0\xbc\xcb?'
p17
tp18
Rp19
sS'NADH18pp'
p20
g2
(g6
S'\x86o$\xa1\x95\xbd[@'
p21
tp22
Rp23
sS'3HAD160'
p24
g2
(g6
S'Hh\x9e\x8a1j\x97@'
p25
tp26
Rp27
sS'3HAD161'
p28
g2
(g6
S'Hh\x9e\x8a1j\x97@'
p29
tp30
Rp31
sS'EAR161y'
p32
g2
(g6
S'%\xe9[\xdf;\xa8#@'
p33
tp34
Rp35
sS'ACACT4r'
p36
g2
(g6
S'A/\xa0G\xcdA\x91@'
p37
tp38
Rp39
sS'ACOTA'
p40
g2
(g6
S'+\x99\x06v5\xb9\xc1?'
p41
tp42
Rp43
sS'ALCD2x'
p44
g2
(g6
S'\xe6\xd5\x13?\xa02o@'
p45
tp46
Rp47
sS'METSOXR1'
p48
g2
(g6
S'{\xc9\xe3\x9c"Y\xa3@'
p49
tp50
Rp51
sS'LYSTRS'
p52
g2
(g6
S'\xbd0\x91(7\x08\r@'
p53
tp54
Rp55
sS'GAPD'
p56
g2
(g6
S'"/\xdf\xe6\\lg@'
p57
tp58
Rp59
sS'KAS14'
p60
g2
(g6
S'\x97J~\x06\x90\xa9b@'
p61
tp62
Rp63
sS'EPMEACPR'
p64
g2
(g6
S'%\xe9[\xdf;\xa8#@'
p65
tp66
Rp67
sS'TPI'
p68
g2
(g6
S']/\xb3\xb8\xcf\x18\xc5@'
p69
tp70
Rp71
sS'ACONTa'
p72
g2
(g6
S'\xafS%\x19.5\xc8?'
p73
tp74
Rp75
sS'NDPK2'
p76
g2
(g6
S'\xda\x87\x9b)[^\xaa@'
p77
tp78
Rp79
sS'EAR40x'
p80
g2
(g6
S'c\xc6`\xbc\xc8~\x11@'
p81
tp82
Rp83
sS'ACONTb'
p84
g2
(g6
S'\xafS%\x19.5\xc8?'
p85
tp86
Rp87
sS'ACACT3r'
p88
g2
(g6
S'A/\xa0G\xcdA\x91@'
p89
tp90
Rp91
sS'3OAS60'
p92
g2
(g6
S'\x97J~\x06\x90\xa9b@'
p93
tp94
Rp95
sS'PHETA1'
p96
g2
(g6
S'\x83\xef(`\xad\xd9\xb4@'
p97
tp98
Rp99
sS'PRFGS'
p100
g2
(g6
S'Gq\x15,\xd4\xbd\xc5?'
p101
tp102
Rp103
sS'TKT2'
p104
g2
(g6
S'Fiv]\xf2\x8a\xe3@'
p105
tp106
Rp107
sS'TKT1'
p108
g2
(g6
S'Fiv]\xf2\x8a\xe3@'
p109
tp110
Rp111
sS'NDPK6'
p112
g2
(g6
S'\xda\x87\x9b)[^\xaa@'
p113
tp114
Rp115
sS'3OAS140'
p116
g2
(g6
S'\x97J~\x06\x90\xa9b@'
p117
tp118
Rp119
sS'3OAS141'
p120
g2
(g6
S'\x1d\x10\xc9\xdb\xfa\xddE@'
p121
tp122
Rp123
sS'RNDR4'
p124
g2
(g6
S'\x8b\xb4A\xbb\xe4\x8e\xe9?'
p125
tp126
Rp127
sS'RNDR3'
p128
g2
(g6
S'\x8b\xb4A\xbb\xe4\x8e\xe9?'
p129
tp130
Rp131
sS'RNDR2'
p132
g2
(g6
S'\x8b\xb4A\xbb\xe4\x8e\xe9?'
p133
tp134
Rp135
sS'RNDR1'
p136
g2
(g6
S'\x8b\xb4A\xbb\xe4\x8e\xe9?'
p137
tp138
Rp139
sS'TYRTA'
p140
g2
(g6
S'\xe0\xc2\xe2\x01i\xe3J@'
p141
tp142
Rp143
sS'ATPS4rpp'
p144
g2
(g6
S'\x17\xf1\xd90\xecxN@'
p145
tp146
Rp147
sS'G3PAT140'
p148
g2
(g6
S'\x84\xe1j\x1b-E\x99@'
p149
tp150
Rp151
sS'ACODA'
p152
g2
(g6
S'\x9eM\xcf#\x86ek@'
p153
tp154
Rp155
sS'NTP1'
p156
g2
(g6
S'\xbfVO\xc9\xaa0T@'
p157
tp158
Rp159
sS'GLUN'
p160
g2
(g6
S'Hb\x15j\xbc\xbcH@'
p161
tp162
Rp163
sS'3HAD100'
p164
g2
(g6
S'Hh\x9e\x8a1j\x97@'
p165
tp166
Rp167
sS'FUM'
p168
g2
(g6
S'hA\x14c\xa1\xaaZ@'
p169
tp170
Rp171
sS'FBA3'
p172
g2
(g6
S'\xd1\x1b\x7fK\xac\xa0#@'
p173
tp174
Rp175
sS'MDDCP1pp'
p176
g2
(g6
S'\xa3v\xb0\xf4@\\1@'
p177
tp178
Rp179
sS'PGMT'
p180
g2
(g6
S'8Z\xa7a\n\xba.@'
p181
tp182
Rp183
sS'ACACT6r'
p184
g2
(g6
S'A/\xa0G\xcdA\x91@'
p185
tp186
Rp187
sS'ACALD'
p188
g2
(g6
S'\x0bR\xe6\x9b\xc78\x90@'
p189
tp190
Rp191
sS'MALS'
p192
g2
(g6
S'\xee\xf6nn\x94\x81\x8c@'
p193
tp194
Rp195
sS'EAR120x'
p196
g2
(g6
S'c\xc6`\xbc\xc8~\x11@'
p197
tp198
Rp199
sS'EAR120y'
p200
g2
(g6
S'%\xe9[\xdf;\xa8#@'
p201
tp202
Rp203
sS'UPP3MT'
p204
g2
(g6
S'\xb3\x11\xea\xaa\x99\x81\xf2?'
p205
tp206
Rp207
sS'PYK'
p208
g2
(g6
S'\xc9->\x0f\xcc\x87h@'
p209
tp210
Rp211
sS'EGMEACPR'
p212
g2
(g6
S'%\xe9[\xdf;\xa8#@'
p213
tp214
Rp215
sS'THRD_L'
p216
g2
(g6
S'\xa1\xe94\xc9\xe4@\x1e@'
p217
tp218
Rp219
sS'ACACT1r'
p220
g2
(g6
S'\x91\xb8\x91l|%I@'
p221
tp222
Rp223
sS'MDDCP5pp'
p224
g2
(g6
S'\xa3v\xb0\xf4@\\1@'
p225
tp226
Rp227
sS'THRA2i'
p228
g2
(g6
S'\x14>p\xc1\xb8\x9d\x1e@'
p229
tp230
Rp231
sS'ACACT7r'
p232
g2
(g6
S'A/\xa0G\xcdA\x91@'
p233
tp234
Rp235
sS'L-LACD2'
p236
g2
(g6
S'\x1b\x02\xf83\x8c\xdb\xd9?'
p237
tp238
Rp239
sS'ENO'
p240
g2
(g6
S'\xa0FXP\n\x9fH@'
p241
tp242
Rp243
sS'3OAS160'
p244
g2
(g6
S'\x97J~\x06\x90\xa9b@'
p245
tp246
Rp247
sS'3OAS161'
p248
g2
(g6
S'\x1d\x10\xc9\xdb\xfa\xddE@'
p249
tp250
Rp251
sS'ASPTA'
p252
g2
(g6
S'{\x07)\x8d\x80EB@'
p253
tp254
Rp255
sS'L-LACD3'
p256
g2
(g6
S'\x1b\x02\xf83\x8c\xdb\xd9?'
p257
tp258
Rp259
sS'3HAD80'
p260
g2
(g6
S'Hh\x9e\x8a1j\x97@'
p261
tp262
Rp263
sS'UMPK'
p264
g2
(g6
S"6\x08\x1c\x1bJS'@"
p265
tp266
Rp267
sS'HACD1'
p268
g2
(g6
S'W\x7faYC,E@'
p269
tp270
Rp271
sS'HACD3'
p272
g2
(g6
S'W\x7faYC,E@'
p273
tp274
Rp275
sS'HACD2'
p276
g2
(g6
S'W\x7faYC,E@'
p277
tp278
Rp279
sS'HACD5'
p280
g2
(g6
S'W\x7faYC,E@'
p281
tp282
Rp283
sS'HACD4'
p284
g2
(g6
S'W\x7faYC,E@'
p285
tp286
Rp287
sS'HACD7'
p288
g2
(g6
S'W\x7faYC,E@'
p289
tp290
Rp291
sS'HACD6'
p292
g2
(g6
S'W\x7faYC,E@'
p293
tp294
Rp295
sS'ECOAH6'
p296
g2
(g6
S'\xd8W2\xa9H\x82`@'
p297
tp298
Rp299
sS'ECOAH7'
p300
g2
(g6
S'\xd8W2\xa9H\x82`@'
p301
tp302
Rp303
sS'ECOAH4'
p304
g2
(g6
S'\xd8W2\xa9H\x82`@'
p305
tp306
Rp307
sS'EAR160y'
p308
g2
(g6
S'%\xe9[\xdf;\xa8#@'
p309
tp310
Rp311
sS'ECOAH2'
p312
g2
(g6
S'\xd8W2\xa9H\x82`@'
p313
tp314
Rp315
sS'ECOAH3'
p316
g2
(g6
S'\xd8W2\xa9H\x82`@'
p317
tp318
Rp319
sS'ACACT5r'
p320
g2
(g6
S'A/\xa0G\xcdA\x91@'
p321
tp322
Rp323
sS'ECOAH1'
p324
g2
(g6
S'\xd8W2\xa9H\x82`@'
p325
tp326
Rp327
sS'3HAD180'
p328
g2
(g6
S'Hh\x9e\x8a1j\x97@'
p329
tp330
Rp331
sS'3HAD181'
p332
g2
(g6
S'Hh\x9e\x8a1j\x97@'
p333
tp334
Rp335
sS'G3PAT120'
p336
g2
(g6
S'\x84\xe1j\x1b-E\x99@'
p337
tp338
Rp339
sS'3OAS80'
p340
g2
(g6
S'\x97J~\x06\x90\xa9b@'
p341
tp342
Rp343
sS'G3PAT141'
p344
g2
(g6
S'\x84\xe1j\x1b-E\x99@'
p345
tp346
Rp347
sS'POR5'
p348
g2
(g6
S'I:\n\x87\xd7y9@'
p349
tp350
Rp351
sS'MDDCP2pp'
p352
g2
(g6
S'\xa3v\xb0\xf4@\\1@'
p353
tp354
Rp355
sS'3HAD120'
p356
g2
(g6
S'Hh\x9e\x8a1j\x97@'
p357
tp358
Rp359
sS'3HAD121'
p360
g2
(g6
S'Hh\x9e\x8a1j\x97@'
p361
tp362
Rp363
sS'EAR161x'
p364
g2
(g6
S'c\xc6`\xbc\xc8~\x11@'
p365
tp366
Rp367
sS'ORNDC'
p368
g2
(g6
S'\x19E\xc1\xe4\xdc\x86\xe3?'
p369
tp370
Rp371
sS'ALAR'
p372
g2
(g6
S'\x96\x80\x0e\x90\x18,T@'
p373
tp374
Rp375
sS'PPA2'
p376
g2
(g6
S'\x93y\x80?s\n?@'
p377
tp378
Rp379
sS'EAR141y'
p380
g2
(g6
S'%\xe9[\xdf;\xa8#@'
p381
tp382
Rp383
sS'EAR141x'
p384
g2
(g6
S'c\xc6`\xbc\xc8~\x11@'
p385
tp386
Rp387
sS'A5PISO'
p388
g2
(g6
S'\x19\xe6i\xd5\xbe\xfc\x08@'
p389
tp390
Rp391
sS'SHK3Dr'
p392
g2
(g6
S'\xb7\xff\xab\xcb\x91\xe4\xb4@'
p393
tp394
Rp395
sS'THRAi'
p396
g2
(g6
S'\x14>p\xc1\xb8\x9d\x1e@'
p397
tp398
Rp399
sS'ASPK'
p400
g2
(g6
S'\xdb\xf3{})U7@'
p401
tp402
Rp403
sS'PTAr'
p404
g2
(g6
S'\xfd\xca\x12\xf4N\xcdo@'
p405
tp406
Rp407
sS'ACACT8r'
p408
g2
(g6
S'A/\xa0G\xcdA\x91@'
p409
tp410
Rp411
sS'EAR60x'
p412
g2
(g6
S'c\xc6`\xbc\xc8~\x11@'
p413
tp414
Rp415
sS'EAR60y'
p416
g2
(g6
S'%\xe9[\xdf;\xa8#@'
p417
tp418
Rp419
sS'NADH16pp'
p420
g2
(g6
S'\x86o$\xa1\x95\xbd[@'
p421
tp422
Rp423
sS'CBPS'
p424
g2
(g6
S'\xa8\xf9\xbf\xc7\xf9\x0cd@'
p425
tp426
Rp427
sS'SERD_L'
p428
g2
(g6
S'4\x19\x10\x83\t\xb2\x03@'
p429
tp430
Rp431
sS'GLCP'
p432
g2
(g6
S'\xd5\xbc\x9f_U!3@'
p433
tp434
Rp435
sS'3OAS100'
p436
g2
(g6
S'\x97J~\x06\x90\xa9b@'
p437
tp438
Rp439
sS'CYSDS'
p440
g2
(g6
S'\xbd\xc6\xc0\xfb\xf0\xdc\xdf?'
p441
tp442
Rp443
sS'G3PAT180'
p444
g2
(g6
S'\x84\xe1j\x1b-E\x99@'
p445
tp446
Rp447
sS'G3PAT181'
p448
g2
(g6
S'\x84\xe1j\x1b-E\x99@'
p449
tp450
Rp451
sS'AMPTASECG'
p452
g2
(g6
S'\xb7\xf7vHG\x05\x91@'
p453
tp454
Rp455
sS'NTP10'
p456
g2
(g6
S'\xbfVO\xc9\xaa0T@'
p457
tp458
Rp459
sS'PAPSR2'
p460
g2
(g6
S'\x92\xbe\xba\xb4\xddm\xcf?'
p461
tp462
Rp463
sS'ECOAH8'
p464
g2
(g6
S'\xd8W2\xa9H\x82`@'
p465
tp466
Rp467
sS'PUNP4'
p468
g2
(g6
S'\xf2\x1a\xd3\xd5sS\x8c@'
p469
tp470
Rp471
sS'PUNP5'
p472
g2
(g6
S'\xf2\x1a\xd3\xd5sS\x8c@'
p473
tp474
Rp475
sS'PUNP6'
p476
g2
(g6
S'\xf2\x1a\xd3\xd5sS\x8c@'
p477
tp478
Rp479
sS'SSALy'
p480
g2
(g6
S'\x14J\xe8\n\xb6My@'
p481
tp482
Rp483
sS'ASNN'
p484
g2
(g6
S'\xcf\xc6<b\xacz,@'
p485
tp486
Rp487
sS'FBA'
p488
g2
(g6
S'\xd1\x1b\x7fK\xac\xa0#@'
p489
tp490
Rp491
sS'3HAD60'
p492
g2
(g6
S'Hh\x9e\x8a1j\x97@'
p493
tp494
Rp495
sS'HACD8'
p496
g2
(g6
S'W\x7faYC,E@'
p497
tp498
Rp499
sS'3OAS180'
p500
g2
(g6
S'\x97J~\x06\x90\xa9b@'
p501
tp502
Rp503
sS'3OAS181'
p504
g2
(g6
S'\x1e\r\x18\x9f"dZ@'
p505
tp506
Rp507
sS'AMPTASEPG'
p508
g2
(g6
S'\xb7\xf7vHG\x05\x91@'
p509
tp510
Rp511
sS'THFAT'
p512
g2
(g6
S'g\xb1#?\xb85\x0b@'
p513
tp514
Rp515
sS'EAR160x'
p516
g2
(g6
S'c\xc6`\xbc\xc8~\x11@'
p517
tp518
Rp519
sS'EAR80x'
p520
g2
(g6
S'c\xc6`\xbc\xc8~\x11@'
p521
tp522
Rp523
sS'EAR80y'
p524
g2
(g6
S'%\xe9[\xdf;\xa8#@'
p525
tp526
Rp527
sS'ECOAH5'
p528
g2
(g6
S'\xd8W2\xa9H\x82`@'
p529
tp530
Rp531
sS'EAR180x'
p532
g2
(g6
S'c\xc6`\xbc\xc8~\x11@'
p533
tp534
Rp535
sS'EAR180y'
p536
g2
(g6
S'%\xe9[\xdf;\xa8#@'
p537
tp538
Rp539
sS'OPMEACPD'
p540
g2
(g6
S'ML\xa1f\xe3$\x92@'
p541
tp542
Rp543
sS'DHFR'
p544
g2
(g6
S',R\xac\x92n*\x1d@'
p545
tp546
Rp547
sS'CAT'
p548
g2
(g6
S'Cx\x00\x02+\xf0\xf4@'
p549
tp550
Rp551
sS'OPMEACPS'
p552
g2
(g6
S'\x1d\x10\xc9\xdb\xfa\xddE@'
p553
tp554
Rp555
sS'3HAD140'
p556
g2
(g6
S'Hh\x9e\x8a1j\x97@'
p557
tp558
Rp559
sS'3HAD141'
p560
g2
(g6
S'Hh\x9e\x8a1j\x97@'
p561
tp562
Rp563
sS'ACKr'
p564
g2
(g6
S'\xc7R]\xa7\x1dU\x80@'
p565
tp566
Rp567
sS'NADH17pp'
p568
g2
(g6
S'\x86o$\xa1\x95\xbd[@'
p569
tp570
Rp571
sS'ACACT2r'
p572
g2
(g6
S'A/\xa0G\xcdA\x91@'
p573
tp574
Rp575
sS'OGMEACPD'
p576
g2
(g6
S'ML\xa1f\xe3$\x92@'
p577
tp578
Rp579
sS'EAR121y'
p580
g2
(g6
S'%\xe9[\xdf;\xa8#@'
p581
tp582
Rp583
sS'PPA'
p584
g2
(g6
S'\xf4\xd3Oc\xc1\x88\x80@'
p585
tp586
Rp587
sS'EAR121x'
p588
g2
(g6
S'c\xc6`\xbc\xc8~\x11@'
p589
tp590
Rp591
sS'PGM'
p592
g2
(g6
S'\xf6\\\xe6P\xe2\xc1@@'
p593
tp594
Rp595
sS'PGK'
p596
g2
(g6
S'\xeaH|\xb8\xfck{@'
p597
tp598
Rp599
sS'PPM'
p600
g2
(g6
S'\xbdV7(69\x10@'
p601
tp602
Rp603
sS'NDPK8'
p604
g2
(g6
S'\xda\x87\x9b)[^\xaa@'
p605
tp606
Rp607
sS'PUNP3'
p608
g2
(g6
S'\xf2\x1a\xd3\xd5sS\x8c@'
p609
tp610
Rp611
sS'NADDP'
p612
g2
(g6
S'\xbdB\x02\xe4\xaf\x1e\xf7>'
p613
tp614
Rp615
sS'ACOATA'
p616
g2
(g6
S'*\x82?\xcf\x86\xbc\xd5?'
p617
tp618
Rp619
sS'RPI'
p620
g2
(g6
S'uZ\x92o\xf6\x03\xae@'
p621
tp622
Rp623
sS'NDPK3'
p624
g2
(g6
S'\xda\x87\x9b)[^\xaa@'
p625
tp626
Rp627
sS'NDPK1'
p628
g2
(g6
S'\xda\x87\x9b)[^\xaa@'
p629
tp630
Rp631
sS'TRDR'
p632
g2
(g6
S'\xc5\x15\x80d\xcd\xbaq@'
p633
tp634
Rp635
sS'NDPK7'
p636
g2
(g6
S'\xda\x87\x9b)[^\xaa@'
p637
tp638
Rp639
sS'NDPK4'
p640
g2
(g6
S'\xda\x87\x9b)[^\xaa@'
p641
tp642
Rp643
sS'NDPK5'
p644
g2
(g6
S'\xda\x87\x9b)[^\xaa@'
p645
tp646
Rp647
sS'PPC'
p648
g2
(g6
S'd\xcf\x96\x8e\xb8\x0f@@'
p649
tp650
Rp651
sS'MCOATA'
p652
g2
(g6
S'.\xcdO\xe9\t\xf1_@'
p653
tp654
Rp655
sS'EAR181y'
p656
g2
(g6
S'%\xe9[\xdf;\xa8#@'
p657
tp658
Rp659
sS'EAR181x'
p660
g2
(g6
S'c\xc6`\xbc\xc8~\x11@'
p661
tp662
Rp663
sS'MDDCP4pp'
p664
g2
(g6
S'\xa3v\xb0\xf4@\\1@'
p665
tp666
Rp667
sS'ADMDC'
p668
g2
(g6
S'2\xd6\x91\xaa\x0cq\xd6?'
p669
tp670
Rp671
sS'GLYCLTDy'
p672
g2
(g6
S'\x02\x87_\x93R\x9d\xec?'
p673
tp674
Rp675
sS'HSDy'
p676
g2
(g6
S'#.\x98\xcd\xeb\xaa\xf4?'
p677
tp678
Rp679
sS'METAT'
p680
g2
(g6
S'\x9a0i\x86\xf06\xec?'
p681
tp682
Rp683
sS'G3PD5'
p684
g2
(g6
S'\x0f\xa8\x88\x0cJ\x9fq@'
p685
tp686
Rp687
sS'EAR140x'
p688
g2
(g6
S'c\xc6`\xbc\xc8~\x11@'
p689
tp690
Rp691
sS'EAR140y'
p692
g2
(g6
S'%\xe9[\xdf;\xa8#@'
p693
tp694
Rp695
sS'3OAS120'
p696
g2
(g6
S'\x97J~\x06\x90\xa9b@'
p697
tp698
Rp699
sS'3OAS121'
p700
g2
(g6
S'\x1d\x10\xc9\xdb\xfa\xddE@'
p701
tp702
Rp703
sS'OHPBAT'
p704
g2
(g6
S'h\xb6=\x89\xa64\x96@'
p705
tp706
Rp707
sS'CHORM'
p708
g2
(g6
S'\xaa{\x85\x85\xf4>\xd1@'
p709
tp710
Rp711
sS'PFK'
p712
g2
(g6
S'\x1cC\xb4`\xbf\xb4,@'
p713
tp714
Rp715
sS'GLCP2'
p716
g2
(g6
S'\xd5\xbc\x9f_U!3@'
p717
tp718
Rp719
sS'3HAD40'
p720
g2
(g6
S'Hh\x9e\x8a1j\x97@'
p721
tp722
Rp723
sS'GRXR'
p724
g2
(g6
S'm][\xfa\xa6\x0f\xa0@'
p725
tp726
Rp727
sS'EAR40y'
p728
g2
(g6
S'%\xe9[\xdf;\xa8#@'
p729
tp730
Rp731
sS'MDDCP3pp'
p732
g2
(g6
S'\xa3v\xb0\xf4@\\1@'
p733
tp734
Rp735
sS'G3PAT160'
p736
g2
(g6
S'\x84\xe1j\x1b-E\x99@'
p737
tp738
Rp739
sS'G3PAT161'
p740
g2
(g6
S'\x84\xe1j\x1b-E\x99@'
p741
tp742
Rp743
sS'EAR100x'
p744
g2
(g6
S'c\xc6`\xbc\xc8~\x11@'
p745
tp746
Rp747
sS'EAR100y'
p748
g2
(g6
S'%\xe9[\xdf;\xa8#@'
p749
tp750
Rp751
sS'DUTPDP'
p752
g2
(g6
S'{\xa4\xaf.\xfa\xe9\x11@'
p753
tp754
Rp755
s.