(dp0
S'GHMT2r'
p1
cnumpy.core.multiarray
scalar
p2
(cnumpy
dtype
p3
(S'f8'
p4
I0
I1
tp5
Rp6
(I3
S'<'
p7
NNNI-1
I-1
I0
tp8
bS'\xbb\x8aE\xd7\xfde#@'
p9
tp10
Rp11
sS'3HAD160'
p12
g2
(g6
S'ML\xa1f\xe3$\x92@'
p13
tp14
Rp15
sS'3HAD161'
p16
g2
(g6
S'ML\xa1f\xe3$\x92@'
p17
tp18
Rp19
sS'ACACT4r'
p20
g2
(g6
S'A/\xa0G\xcdA\x91@'
p21
tp22
Rp23
sS'ACOTA'
p24
g2
(g6
S'+\x99\x06v5\xb9\xc1?'
p25
tp26
Rp27
sS'ALCD2x'
p28
g2
(g6
S'\xe6\xd5\x13?\xa02o@'
p29
tp30
Rp31
sS'LYSTRS'
p32
g2
(g6
S'\x89,\xd5\x99\xb0\xd1\x06@'
p33
tp34
Rp35
sS'GAPD'
p36
g2
(g6
S'"/\xdf\xe6\\lg@'
p37
tp38
Rp39
sS'KAS14'
p40
g2
(g6
S'\x97J~\x06\x90\xa9b@'
p41
tp42
Rp43
sS'TPI'
p44
g2
(g6
S']/\xb3\xb8\xcf\x18\xc5@'
p45
tp46
Rp47
sS'ACONTa'
p48
g2
(g6
S'\xafS%\x19.5\xc8?'
p49
tp50
Rp51
sS'NDPK2'
p52
g2
(g6
S'\xda\x87\x9b)[^\xaa@'
p53
tp54
Rp55
sS'ACONTb'
p56
g2
(g6
S'\xafS%\x19.5\xc8?'
p57
tp58
Rp59
sS'ACACT3r'
p60
g2
(g6
S'A/\xa0G\xcdA\x91@'
p61
tp62
Rp63
sS'3OAS60'
p64
g2
(g6
S'\x97J~\x06\x90\xa9b@'
p65
tp66
Rp67
sS'PHETA1'
p68
g2
(g6
S'\x83\xef(`\xad\xd9\xb4@'
p69
tp70
Rp71
sS'TKT2'
p72
g2
(g6
S'Fiv]\xf2\x8a\xe3@'
p73
tp74
Rp75
sS'TKT1'
p76
g2
(g6
S'Fiv]\xf2\x8a\xe3@'
p77
tp78
Rp79
sS'3OAS140'
p80
g2
(g6
S'\x97J~\x06\x90\xa9b@'
p81
tp82
Rp83
sS'PYK'
p84
g2
(g6
S'\xc9->\x0f\xcc\x87h@'
p85
tp86
Rp87
sS'THRD_L'
p88
g2
(g6
S'\xa1\xe94\xc9\xe4@\x1e@'
p89
tp90
Rp91
sS'ATPS4rpp'
p92
g2
(g6
S'\x91\xd8\xc1\x83\xf1L`@'
p93
tp94
Rp95
sS'NTP1'
p96
g2
(g6
S'\xbfVO\xc9\xaa0T@'
p97
tp98
Rp99
sS'GLUN'
p100
g2
(g6
S'Hb\x15j\xbc\xbcH@'
p101
tp102
Rp103
sS'3HAD100'
p104
g2
(g6
S'ML\xa1f\xe3$\x92@'
p105
tp106
Rp107
sS'FUM'
p108
g2
(g6
S'hA\x14c\xa1\xaaZ@'
p109
tp110
Rp111
sS'FBA3'
p112
g2
(g6
S'\xd1\x1b\x7fK\xac\xa0#@'
p113
tp114
Rp115
sS'MDDCP1pp'
p116
g2
(g6
S'\xa3v\xb0\xf4@\\1@'
p117
tp118
Rp119
sS'PGMT'
p120
g2
(g6
S'8Z\xa7a\n\xba.@'
p121
tp122
Rp123
sS'ACACT6r'
p124
g2
(g6
S'A/\xa0G\xcdA\x91@'
p125
tp126
Rp127
sS'ACALD'
p128
g2
(g6
S'\x0bR\xe6\x9b\xc78\x90@'
p129
tp130
Rp131
sS'MALS'
p132
g2
(g6
S'\xee\xf6nn\x94\x81\x8c@'
p133
tp134
Rp135
sS'UPP3MT'
p136
g2
(g6
S'\xb3\x11\xea\xaa\x99\x81\xf2?'
p137
tp138
Rp139
sS'ACACT1r'
p140
g2
(g6
S'\x91\xb8\x91l|%I@'
p141
tp142
Rp143
sS'MDDCP5pp'
p144
g2
(g6
S'\xa3v\xb0\xf4@\\1@'
p145
tp146
Rp147
sS'3HAD60'
p148
g2
(g6
S'ML\xa1f\xe3$\x92@'
p149
tp150
Rp151
sS'L-LACD2'
p152
g2
(g6
S'\x1b\x02\xf83\x8c\xdb\xd9?'
p153
tp154
Rp155
sS'ENO'
p156
g2
(g6
S'\xa0FXP\n\x9fH@'
p157
tp158
Rp159
sS'3OAS160'
p160
g2
(g6
S'\x97J~\x06\x90\xa9b@'
p161
tp162
Rp163
sS'L-LACD3'
p164
g2
(g6
S'\x1b\x02\xf83\x8c\xdb\xd9?'
p165
tp166
Rp167
sS'3HAD80'
p168
g2
(g6
S'ML\xa1f\xe3$\x92@'
p169
tp170
Rp171
sS'UMPK'
p172
g2
(g6
S"6\x08\x1c\x1bJS'@"
p173
tp174
Rp175
sS'HACD1'
p176
g2
(g6
S'W\x7faYC,E@'
p177
tp178
Rp179
sS'HACD3'
p180
g2
(g6
S'W\x7faYC,E@'
p181
tp182
Rp183
sS'HACD2'
p184
g2
(g6
S'W\x7faYC,E@'
p185
tp186
Rp187
sS'HACD5'
p188
g2
(g6
S'W\x7faYC,E@'
p189
tp190
Rp191
sS'HACD4'
p192
g2
(g6
S'W\x7faYC,E@'
p193
tp194
Rp195
sS'HACD7'
p196
g2
(g6
S'W\x7faYC,E@'
p197
tp198
Rp199
sS'HACD6'
p200
g2
(g6
S'W\x7faYC,E@'
p201
tp202
Rp203
sS'ECOAH6'
p204
g2
(g6
S'\xd8W2\xa9H\x82`@'
p205
tp206
Rp207
sS'ECOAH7'
p208
g2
(g6
S'\xd8W2\xa9H\x82`@'
p209
tp210
Rp211
sS'ECOAH4'
p212
g2
(g6
S'\xd8W2\xa9H\x82`@'
p213
tp214
Rp215
sS'ECOAH5'
p216
g2
(g6
S'\xd8W2\xa9H\x82`@'
p217
tp218
Rp219
sS'ECOAH2'
p220
g2
(g6
S'\xd8W2\xa9H\x82`@'
p221
tp222
Rp223
sS'ECOAH3'
p224
g2
(g6
S'\xd8W2\xa9H\x82`@'
p225
tp226
Rp227
sS'ACACT5r'
p228
g2
(g6
S'A/\xa0G\xcdA\x91@'
p229
tp230
Rp231
sS'ECOAH1'
p232
g2
(g6
S'\xd8W2\xa9H\x82`@'
p233
tp234
Rp235
sS'3HAD180'
p236
g2
(g6
S'ML\xa1f\xe3$\x92@'
p237
tp238
Rp239
sS'3HAD181'
p240
g2
(g6
S'ML\xa1f\xe3$\x92@'
p241
tp242
Rp243
sS'3OAS80'
p244
g2
(g6
S'\x97J~\x06\x90\xa9b@'
p245
tp246
Rp247
sS'MDDCP2pp'
p248
g2
(g6
S'\xa3v\xb0\xf4@\\1@'
p249
tp250
Rp251
sS'3HAD120'
p252
g2
(g6
S'ML\xa1f\xe3$\x92@'
p253
tp254
Rp255
sS'3HAD121'
p256
g2
(g6
S'ML\xa1f\xe3$\x92@'
p257
tp258
Rp259
sS'TYRTA'
p260
g2
(g6
S'\xe0\xc2\xe2\x01i\xe3J@'
p261
tp262
Rp263
sS'ALAR'
p264
g2
(g6
S'\x96\x80\x0e\x90\x18,T@'
p265
tp266
Rp267
sS'PPA2'
p268
g2
(g6
S'\x93y\x80?s\n?@'
p269
tp270
Rp271
sS'A5PISO'
p272
g2
(g6
S'\x19\xe6i\xd5\xbe\xfc\x08@'
p273
tp274
Rp275
sS'SHK3Dr'
p276
g2
(g6
S'\xb7\xff\xab\xcb\x91\xe4\xb4@'
p277
tp278
Rp279
sS'THRAi'
p280
g2
(g6
S'\x14>p\xc1\xb8\x9d\x1e@'
p281
tp282
Rp283
sS'ASPK'
p284
g2
(g6
S'\xdb\xf3{})U7@'
p285
tp286
Rp287
sS'PTAr'
p288
g2
(g6
S'\xfd\xca\x12\xf4N\xcdo@'
p289
tp290
Rp291
sS'ACACT8r'
p292
g2
(g6
S'A/\xa0G\xcdA\x91@'
p293
tp294
Rp295
sS'GLCP'
p296
g2
(g6
S'\xd5\xbc\x9f_U!3@'
p297
tp298
Rp299
sS'3OAS100'
p300
g2
(g6
S'\x97J~\x06\x90\xa9b@'
p301
tp302
Rp303
sS'CYSDS'
p304
g2
(g6
S'\xbd\xc6\xc0\xfb\xf0\xdc\xdf?'
p305
tp306
Rp307
sS'AMPTASECG'
p308
g2
(g6
S'\xb7\xf7vHG\x05\x91@'
p309
tp310
Rp311
sS'NTP10'
p312
g2
(g6
S'\xbfVO\xc9\xaa0T@'
p313
tp314
Rp315
sS'ECOAH8'
p316
g2
(g6
S'\xd8W2\xa9H\x82`@'
p317
tp318
Rp319
sS'PUNP4'
p320
g2
(g6
S'\xf2\x1a\xd3\xd5sS\x8c@'
p321
tp322
Rp323
sS'PUNP5'
p324
g2
(g6
S'\xf2\x1a\xd3\xd5sS\x8c@'
p325
tp326
Rp327
sS'PUNP6'
p328
g2
(g6
S'\xf2\x1a\xd3\xd5sS\x8c@'
p329
tp330
Rp331
sS'SSALy'
p332
g2
(g6
S'\x14J\xe8\n\xb6My@'
p333
tp334
Rp335
sS'ASNN'
p336
g2
(g6
S'\xcf\xc6<b\xacz,@'
p337
tp338
Rp339
sS'FBA'
p340
g2
(g6
S'\xd1\x1b\x7fK\xac\xa0#@'
p341
tp342
Rp343
sS'THRA2i'
p344
g2
(g6
S'\x14>p\xc1\xb8\x9d\x1e@'
p345
tp346
Rp347
sS'HACD8'
p348
g2
(g6
S'W\x7faYC,E@'
p349
tp350
Rp351
sS'3OAS180'
p352
g2
(g6
S'\x97J~\x06\x90\xa9b@'
p353
tp354
Rp355
sS'3OAS181'
p356
g2
(g6
S'\x1e\r\x18\x9f"dZ@'
p357
tp358
Rp359
sS'AMPTASEPG'
p360
g2
(g6
S'\xb7\xf7vHG\x05\x91@'
p361
tp362
Rp363
sS'THFAT'
p364
g2
(g6
S'g\xb1#?\xb85\x0b@'
p365
tp366
Rp367
sS'SERD_L'
p368
g2
(g6
S'4\x19\x10\x83\t\xb2\x03@'
p369
tp370
Rp371
sS'CAT'
p372
g2
(g6
S'Cx\x00\x02+\xf0\xf4@'
p373
tp374
Rp375
sS'3HAD140'
p376
g2
(g6
S'ML\xa1f\xe3$\x92@'
p377
tp378
Rp379
sS'3HAD141'
p380
g2
(g6
S'ML\xa1f\xe3$\x92@'
p381
tp382
Rp383
sS'ACKr'
p384
g2
(g6
S'\xc7R]\xa7\x1dU\x80@'
p385
tp386
Rp387
sS'ACACT2r'
p388
g2
(g6
S'A/\xa0G\xcdA\x91@'
p389
tp390
Rp391
sS'PPA'
p392
g2
(g6
S'\xf4\xd3Oc\xc1\x88\x80@'
p393
tp394
Rp395
sS'PGM'
p396
g2
(g6
S'\xf6\\\xe6P\xe2\xc1@@'
p397
tp398
Rp399
sS'PGK'
p400
g2
(g6
S'\xeaH|\xb8\xfck{@'
p401
tp402
Rp403
sS'PPM'
p404
g2
(g6
S'"DB\x02\x0b\xdf\x0e@'
p405
tp406
Rp407
sS'NDPK8'
p408
g2
(g6
S'\xda\x87\x9b)[^\xaa@'
p409
tp410
Rp411
sS'PUNP3'
p412
g2
(g6
S'\xf2\x1a\xd3\xd5sS\x8c@'
p413
tp414
Rp415
sS'NADDP'
p416
g2
(g6
S'\xbdB\x02\xe4\xaf\x1e\xf7>'
p417
tp418
Rp419
sS'RPI'
p420
g2
(g6
S'uZ\x92o\xf6\x03\xae@'
p421
tp422
Rp423
sS'NDPK3'
p424
g2
(g6
S'\xda\x87\x9b)[^\xaa@'
p425
tp426
Rp427
sS'NDPK1'
p428
g2
(g6
S'\xda\x87\x9b)[^\xaa@'
p429
tp430
Rp431
sS'NDPK6'
p432
g2
(g6
S'\xda\x87\x9b)[^\xaa@'
p433
tp434
Rp435
sS'NDPK7'
p436
g2
(g6
S'\xda\x87\x9b)[^\xaa@'
p437
tp438
Rp439
sS'NDPK4'
p440
g2
(g6
S'\xda\x87\x9b)[^\xaa@'
p441
tp442
Rp443
sS'NDPK5'
p444
g2
(g6
S'\xda\x87\x9b)[^\xaa@'
p445
tp446
Rp447
sS'MDDCP4pp'
p448
g2
(g6
S'\xa3v\xb0\xf4@\\1@'
p449
tp450
Rp451
sS'HSDy'
p452
g2
(g6
S'#.\x98\xcd\xeb\xaa\xf4?'
p453
tp454
Rp455
sS'METAT'
p456
g2
(g6
S'\x9a0i\x86\xf06\xec?'
p457
tp458
Rp459
sS'G3PD5'
p460
g2
(g6
S'\x0f\xa8\x88\x0cJ\x9fq@'
p461
tp462
Rp463
sS'3OAS120'
p464
g2
(g6
S'\x97J~\x06\x90\xa9b@'
p465
tp466
Rp467
sS'CHORM'
p468
g2
(g6
S'\xaa{\x85\x85\xf4>\xd1@'
p469
tp470
Rp471
sS'PFK'
p472
g2
(g6
S'\x1cC\xb4`\xbf\xb4,@'
p473
tp474
Rp475
sS'GLCP2'
p476
g2
(g6
S'\xd5\xbc\x9f_U!3@'
p477
tp478
Rp479
sS'3HAD40'
p480
g2
(g6
S'ML\xa1f\xe3$\x92@'
p481
tp482
Rp483
sS'GRXR'
p484
g2
(g6
S'm][\xfa\xa6\x0f\xa0@'
p485
tp486
Rp487
sS'MDDCP3pp'
p488
g2
(g6
S'\xa3v\xb0\xf4@\\1@'
p489
tp490
Rp491
sS'GLYCLTDy'
p492
g2
(g6
S'\x02\x87_\x93R\x9d\xec?'
p493
tp494
Rp495
sS'ACACT7r'
p496
g2
(g6
S'A/\xa0G\xcdA\x91@'
p497
tp498
Rp499
sS'DUTPDP'
p500
g2
(g6
S'{\xa4\xaf.\xfa\xe9\x11@'
p501
tp502
Rp503
s.