(dp1
S'b2690'
p2
S'YP_003045734.1'
p3
sS'b3821'
p4
S'YP_003046874.1'
p5
sS'b1638'
p6
S'YP_003044808.1'
p7
sS'b2926'
p8
S'YP_003045945.1'
p9
sS'b3825'
p10
S'YP_003046878.1'
p11
sS'b2065'
p12
S'YP_003045165.1'
p13
sS'b2697'
p14
S'YP_003045736.1'
p15
sS'b3197'
p16
S'YP_003046247.1'
p17
sS'b3417'
p18
S'YP_003046453.1'
p19
sS'b2744'
p20
S'YP_003045783.1'
p21
sS'b2514'
p22
S'YP_003045596.1'
p23
sS'b1800'
p24
S'YP_003044967.1'
p25
sS'b2518'
p26
S'YP_003045600.1'
p27
sS'b4384'
p28
S'YP_003047420.1'
p29
sS'b0323'
p30
S'YP_003043505.1'
p31
sS'b2942'
p32
S'YP_003045960.1'
p33
sS'b1896'
p34
S'YP_003045062.1'
p35
sS'b1732'
p36
S'YP_003044899.1'
p37
sS'b3198'
p38
S'YP_003046248.1'
p39
sS'b0243'
p40
S'YP_003043467.1'
p41
sS'b4260'
p42
S'YP_003047295.1'
p43
sS'b4266'
p44
S'YP_003047301.1'
p45
sS'b0002'
p46
S'YP_003043231.1'
p47
sS'b3648'
p48
S'YP_003046684.1'
p49
sS'b2925'
p50
S'YP_003045944.1'
p51
sS'b3996'
p52
S'YP_003047046.1'
p53
sS'b1467'
p54
S'YP_003044633.1'
p55
sS'b2441'
p56
S'YP_003045532.1'
p57
sS'b2440'
p58
S'YP_003045531.1'
p59
sS'b3736'
p60
S'YP_003046796.1'
p61
sS'b3737'
p62
S'YP_003046797.1'
p63
sS'b3730'
p64
S'YP_003046790.1'
p65
sS'b3731'
p66
S'YP_003046791.1'
p67
sS'b3732'
p68
S'YP_003046792.1'
p69
sS'b3733'
p70
S'YP_003046793.1'
p71
sS'b0632'
p72
S'YP_003043822.1'
p73
sS'b1465'
p74
S'YP_003044631.1'
p75
sS'b3738'
p76
S'YP_003046798.1'
p77
sS'b0954'
p78
S'YP_003044176.1'
p79
sS'b0485'
p80
S'YP_003043662.1'
p81
sS'b0888'
p82
S'YP_003044110.1'
p83
sS'b3619'
p84
S'YP_003046656.1'
p85
sS'b2895'
p86
S'YP_003045915.1'
p87
sS'b1702'
p88
S'YP_003044870.1'
p89
sS'b4041'
p90
S'YP_003047085.1'
p91
sS'b3612'
p92
S'YP_003046650.1'
p93
sS'b3368'
p94
S'YP_003046404.1'
p95
sS'b3617'
p96
S'YP_003046655.1'
p97
sS'b2912'
p98
S'YP_003045931.1'
p99
sS'b0650'
p100
S'YP_003043836.1'
p101
sS'b3117'
p102
S'YP_003046169.1'
p103
sS'b3919'
p104
S'YP_003046977.1'
p105
sS'b2585'
p106
S'YP_003045668.1'
p107
sS'b3916'
p108
S'YP_003046974.1'
p109
sS'b0642'
p110
S'YP_003043832.1'
p111
sS'b4161'
p112
S'YP_003047201.1'
p113
sS'b2582'
p114
S'YP_003045665.1'
p115
sS'b0494'
p116
S'YP_003043671.1'
p117
sS'b3115'
p118
S'YP_003046167.1'
p119
sS'b1814'
p120
S'YP_003044981.1'
p121
sS'b1812'
p122
S'YP_003044979.1'
p123
sS'b4471'
p124
S'YP_003046164.1'
p125
sS'b3428'
p126
S'YP_003046463.1'
p127
sS'b1033'
p128
S'YP_003044248.1'
p129
sS'b0893'
p130
S'YP_003044115.1'
p131
sS'b1224'
p132
S'YP_003044417.1'
p133
sS'b1225'
p134
S'YP_003044418.1'
p135
sS'b1226'
p136
S'YP_003044419.1'
p137
sS'b1227'
p138
S'YP_003044420.1'
p139
sS'b1654'
p140
S'YP_003044824.1'
p141
sS'b1131'
p142
S'YP_003044346.1'
p143
sS'b0085'
p144
S'YP_003043315.1'
p145
sS'b2342'
p146
S'YP_003045458.1'
p147
sS'b2615'
p148
S'YP_003045692.1'
p149
sS'b2341'
p150
S'YP_003045457.1'
p151
sS'b1095'
p152
S'YP_003044309.1'
p153
sS'b1094'
p154
S'YP_003044308.1'
p155
sS'b4054'
p156
S'YP_003047098.1'
p157
sS'b1092'
p158
S'YP_003044306.1'
p159
sS'b1091'
p160
S'YP_003044305.1'
p161
sS'b1241'
p162
S'YP_003044428.1'
p163
sS'b1493'
p164
S'YP_003044659.1'
p165
sS'b1719'
p166
S'YP_003044887.1'
p167
sS'b2168'
p168
S'YP_003045290.1'
p169
sS'b1098'
p170
S'YP_003044312.1'
p171
sS'b3846'
p172
S'YP_003046911.1'
p173
sS'b3845'
p174
S'YP_003046910.1'
p175
sS'b0308'
p176
S'YP_003043491.1'
p177
sS'b1415'
p178
S'YP_003044580.1'
p179
sS'b2935'
p180
S'YP_003045953.1'
p181
sS'b0306'
p182
S'YP_003043489.1'
p183
sS'b0307'
p184
S'YP_003043490.1'
p185
sS'b2867'
p186
S'YP_003045888.1'
p187
sS'b2866'
p188
S'YP_003045887.1'
p189
sS'b4117'
p190
S'YP_003047159.1'
p191
sS'b3288'
p192
S'YP_003046323.1'
p193
sS'b0048'
p194
S'YP_003043281.1'
p195
sS'b2276'
p196
S'YP_003045393.1'
p197
sS'b2277'
p198
S'YP_003045405.1'
p199
sS'b3734'
p200
S'YP_003046794.1'
p201
sS'b3281'
p202
S'YP_003046317.1'
p203
sS'b2278'
p204
S'YP_003045395.1'
p205
sS'b2279'
p206
S'YP_003045396.1'
p207
sS'b2224'
p208
S'YP_003045344.1'
p209
sS'b3519'
p210
S'YP_003046549.1'
p211
sS'b2379'
p212
S'YP_003045480.1'
p213
sS'b3997'
p214
S'YP_003047047.1'
p215
sS'b0133'
p216
S'YP_003043361.1'
p217
sS'b2501'
p218
S'YP_003045583.1'
p219
sS'b2502'
p220
S'YP_003045584.1'
p221
sS'b1849'
p222
S'YP_003045017.1'
p223
sS'b2373'
p224
S'YP_003045474.1'
p225
sS'b0120'
p226
S'YP_003043348.1'
p227
sS'b0092'
p228
S'YP_003043555.1'
p229
sS'b2463'
p230
S'YP_003045545.1'
p231
sS'b2296'
p232
S'YP_003045413.1'
p233
sS'b2779'
p234
S'YP_003045813.1'
p235
sS'b3517'
p236
S'YP_003046547.1'
p237
sS'b2874'
p238
S'YP_003045895.1'
p239
sS'b1912'
p240
S'YP_003045074.1'
p241
sS'b1378'
p242
S'YP_003044559.1'
p243
sS'b1276'
p244
S'YP_003044464.1'
p245
sS'b2010'
p246
S'YP_003045107.1'
p247
sS'b4219'
p248
S'YP_003047260.1'
p249
sS'b3212'
p250
S'YP_003046262.1'
p251
sS'b4025'
p252
S'YP_003047069.1'
p253
sS'b0077'
p254
S'YP_003043308.1'
p255
sS'b1767'
p256
S'YP_003044933.1'
p257
sS'b0086'
p258
S'YP_003043316.1'
p259
sS'b3972'
p260
S'YP_003047026.1'
p261
sS'b2096'
p262
S'YP_003045217.1'
p263
sS'b2976'
p264
S'YP_003046030.1'
p265
sS'b2458'
p266
S'YP_003045540.1'
p267
sS'b0078'
p268
S'YP_003043309.1'
p269
sS'b2097'
p270
S'YP_003045218.1'
p271
sS'b3172'
p272
S'YP_003046223.1'
p273
sS'b3176'
p274
S'YP_003046226.1'
p275
sS'b3735'
p276
S'YP_003046795.1'
p277
sS'b4024'
p278
S'YP_003047068.1'
p279
sS'b3580'
p280
S'YP_003046612.1'
p281
sS'b1134'
p282
S'YP_003044349.1'
p283
sS'b2243'
p284
S'YP_003045362.1'
p285
sS'b2242'
p286
g285
sS'b2241'
p287
S'YP_003045360.1'
p288
sS'b2478'
p289
S'YP_003045561.1'
p290
sS'b3605'
p291
S'YP_003046643.1'
p292
sS'b3475'
p293
S'YP_003046507.1'
p294
sS'b0381'
p295
g229
sS'b3073'
p296
S'YP_003046127.1'
p297
sS'b2762'
p298
S'YP_003045796.1'
p299
sS'b3500'
p300
S'YP_003046531.1'
p301
sS'b3608'
p302
S'YP_003046646.1'
p303
sS'b1773'
p304
S'YP_003044939.1'
p305
sS'b0870'
p306
S'YP_003044093.1'
p307
sS'b2411'
p308
S'YP_003045502.1'
p309
sS'b2803'
p310
S'YP_003045842.1'
p311
sS'b3416'
p312
S'YP_003046452.1'
p313
sS'b3942'
p314
S'YP_003047001.1'
p315
sS'b4131'
p316
S'YP_003047172.1'
p317
sS'b3940'
p318
S'YP_003046999.1'
p319
sS'b3091'
p320
S'YP_003046145.1'
p321
sS'b4226'
p322
S'YP_003047265.1'
p323
sS'b2146'
p324
S'YP_003045268.1'
p325
sS'b2147'
p326
S'YP_003045269.1'
p327
sS'b0514'
p328
S'YP_003043690.1'
p329
sS'b4139'
p330
S'YP_003047179.1'
p331
sS'b0516'
p332
S'YP_003043692.1'
p333
sS'b4383'
p334
S'YP_003047419.1'
p335
sS'b1478'
p336
S'YP_003044644.1'
p337
sS'b3430'
p338
S'YP_003046465.1'
p339
sS'b3781'
p340
S'YP_003046833.1'
p341
sS'b2507'
p342
S'YP_003045589.1'
p343
sS'b2286'
p344
S'YP_003045403.1'
p345
sS'b0680'
p346
S'YP_003043856.1'
p347
sS'b2965'
p348
S'YP_003045983.1'
p349
sS'b0684'
p350
S'YP_003043860.1'
p351
sS'b4177'
p352
S'YP_003047214.1'
p353
sS'b1779'
p354
S'YP_003044945.1'
p355
sS'b3426'
p356
S'YP_003046461.1'
p357
sS'b3380'
p358
S'YP_003046416.1'
p359
sS'b0237'
p360
S'YP_003043459.1'
p361
sS'b2315'
p362
S'YP_003045432.1'
p363
sS'b3384'
p364
S'YP_003046420.1'
p365
sS'b0521'
p366
S'YP_003043697.1'
p367
sS'b3389'
p368
S'YP_003046425.1'
p369
sS'b2251'
p370
S'YP_003045370.1'
p371
sS'b0109'
p372
S'YP_003043337.1'
p373
sS'b1768'
p374
S'YP_003044934.1'
p375
sS'b1866'
p376
S'YP_003045034.1'
p377
sS'b2563'
p378
S'YP_003045646.1'
p379
sS'b0849'
p380
S'YP_003044072.1'
p381
sS'b2114'
p382
S'YP_003045237.1'
p383
sS'b0910'
p384
S'YP_003044132.1'
p385
sS'b0118'
p386
S'YP_003043346.1'
p387
sS'b3564'
p388
S'YP_003046597.1'
p389
sS'b3770'
p390
S'YP_003046823.1'
p391
sS'b3771'
p392
S'YP_003046824.1'
p393
sS'b2797'
p394
S'YP_003045831.1'
p395
sS'b0918'
p396
S'YP_003044140.1'
p397
sS'b0171'
p398
S'YP_003043398.1'
p399
sS'b0356'
p400
S'YP_003043537.1'
p401
sS'b4122'
p402
S'YP_003047164.1'
p403
sS'b0421'
p404
S'YP_003043595.1'
p405
sS'b0526'
p406
S'YP_003043702.1'
p407
sS'b3956'
p408
S'YP_003047014.1'
p409
sS'b3957'
p410
S'YP_003047015.1'
p411
sS'b1525'
p412
S'YP_003044685.1'
p413
sS'b4129'
p414
S'YP_003047170.1'
p415
sS'b1064'
p416
S'YP_003044278.1'
p417
sS'b1215'
p418
S'YP_003044405.1'
p419
sS'b0756'
p420
S'YP_003043927.1'
p421
sS'b0755'
p422
S'YP_003043926.1'
p423
sS'b0907'
p424
S'YP_003044129.1'
p425
sS'b2708'
p426
S'YP_003045747.1'
p427
sS'b1740'
p428
S'YP_003044907.1'
p429
sS'b0212'
p430
S'YP_003043434.1'
p431
sS'b0474'
p432
S'YP_003043651.1'
p433
sS'b2599'
p434
S'YP_003045677.1'
p435
sS'b0693'
p436
S'YP_003043868.1'
p437
sS'b1748'
p438
S'YP_003044915.1'
p439
sS'b1466'
p440
S'YP_003044632.1'
p441
sS'b3772'
p442
S'YP_003046825.1'
p443
sS'b2954'
p444
S'YP_003045972.1'
p445
sS'b2914'
p446
S'YP_003045933.1'
p447
sS'b0459'
p448
S'YP_003043636.1'
p449
sS'b3708'
p450
S'YP_003046768.1'
p451
sS'b0594'
p452
S'YP_003043783.1'
p453
sS'b2465'
p454
S'YP_003045547.1'
p455
sS'b2890'
p456
S'YP_003045910.1'
p457
sS'b3739'
p458
S'YP_003046799.1'
p459
sS'b1852'
p460
S'YP_003045020.1'
p461
sS'b1851'
p462
S'YP_003045019.1'
p463
sS'b2868'
p464
S'YP_003045889.1'
p465
sS'b2021'
p466
S'YP_003045117.1'
p467
sS'b1854'
p468
S'YP_003045022.1'
p469
sS'b2557'
p470
S'YP_003045639.1'
p471
sS'b1676'
p472
S'YP_003044845.1'
p473
sS'b2600'
p474
S'YP_003045678.1'
p475
sS'b2551'
p476
S'YP_003045633.1'
p477
sS'b2283'
p478
S'YP_003045400.1'
p479
sS'b2282'
p480
S'YP_003045399.1'
p481
sS'b2281'
p482
S'YP_003045398.1'
p483
sS'b2280'
p484
S'YP_003045397.1'
p485
sS'b2287'
p486
S'YP_003045404.1'
p487
sS'b0063'
p488
S'YP_003043294.1'
p489
sS'b2285'
p490
S'YP_003045402.1'
p491
sS'b2284'
p492
g487
sS'b2827'
p493
S'YP_003045863.1'
p494
sS'b0104'
p495
S'YP_003043333.1'
p496
sS'b2288'
p497
g199
sS'b1611'
p498
S'YP_003044780.1'
p499
sS'b1207'
p500
S'YP_003044397.1'
p501
sS'b1613'
p502
S'YP_003044782.1'
p503
sS'b1612'
p504
S'YP_003044781.1'
p505
sS'b0186'
p506
S'YP_003043413.1'
p507
sS'b0221'
p508
S'YP_003043445.1'
p509
sS'b3809'
p510
S'YP_003046859.1'
p511
sS'b0182'
p512
S'YP_003043409.1'
p513
sS'b0180'
p514
S'YP_003043407.1'
p515
sS'b1692'
p516
S'YP_003044860.1'
p517
sS'b4014'
p518
S'YP_003047059.1'
p519
sS'b3803'
p520
S'YP_003046852.1'
p521
sS'b1190'
p522
S'YP_003044380.1'
p523
sS'b0025'
p524
S'YP_003043259.1'
p525
sS'b1197'
p526
S'YP_003044387.1'
p527
sS'b3967'
p528
S'YP_003047025.1'
p529
sS'b0026'
p530
S'YP_003043260.1'
p531
sS'b3670'
p532
S'YP_003046731.1'
p533
sS'b1651'
p534
S'YP_003044821.1'
p535
sS'b0822'
p536
S'YP_003044007.1'
p537
sS'b0688'
p538
S'YP_003043864.1'
p539
sS'b0351'
p540
S'YP_003043532.1'
p541
sS'b0507'
p542
S'YP_003043683.1'
p543
sS'b4090'
p544
S'YP_003047133.1'
p545
sS'b0828'
p546
S'YP_003044013.1'
p547
sS'b3008'
p548
S'YP_003046066.1'
p549
sS'b3588'
p550
S'YP_003046623.1'
p551
sS'b0968'
p552
S'YP_003044190.1'
p553
sS'b0932'
p554
S'YP_003044154.1'
p555
sS'b0931'
p556
S'YP_003044153.1'
p557
sS'b1745'
p558
S'YP_003044912.1'
p559
sS'b3551'
p560
S'YP_003046582.1'
p561
sS'b3553'
p562
S'YP_003046584.1'
p563
sS'b1109'
p564
S'YP_003044323.1'
p565
sS'b3124'
p566
S'YP_003046174.1'
p567
sS'b2234'
p568
S'YP_003045353.1'
p569
sS'b2235'
p570
S'YP_003045354.1'
p571
sS'b3650'
p572
S'YP_003046686.1'
p573
sS'b2838'
p574
S'YP_003045874.1'
p575
sS'b3182'
p576
S'YP_003046232.1'
p577
sS'b3610'
p578
S'YP_003046648.1'
p579
sS'b3639'
p580
S'YP_003046675.1'
p581
sS'b1606'
p582
S'YP_003044775.1'
p583
sS'b2938'
p584
S'YP_003045956.1'
p585
sS'b3189'
p586
S'YP_003046239.1'
p587
sS'b2297'
p588
S'YP_003045414.1'
p589
sS'b2290'
p590
S'YP_003045407.1'
p591
sS'b2523'
p592
S'YP_003045605.1'
p593
sS'b2688'
p594
S'YP_003045732.1'
p595
sS'b2203'
p596
S'YP_003045323.1'
p597
sS'b4395'
p598
S'YP_003047431.1'
p599
sS'b4394'
p600
S'YP_003047430.1'
p601
sS'b4258'
p602
S'YP_003047293.1'
p603
sS'b1524'
p604
S'YP_003044684.1'
p605
sS'b0032'
p606
S'YP_003043266.1'
p607
sS'b0033'
p608
S'YP_003043267.1'
p609
sS'b1723'
p610
S'YP_003044890.1'
p611
sS'b0031'
p612
S'YP_003043265.1'
p613
sS'b3779'
p614
S'YP_003046831.1'
p615
sS'b3126'
p616
S'YP_003046176.1'
p617
sS'b4053'
p618
S'YP_003047097.1'
p619
sS'b3939'
p620
S'YP_003046998.1'
p621
sS'b2202'
p622
S'YP_003045322.1'
p623
sS'b3671'
p624
S'YP_003046732.1'
p625
sS'b1014'
p626
S'YP_003044235.1'
p627
sS'b2661'
p628
S'YP_003045706.1'
p629
sS'b3213'
p630
S'YP_003046263.1'
p631
sS'b2040'
p632
S'YP_003045140.1'
p633
sS'b3359'
p634
S'YP_003046395.1'
p635
sS'b1288'
p636
S'YP_003044476.1'
p637
sS'b0839'
p638
S'YP_003044024.1'
p639
sS'b1468'
p640
S'YP_003044634.1'
p641
sS'b2323'
p642
S'YP_003045440.1'
p643
sS'b2436'
p644
S'YP_003045527.1'
p645
sS'b0928'
p646
S'YP_003044150.1'
p647
sS'b3526'
p648
S'YP_003046556.1'
p649
sS'b3640'
p650
S'YP_003046676.1'
p651
sS'b3137'
p652
S'YP_003046189.1'
p653
sS'b2810'
p654
S'YP_003045849.1'
p655
sS'b3132'
p656
S'YP_003046182.1'
p657
sS'b2206'
p658
S'YP_003045326.1'
p659
sS'b2205'
p660
S'YP_003045325.1'
p661
sS'b2204'
p662
S'YP_003045324.1'
p663
s.