(dp1
S'GHMT2r'
p2
F6279537.2652044659
sS'G6PDH2r'
p3
F523336860.38947576
sS'GTPDPDP'
p4
F2798.0268087180416
sS'LPLIPAL1E160pp'
p5
F120615280.47018573
sS'LPLIPAL1E161pp'
p6
F120615280.47018573
sS'CYSSADS'
p7
F1286952.7838647978
sS'PSERT'
p8
F937751348.05441487
sS'LPLIPAL1A181pp'
p9
F120615280.47018573
sS'PLIPA2G141pp'
p10
F107674.10498035928
sS'LPLIPAL2A140'
p11
F7932944.3385188673
sS'UPPDC1'
p12
F5080.6221702622415
sS'PGI'
p13
F93013132.363826409
sS'NAMNPP'
p14
F35342022.590198249
sS'NTP12'
p15
F15996249.231883964
sS'PLIPA1A161pp'
p16
F2735.3698724802593
sS'DHDPRy'
p17
F245296.82931081695
sS'P5CD'
p18
F9383.2648467604267
sS'EAR181y'
p19
F6498756.4582739705
sS'LPADSS'
p20
F59195492.759404019
sS'EAR161y'
p21
F6498756.4582739705
sS'EAR161x'
p22
F2892008.5955446786
sS'LPLIPAL1A120pp'
p23
F120615280.47018573
sS'PLIPA1E180pp'
p24
F2735.3698724802593
sS'ACOAD2f'
p25
F212753.03475054028
sS'PLIPA1E181pp'
p26
F2735.3698724802593
sS'HSTPT'
p27
F103655.62589393045
sS'GTHOr'
p28
F11177335.144901596
sS'PLIPA2E141pp'
p29
F107674.10498035928
sS'APH140'
p30
F35523990.631483436
sS'PLIPA1G140pp'
p31
F2735.3698724802593
sS'PLIPA1G161pp'
p32
F2735.3698724802593
sS'PLIPA1E161pp'
p33
F2735.3698724802593
sS'G1PACT'
p34
F281910.97159723
sS'LPLIPAL2G160'
p35
F7932944.3385188673
sS'LPLIPAL2G161'
p36
F7932944.3385188673
sS'EPMEACPR'
p37
F6498756.4582739705
sS'GALM2pp'
p38
F225274793.93544015
sS'TPI'
p39
F8400736213.0400543
sS'EAR40x'
p40
F2892008.5955446786
sS'EAR40y'
p41
F6498756.4582739705
sS'TRE6PS'
p42
F16356.932085855195
sS'LPLIPAL2E140'
p43
F7932944.3385188673
sS'LPLIPAL1E120pp'
p44
F120615280.47018573
sS'GMPR'
p45
F198289256.95267084
sS'PANTS'
p46
F86523.00703279204
sS'NADS1'
p47
F17813.514696515427
sS'TREH'
p48
F205502.79065918305
sS'FMETTRS'
p49
F807154.29318645445
sS'PRFGS'
p50
F111922.13506289656
sS'PLIPA2A180pp'
p51
F107674.10498035928
sS'DAPDC'
p52
F238548.55936542581
sS'TREHpp'
p53
F3745386.9142093677
sS'SERTRS2'
p54
F180128.00658488827
sS'3OAS141'
p55
F27590918.074870668
sS'PLIPA2G140pp'
p56
F107674.10498035928
sS'DHBS'
p57
F96675.83650155201
sS'PSSA161'
p58
F127604371.76301357
sS'PPNCL2'
p59
F34918.193081922524
sS'ACOAD1f'
p60
F119189375.21038669
sS'EGMEACPR'
p61
F6498756.4582739705
sS'GLYOX'
p62
F42153823.305774704
sS'LPLIPAL2E120'
p63
F7932944.3385188673
sS'PLIPA1A141pp'
p64
F2735.3698724802593
sS'LPLIPAL1A161pp'
p65
F120615280.47018573
sS'ACODA'
p66
F154856262.55850691
sS'DHQS'
p67
F294104.20180166978
sS'CYTK1'
p68
F3786143.1673561814
sS'CYTK2'
p69
F3786143.1673561814
sS'KDOCT2'
p70
F219585338.67927423
sS'LEUTRS'
p71
F2589720.621147777
sS'TRPTRS'
p72
F14206133.732675202
sS'NTP3'
p73
F52942651.721402198
sS'PROD2'
p74
F28149.79454028128
sS'GLUR'
p75
F1149627701.0083776
sS'MAN6PI'
p76
F756885208.92929614
sS'NTP5'
p77
F52942651.721402198
sS'LPLIPAL2A160'
p78
F7932944.3385188673
sS'LPLIPAL2A161'
p79
F7932944.3385188673
sS'ACOAD7f'
p80
F212753.03475054028
sS'PLIPA1E141pp'
p81
F2735.3698724802593
sS'PLIPA1A120pp'
p82
F2735.3698724802593
sS'LPLIPAL1E181pp'
p83
F120615280.47018573
sS'EAR141x'
p84
F2892008.5955446786
sS'LCADi'
p85
F269419964.63411492
sS'KDOPS'
p86
F650330110.29648948
sS'PSSA160'
p87
F127604371.76301357
sS'GK1'
p88
F9723113.9582126141
sS'PGK'
p89
F271463717.53754717
sS'APH161'
p90
F35523990.631483436
sS'EAR120x'
p91
F2892008.5955446786
sS'EAR120y'
p92
F6498756.4582739705
sS'DCTPD'
p93
F723242.24957824335
sS'FMNAT'
p94
F537.82672633037475
sS'ACOAD4f'
p95
F212753.03475054028
sS'PLIPA2A160pp'
p96
F107674.10498035928
sS'GDPTPDP'
p97
F6260.9262727862315
sS'LPLIPAL2G140'
p98
F7932944.3385188673
sS'LPLIPAL2G141'
p99
F7932944.3385188673
sS'PPND'
p100
F5344657.2164632278
sS'ADSL2r'
p101
F158479.41763465019
sS'LPLIPAL1G120pp'
p102
F120615280.47018573
sS'ENO'
p103
F33787067.342328228
sS'ALDD2y'
p104
F128901859.79790632
sS'GRTT'
p105
F6602.6376994027223
sS'3OAS161'
p106
F27590918.074870668
sS'ASPTA'
p107
F23783457.775155824
sS'LPLIPAL1E141pp'
p108
F120615280.47018573
sS'GLNTRS'
p109
F106093.09556109046
sS'ADNK1'
p110
F884614.80419671489
sS'PLIPA1A181pp'
p111
F2735.3698724802593
sS'LPLIPAL1A141pp'
p112
F120615280.47018573
sS'LPLIPAL2E160'
p113
F7932944.3385188673
sS'LPLIPAL2E161'
p114
F7932944.3385188673
sS'NADH5'
p115
F11825138.089857524
sS'G3PD2'
p116
F357998859.77172351
sS'NADH9'
p117
F11825138.089857524
sS'EAR160x'
p118
F2892008.5955446786
sS'EAR160y'
p119
F6498756.4582739705
sS'AMALT3'
p120
F7555118.8328084657
sS'PSSA181'
p121
F127604371.76301357
sS'PPK2r'
p122
F197229.09001434792
sS'EAR121y'
p123
F6498756.4582739705
sS'PLIPA1E120pp'
p124
F2735.3698724802593
sS'MICITDr'
p125
F598447743.70965278
sS'EAR80x'
p126
F2892008.5955446786
sS'ACOAD3f'
p127
F212753.03475054028
sS'METAT'
p128
F651264.15957599843
sS'G6PP'
p129
F2151687.8921337766
sS'ACOAD6f'
p130
F212753.03475054028
sS'ARGDCpp'
p131
F193901.97211695823
sS'ADSS'
p132
F224431.01095489782
sS'PSSA180'
p133
F127604371.76301357
sS'GMPS2'
p134
F8687.6624196927878
sS'PLIPA2E181pp'
p135
F107674.10498035928
sS'UAGCVT'
p136
F152793.75481201211
sS'SHSL1'
p137
F200568815.31168896
sS'DDGLK'
p138
F171979.3066267086
sS'DAPE'
p139
F620135.0678455024
sS'ME2'
p140
F62519854.961358614
sS'G5SD'
p141
F295049750.20680177
sS'EAR141y'
p142
F6498756.4582739705
sS'NNDPR'
p143
F9043.425708195733
sS'VALTRS'
p144
F1215548.5798858255
sS'EAR180y'
p145
F6498756.4582739705
sS'ASPT'
p146
F2095982.4402130453
sS'GLUCYS'
p147
F188048554.36595523
sS'APH141'
p148
F35523990.631483436
sS'DMATT'
p149
F18864.679141150635
sS'PLIPA2A141pp'
p150
F107674.10498035928
sS'LPLIPAL1G140pp'
p151
F120615280.47018573
sS'FCLK'
p152
F4837623.3842779137
sS'ALCD19'
p153
F20072878.440794613
sS'PLIPA2A140pp'
p154
F107674.10498035928
sS'RBK_L1'
p155
F32790.877476520109
sS'LPLIPAL1G141pp'
p156
F120615280.47018573
sS'SERTRS'
p157
F180128.00658488827
sS'PPM2'
p158
F2422594.5858592349
sS'CYSTRS'
p159
F2910392.8127235556
sS'ARGSS'
p160
F713913493.99246156
sS'LPLIPAL2A180'
p161
F7932944.3385188673
sS'LPLIPAL2A181'
p162
F7932944.3385188673
sS'HISTRS'
p163
F3331326.1820978182
sS'EAR60x'
p164
F2892008.5955446786
sS'PPCDC'
p165
F34918.193081922524
sS'LPLIPAL1A140pp'
p166
F120615280.47018573
sS'PPKr'
p167
F197229.09001434792
sS'PLIPA1G141pp'
p168
F2735.3698724802593
sS'PLIPA2G120pp'
p169
F107674.10498035928
sS'DHDPS'
p170
F6660995.0706562242
sS'TMDS'
p171
F208382.82810479627
sS'GCALDD'
p172
F269419964.63411492
sS'LPLIPAL2G120'
p173
F7932944.3385188673
sS'PLIPA1G180pp'
p174
F2735.3698724802593
sS'TDPDRR'
p175
F307688.62117221666
sS'APH120'
p176
F35523990.631483436
sS'NTP11'
p177
F15996249.231883964
sS'UGMDDS'
p178
F181192205.36018053
sS'LPLIPAL1G180pp'
p179
F120615280.47018573
sS'PLIPA1G181pp'
p180
F2735.3698724802593
sS'PLIPA2A181pp'
p181
F107674.10498035928
sS'EAR60y'
p182
F6498756.4582739705
sS'DHFS'
p183
F177276484.18089023
sS'LPLIPAL1A160pp'
p184
F120615280.47018573
sS'PLIPA1A160pp'
p185
F2735.3698724802593
sS'OHPBAT'
p186
F937751348.05441487
sS'EDD'
p187
F37528989.73973427
sS'PLIPA1G120pp'
p188
F2735.3698724802593
sS'LPLIPAL1E180pp'
p189
F120615280.47018573
sS'PLIPA2E160pp'
p190
F107674.10498035928
sS'THRTRS'
p191
F1879478.8911022947
sS'PUNP2'
p192
F574537550.74912977
sS'PLIPA1E160pp'
p193
F2735.3698724802593
sS'FRUK'
p194
F45517165.603387937
sS'LPLIPAL2E181'
p195
F7932944.3385188673
sS'PGAMT'
p196
F135308.14234433704
sS'PLIPA1A140pp'
p197
F2735.3698724802593
sS'DHAD1'
p198
F2447355.1522949496
sS'LPLIPAL1A180pp'
p199
F120615280.47018573
sS'3OAS181'
p200
F76170382.224276915
sS'PTRCTA'
p201
F279301157.57444125
sS'THFAT'
p202
F2202052.4973619687
sS'LPLIPAL1E140pp'
p203
F120615280.47018573
sS'ACOAD5f'
p204
F212753.03475054028
sS'EAR80y'
p205
F6498756.4582739705
sS'LPLIPAL1G160pp'
p206
F120615280.47018573
sS'AMALT4'
p207
F7555118.8328084657
sS'EAR180x'
p208
F2892008.5955446786
sS'CPPPGO'
p209
F8942.7845764026424
sS'OPMEACPD'
p210
F899301938.94360375
sS'LPLIPAL1G161pp'
p211
F120615280.47018573
sS'ACOAD8f'
p212
F212753.03475054028
sS'PLIPA2A120pp'
p213
F107674.10498035928
sS'PLIPA1E140pp'
p214
F2735.3698724802593
sS'UAGDP'
p215
F7502469.4054101538
sS'PLIPA1G160pp'
p216
F2735.3698724802593
sS'AMALT2'
p217
F7555118.8328084657
sS'OPMEACPS'
p218
F27590918.074870668
sS'PLIPA2E161pp'
p219
F107674.10498035928
sS'PDX5POi'
p220
F223045.50316004618
sS'AMALT1'
p221
F7555118.8328084657
sS'LPLIPAL1G181pp'
p222
F120615280.47018573
sS'UAPGR'
p223
F86189329.352030531
sS'NADH10'
p224
F11825138.089857524
sS'PLIPA2E120pp'
p225
F107674.10498035928
sS'PPC'
p226
F19941120.968571592
sS'LPLIPAL2A120'
p227
F7932944.3385188673
sS'FBA3'
p228
F5877078.2023730436
sS'EAR121x'
p229
F2892008.5955446786
sS'METTRS'
p230
F1069148.8201607836
sS'APH180'
p231
F35523990.631483436
sS'APH181'
p232
F35523990.631483436
sS'ADK1'
p233
F30510538.050627869
sS'PPS'
p234
F29906402.007988568
sS'ALATRS'
p235
F3053100.5888813115
sS'GLGC'
p236
F4181476.424960155
sS'PUNP1'
p237
F574537550.74912977
sS'PSSA120'
p238
F127604371.76301357
sS'PLIPA2G181pp'
p239
F107674.10498035928
sS'PLIPA2E140pp'
p240
F107674.10498035928
sS'ASPTRS'
p241
F1376189.2899000372
sS'LPLIPAL2A141'
p242
F7932944.3385188673
sS'OGMEACPD'
p243
F899301938.94360375
sS'PLIPA2G180pp'
p244
F107674.10498035928
sS'PYAM5PO'
p245
F223045.50316004618
sS'EAR140y'
p246
F6498756.4582739705
sS'APH160'
p247
F35523990.631483436
sS'EAR181x'
p248
F2892008.5955446786
sS'SADH'
p249
F70293649.518371627
sS'DGK1'
p250
F9723113.9582126141
sS'PLIPA2G160pp'
p251
F107674.10498035928
sS'PFK_2'
p252
F3768504.0915629771
sS'LPLIPAL2E180'
p253
F7932944.3385188673
sS'DTMPK'
p254
F59486.348880510996
sS'GAPD'
p255
F114202022.4078497
sS'RBFK'
p256
F4327.3414762214061
sS'PLIPA1A180pp'
p257
F2735.3698724802593
sS'EAR140x'
p258
F2892008.5955446786
sS'PLIPA2G161pp'
p259
F107674.10498035928
sS'PFK_3'
p260
F3768504.0915629771
sS'3OAS121'
p261
F27590918.074870668
sS'PPGPPDP'
p262
F6260.9262727862315
sS'ILETRS'
p263
F2544525.1204083762
sS'2DGULRGy'
p264
F507804189.89795792
sS'ALTRH'
p265
F23242657.872263964
sS'PLIPA2A161pp'
p266
F107674.10498035928
sS'DADK'
p267
F693815532.70330572
sS'UAAGDS'
p268
F252037506.17453852
sS'LPLIPAL2G180'
p269
F7932944.3385188673
sS'LPLIPAL2G181'
p270
F7932944.3385188673
sS'ALLTAMH'
p271
F4548405.0888694115
sS'CTECOAI6'
p272
F5279797.5958865248
sS'CTECOAI7'
p273
F5279797.5958865248
sS'LPLIPAL2E141'
p274
F7932944.3385188673
sS'GLYAT'
p275
F94407588.349588394
sS'ADSL1r'
p276
F158479.41763465019
sS'PSSA141'
p277
F127604371.76301357
sS'PSSA140'
p278
F127604371.76301357
sS'PLIPA2E180pp'
p279
F107674.10498035928
sS'EAR100x'
p280
F2892008.5955446786
sS'EAR100y'
p281
F6498756.4582739705
sS'CTECOAI8'
p282
F5279797.5958865248
sS'ADMDC'
p283
F159789.7689936939
s.