(dp0
S'L_LACD2'
p1
cnumpy.core.multiarray
scalar
p2
(cnumpy
dtype
p3
(S'f8'
p4
I0
I1
tp5
Rp6
(I3
S'<'
p7
NNNI-1
I-1
I0
tp8
bS'X\x1f#\xc4\xc9R\xe5?'
p9
tp10
Rp11
sS'L_LACD3'
p12
g2
(g6
S'X\x1f#\xc4\xc9R\xe5?'
p13
tp14
Rp15
sS'P5CD'
p16
g2
(g6
S'\xf7\x9e[\xc8\xbcm\x8b?'
p17
tp18
Rp19
sS'PROD2'
p20
g2
(g6
S'9\xb7D\x96M\x92\xa4?'
p21
tp22
Rp23
sS'NO3R1bpp'
p24
g2
(g6
S'\xe6u\xe5\x9a\xaa\\\xd7?'
p25
tp26
Rp27
sS'ALLTAMH'
p28
g2
(g6
S'\xd4j9\x04\xd4\xf7\x19@'
p29
tp30
Rp31
sS'PPM'
p32
g2
(g6
S'\x99\xce\nq\xd9\xa5\xc5?'
p33
tp34
Rp35
sS'ACACT1r'
p36
g2
(g6
S'^1$&(Y\xd8?'
p37
tp38
Rp39
sS'NO3R2bpp'
p40
g2
(g6
S'\xe6u\xe5\x9a\xaa\\\xd7?'
p41
tp42
Rp43
sS'NO3R1pp'
p44
g2
(g6
S'\x0b\xfa\x96\\\xd5e\xe1?'
p45
tp46
Rp47
sS'XAND'
p48
g2
(g6
S'1U\x10\x83\xc6\xe0\x16@'
p49
tp50
Rp51
s.