(dp0
S'HACD1i'
p1
cnumpy.core.multiarray
scalar
p2
(cnumpy
dtype
p3
(S'f8'
p4
I0
I1
tp5
Rp6
(I3
S'<'
p7
NNNI-1
I-1
I0
tp8
bS'\xae\x1bp\xab\xd2M\xf0?'
p9
tp10
Rp11
sS'L_LACD2'
p12
g2
(g6
S'b\x86F\xee}\x1a\xbf?'
p13
tp14
Rp15
sS'ACOAD6f'
p16
g2
(g6
S'\r\xf5\x8e\xda\x84@w?'
p17
tp18
Rp19
sS'HACD7i'
p20
g2
(g6
S'\xae\x1bp\xab\xd2M\xf0?'
p21
tp22
Rp23
sS'L_LACD3'
p24
g2
(g6
S'b\x86F\xee}\x1a\xbf?'
p25
tp26
Rp27
sS'ACOAD8f'
p28
g2
(g6
S'\r\xf5\x8e\xda\x84@w?'
p29
tp30
Rp31
sS'HACD5i'
p32
g2
(g6
S'\xae\x1bp\xab\xd2M\xf0?'
p33
tp34
Rp35
sS'ALLTAMH'
p36
g2
(g6
S'f\x91)\x1b\xb5\xf1\x18@'
p37
tp38
Rp39
sS'CAT'
p40
g2
(g6
S'm\xad\x8b2\xce\x16\x94@'
p41
tp42
Rp43
sS'ALAR'
p44
g2
(g6
S'<msA\x03\xbf(@'
p45
tp46
Rp47
sS'HACD3i'
p48
g2
(g6
S'\xae\x1bp\xab\xd2M\xf0?'
p49
tp50
Rp51
sS'ACACT2r'
p52
g2
(g6
S'\xf2\xfb\x84\xb6ssE@'
p53
tp54
Rp55
sS'MDDCP1pp'
p56
g2
(g6
S'\xe7jn|!\xfe\xbb?'
p57
tp58
Rp59
sS'HACD8i'
p60
g2
(g6
S'\xae\x1bp\xab\xd2M\xf0?'
p61
tp62
Rp63
sS'ACACT6r'
p64
g2
(g6
S'\xf2\xfb\x84\xb6ssE@'
p65
tp66
Rp67
sS'ACACT4r'
p68
g2
(g6
S'\xf2\xfb\x84\xb6ssE@'
p69
tp70
Rp71
sS'ACOAD2f'
p72
g2
(g6
S'\r\xf5\x8e\xda\x84@w?'
p73
tp74
Rp75
sS'ACACT8r'
p76
g2
(g6
S'\xf2\xfb\x84\xb6ssE@'
p77
tp78
Rp79
sS'NO3R1pp'
p80
g2
(g6
S'Z\xe2\x12\xf7"w\xe6?'
p81
tp82
Rp83
sS'ACOAD4f'
p84
g2
(g6
S'\r\xf5\x8e\xda\x84@w?'
p85
tp86
Rp87
sS'MDDCP5pp'
p88
g2
(g6
S'\xe7jn|!\xfe\xbb?'
p89
tp90
Rp91
sS'ACOAD7f'
p92
g2
(g6
S'\r\xf5\x8e\xda\x84@w?'
p93
tp94
Rp95
sS'MDDCP4pp'
p96
g2
(g6
S'\xe7jn|!\xfe\xbb?'
p97
tp98
Rp99
sS'HACD6i'
p100
g2
(g6
S'\xae\x1bp\xab\xd2M\xf0?'
p101
tp102
Rp103
sS'HACD4i'
p104
g2
(g6
S'\xae\x1bp\xab\xd2M\xf0?'
p105
tp106
Rp107
sS'MDDCP2pp'
p108
g2
(g6
S'\xe7jn|!\xfe\xbb?'
p109
tp110
Rp111
sS'ACACT1r'
p112
g2
(g6
S'A\xd0\xa8\xa19\xbb\x03@'
p113
tp114
Rp115
sS'ACACT7r'
p116
g2
(g6
S'\xf2\xfb\x84\xb6ssE@'
p117
tp118
Rp119
sS'ACACT3r'
p120
g2
(g6
S'\xf2\xfb\x84\xb6ssE@'
p121
tp122
Rp123
sS'HACD2i'
p124
g2
(g6
S'\xae\x1bp\xab\xd2M\xf0?'
p125
tp126
Rp127
sS'TREH'
p128
g2
(g6
S'\x96\x1c1\xe5\xdcx\xc2?'
p129
tp130
Rp131
sS'ECOAH8'
p132
g2
(g6
S'^\x97h\x1b\xd2l\t@'
p133
tp134
Rp135
sS'ALTRH'
p136
g2
(g6
S'\x8b\xd6\xab\x14v9B@'
p137
tp138
Rp139
sS'ECOAH6'
p140
g2
(g6
S'^\x97h\x1b\xd2l\t@'
p141
tp142
Rp143
sS'ECOAH7'
p144
g2
(g6
S'^\x97h\x1b\xd2l\t@'
p145
tp146
Rp147
sS'ECOAH4'
p148
g2
(g6
S'^\x97h\x1b\xd2l\t@'
p149
tp150
Rp151
sS'ECOAH5'
p152
g2
(g6
S'^\x97h\x1b\xd2l\t@'
p153
tp154
Rp155
sS'ECOAH2'
p156
g2
(g6
S'^\x97h\x1b\xd2l\t@'
p157
tp158
Rp159
sS'ECOAH3'
p160
g2
(g6
S'^\x97h\x1b\xd2l\t@'
p161
tp162
Rp163
sS'ACACT5r'
p164
g2
(g6
S'\xf2\xfb\x84\xb6ssE@'
p165
tp166
Rp167
sS'ECOAH1'
p168
g2
(g6
S'^\x97h\x1b\xd2l\t@'
p169
tp170
Rp171
sS'CTECOAI6'
p172
g2
(g6
S'!\xc3\x11\x9e\x91\xe5\xc6?'
p173
tp174
Rp175
sS'CTECOAI7'
p176
g2
(g6
S'!\xc3\x11\x9e\x91\xe5\xc6?'
p177
tp178
Rp179
sS'ACOAD1f'
p180
g2
(g6
S'\xdb\xab\xf7A,q\t@'
p181
tp182
Rp183
sS'ACOAD5f'
p184
g2
(g6
S'\r\xf5\x8e\xda\x84@w?'
p185
tp186
Rp187
sS'MDDCP3pp'
p188
g2
(g6
S'\xe7jn|!\xfe\xbb?'
p189
tp190
Rp191
sS'ACOAD3f'
p192
g2
(g6
S'\r\xf5\x8e\xda\x84@w?'
p193
tp194
Rp195
sS'PTRCTA'
p196
g2
(g6
S"\r\xb1\x97\x8b\x8a\x18'@"
p197
tp198
Rp199
sS'SERD_L'
p200
g2
(g6
S'\xbd\xaf2\xa9v\xf7\xe9?'
p201
tp202
Rp203
sS'CTECOAI8'
p204
g2
(g6
S'!\xc3\x11\x9e\x91\xe5\xc6?'
p205
tp206
Rp207
sS'XAND'
p208
g2
(g6
S'y\xa1\xaeHO\xea2@'
p209
tp210
Rp211
s.