(dp0
S'HACD1i'
p1
cnumpy.core.multiarray
scalar
p2
(cnumpy
dtype
p3
(S'f8'
p4
I0
I1
tp5
Rp6
(I3
S'<'
p7
NNNI-1
I-1
I0
tp8
bS'\xabv\x11a\xdf.\xfc?'
p9
tp10
Rp11
sS'ACOAD6f'
p12
g2
(g6
S'\xd1*4\x19\x1a.\x93?'
p13
tp14
Rp15
sS'HACD7i'
p16
g2
(g6
S'\xabv\x11a\xdf.\xfc?'
p17
tp18
Rp19
sS'ACOAD8f'
p20
g2
(g6
S'\xd1*4\x19\x1a.\x93?'
p21
tp22
Rp23
sS'HACD5i'
p24
g2
(g6
S'\xabv\x11a\xdf.\xfc?'
p25
tp26
Rp27
sS'HACD3i'
p28
g2
(g6
S'\xabv\x11a\xdf.\xfc?'
p29
tp30
Rp31
sS'NO3R2bpp'
p32
g2
(g6
S'\xfd\x8c\xf0\xc7+&\xf0?'
p33
tp34
Rp35
sS'ACACT2r'
p36
g2
(g6
S'{(\xad?Y\x175@'
p37
tp38
Rp39
sS'MDDCP1pp'
p40
g2
(g6
S'\xc9\x1bk\x00\xa3\xe7\xc2?'
p41
tp42
Rp43
sS'HACD8i'
p44
g2
(g6
S'\xabv\x11a\xdf.\xfc?'
p45
tp46
Rp47
sS'ACACT6r'
p48
g2
(g6
S'{(\xad?Y\x175@'
p49
tp50
Rp51
sS'ACACT4r'
p52
g2
(g6
S'{(\xad?Y\x175@'
p53
tp54
Rp55
sS'PPM'
p56
g2
(g6
S'\x9am\xdb\xda\xbeK\xc0?'
p57
tp58
Rp59
sS'ACOAD2f'
p60
g2
(g6
S'\xd1*4\x19\x1a.\x93?'
p61
tp62
Rp63
sS'ACACT8r'
p64
g2
(g6
S'{(\xad?Y\x175@'
p65
tp66
Rp67
sS'NO3R1pp'
p68
g2
(g6
S'\x16C\x05i\xd8\n\xd9?'
p69
tp70
Rp71
sS'ACOAD4f'
p72
g2
(g6
S'\xd1*4\x19\x1a.\x93?'
p73
tp74
Rp75
sS'MDDCP5pp'
p76
g2
(g6
S'\xc9\x1bk\x00\xa3\xe7\xc2?'
p77
tp78
Rp79
sS'ACOAD7f'
p80
g2
(g6
S'\xd1*4\x19\x1a.\x93?'
p81
tp82
Rp83
sS'MDDCP4pp'
p84
g2
(g6
S'\xc9\x1bk\x00\xa3\xe7\xc2?'
p85
tp86
Rp87
sS'HACD6i'
p88
g2
(g6
S'\xabv\x11a\xdf.\xfc?'
p89
tp90
Rp91
sS'NO3R1bpp'
p92
g2
(g6
S'\xfd\x8c\xf0\xc7+&\xf0?'
p93
tp94
Rp95
sS'HACD4i'
p96
g2
(g6
S'\xabv\x11a\xdf.\xfc?'
p97
tp98
Rp99
sS'MDDCP2pp'
p100
g2
(g6
S'\xc9\x1bk\x00\xa3\xe7\xc2?'
p101
tp102
Rp103
sS'ACACT1r'
p104
g2
(g6
S'2\xbb\x10\xa0M>\x01@'
p105
tp106
Rp107
sS'ACACT7r'
p108
g2
(g6
S'{(\xad?Y\x175@'
p109
tp110
Rp111
sS'G3PD5'
p112
g2
(g6
S'#\x8f}\xcf\xe3\x912@'
p113
tp114
Rp115
sS'ACACT3r'
p116
g2
(g6
S'{(\xad?Y\x175@'
p117
tp118
Rp119
sS'HACD2i'
p120
g2
(g6
S'\xabv\x11a\xdf.\xfc?'
p121
tp122
Rp123
sS'TREH'
p124
g2
(g6
S'84\xff\xfa\xeaD\xce?'
p125
tp126
Rp127
sS'ECOAH8'
p128
g2
(g6
S'\xb2CMU\x93\xf9\x15@'
p129
tp130
Rp131
sS'ECOAH6'
p132
g2
(g6
S'\xb2CMU\x93\xf9\x15@'
p133
tp134
Rp135
sS'ECOAH7'
p136
g2
(g6
S'\xb2CMU\x93\xf9\x15@'
p137
tp138
Rp139
sS'ECOAH4'
p140
g2
(g6
S'\xb2CMU\x93\xf9\x15@'
p141
tp142
Rp143
sS'ECOAH5'
p144
g2
(g6
S'\xb2CMU\x93\xf9\x15@'
p145
tp146
Rp147
sS'ECOAH2'
p148
g2
(g6
S'\xb2CMU\x93\xf9\x15@'
p149
tp150
Rp151
sS'ECOAH3'
p152
g2
(g6
S'\xb2CMU\x93\xf9\x15@'
p153
tp154
Rp155
sS'ACACT5r'
p156
g2
(g6
S'{(\xad?Y\x175@'
p157
tp158
Rp159
sS'ECOAH1'
p160
g2
(g6
S'\xb2CMU\x93\xf9\x15@'
p161
tp162
Rp163
sS'CTECOAI6'
p164
g2
(g6
S'\xe5U\x03\xfak\xc0\xe0?'
p165
tp166
Rp167
sS'CTECOAI7'
p168
g2
(g6
S'\xe5U\x03\xfak\xc0\xe0?'
p169
tp170
Rp171
sS'ACOAD1f'
p172
g2
(g6
S'\x1a]X\xb2\x92\xfc$@'
p173
tp174
Rp175
sS'ACOAD5f'
p176
g2
(g6
S'\xd1*4\x19\x1a.\x93?'
p177
tp178
Rp179
sS'MDDCP3pp'
p180
g2
(g6
S'\xc9\x1bk\x00\xa3\xe7\xc2?'
p181
tp182
Rp183
sS'ACOAD3f'
p184
g2
(g6
S'\xd1*4\x19\x1a.\x93?'
p185
tp186
Rp187
sS'PTRCTA'
p188
g2
(g6
S'\x15z\xdcA\xae\xfa4@'
p189
tp190
Rp191
sS'SERD_L'
p192
g2
(g6
S'v/1mv\xce\xd7?'
p193
tp194
Rp195
sS'CTECOAI8'
p196
g2
(g6
S'\xe5U\x03\xfak\xc0\xe0?'
p197
tp198
Rp199
sS'XAND'
p200
g2
(g6
S'\x9b\xc4\x95GE\xd2\x12@'
p201
tp202
Rp203
s.