(dp0
S'ACOAD6f'
p1
cnumpy.core.multiarray
scalar
p2
(cnumpy
dtype
p3
(S'f8'
p4
I0
I1
tp5
Rp6
(I3
S'<'
p7
NNNI-1
I-1
I0
tp8
bS'\r\xf5\x8e\xda\x84@w?'
p9
tp10
Rp11
sS'ACOAD8f'
p12
g2
(g6
S'\r\xf5\x8e\xda\x84@w?'
p13
tp14
Rp15
sS'ALLTAMH'
p16
g2
(g6
S'f\x91)\x1b\xb5\xf1\x18@'
p17
tp18
Rp19
sS'CAT'
p20
g2
(g6
S'm\xad\x8b2\xce\x16\x94@'
p21
tp22
Rp23
sS'HACD7'
p24
g2
(g6
S'\xae\x1bp\xab\xd2M\xf0?'
p25
tp26
Rp27
sS'ALAR'
p28
g2
(g6
S'<msA\x03\xbf(@'
p29
tp30
Rp31
sS'ACACT2r'
p32
g2
(g6
S'\xf2\xfb\x84\xb6ssE@'
p33
tp34
Rp35
sS'MDDCP1pp'
p36
g2
(g6
S'\xe7jn|!\xfe\xbb?'
p37
tp38
Rp39
sS'ACACT6r'
p40
g2
(g6
S'\xf2\xfb\x84\xb6ssE@'
p41
tp42
Rp43
sS'ACACT4r'
p44
g2
(g6
S'\xf2\xfb\x84\xb6ssE@'
p45
tp46
Rp47
sS'ACOAD2f'
p48
g2
(g6
S'\r\xf5\x8e\xda\x84@w?'
p49
tp50
Rp51
sS'ACACT8r'
p52
g2
(g6
S'\xf2\xfb\x84\xb6ssE@'
p53
tp54
Rp55
sS'ECOAH7'
p56
g2
(g6
S'^\x97h\x1b\xd2l\t@'
p57
tp58
Rp59
sS'NO3R1pp'
p60
g2
(g6
S'Z\xe2\x12\xf7"w\xe6?'
p61
tp62
Rp63
sS'ACOAD4f'
p64
g2
(g6
S'\r\xf5\x8e\xda\x84@w?'
p65
tp66
Rp67
sS'MDDCP5pp'
p68
g2
(g6
S'\xe7jn|!\xfe\xbb?'
p69
tp70
Rp71
sS'ACOAD7f'
p72
g2
(g6
S'\r\xf5\x8e\xda\x84@w?'
p73
tp74
Rp75
sS'MDDCP4pp'
p76
g2
(g6
S'\xe7jn|!\xfe\xbb?'
p77
tp78
Rp79
sS'L-LACD2'
p80
g2
(g6
S'b\x86F\xee}\x1a\xbf?'
p81
tp82
Rp83
sS'L-LACD3'
p84
g2
(g6
S'b\x86F\xee}\x1a\xbf?'
p85
tp86
Rp87
sS'MDDCP2pp'
p88
g2
(g6
S'\xe7jn|!\xfe\xbb?'
p89
tp90
Rp91
sS'ACACT1r'
p92
g2
(g6
S'A\xd0\xa8\xa19\xbb\x03@'
p93
tp94
Rp95
sS'ACACT7r'
p96
g2
(g6
S'\xf2\xfb\x84\xb6ssE@'
p97
tp98
Rp99
sS'ACACT3r'
p100
g2
(g6
S'\xf2\xfb\x84\xb6ssE@'
p101
tp102
Rp103
sS'HACD4'
p104
g2
(g6
S'\xae\x1bp\xab\xd2M\xf0?'
p105
tp106
Rp107
sS'HACD1'
p108
g2
(g6
S'\xae\x1bp\xab\xd2M\xf0?'
p109
tp110
Rp111
sS'TREH'
p112
g2
(g6
S'\x96\x1c1\xe5\xdcx\xc2?'
p113
tp114
Rp115
sS'HACD3'
p116
g2
(g6
S'\xae\x1bp\xab\xd2M\xf0?'
p117
tp118
Rp119
sS'HACD2'
p120
g2
(g6
S'\xae\x1bp\xab\xd2M\xf0?'
p121
tp122
Rp123
sS'HACD5'
p124
g2
(g6
S'\xae\x1bp\xab\xd2M\xf0?'
p125
tp126
Rp127
sS'ECOAH8'
p128
g2
(g6
S'^\x97h\x1b\xd2l\t@'
p129
tp130
Rp131
sS'ALTRH'
p132
g2
(g6
S'\x8b\xd6\xab\x14v9B@'
p133
tp134
Rp135
sS'HACD6'
p136
g2
(g6
S'\xae\x1bp\xab\xd2M\xf0?'
p137
tp138
Rp139
sS'ECOAH6'
p140
g2
(g6
S'^\x97h\x1b\xd2l\t@'
p141
tp142
Rp143
sS'HACD8'
p144
g2
(g6
S'\xae\x1bp\xab\xd2M\xf0?'
p145
tp146
Rp147
sS'ECOAH4'
p148
g2
(g6
S'^\x97h\x1b\xd2l\t@'
p149
tp150
Rp151
sS'ECOAH5'
p152
g2
(g6
S'^\x97h\x1b\xd2l\t@'
p153
tp154
Rp155
sS'ECOAH2'
p156
g2
(g6
S'^\x97h\x1b\xd2l\t@'
p157
tp158
Rp159
sS'ECOAH3'
p160
g2
(g6
S'^\x97h\x1b\xd2l\t@'
p161
tp162
Rp163
sS'ACACT5r'
p164
g2
(g6
S'\xf2\xfb\x84\xb6ssE@'
p165
tp166
Rp167
sS'ECOAH1'
p168
g2
(g6
S'^\x97h\x1b\xd2l\t@'
p169
tp170
Rp171
sS'CTECOAI6'
p172
g2
(g6
S'!\xc3\x11\x9e\x91\xe5\xc6?'
p173
tp174
Rp175
sS'CTECOAI7'
p176
g2
(g6
S'!\xc3\x11\x9e\x91\xe5\xc6?'
p177
tp178
Rp179
sS'ACOAD1f'
p180
g2
(g6
S'\xdb\xab\xf7A,q\t@'
p181
tp182
Rp183
sS'ACOAD5f'
p184
g2
(g6
S'\r\xf5\x8e\xda\x84@w?'
p185
tp186
Rp187
sS'MDDCP3pp'
p188
g2
(g6
S'\xe7jn|!\xfe\xbb?'
p189
tp190
Rp191
sS'ACOAD3f'
p192
g2
(g6
S'\r\xf5\x8e\xda\x84@w?'
p193
tp194
Rp195
sS'PTRCTA'
p196
g2
(g6
S"\r\xb1\x97\x8b\x8a\x18'@"
p197
tp198
Rp199
sS'SERD_L'
p200
g2
(g6
S'\xbd\xaf2\xa9v\xf7\xe9?'
p201
tp202
Rp203
sS'CTECOAI8'
p204
g2
(g6
S'!\xc3\x11\x9e\x91\xe5\xc6?'
p205
tp206
Rp207
sS'XAND'
p208
g2
(g6
S'y\xa1\xaeHO\xea2@'
p209
tp210
Rp211
s.