(dp0
S'NO3R1bpp'
p1
cnumpy.core.multiarray
scalar
p2
(cnumpy
dtype
p3
(S'f8'
p4
I0
I1
tp5
Rp6
(I3
S'<'
p7
NNNI-1
I-1
I0
tp8
bS'\xe6u\xe5\x9a\xaa\\\xd7?'
p9
tp10
Rp11
sS'ALLTAMH'
p12
g2
(g6
S'\xd4j9\x04\xd4\xf7\x19@'
p13
tp14
Rp15
sS'ACACT1r'
p16
g2
(g6
S'^1$&(Y\xd8?'
p17
tp18
Rp19
sS'NO3R2bpp'
p20
g2
(g6
S'\xe6u\xe5\x9a\xaa\\\xd7?'
p21
tp22
Rp23
sS'NO3R1pp'
p24
g2
(g6
S'\x0b\xfa\x96\\\xd5e\xe1?'
p25
tp26
Rp27
sS'XAND'
p28
g2
(g6
S'1U\x10\x83\xc6\xe0\x16@'
p29
tp30
Rp31
s.