(dp0
S'TREH'
p1
cnumpy.core.multiarray
scalar
p2
(cnumpy
dtype
p3
(S'f8'
p4
I0
I1
tp5
Rp6
(I3
S'<'
p7
NNNI-1
I-1
I0
tp8
bS'L&Lm\x0b\xaa\xd4?'
p9
tp10
Rp11
sS'NO3R1bpp'
p12
g2
(g6
S'\xa0jd\t\x97\x9a\xc6?'
p13
tp14
Rp15
sS'ALLTAMH'
p16
g2
(g6
S'\xb5\x92\xda3\xd8R\x1a@'
p17
tp18
Rp19
sS'NO3R2bpp'
p20
g2
(g6
S'\xa0jd\t\x97\x9a\xc6?'
p21
tp22
Rp23
sS'NO3R1pp'
p24
g2
(g6
S'\x91\x89~p\x14v\xcb?'
p25
tp26
Rp27
sS'XAND'
p28
g2
(g6
S'\xa3\xee\xc9l\x881\x1a@'
p29
tp30
Rp31
s.