(dp0
S'GHMT2r'
p1
cnumpy.core.multiarray
scalar
p2
(cnumpy
dtype
p3
(S'f8'
p4
I0
I1
tp5
Rp6
(I3
S'<'
p7
NNNI-1
I-1
I0
tp8
bS'\xbb\x8aE\xd7\xfde#@'
p9
tp10
Rp11
sS'PGM'
p12
g2
(g6
S'\xf6\\\xe6P\xe2\xc1@@'
p13
tp14
Rp15
sS'HACD3i'
p16
g2
(g6
S'W\x7faYC,E@'
p17
tp18
Rp19
sS'3HAD160'
p20
g2
(g6
S'Hh\x9e\x8a1j\x97@'
p21
tp22
Rp23
sS'3HAD161'
p24
g2
(g6
S'Hh\x9e\x8a1j\x97@'
p25
tp26
Rp27
sS'ACACT4r'
p28
g2
(g6
S'A/\xa0G\xcdA\x91@'
p29
tp30
Rp31
sS'ACOTA'
p32
g2
(g6
S'+\x99\x06v5\xb9\xc1?'
p33
tp34
Rp35
sS'ALCD2x'
p36
g2
(g6
S'\xe6\xd5\x13?\xa02o@'
p37
tp38
Rp39
sS'LYSTRS'
p40
g2
(g6
S'\xbd0\x91(7\x08\r@'
p41
tp42
Rp43
sS'GAPD'
p44
g2
(g6
S'"/\xdf\xe6\\lg@'
p45
tp46
Rp47
sS'KAS14'
p48
g2
(g6
S'\x97J~\x06\x90\xa9b@'
p49
tp50
Rp51
sS'TPI'
p52
g2
(g6
S']/\xb3\xb8\xcf\x18\xc5@'
p53
tp54
Rp55
sS'ACONTa'
p56
g2
(g6
S'\xafS%\x19.5\xc8?'
p57
tp58
Rp59
sS'NDPK2'
p60
g2
(g6
S'\xda\x87\x9b)[^\xaa@'
p61
tp62
Rp63
sS'ACONTb'
p64
g2
(g6
S'\xafS%\x19.5\xc8?'
p65
tp66
Rp67
sS'ACACT3r'
p68
g2
(g6
S'A/\xa0G\xcdA\x91@'
p69
tp70
Rp71
sS'HACD2i'
p72
g2
(g6
S'W\x7faYC,E@'
p73
tp74
Rp75
sS'3OAS60'
p76
g2
(g6
S'\x97J~\x06\x90\xa9b@'
p77
tp78
Rp79
sS'PHETA1'
p80
g2
(g6
S'\x83\xef(`\xad\xd9\xb4@'
p81
tp82
Rp83
sS'TKT2'
p84
g2
(g6
S'Fiv]\xf2\x8a\xe3@'
p85
tp86
Rp87
sS'TKT1'
p88
g2
(g6
S'Fiv]\xf2\x8a\xe3@'
p89
tp90
Rp91
sS'3OAS140'
p92
g2
(g6
S'\x97J~\x06\x90\xa9b@'
p93
tp94
Rp95
sS'PYK'
p96
g2
(g6
S'\xc9->\x0f\xcc\x87h@'
p97
tp98
Rp99
sS'THRD_L'
p100
g2
(g6
S'\xa1\xe94\xc9\xe4@\x1e@'
p101
tp102
Rp103
sS'ATPS4rpp'
p104
g2
(g6
S'\x91\xd8\xc1\x83\xf1L`@'
p105
tp106
Rp107
sS'NTP1'
p108
g2
(g6
S'\xbfVO\xc9\xaa0T@'
p109
tp110
Rp111
sS'HACD5i'
p112
g2
(g6
S'W\x7faYC,E@'
p113
tp114
Rp115
sS'GLUN'
p116
g2
(g6
S'Hb\x15j\xbc\xbcH@'
p117
tp118
Rp119
sS'3HAD100'
p120
g2
(g6
S'Hh\x9e\x8a1j\x97@'
p121
tp122
Rp123
sS'FUM'
p124
g2
(g6
S'hA\x14c\xa1\xaaZ@'
p125
tp126
Rp127
sS'MDDCP1pp'
p128
g2
(g6
S'\xa3v\xb0\xf4@\\1@'
p129
tp130
Rp131
sS'PGMT'
p132
g2
(g6
S'8Z\xa7a\n\xba.@'
p133
tp134
Rp135
sS'ACACT6r'
p136
g2
(g6
S'A/\xa0G\xcdA\x91@'
p137
tp138
Rp139
sS'ACALD'
p140
g2
(g6
S'\x0bR\xe6\x9b\xc78\x90@'
p141
tp142
Rp143
sS'MALS'
p144
g2
(g6
S'\xee\xf6nn\x94\x81\x8c@'
p145
tp146
Rp147
sS'UPP3MT'
p148
g2
(g6
S'\xb3\x11\xea\xaa\x99\x81\xf2?'
p149
tp150
Rp151
sS'ACACT1r'
p152
g2
(g6
S'\x91\xb8\x91l|%I@'
p153
tp154
Rp155
sS'MDDCP5pp'
p156
g2
(g6
S'\xa3v\xb0\xf4@\\1@'
p157
tp158
Rp159
sS'3HAD60'
p160
g2
(g6
S'Hh\x9e\x8a1j\x97@'
p161
tp162
Rp163
sS'ENO'
p164
g2
(g6
S'\xa0FXP\n\x9fH@'
p165
tp166
Rp167
sS'3OAS160'
p168
g2
(g6
S'\x97J~\x06\x90\xa9b@'
p169
tp170
Rp171
sS'HACD4i'
p172
g2
(g6
S'W\x7faYC,E@'
p173
tp174
Rp175
sS'3HAD80'
p176
g2
(g6
S'Hh\x9e\x8a1j\x97@'
p177
tp178
Rp179
sS'UMPK'
p180
g2
(g6
S"6\x08\x1c\x1bJS'@"
p181
tp182
Rp183
sS'ECOAH8'
p184
g2
(g6
S'\xd8W2\xa9H\x82`@'
p185
tp186
Rp187
sS'ECOAH6'
p188
g2
(g6
S'\xd8W2\xa9H\x82`@'
p189
tp190
Rp191
sS'ECOAH7'
p192
g2
(g6
S'\xd8W2\xa9H\x82`@'
p193
tp194
Rp195
sS'ECOAH4'
p196
g2
(g6
S'\xd8W2\xa9H\x82`@'
p197
tp198
Rp199
sS'ECOAH5'
p200
g2
(g6
S'\xd8W2\xa9H\x82`@'
p201
tp202
Rp203
sS'ECOAH2'
p204
g2
(g6
S'\xd8W2\xa9H\x82`@'
p205
tp206
Rp207
sS'ECOAH3'
p208
g2
(g6
S'\xd8W2\xa9H\x82`@'
p209
tp210
Rp211
sS'ACACT5r'
p212
g2
(g6
S'A/\xa0G\xcdA\x91@'
p213
tp214
Rp215
sS'ECOAH1'
p216
g2
(g6
S'\xd8W2\xa9H\x82`@'
p217
tp218
Rp219
sS'3HAD180'
p220
g2
(g6
S'Hh\x9e\x8a1j\x97@'
p221
tp222
Rp223
sS'3HAD181'
p224
g2
(g6
S'Hh\x9e\x8a1j\x97@'
p225
tp226
Rp227
sS'3OAS80'
p228
g2
(g6
S'\x97J~\x06\x90\xa9b@'
p229
tp230
Rp231
sS'MDDCP2pp'
p232
g2
(g6
S'\xa3v\xb0\xf4@\\1@'
p233
tp234
Rp235
sS'L_LACD2'
p236
g2
(g6
S'\x1b\x02\xf83\x8c\xdb\xd9?'
p237
tp238
Rp239
sS'L_LACD3'
p240
g2
(g6
S'\x1b\x02\xf83\x8c\xdb\xd9?'
p241
tp242
Rp243
sS'3HAD120'
p244
g2
(g6
S'Hh\x9e\x8a1j\x97@'
p245
tp246
Rp247
sS'3HAD121'
p248
g2
(g6
S'Hh\x9e\x8a1j\x97@'
p249
tp250
Rp251
sS'HACD7i'
p252
g2
(g6
S'W\x7faYC,E@'
p253
tp254
Rp255
sS'TYRTA'
p256
g2
(g6
S'\xe0\xc2\xe2\x01i\xe3J@'
p257
tp258
Rp259
sS'ORNDC'
p260
g2
(g6
S'\x19E\xc1\xe4\xdc\x86\xe3?'
p261
tp262
Rp263
sS'ALAR'
p264
g2
(g6
S'\x96\x80\x0e\x90\x18,T@'
p265
tp266
Rp267
sS'PPA2'
p268
g2
(g6
S'\x93y\x80?s\n?@'
p269
tp270
Rp271
sS'A5PISO'
p272
g2
(g6
S'\x19\xe6i\xd5\xbe\xfc\x08@'
p273
tp274
Rp275
sS'SHK3Dr'
p276
g2
(g6
S'\xb7\xff\xab\xcb\x91\xe4\xb4@'
p277
tp278
Rp279
sS'THRAi'
p280
g2
(g6
S'\x14>p\xc1\xb8\x9d\x1e@'
p281
tp282
Rp283
sS'ASPK'
p284
g2
(g6
S'\xdb\xf3{})U7@'
p285
tp286
Rp287
sS'PTAr'
p288
g2
(g6
S'\xfd\xca\x12\xf4N\xcdo@'
p289
tp290
Rp291
sS'ACACT8r'
p292
g2
(g6
S'A/\xa0G\xcdA\x91@'
p293
tp294
Rp295
sS'HACD6i'
p296
g2
(g6
S'W\x7faYC,E@'
p297
tp298
Rp299
sS'GLCP'
p300
g2
(g6
S'\xd5\xbc\x9f_U!3@'
p301
tp302
Rp303
sS'3OAS100'
p304
g2
(g6
S'\x97J~\x06\x90\xa9b@'
p305
tp306
Rp307
sS'CYSDS'
p308
g2
(g6
S'\xbd\xc6\xc0\xfb\xf0\xdc\xdf?'
p309
tp310
Rp311
sS'AMPTASECG'
p312
g2
(g6
S'\xb7\xf7vHG\x05\x91@'
p313
tp314
Rp315
sS'NTP10'
p316
g2
(g6
S'\xbfVO\xc9\xaa0T@'
p317
tp318
Rp319
sS'PUNP4'
p320
g2
(g6
S'\xf2\x1a\xd3\xd5sS\x8c@'
p321
tp322
Rp323
sS'PUNP5'
p324
g2
(g6
S'\xf2\x1a\xd3\xd5sS\x8c@'
p325
tp326
Rp327
sS'PUNP6'
p328
g2
(g6
S'\xf2\x1a\xd3\xd5sS\x8c@'
p329
tp330
Rp331
sS'SSALy'
p332
g2
(g6
S'\x14J\xe8\n\xb6My@'
p333
tp334
Rp335
sS'ASNN'
p336
g2
(g6
S'\xcf\xc6<b\xacz,@'
p337
tp338
Rp339
sS'FBA'
p340
g2
(g6
S'\xd1\x1b\x7fK\xac\xa0#@'
p341
tp342
Rp343
sS'THRA2i'
p344
g2
(g6
S'\x14>p\xc1\xb8\x9d\x1e@'
p345
tp346
Rp347
sS'AMPTASEPG'
p348
g2
(g6
S'\xb7\xf7vHG\x05\x91@'
p349
tp350
Rp351
sS'3OAS180'
p352
g2
(g6
S'\x97J~\x06\x90\xa9b@'
p353
tp354
Rp355
sS'3OAS181'
p356
g2
(g6
S'\x1e\r\x18\x9f"dZ@'
p357
tp358
Rp359
sS'THFAT'
p360
g2
(g6
S'g\xb1#?\xb85\x0b@'
p361
tp362
Rp363
sS'SERD_L'
p364
g2
(g6
S'4\x19\x10\x83\t\xb2\x03@'
p365
tp366
Rp367
sS'HACD1i'
p368
g2
(g6
S'W\x7faYC,E@'
p369
tp370
Rp371
sS'DHFR'
p372
g2
(g6
S',R\xac\x92n*\x1d@'
p373
tp374
Rp375
sS'CAT'
p376
g2
(g6
S'Cx\x00\x02+\xf0\xf4@'
p377
tp378
Rp379
sS'3HAD140'
p380
g2
(g6
S'Hh\x9e\x8a1j\x97@'
p381
tp382
Rp383
sS'3HAD141'
p384
g2
(g6
S'Hh\x9e\x8a1j\x97@'
p385
tp386
Rp387
sS'ACKr'
p388
g2
(g6
S'\xc7R]\xa7\x1dU\x80@'
p389
tp390
Rp391
sS'ACACT2r'
p392
g2
(g6
S'A/\xa0G\xcdA\x91@'
p393
tp394
Rp395
sS'PPA'
p396
g2
(g6
S'\xf4\xd3Oc\xc1\x88\x80@'
p397
tp398
Rp399
sS'HACD8i'
p400
g2
(g6
S'W\x7faYC,E@'
p401
tp402
Rp403
sS'PGK'
p404
g2
(g6
S'\xeaH|\xb8\xfck{@'
p405
tp406
Rp407
sS'PPM'
p408
g2
(g6
S'\xbdV7(69\x10@'
p409
tp410
Rp411
sS'NDPK8'
p412
g2
(g6
S'\xda\x87\x9b)[^\xaa@'
p413
tp414
Rp415
sS'PUNP3'
p416
g2
(g6
S'\xf2\x1a\xd3\xd5sS\x8c@'
p417
tp418
Rp419
sS'NADDP'
p420
g2
(g6
S'\xbdB\x02\xe4\xaf\x1e\xf7>'
p421
tp422
Rp423
sS'RPI'
p424
g2
(g6
S'uZ\x92o\xf6\x03\xae@'
p425
tp426
Rp427
sS'NDPK3'
p428
g2
(g6
S'\xda\x87\x9b)[^\xaa@'
p429
tp430
Rp431
sS'NDPK1'
p432
g2
(g6
S'\xda\x87\x9b)[^\xaa@'
p433
tp434
Rp435
sS'NDPK6'
p436
g2
(g6
S'\xda\x87\x9b)[^\xaa@'
p437
tp438
Rp439
sS'NDPK7'
p440
g2
(g6
S'\xda\x87\x9b)[^\xaa@'
p441
tp442
Rp443
sS'NDPK4'
p444
g2
(g6
S'\xda\x87\x9b)[^\xaa@'
p445
tp446
Rp447
sS'NDPK5'
p448
g2
(g6
S'\xda\x87\x9b)[^\xaa@'
p449
tp450
Rp451
sS'MDDCP4pp'
p452
g2
(g6
S'\xa3v\xb0\xf4@\\1@'
p453
tp454
Rp455
sS'HSDy'
p456
g2
(g6
S'#.\x98\xcd\xeb\xaa\xf4?'
p457
tp458
Rp459
sS'METAT'
p460
g2
(g6
S'\x9a0i\x86\xf06\xec?'
p461
tp462
Rp463
sS'G3PD5'
p464
g2
(g6
S'\x0f\xa8\x88\x0cJ\x9fq@'
p465
tp466
Rp467
sS'3OAS120'
p468
g2
(g6
S'\x97J~\x06\x90\xa9b@'
p469
tp470
Rp471
sS'CHORM'
p472
g2
(g6
S'\xaa{\x85\x85\xf4>\xd1@'
p473
tp474
Rp475
sS'PFK'
p476
g2
(g6
S'\x1cC\xb4`\xbf\xb4,@'
p477
tp478
Rp479
sS'GLCP2'
p480
g2
(g6
S'\xd5\xbc\x9f_U!3@'
p481
tp482
Rp483
sS'3HAD40'
p484
g2
(g6
S'Hh\x9e\x8a1j\x97@'
p485
tp486
Rp487
sS'GRXR'
p488
g2
(g6
S'm][\xfa\xa6\x0f\xa0@'
p489
tp490
Rp491
sS'MDDCP3pp'
p492
g2
(g6
S'\xa3v\xb0\xf4@\\1@'
p493
tp494
Rp495
sS'GLYCLTDy'
p496
g2
(g6
S'\x02\x87_\x93R\x9d\xec?'
p497
tp498
Rp499
sS'ACACT7r'
p500
g2
(g6
S'A/\xa0G\xcdA\x91@'
p501
tp502
Rp503
sS'DUTPDP'
p504
g2
(g6
S'{\xa4\xaf.\xfa\xe9\x11@'
p505
tp506
Rp507
s.