(dp0
S'TREH'
p1
cnumpy.core.multiarray
scalar
p2
(cnumpy
dtype
p3
(S'f8'
p4
I0
I1
tp5
Rp6
(I3
S'<'
p7
NNNI-1
I-1
I0
tp8
bS'!\xcf\x88\xc5\xe6G\xc3?'
p9
tp10
Rp11
sS'MDDCP1pp'
p12
g2
(g6
S"\xa8Z_\xc5']\xb6?"
p13
tp14
Rp15
sS'MDDCP5pp'
p16
g2
(g6
S"\xa8Z_\xc5']\xb6?"
p17
tp18
Rp19
sS'SADH'
p20
g2
(g6
S'\x0f\x14)\x01d\x031@'
p21
tp22
Rp23
sS'ALLTAMH'
p24
g2
(g6
S'\xcd\x86\xd4\x11\xd3\x82\x1a@'
p25
tp26
Rp27
sS'L-LACD2'
p28
g2
(g6
S'\xdas\xc9+\xef\xa5\xda?'
p29
tp30
Rp31
sS'CAT'
p32
g2
(g6
S'^\x1f\x8a\xf5b\x85\x92@'
p33
tp34
Rp35
sS'MDDCP4pp'
p36
g2
(g6
S"\xa8Z_\xc5']\xb6?"
p37
tp38
Rp39
sS'ACACT1r'
p40
g2
(g6
S'\xdf\xaao\xd2{]\xd4?'
p41
tp42
Rp43
sS'MDDCP3pp'
p44
g2
(g6
S"\xa8Z_\xc5']\xb6?"
p45
tp46
Rp47
sS'L-LACD3'
p48
g2
(g6
S'\xdas\xc9+\xef\xa5\xda?'
p49
tp50
Rp51
sS'NO3R1pp'
p52
g2
(g6
S'[\xe1\xc0L\x93G\xdc?'
p53
tp54
Rp55
sS'MDDCP2pp'
p56
g2
(g6
S"\xa8Z_\xc5']\xb6?"
p57
tp58
Rp59
sS'XAND'
p60
g2
(g6
S'\x14\xd6\xde\x93K\x14!@'
p61
tp62
Rp63
s.