(dp0
S'GHMT2r'
p1
cnumpy.core.multiarray
scalar
p2
(cnumpy
dtype
p3
(S'f8'
p4
I0
I1
tp5
Rp6
(I3
S'<'
p7
NNNI-1
I-1
I0
tp8
bS'\xa43I\xa5\x00\xed!@'
p9
tp10
Rp11
sS'PGM'
p12
g2
(g6
S'2`\x9e\xad\xe2\x19>@'
p13
tp14
Rp15
sS'PSERT'
p16
g2
(g6
S'\xd9\xc7\xe0|\xe0\xe9\x94@'
p17
tp18
Rp19
sS'HACD3i'
p20
g2
(g6
S'\x1f\xa8\x06\x0c\xceOB@'
p21
tp22
Rp23
sS'3HAD160'
p24
g2
(g6
S'lO\x07\xda[\x0e\x94@'
p25
tp26
Rp27
sS'3HAD161'
p28
g2
(g6
S'lO\x07\xda[\x0e\x94@'
p29
tp30
Rp31
sS'EAR161y'
p32
g2
(g6
S'\x15z\xe0z4\x8d"@'
p33
tp34
Rp35
sS'ACACT4r'
p36
g2
(g6
S'A\xf6\xee\xc2y\xdc\x8a@'
p37
tp38
Rp39
sS'ACOTA'
p40
g2
(g6
S'}\xc0c\xb6\x92X\xc3?'
p41
tp42
Rp43
sS'ALCD2x'
p44
g2
(g6
S'\x92Ls\x0e\x83Zp@'
p45
tp46
Rp47
sS'LYSTRS'
p48
g2
(g6
S'\x9b\x897|*\xbc\x06@'
p49
tp50
Rp51
sS'GAPD'
p52
g2
(g6
S'<\xae^*\x15`d@'
p53
tp54
Rp55
sS'KAS14'
p56
g2
(g6
S'&=8\x1b6\x83b@'
p57
tp58
Rp59
sS'EPMEACPR'
p60
g2
(g6
S'\x15z\xe0z4\x8d"@'
p61
tp62
Rp63
sS'TPI'
p64
g2
(g6
S'\xe4o\x8a\xa4Bk\xc7@'
p65
tp66
Rp67
sS'ACONTa'
p68
g2
(g6
S'\xabs,jr\x1b\xc8?'
p69
tp70
Rp71
sS'NDPK2'
p72
g2
(g6
S'\xa1\xc3\x0e\xc1T\x7f\xa9@'
p73
tp74
Rp75
sS'EAR40x'
p76
g2
(g6
S'\x08O\xfe\r\xe2\x82\x10@'
p77
tp78
Rp79
sS'ACONTb'
p80
g2
(g6
S'\xabs,jr\x1b\xc8?'
p81
tp82
Rp83
sS'ACACT3r'
p84
g2
(g6
S'A\xf6\xee\xc2y\xdc\x8a@'
p85
tp86
Rp87
sS'HACD2i'
p88
g2
(g6
S'\x1f\xa8\x06\x0c\xceOB@'
p89
tp90
Rp91
sS'3OAS60'
p92
g2
(g6
S'&=8\x1b6\x83b@'
p93
tp94
Rp95
sS'PHETA1'
p96
g2
(g6
S'\xb9S6\xf2(G\xb4@'
p97
tp98
Rp99
sS'PRFGS'
p100
g2
(g6
S'VR95\xa3r\xc4?'
p101
tp102
Rp103
sS'TKT2'
p104
g2
(g6
S'\x13\x14U\xc3N\xa6\xe1@'
p105
tp106
Rp107
sS'TKT1'
p108
g2
(g6
S'\x13\x14U\xc3N\xa6\xe1@'
p109
tp110
Rp111
sS'NDPK6'
p112
g2
(g6
S'\xa1\xc3\x0e\xc1T\x7f\xa9@'
p113
tp114
Rp115
sS'3OAS140'
p116
g2
(g6
S'&=8\x1b6\x83b@'
p117
tp118
Rp119
sS'3OAS141'
p120
g2
(g6
S'\x14d\x8e\xeb\xc4\xb0C@'
p121
tp122
Rp123
sS'PYK'
p124
g2
(g6
S';\xfd\xb8\xb2l%d@'
p125
tp126
Rp127
sS'EGMEACPR'
p128
g2
(g6
S'\x15z\xe0z4\x8d"@'
p129
tp130
Rp131
sS'THRD_L'
p132
g2
(g6
S'jp~\x10k\xf4!@'
p133
tp134
Rp135
sS'TYRTA'
p136
g2
(g6
S'\xcaT\x1c\xd6]$J@'
p137
tp138
Rp139
sS'ATPS4rpp'
p140
g2
(g6
S'k\x1b\x8f\x80]\x0bQ@'
p141
tp142
Rp143
sS'G3PAT140'
p144
g2
(g6
S'\nvaoy\xec\x97@'
p145
tp146
Rp147
sS'ACODA'
p148
g2
(g6
S'\xf5+Vo\xee\xa0k@'
p149
tp150
Rp151
sS'NTP1'
p152
g2
(g6
S'\x9d\xd7\x0c39\xe4R@'
p153
tp154
Rp155
sS'HACD5i'
p156
g2
(g6
S'\x1f\xa8\x06\x0c\xceOB@'
p157
tp158
Rp159
sS'3HAD100'
p160
g2
(g6
S'lO\x07\xda[\x0e\x94@'
p161
tp162
Rp163
sS'FUM'
p164
g2
(g6
S'<\xc7j\xf9#iX@'
p165
tp166
Rp167
sS'MDDCP1pp'
p168
g2
(g6
S'Z\xb5\tt\x14C5@'
p169
tp170
Rp171
sS'PGMT'
p172
g2
(g6
S'/\xacJ\xe3\x01#.@'
p173
tp174
Rp175
sS'ACACT6r'
p176
g2
(g6
S'A\xf6\xee\xc2y\xdc\x8a@'
p177
tp178
Rp179
sS'ACALD'
p180
g2
(g6
S'l\xdd\xe7\xc9\xf6I\x8e@'
p181
tp182
Rp183
sS'MALS'
p184
g2
(g6
S't\xa0\x91\xf2\x94\x00\x89@'
p185
tp186
Rp187
sS'EAR120x'
p188
g2
(g6
S'\x08O\xfe\r\xe2\x82\x10@'
p189
tp190
Rp191
sS'EAR120y'
p192
g2
(g6
S'\x15z\xe0z4\x8d"@'
p193
tp194
Rp195
sS'UPP3MT'
p196
g2
(g6
S'^\xb3\x17\xbc\xa0\x10\xf2?'
p197
tp198
Rp199
sS'ACACT1r'
p200
g2
(g6
S'^AJM\xc2\x87C@'
p201
tp202
Rp203
sS'MDDCP5pp'
p204
g2
(g6
S'Z\xb5\tt\x14C5@'
p205
tp206
Rp207
sS'THRA2i'
p208
g2
(g6
S'\xd1pF\t\xf7l\x1c@'
p209
tp210
Rp211
sS'ACACT7r'
p212
g2
(g6
S'A\xf6\xee\xc2y\xdc\x8a@'
p213
tp214
Rp215
sS'ENO'
p216
g2
(g6
S'&\x1c\xe2\xfe\xc8\x1cH@'
p217
tp218
Rp219
sS'3OAS160'
p220
g2
(g6
S'&=8\x1b6\x83b@'
p221
tp222
Rp223
sS'3OAS161'
p224
g2
(g6
S'\x14d\x8e\xeb\xc4\xb0C@'
p225
tp226
Rp227
sS'ASPTA'
p228
g2
(g6
S'\xcd[v\xaa(\xf9@@'
p229
tp230
Rp231
sS'HACD4i'
p232
g2
(g6
S'\x1f\xa8\x06\x0c\xceOB@'
p233
tp234
Rp235
sS'3HAD80'
p236
g2
(g6
S'lO\x07\xda[\x0e\x94@'
p237
tp238
Rp239
sS'UMPK'
p240
g2
(g6
S'\x17%Qj\xd3C\x1c@'
p241
tp242
Rp243
sS'ECOAH8'
p244
g2
(g6
S'\x81\xc5T\x12X\x8e\\@'
p245
tp246
Rp247
sS'ECOAH6'
p248
g2
(g6
S'\x81\xc5T\x12X\x8e\\@'
p249
tp250
Rp251
sS'AMPTASEPG'
p252
g2
(g6
S'\xa9"n\xacw\xcb\x8f@'
p253
tp254
Rp255
sS'ECOAH4'
p256
g2
(g6
S'\x81\xc5T\x12X\x8e\\@'
p257
tp258
Rp259
sS'EAR160y'
p260
g2
(g6
S'\x15z\xe0z4\x8d"@'
p261
tp262
Rp263
sS'ECOAH2'
p264
g2
(g6
S'\x81\xc5T\x12X\x8e\\@'
p265
tp266
Rp267
sS'ECOAH3'
p268
g2
(g6
S'\x81\xc5T\x12X\x8e\\@'
p269
tp270
Rp271
sS'ACACT5r'
p272
g2
(g6
S'A\xf6\xee\xc2y\xdc\x8a@'
p273
tp274
Rp275
sS'ECOAH1'
p276
g2
(g6
S'\x81\xc5T\x12X\x8e\\@'
p277
tp278
Rp279
sS'3HAD180'
p280
g2
(g6
S'lO\x07\xda[\x0e\x94@'
p281
tp282
Rp283
sS'3HAD181'
p284
g2
(g6
S'lO\x07\xda[\x0e\x94@'
p285
tp286
Rp287
sS'G3PAT120'
p288
g2
(g6
S'\nvaoy\xec\x97@'
p289
tp290
Rp291
sS'3OAS80'
p292
g2
(g6
S'&=8\x1b6\x83b@'
p293
tp294
Rp295
sS'G3PAT141'
p296
g2
(g6
S'\nvaoy\xec\x97@'
p297
tp298
Rp299
sS'POR5'
p300
g2
(g6
S'\xbf\x9e\tj.\xd55@'
p301
tp302
Rp303
sS'MDDCP2pp'
p304
g2
(g6
S'Z\xb5\tt\x14C5@'
p305
tp306
Rp307
sS'L_LACD2'
p308
g2
(g6
S'X\x1f#\xc4\xc9R\xe5?'
p309
tp310
Rp311
sS'L_LACD3'
p312
g2
(g6
S'X\x1f#\xc4\xc9R\xe5?'
p313
tp314
Rp315
sS'3HAD120'
p316
g2
(g6
S'lO\x07\xda[\x0e\x94@'
p317
tp318
Rp319
sS'3HAD121'
p320
g2
(g6
S'lO\x07\xda[\x0e\x94@'
p321
tp322
Rp323
sS'HACD7i'
p324
g2
(g6
S'\x1f\xa8\x06\x0c\xceOB@'
p325
tp326
Rp327
sS'EAR161x'
p328
g2
(g6
S'\x08O\xfe\r\xe2\x82\x10@'
p329
tp330
Rp331
sS'ORNDC'
p332
g2
(g6
S')\x14\xce9\xb0\xee\xe0?'
p333
tp334
Rp335
sS'ALAR'
p336
g2
(g6
S'\x0b\x9b\x8f\xab\xda*P@'
p337
tp338
Rp339
sS'PPA2'
p340
g2
(g6
S'tE[]\x1c\x13:@'
p341
tp342
Rp343
sS'EAR141y'
p344
g2
(g6
S'\x15z\xe0z4\x8d"@'
p345
tp346
Rp347
sS'EAR141x'
p348
g2
(g6
S'\x08O\xfe\r\xe2\x82\x10@'
p349
tp350
Rp351
sS'A5PISO'
p352
g2
(g6
S'\xe8Wp\xce\x06\xb9\x04@'
p353
tp354
Rp355
sS'SHK3Dr'
p356
g2
(g6
S'^X\xc5g{\x86\xb9@'
p357
tp358
Rp359
sS'THRAi'
p360
g2
(g6
S'\xd1pF\t\xf7l\x1c@'
p361
tp362
Rp363
sS'ASPK'
p364
g2
(g6
S'\x07hz\xb0\xf0\xf45@'
p365
tp366
Rp367
sS'PTAr'
p368
g2
(g6
S'X\x1e\xddE\x928k@'
p369
tp370
Rp371
sS'ACACT8r'
p372
g2
(g6
S'A\xf6\xee\xc2y\xdc\x8a@'
p373
tp374
Rp375
sS'EAR60x'
p376
g2
(g6
S'\x08O\xfe\r\xe2\x82\x10@'
p377
tp378
Rp379
sS'EAR60y'
p380
g2
(g6
S'\x15z\xe0z4\x8d"@'
p381
tp382
Rp383
sS'CBPS'
p384
g2
(g6
S's\xabO\x141\xf3f@'
p385
tp386
Rp387
sS'SERD_L'
p388
g2
(g6
S'\xe4\x06\xa5\xcf\xe6.\xf3?'
p389
tp390
Rp391
sS'HACD6i'
p392
g2
(g6
S'\x1f\xa8\x06\x0c\xceOB@'
p393
tp394
Rp395
sS'GLCP'
p396
g2
(g6
S'h\xd7\xe2\xf9\xa5\xdd1@'
p397
tp398
Rp399
sS'3OAS100'
p400
g2
(g6
S'&=8\x1b6\x83b@'
p401
tp402
Rp403
sS'CYSDS'
p404
g2
(g6
S'O,w\xc5\xfe\x04\xdf?'
p405
tp406
Rp407
sS'G3PAT180'
p408
g2
(g6
S'\nvaoy\xec\x97@'
p409
tp410
Rp411
sS'G3PAT181'
p412
g2
(g6
S'\nvaoy\xec\x97@'
p413
tp414
Rp415
sS'AMPTASECG'
p416
g2
(g6
S'\xa9"n\xacw\xcb\x8f@'
p417
tp418
Rp419
sS'NTP10'
p420
g2
(g6
S'\x9d\xd7\x0c39\xe4R@'
p421
tp422
Rp423
sS'PUNP4'
p424
g2
(g6
S'G\xd0\xb3\xada\xa0\x89@'
p425
tp426
Rp427
sS'PUNP5'
p428
g2
(g6
S'G\xd0\xb3\xada\xa0\x89@'
p429
tp430
Rp431
sS'PUNP6'
p432
g2
(g6
S'G\xd0\xb3\xada\xa0\x89@'
p433
tp434
Rp435
sS'SSALy'
p436
g2
(g6
S'\x86\x1b\xbd\x114;q@'
p437
tp438
Rp439
sS'ASNN'
p440
g2
(g6
S'\xad\xbc\xb8\x92\xbf%2@'
p441
tp442
Rp443
sS'FBA'
p444
g2
(g6
S'\x9e\xe9\r\n\xe4\xc6 @'
p445
tp446
Rp447
sS'3HAD60'
p448
g2
(g6
S'lO\x07\xda[\x0e\x94@'
p449
tp450
Rp451
sS'ECOAH7'
p452
g2
(g6
S'\x81\xc5T\x12X\x8e\\@'
p453
tp454
Rp455
sS'3OAS180'
p456
g2
(g6
S'&=8\x1b6\x83b@'
p457
tp458
Rp459
sS'3OAS181'
p460
g2
(g6
S'CH\xa9\xc0\t.[@'
p461
tp462
Rp463
sS'THFAT'
p464
g2
(g6
S'\xc7\xe4\xc6I\xec$\t@'
p465
tp466
Rp467
sS'EAR160x'
p468
g2
(g6
S'\x08O\xfe\r\xe2\x82\x10@'
p469
tp470
Rp471
sS'EAR80x'
p472
g2
(g6
S'\x08O\xfe\r\xe2\x82\x10@'
p473
tp474
Rp475
sS'EAR80y'
p476
g2
(g6
S'\x15z\xe0z4\x8d"@'
p477
tp478
Rp479
sS'HACD1i'
p480
g2
(g6
S'\x1f\xa8\x06\x0c\xceOB@'
p481
tp482
Rp483
sS'ECOAH5'
p484
g2
(g6
S'\x81\xc5T\x12X\x8e\\@'
p485
tp486
Rp487
sS'EAR180x'
p488
g2
(g6
S'\x08O\xfe\r\xe2\x82\x10@'
p489
tp490
Rp491
sS'EAR180y'
p492
g2
(g6
S'\x15z\xe0z4\x8d"@'
p493
tp494
Rp495
sS'OPMEACPD'
p496
g2
(g6
S'lO\x07\xda[\x0e\x94@'
p497
tp498
Rp499
sS'DHFR'
p500
g2
(g6
S'\xf2C\xb8[0A\x0f@'
p501
tp502
Rp503
sS'CAT'
p504
g2
(g6
S"\xd9\xd2>'\xa1\xef\xf4@"
p505
tp506
Rp507
sS'OPMEACPS'
p508
g2
(g6
S'\x14d\x8e\xeb\xc4\xb0C@'
p509
tp510
Rp511
sS'3HAD140'
p512
g2
(g6
S'lO\x07\xda[\x0e\x94@'
p513
tp514
Rp515
sS'3HAD141'
p516
g2
(g6
S'lO\x07\xda[\x0e\x94@'
p517
tp518
Rp519
sS'ACKr'
p520
g2
(g6
S'\xb7h%X\xf7$~@'
p521
tp522
Rp523
sS'ACACT2r'
p524
g2
(g6
S'A\xf6\xee\xc2y\xdc\x8a@'
p525
tp526
Rp527
sS'OGMEACPD'
p528
g2
(g6
S'lO\x07\xda[\x0e\x94@'
p529
tp530
Rp531
sS'EAR121y'
p532
g2
(g6
S'\x15z\xe0z4\x8d"@'
p533
tp534
Rp535
sS'PPA'
p536
g2
(g6
S'\xbe0\xbd\x11#;~@'
p537
tp538
Rp539
sS'EAR121x'
p540
g2
(g6
S'\x08O\xfe\r\xe2\x82\x10@'
p541
tp542
Rp543
sS'HACD8i'
p544
g2
(g6
S'\x1f\xa8\x06\x0c\xceOB@'
p545
tp546
Rp547
sS'PGK'
p548
g2
(g6
S'{\x90w\xaap7x@'
p549
tp550
Rp551
sS'PPM'
p552
g2
(g6
S'\xb9\x12\x14,\xf7\x03\r@'
p553
tp554
Rp555
sS'NDPK8'
p556
g2
(g6
S'\xa1\xc3\x0e\xc1T\x7f\xa9@'
p557
tp558
Rp559
sS'PUNP3'
p560
g2
(g6
S'G\xd0\xb3\xada\xa0\x89@'
p561
tp562
Rp563
sS'NADDP'
p564
g2
(g6
S'\xc6\xb5N\xfa\xebR\xf0>'
p565
tp566
Rp567
sS'ACOATA'
p568
g2
(g6
S'\x1f\xa4\xf4!\x07\x94\xd4?'
p569
tp570
Rp571
sS'RPI'
p572
g2
(g6
S'1\xd3\xf0P\rg\xad@'
p573
tp574
Rp575
sS'NDPK3'
p576
g2
(g6
S'\xa1\xc3\x0e\xc1T\x7f\xa9@'
p577
tp578
Rp579
sS'NDPK1'
p580
g2
(g6
S'\xa1\xc3\x0e\xc1T\x7f\xa9@'
p581
tp582
Rp583
sS'TRDR'
p584
g2
(g6
S'\xcf\x1e\xa3\x81\xf5Jv@'
p585
tp586
Rp587
sS'NDPK7'
p588
g2
(g6
S'\xa1\xc3\x0e\xc1T\x7f\xa9@'
p589
tp590
Rp591
sS'NDPK4'
p592
g2
(g6
S'\xa1\xc3\x0e\xc1T\x7f\xa9@'
p593
tp594
Rp595
sS'NDPK5'
p596
g2
(g6
S'\xa1\xc3\x0e\xc1T\x7f\xa9@'
p597
tp598
Rp599
sS'MCOATA'
p600
g2
(g6
S'\x8e\xf9\xf1\xe8U=^@'
p601
tp602
Rp603
sS'EAR181y'
p604
g2
(g6
S'\x15z\xe0z4\x8d"@'
p605
tp606
Rp607
sS'EAR181x'
p608
g2
(g6
S'\x08O\xfe\r\xe2\x82\x10@'
p609
tp610
Rp611
sS'MDDCP4pp'
p612
g2
(g6
S'Z\xb5\tt\x14C5@'
p613
tp614
Rp615
sS'GLYCLTDy'
p616
g2
(g6
S'\xc1\xf3=\xce\xc7\xd5\xec?'
p617
tp618
Rp619
sS'HSDy'
p620
g2
(g6
S'\xc9\x8c\xcb\x04\xdc\xf6\xf3?'
p621
tp622
Rp623
sS'METAT'
p624
g2
(g6
S'\xe0\x8a\x0e\x9c\xf6\xbe\xed?'
p625
tp626
Rp627
sS'G3PD5'
p628
g2
(g6
S'/\xd2\xd5\xec\x10\xe8l@'
p629
tp630
Rp631
sS'EAR140x'
p632
g2
(g6
S'\x08O\xfe\r\xe2\x82\x10@'
p633
tp634
Rp635
sS'EAR140y'
p636
g2
(g6
S'\x15z\xe0z4\x8d"@'
p637
tp638
Rp639
sS'3OAS120'
p640
g2
(g6
S'&=8\x1b6\x83b@'
p641
tp642
Rp643
sS'3OAS121'
p644
g2
(g6
S'\x14d\x8e\xeb\xc4\xb0C@'
p645
tp646
Rp647
sS'OHPBAT'
p648
g2
(g6
S'\xd9\xc7\xe0|\xe0\xe9\x94@'
p649
tp650
Rp651
sS'CHORM'
p652
g2
(g6
S'\x8an\x85z\xb6\xfd\xd0@'
p653
tp654
Rp655
sS'PFK'
p656
g2
(g6
S'\x14\x8dE\xf7\x94\xa8*@'
p657
tp658
Rp659
sS'GLCP2'
p660
g2
(g6
S'h\xd7\xe2\xf9\xa5\xdd1@'
p661
tp662
Rp663
sS'3HAD40'
p664
g2
(g6
S'lO\x07\xda[\x0e\x94@'
p665
tp666
Rp667
sS'GRXR'
p668
g2
(g6
S'c\xc0g\x87\xd0\xb8\x93@'
p669
tp670
Rp671
sS'EAR40y'
p672
g2
(g6
S'\x15z\xe0z4\x8d"@'
p673
tp674
Rp675
sS'MDDCP3pp'
p676
g2
(g6
S'Z\xb5\tt\x14C5@'
p677
tp678
Rp679
sS'G3PAT160'
p680
g2
(g6
S'\nvaoy\xec\x97@'
p681
tp682
Rp683
sS'G3PAT161'
p684
g2
(g6
S'\nvaoy\xec\x97@'
p685
tp686
Rp687
sS'EAR100x'
p688
g2
(g6
S'\x08O\xfe\r\xe2\x82\x10@'
p689
tp690
Rp691
sS'EAR100y'
p692
g2
(g6
S'\x15z\xe0z4\x8d"@'
p693
tp694
Rp695
sS'DUTPDP'
p696
g2
(g6
S'_\xeb.!@L\x10@'
p697
tp698
Rp699
s.