(lp1
(S'YP_003044417.1'
p2
cnumpy.core.multiarray
scalar
p3
(cnumpy
dtype
p4
(S'f8'
I0
I1
tRp5
(I3
S'<'
NNNI-1
I-1
I0
tbS'\x17\xc1\r.u[\x12@'
tRp6
tp7
a(S'YP_003043617.1'
p8
g3
(g5
S'\xb2\x18\r\xca\x87\xae\x15@'
tRp9
tp10
a(S'YP_003044823.1'
p11
g3
(g5
S'w\x0b\x98\xfdcO\x16@'
tRp12
tp13
a(S'YP_003043984.1'
p14
g3
(g5
S'|40\xc0\x10D\x1b@'
tRp15
tp16
a(S'YP_003046374.1'
p17
g3
(g5
S'oMxh\xc1\xbb @'
tRp18
tp19
a(S'YP_003045631.1'
p20
g3
(g5
S'\xb7e\xf4\x0c\xa7\xa5"@'
tRp21
tp22
a(S'YP_003043708.1'
p23
g3
(g5
S'\x1cV)"\xaa\x9e#@'
tRp24
tp25
a(S'YP_003044634.1'
p26
g3
(g5
S'\rvk\xcb\xfe\xba#@'
tRp27
tp28
a(S'YP_003045899.1'
p29
g3
(g5
S'6>|\xe8\n\xbf$@'
tRp30
tp31
a(S'YP_003046549.1'
p32
g3
(g5
S'\xab\x93A\x8fs\xea$@'
tRp33
tp34
a(S'YP_003047006.1'
p35
g3
(g5
S'\xd9\xb9+\xc2i\x8e%@'
tRp36
tp37
a(S'YP_003047373.1'
p38
g3
(g5
S'\xdfbf\xc9\x87\xf1%@'
tRp39
tp40
a(S'YP_003043871.1'
p41
g3
(g5
S'%\xf5`\x04\xc1\x14&@'
tRp42
tp43
a(S'YP_003045239.1'
p44
g3
(g5
S'\xf8/\x80\xb6\x84\x8e&@'
tRp45
tp46
a(S'YP_003043754.1'
p47
g3
(g5
S"\xb9\x8882\xb0\xa5'@"
tRp48
tp49
a(S'YP_003044391.1'
p50
g3
(g5
S"\x86L\x0f\x15\xed\xe6'@"
tRp51
tp52
a(S'YP_003043736.1'
p53
g3
(g5
S'\x85?\x92\x06\x12o(@'
tRp54
tp55
a(S'YP_003045856.1'
p56
g3
(g5
S'\xfadZ\x01\xf4\x06*@'
tRp57
tp58
a(S'YP_003046077.1'
p59
g3
(g5
S'8\xfdEg\xb34*@'
tRp60
tp61
a(S'YP_003047288.1'
p62
g3
(g5
S'+C\xc0[\xad\x02+@'
tRp63
tp64
a(S'YP_003043503.1'
p65
g3
(g5
S':7\xd8\x16\nT-@'
tRp66
tp67
a(S'YP_003043552.1'
p68
g3
(g5
S'\xbe\xb5\xd6\xbb\xc8\x93-@'
tRp69
tp70
a(S'YP_003044378.1'
p71
g3
(g5
S':\xb9>\xff\x93$.@'
tRp72
tp73
a(S'YP_003047009.1'
p74
g3
(g5
S'\x19\x06\xfb$\xf33.@'
tRp75
tp76
a(S'YP_003045988.1'
p77
g3
(g5
S'\xfe\xef\x91\xfb=?.@'
tRp78
tp79
a(S'YP_003045457.1'
p80
g3
(g5
S's\xdd\r\x18[\x84.@'
tRp81
tp82
a(S'YP_003046551.1'
p83
g3
(g5
S'\r-\xd5\xd9\x14\xfc/@'
tRp84
tp85
a(S'YP_003044099.1'
p86
g3
(g5
S'}\x83\x87n?E0@'
tRp87
tp88
a(S'YP_003043934.1'
p89
g3
(g5
S'\xeb\xdfN9"\x810@'
tRp90
tp91
a(S'YP_003044261.1'
p92
g3
(g5
S'\xf0f\xcf\xca\xe9\x8a0@'
tRp93
tp94
a(S'YP_003045167.1'
p95
g3
(g5
S'\xdd\xc2\xe8\n\x85\xa10@'
tRp96
tp97
a(S'YP_003046195.1'
p98
g3
(g5
S'p\x86&\xff\xde\xca0@'
tRp99
tp100
a(S'YP_003047266.1'
p101
g3
(g5
S'\xb25q8\xce\x191@'
tRp102
tp103
a(S'YP_003045075.1'
p104
g3
(g5
S'\xbf\x8bp\x93f=1@'
tRp105
tp106
a(S'YP_003046759.1'
p107
g3
(g5
S'oT\xb62\xe4)2@'
tRp108
tp109
a(S'YP_003043979.1'
p110
g3
(g5
S"\xa0.'\xe0\xcbp2@"
tRp111
tp112
a(S'YP_003044537.1'
p113
g3
(g5
S'q\x84.6\xfb{2@'
tRp114
tp115
a(S'YP_003046394.1'
p116
g3
(g5
S'>\x9b<F|\xe52@'
tRp117
tp118
a(S'YP_003047275.1'
p119
g3
(g5
S'+H\x8e\x9e\rW3@'
tRp120
tp121
a(S'YP_003045107.1'
p122
g3
(g5
S'\xf5,Q8+J4@'
tRp123
tp124
a(S'YP_003044607.1'
p125
g3
(g5
S'\xeb\xed\xef\x02\xd3\x874@'
tRp126
tp127
a(S'YP_003044335.1'
p128
g3
(g5
S'v\xcf\x1b\xd3\xff]5@'
tRp129
tp130
a(S'YP_003044498.1'
p131
g3
(g5
S'6\xcd\xeen\xa7\xf85@'
tRp132
tp133
a(S'YP_003047113.1'
p134
g3
(g5
S'[\x8b\xd0\x91\x0e\xd96@'
tRp135
tp136
a(S'YP_003044215.1'
p137
g3
(g5
S'h\xad\xb2\x02\xb8\x037@'
tRp138
tp139
a(S'YP_003045755.1'
p140
g3
(g5
S'#X\xcb(C\xd57@'
tRp141
tp142
a(S'YP_003045887.1'
p143
g3
(g5
S'\x13\x89&6O\x0f8@'
tRp144
tp145
a(S'YP_003045693.1'
p146
g3
(g5
S'](\x90\x85F\x148@'
tRp147
tp148
a(S'YP_003046781.1'
p149
g3
(g5
S'\x909S\xd7\xde/8@'
tRp150
tp151
a(S'YP_003045721.1'
p152
g3
(g5
S'\x06\xf2\x87\x7fPo8@'
tRp153
tp154
a(S'YP_003043249.1'
p155
g3
(g5
S'\xca\xb9\xd1.>\xd38@'
tRp156
tp157
a(S'YP_003044936.1'
p158
g3
(g5
S'\xad\xd0v\xe6\xdd\x1d:@'
tRp159
tp160
a(S'YP_003047381.1'
p161
g3
(g5
S'x\xa3\x9cKB\xa4;@'
tRp162
tp163
a(S'YP_003046129.1'
p164
g3
(g5
S'Kb\x82$u\x99<@'
tRp165
tp166
a(S'YP_003047244.1'
p167
g3
(g5
S'\xb3K5\xf0\xaf\xd1<@'
tRp168
tp169
a(S'YP_003046488.1'
p170
g3
(g5
S'-\xc0\xe1\x80Z\x1a=@'
tRp171
tp172
a(S'YP_003043673.1'
p173
g3
(g5
S'&\x19\x97\x8b\x1eP=@'
tRp174
tp175
a(S'YP_003043394.1'
p176
g3
(g5
S'\x9f\xc2Q\xc3\xf5k>@'
tRp177
tp178
a(S'YP_003045872.1'
p179
g3
(g5
S'+\xdf\x90\xea\xb8.?@'
tRp180
tp181
a(S'YP_003043450.1'
p182
g3
(g5
S'Q\xf90\xe5\xc6\xa9@@'
tRp183
tp184
a(S'YP_003044216.1'
p185
g3
(g5
S'\x15\x02|D\xea\x1fA@'
tRp186
tp187
a(S'YP_003045299.1'
p188
g3
(g5
S'\x95\x84p\xbe\x1e)A@'
tRp189
tp190
a(S'YP_003044482.1'
p191
g3
(g5
S'f\xb7\x1e\xdb\\0A@'
tRp192
tp193
a(S'YP_003044563.1'
p194
g3
(g5
S'\x16\xddi0\ndA@'
tRp195
tp196
a(S'YP_003047223.1'
p197
g3
(g5
S'\x80l\x8c\xb7\x96/B@'
tRp198
tp199
a(S'YP_003047010.1'
p200
g3
(g5
S'E0{\xceC|B@'
tRp201
tp202
a(S'YP_003044889.1'
p203
g3
(g5
S'q3\xa0\xcaC\x85B@'
tRp204
tp205
a(S'YP_003045300.1'
p206
g3
(g5
S'Z\x9aj\x934\xccB@'
tRp207
tp208
a(S'YP_003044661.1'
p209
g3
(g5
S'\x0e\x16&\xcc\x02\xd0B@'
tRp210
tp211
a(S'YP_003043977.1'
p212
g3
(g5
S'\xdd<\xce\xdf\xa7\xf9B@'
tRp213
tp214
a(S'YP_003046729.1'
p215
g3
(g5
S'\xe3d\x92Q\x19\x08C@'
tRp216
tp217
a(S'YP_003043527.1'
p218
g3
(g5
S'\xe2\xf9\rD3\tC@'
tRp219
tp220
a(S'YP_003043759.1'
p221
g3
(g5
S"\xe3\xfbS\xf7\x01'C@"
tRp222
tp223
a(S'YP_003045344.1'
p224
g3
(g5
S'\xf7\x0e\xc3\xd0bHC@'
tRp225
tp226
a(S'YP_003044910.1'
p227
g3
(g5
S'-\x0e>V\x8a\xa8C@'
tRp228
tp229
a(S'YP_003045049.1'
p230
g3
(g5
S"\x8fH\t'W3D@"
tRp231
tp232
a(S'YP_003043385.1'
p233
g3
(g5
S'\xb0\x9f\xe9\xd3\x1a\x85D@'
tRp234
tp235
a(S'YP_003045855.1'
p236
g3
(g5
S'\x02\xfd>\xbb\xc4\\E@'
tRp237
tp238
a(S'YP_003045326.1'
p239
g3
(g5
S'\xb4\xc8EG\xca\x9eE@'
tRp240
tp241
a(S'YP_003043989.1'
p242
g3
(g5
S'\xdc\x14\x0e\xbcU\xddE@'
tRp243
tp244
a(S'YP_003046416.1'
p245
g3
(g5
S'K\xdd\x9fk\x12\x1fF@'
tRp246
tp247
a(S'YP_003047227.1'
p248
g3
(g5
S"\xebm'\x83\xb8\\F@"
tRp249
tp250
a(S'YP_003045092.1'
p251
g3
(g5
S'\x8bFl\x98\xa5dF@'
tRp252
tp253
a(S'YP_003047251.1'
p254
g3
(g5
S'\xd44\x92S]nF@'
tRp255
tp256
a(S'YP_003045163.1'
p257
g3
(g5
S'\x99}7\xf7h\xc5F@'
tRp258
tp259
a(S'YP_003043692.1'
p260
g3
(g5
S'\x8a\x17\xa3\xd8e\xc6F@'
tRp261
tp262
a(S'YP_003047108.1'
p263
g3
(g5
S'H\x88\xf47\x90\xdfF@'
tRp264
tp265
a(S'YP_003045534.1'
p266
g3
(g5
S'\x97\xbf\x04\xc6\xf7\xf8F@'
tRp267
tp268
a(S'YP_003045657.1'
p269
g3
(g5
S"\xed`\xa5\xd9'JG@"
tRp270
tp271
a(S'YP_003046558.1'
p272
g3
(g5
S'x\xc8x\n\xbc\xf6G@'
tRp273
tp274
a(S'YP_003044763.1'
p275
g3
(g5
S'\xce\xf1\xed\x83\x00-H@'
tRp276
tp277
a(S'YP_003044912.1'
p278
g3
(g5
S'h\x0c\xc2/\xdcII@'
tRp279
tp280
a(S'YP_003044546.1'
p281
g3
(g5
S'Q\xb7|\xd5\x1bnI@'
tRp282
tp283
a(S'YP_003046493.1'
p284
g3
(g5
S'\x86E\x1e\xbb\n\xaaK@'
tRp285
tp286
a(S'YP_003045065.1'
p287
g3
(g5
S'%ypj\xec\xf9K@'
tRp288
tp289
a(S'YP_003043593.1'
p290
g3
(g5
S'\xa9@X\x86\t\x08L@'
tRp291
tp292
a(S'YP_003046260.1'
p293
g3
(g5
S'\xbf;\xf9\xeeg/L@'
tRp294
tp295
a(S'YP_003044138.1'
p296
g3
(g5
S'\xcb\xeb\xd4\n\xe2:M@'
tRp297
tp298
a(S'YP_003044184.1'
p299
g3
(g5
S'\x9f`\xd6\x94!\xd0N@'
tRp300
tp301
a(S'YP_003044470.1'
p302
g3
(g5
S'\xe5}\x89m\x1a\xd1N@'
tRp303
tp304
a(S'YP_003045602.1'
p305
g3
(g5
S'0\x8f\x98\xde\xf0bO@'
tRp306
tp307
a(S'YP_003044468.1'
p308
g3
(g5
S'\x14\xf8\x1cBb\x9bO@'
tRp309
tp310
a(S'YP_003046499.1'
p311
g3
(g5
S'S\xcf!\xfa\xf2\xa9O@'
tRp312
tp313
a(S'YP_003044981.1'
p314
g3
(g5
S'\x9a\xc3\xa6\xf5\xb9#P@'
tRp315
tp316
a(S'YP_003045458.1'
p317
g3
(g5
S'\xbb/\xe8:\x1fyP@'
tRp318
tp319
a(S'YP_003044640.1'
p320
g3
(g5
S'\xe8\xees\xd0\xb3\x90P@'
tRp321
tp322
a(S'YP_003045527.1'
p323
g3
(g5
S'\xbf7u\xbb\x81\xd6P@'
tRp324
tp325
a(S'YP_003044415.1'
p326
g3
(g5
S'\xae\x8b\x1e\x88\x88\xe1P@'
tRp327
tp328
a(S'YP_003046696.1'
p329
g3
(g5
S'\xbe\xf0\xf8\x18\x1f\xe8P@'
tRp330
tp331
a(S'YP_003045820.1'
p332
g3
(g5
S'F\x0c\x94\xdc\x9d\xeaP@'
tRp333
tp334
a(S'YP_003044660.1'
p335
g3
(g5
S'S\xff4\x8a`=Q@'
tRp336
tp337
a(S'YP_003043573.1'
p338
g3
(g5
S'\x94\x96\x82O:zQ@'
tRp339
tp340
a(S'YP_003045343.1'
p341
g3
(g5
S'\xbfLI\x1f\xf9\xeaQ@'
tRp342
tp343
a(S'YP_003046688.1'
p344
g3
(g5
S'>]E=\x16\x06R@'
tRp345
tp346
a(S'YP_003044070.1'
p347
g3
(g5
S'H\xf0g\xd5\x88\x06R@'
tRp348
tp349
a(S'YP_003043526.1'
p350
g3
(g5
S'\xb2\xb9\xb9\x9d\x80\x0fR@'
tRp351
tp352
a(S'YP_003044679.1'
p353
g3
(g5
S'\xd0\xd3\xaf\xaf%UR@'
tRp354
tp355
a(S'YP_003047354.1'
p356
g3
(g5
S'\r`\xeb\xd9\xa7`R@'
tRp357
tp358
a(S'YP_003046125.1'
p359
g3
(g5
S'\xf2\x88A\xd1+\x85R@'
tRp360
tp361
a(S'YP_003046461.1'
p362
g3
(g5
S'y\xd6\x00\xfa\xd6\xafR@'
tRp363
tp364
a(S'YP_003044191.1'
p365
g3
(g5
S'\x99\x1eZN\xf4\xe9R@'
tRp366
tp367
a(S'YP_003043830.1'
p368
g3
(g5
S'\xfat\xfa\x95<\xecR@'
tRp369
tp370
a(S'YP_003045159.1'
p371
g3
(g5
S'd\xfe\\\xa6k3S@'
tRp372
tp373
a(S'YP_003046436.1'
p374
g3
(g5
S'\xac\x1b\x0b\xcc\x8c\xafS@'
tRp375
tp376
a(S'YP_003045467.1'
p377
g3
(g5
S'02\x80\x11\x83\xe5S@'
tRp378
tp379
a(S'YP_003044920.1'
p380
g3
(g5
S'S\xa8\xc6h\xeeMT@'
tRp381
tp382
a(S'YP_003047374.1'
p383
g3
(g5
S'u\xa8\x9e\xffq\xc3T@'
tRp384
tp385
a(S'YP_003043572.1'
p386
g3
(g5
S'\xc7Q5\x12 +U@'
tRp387
tp388
a(S'YP_003045865.1'
p389
g3
(g5
S'Y\xb4\x04\xf4\xf8sU@'
tRp390
tp391
a(S'YP_003043314.1'
p392
g3
(g5
S'\xfc\x1b\xc4\xda\xd1wU@'
tRp393
tp394
a(S'YP_003043561.1'
p395
g3
(g5
S'f\x9d\x92\x03\xf1\x89U@'
tRp396
tp397
a(S'YP_003044615.1'
p398
g3
(g5
S'\xc6K\xfc\xfb\x15\xfbU@'
tRp399
tp400
a(S'YP_003045247.1'
p401
g3
(g5
S'\x8c]\xe9X\t\xfcU@'
tRp402
tp403
a(S'YP_003045177.1'
p404
g3
(g5
S"\x19]3}\xab'V@"
tRp405
tp406
a(S'YP_003044235.1'
p407
g3
(g5
S'\xbeSoB\xa6MV@'
tRp408
tp409
a(S'YP_003044123.1'
p410
g3
(g5
S'\xa6z\xf8\xa4\xe9sV@'
tRp411
tp412
a(S'YP_003045914.1'
p413
g3
(g5
S'tf\xef\xfd\xbd\x95V@'
tRp414
tp415
a(S'YP_003043929.1'
p416
g3
(g5
S'\x8a\xa3v\xc2\xb6\xa3V@'
tRp417
tp418
a(S'YP_003045858.1'
p419
g3
(g5
S'\xc8\xefcum\xc0V@'
tRp420
tp421
a(S'YP_003046853.1'
p422
g3
(g5
S'h4\xb1Y\xbf\xf4V@'
tRp423
tp424
a(S'YP_003046863.1'
p425
g3
(g5
S'\xf8\x13>\xfdS,W@'
tRp426
tp427
a(S'YP_003045338.1'
p428
g3
(g5
S'Dm\x14\x85\xf3gW@'
tRp429
tp430
a(S'YP_003046121.1'
p431
g3
(g5
S'80-\x89\xe7uW@'
tRp432
tp433
a(S'YP_003045002.1'
p434
g3
(g5
S'q{R(]}W@'
tRp435
tp436
a(S'YP_003044515.1'
p437
g3
(g5
S'KU\xb3\xcc\xae\xadW@'
tRp438
tp439
a(S'YP_003043652.1'
p440
g3
(g5
S'\xc4\x11\xe6Tr\xb4W@'
tRp441
tp442
a(S'YP_003046666.1'
p443
g3
(g5
S'\xc5\xd2\x81\xe3\x1a\xc0W@'
tRp444
tp445
a(S'YP_003044597.1'
p446
g3
(g5
S'\x12\xbb\xd7\x85\x90\xc9W@'
tRp447
tp448
a(S'YP_003044787.1'
p449
g3
(g5
S'G\xfb\x02Y\xa3\xffW@'
tRp450
tp451
a(S'YP_003046943.1'
p452
g3
(g5
S'\xcd0\xb5\x1e>DX@'
tRp453
tp454
a(S'YP_003045672.1'
p455
g3
(g5
S'\xf8\xfaS\xdeXPX@'
tRp456
tp457
a(S'YP_003045051.1'
p458
g3
(g5
S'\x86\xea|\x93JaX@'
tRp459
tp460
a(S'YP_003044791.1'
p461
g3
(g5
S'\xb4\xafk\x9a\xe0\x81X@'
tRp462
tp463
a(S'YP_003043951.1'
p464
g3
(g5
S'\x9b\xf5\xe6\x7fA\xa6X@'
tRp465
tp466
a(S'YP_003045556.1'
p467
g3
(g5
S'\x1e\x95f\x1a\x02\xb0X@'
tRp468
tp469
a(S'YP_003044014.1'
p470
g3
(g5
S'\x9eO\xbf\xcd\x7f\xf1X@'
tRp471
tp472
a(S'YP_003044517.1'
p473
g3
(g5
S'\xd8\xf2\x8cN\xdasY@'
tRp474
tp475
a(S'YP_003047077.1'
p476
g3
(g5
S'\x88\rs\x8ft)Z@'
tRp477
tp478
a(S'YP_003046651.1'
p479
g3
(g5
S'\xa6\xffg\x00\x10\x9aZ@'
tRp480
tp481
a(S'YP_003045756.1'
p482
g3
(g5
S'9\x17\xfd\xa8\xc0\xd1Z@'
tRp483
tp484
a(S'YP_003046976.1'
p485
g3
(g5
S'\xe8\xd5\xcd\xcc\xc16[@'
tRp486
tp487
a(S'YP_003045279.1'
p488
g3
(g5
S'\xf4\x132M\xc0_[@'
tRp489
tp490
a(S'YP_003043430.1'
p491
g3
(g5
S'\xe7\x82\xd0j\xd9c[@'
tRp492
tp493
a(S'YP_003043411.1'
p494
g3
(g5
S'\x83\xa7"\xd0,\x91[@'
tRp495
tp496
a(S'YP_003047378.1'
p497
g3
(g5
S'\x83&\x06Q\xb6\xda[@'
tRp498
tp499
a(S'YP_003046671.1'
p500
g3
(g5
S'\x8c\xaa\x88n\xa7:]@'
tRp501
tp502
a(S'YP_003043289.1'
p503
g3
(g5
S'\x04Y\xc1\xe6\xccY]@'
tRp504
tp505
a(S'YP_003045026.1'
p506
g3
(g5
S'\xb6\x9f\xdeOq\x9e]@'
tRp507
tp508
a(S'YP_003046701.1'
p509
g3
(g5
S'\xc8W_\x19\xc7\xf1]@'
tRp510
tp511
a(S'YP_003045841.1'
p512
g3
(g5
S'\xb4\xd2\xdbl\xd1\xfa]@'
tRp513
tp514
a(S'YP_003044617.1'
p515
g3
(g5
S'\x08\x0f\xa8awF^@'
tRp516
tp517
a(S'YP_003046111.1'
p518
g3
(g5
S'g-\x08c9\xcc^@'
tRp519
tp520
a(S'YP_003043506.1'
p521
g3
(g5
S'D\xc4\xf9@}\xcf^@'
tRp522
tp523
a(S'YP_003046156.1'
p524
g3
(g5
S'5\xb7\x8a\xab\xf4\x80_@'
tRp525
tp526
a(S'YP_003046970.1'
p527
g3
(g5
S';\x8d\xb0\x01e\xe1_@'
tRp528
tp529
a(S'YP_003045014.1'
p530
g3
(g5
S'Uz\x9b_\xca\xe7_@'
tRp531
tp532
a(S'YP_003045591.1'
p533
g3
(g5
S'K\xea\x8d\xfa6\x10`@'
tRp534
tp535
a(S'YP_003046992.1'
p536
g3
(g5
S'\xda\xb4K\x87\xf0g`@'
tRp537
tp538
a(S'YP_003045670.1'
p539
g3
(g5
S'\xbc\xa3DU\xd6n`@'
tRp540
tp541
a(S'YP_003047404.1'
p542
g3
(g5
S'(z>\x9a3\x86`@'
tRp543
tp544
a(S'YP_003045388.1'
p545
g3
(g5
S';O\xc2f\x8e\x87`@'
tRp546
tp547
a(S'YP_003043837.1'
p548
g3
(g5
S'\xe6\xa5\xa2\xed@\xa5`@'
tRp549
tp550
a(S'YP_003046874.1'
p551
g3
(g5
S'\x1c\x1d\x08\x180\xa9`@'
tRp552
tp553
a(S'YP_003044513.1'
p554
g3
(g5
S'\xf8[\xa3\xed\xe7\xf0`@'
tRp555
tp556
a(S'YP_003046983.1'
p557
g3
(g5
S'\x9fvD\xe8\xe4\xf8`@'
tRp558
tp559
a(S'YP_003045547.1'
p560
g3
(g5
S'd>\xe3\x0e[\x0ea@'
tRp561
tp562
a(S'YP_003043429.1'
p563
g3
(g5
S'\xec\x92\x7fs\xee#a@'
tRp564
tp565
a(S'YP_003044002.1'
p566
g3
(g5
S'\xe8)$\xaa\x991a@'
tRp567
tp568
a(S'YP_003047375.1'
p569
g3
(g5
S'\xd9,\x1d5\xd2Ea@'
tRp570
tp571
a(S'YP_003044342.1'
p572
g3
(g5
S'\xd0%r\xe4Tia@'
tRp573
tp574
a(S'YP_003044835.1'
p575
g3
(g5
S'\xb7\rbb=~a@'
tRp576
tp577
a(S'YP_003046087.1'
p578
g3
(g5
S'\xb4S\x07\xd6\xf7\xb2a@'
tRp579
tp580
a(S'YP_003047407.1'
p581
g3
(g5
S'\xd1dS\x1b+\xe1a@'
tRp582
tp583
a(S'YP_003047255.1'
p584
g3
(g5
S'\xa4\x06\xe4i\x9c\x01b@'
tRp585
tp586
a(S'YP_003044844.1'
p587
g3
(g5
S'\xd2(\xdf\xad\xc2\x0cb@'
tRp588
tp589
a(S'YP_003046175.1'
p590
g3
(g5
S'\xe2\x8f\xcaa\x07\rb@'
tRp591
tp592
a(S'YP_003044144.1'
p593
g3
(g5
S'\xa8h\xd3i\xc6#b@'
tRp594
tp595
a(S'YP_003044960.1'
p596
g3
(g5
S'\xbe\x1b\xa9\x8a\x03Mb@'
tRp597
tp598
a(S'YP_003046391.1'
p599
g3
(g5
S'\x99\xe6\xd10\x9bcb@'
tRp600
tp601
a(S'YP_003043924.1'
p602
g3
(g5
S'%\xf2\x03\xd6\xa6\xbeb@'
tRp603
tp604
a(S'YP_003045089.1'
p605
g3
(g5
S'\x1dW\x87\x959\xd3b@'
tRp606
tp607
a(S'YP_003045971.1'
p608
g3
(g5
S'\xeeLB\xf9\xe4$c@'
tRp609
tp610
a(S'YP_003043845.1'
p611
g3
(g5
S'\xfc?\xd6\x1a\x83/c@'
tRp612
tp613
a(S'YP_003043461.1'
p614
g3
(g5
S"\xe03q'\xc77c@"
tRp615
tp616
a(S'YP_003046785.1'
p617
g3
(g5
S'\x8dSI6\xeazc@'
tRp618
tp619
a(S'YP_003045986.1'
p620
g3
(g5
S'y\x8f\x13M\x8c\x9fc@'
tRp621
tp622
a(S'YP_003046911.1'
p623
g3
(g5
S'25{\xf0\x82\xa1c@'
tRp624
tp625
a(S'YP_003045311.1'
p626
g3
(g5
S't\xbd\xfe\xda_\xdbc@'
tRp627
tp628
a(S'YP_003046864.1'
p629
g3
(g5
S'^\xedV\x08\xdf\xe7c@'
tRp630
tp631
a(S'YP_003046463.1'
p632
g3
(g5
S'];]\x9eh\xf2c@'
tRp633
tp634
a(S'YP_003043347.1'
p635
g3
(g5
S'\x97\x8b\xea.2\x03d@'
tRp636
tp637
a(S'YP_003044094.1'
p638
g3
(g5
S'\x92GOV\xb0\x03d@'
tRp639
tp640
a(S'YP_003045927.1'
p641
g3
(g5
S'\xa1\xd6\xa8\x8e\xb4 d@'
tRp642
tp643
a(S'YP_003045706.1'
p644
g3
(g5
S'E^\x97\x9b%Vd@'
tRp645
tp646
a(S'YP_003044852.1'
p647
g3
(g5
S'\x8c\xc9}\xe4F\x88d@'
tRp648
tp649
a(S'YP_003043374.1'
p650
g3
(g5
S'\x0c\\\xbf\x10\x13\x98d@'
tRp651
tp652
a(S'YP_003045330.1'
p653
g3
(g5
S't\xd8\xaa\x8c\x91\xecd@'
tRp654
tp655
a(S'YP_003045766.1'
p656
g3
(g5
S'Q\xf1\xd0\xf1\xc2\xf0d@'
tRp657
tp658
a(S'YP_003046841.1'
p659
g3
(g5
S'\x1d\x8b\xe0j\x92\te@'
tRp660
tp661
a(S'YP_003044602.1'
p662
g3
(g5
S'\xcf\x88Z\x08zBe@'
tRp663
tp664
a(S'YP_003043970.1'
p665
g3
(g5
S'W\xd9\x9a\xa2\x8dHe@'
tRp666
tp667
a(S'YP_003045550.1'
p668
g3
(g5
S'\x8c\xd3\xfa\x16\x1a\x81e@'
tRp669
tp670
a(S'YP_003045642.1'
p671
g3
(g5
S'\xc7Eo\xa8\xaa\xc1e@'
tRp672
tp673
a(S'YP_003046481.1'
p674
g3
(g5
S'eG\xe8OK\xc2e@'
tRp675
tp676
a(S'YP_003047413.1'
p677
g3
(g5
S'\xed\xa1\x98\x00D\xf1e@'
tRp678
tp679
a(S'YP_003047353.1'
p680
g3
(g5
S'\x10\x1bQ\x16\xc8\xf2e@'
tRp681
tp682
a(S'YP_003043282.1'
p683
g3
(g5
S'O\x02\xa1t\xba$f@'
tRp684
tp685
a(S'YP_003043861.1'
p686
g3
(g5
S'\xe49\xee\xed=Ff@'
tRp687
tp688
a(S'YP_003044171.1'
p689
g3
(g5
S'A\xc4\xa1nl~f@'
tRp690
tp691
a(S'YP_003046561.1'
p692
g3
(g5
S'\xe8\xa4\xd4&\xa9\x81f@'
tRp693
tp694
a(S'YP_003043992.1'
p695
g3
(g5
S'N\xedY\xf6\xab\xa2f@'
tRp696
tp697
a(S'YP_003045849.1'
p698
g3
(g5
S'^\x8b\x80\xf8q\xd9f@'
tRp699
tp700
a(S'YP_003043447.1'
p701
g3
(g5
S'\x99$\t\x0f\xbf\xe1f@'
tRp702
tp703
a(S'YP_003045583.1'
p704
g3
(g5
S'\xbb\x89_B\x92\xf1f@'
tRp705
tp706
a(S'YP_003046831.1'
p707
g3
(g5
S'\xe7\xf9\xfe\xd6\xb9Wg@'
tRp708
tp709
a(S'YP_003047418.1'
p710
g3
(g5
S'\xcf6\xa1m+Xg@'
tRp711
tp712
a(S'YP_003044589.1'
p713
g3
(g5
S'\xb78\xc4_f\x8bg@'
tRp714
tp715
a(S'YP_003045663.1'
p716
g3
(g5
S'*y\x018\xc9\xa3g@'
tRp717
tp718
a(S'YP_003046494.1'
p719
g3
(g5
S'\xc1\x04\xb0\xf8\xb8\xbbg@'
tRp720
tp721
a(S'YP_003044854.1'
p722
g3
(g5
S"jq'\xef\xd8\xf8g@"
tRp723
tp724
a(S'YP_003044173.1'
p725
g3
(g5
S'8\xc9u\x05o\xfcg@'
tRp726
tp727
a(S'YP_003044177.1'
p728
g3
(g5
S'\xde\xd2\\\xa3\xab/h@'
tRp729
tp730
a(S'YP_003043355.1'
p731
g3
(g5
S'\xa4h0{\x92[h@'
tRp732
tp733
a(S'YP_003043415.1'
p734
g3
(g5
S'u]Uvp_h@'
tRp735
tp736
a(S'YP_003046627.1'
p737
g3
(g5
S';>M\xf1ajh@'
tRp738
tp739
a(S'YP_003045046.1'
p740
g3
(g5
S'\xb1\x1a\x1e\x0cO~h@'
tRp741
tp742
a(S'YP_003047153.1'
p743
g3
(g5
S'Y\x8d\xa3\xde\xd0\x93h@'
tRp744
tp745
a(S'YP_003043332.1'
p746
g3
(g5
S';\x96\x9fO\xf7\x95h@'
tRp747
tp748
a(S'YP_003044379.1'
p749
g3
(g5
S'\xfd2Z\x89\xfd\xaah@'
tRp750
tp751
a(S'YP_003044091.1'
p752
g3
(g5
S'*n\xd3O~\xc3h@'
tRp753
tp754
a(S'YP_003046069.1'
p755
g3
(g5
S'?\xa2\xc4\xc2p(i@'
tRp756
tp757
a(S'YP_003043495.1'
p758
g3
(g5
S'\xf5G\x9f\x0e\xaffi@'
tRp759
tp760
a(S'YP_003047408.1'
p761
g3
(g5
S'S\xdb\x94\xec\x1e\x8ai@'
tRp762
tp763
a(S'YP_003043964.1'
p764
g3
(g5
S'0\xc27\xf7^\x94i@'
tRp765
tp766
a(S'YP_003044510.1'
p767
g3
(g5
S'\x02\xd2\xce~e\xa0i@'
tRp768
tp769
a(S'YP_003045734.1'
p770
g3
(g5
S'?h\x84\x045\xa7i@'
tRp771
tp772
a(S'YP_003043849.1'
p773
g3
(g5
S'\xdf\xd7>\xe1 \xe2i@'
tRp774
tp775
a(S'YP_003047259.1'
p776
g3
(g5
S'\xb1Z\xfb\x98w\x07j@'
tRp777
tp778
a(S'YP_003044685.1'
p779
g3
(g5
S'\xa33}J\xb5 j@'
tRp780
tp781
a(S'YP_003043980.1'
p782
g3
(g5
S'\x94\xfac\x19\x8f$j@'
tRp783
tp784
a(S'YP_003045578.1'
p785
g3
(g5
S'$\x9eYm\xe3<j@'
tRp786
tp787
a(S'YP_003045296.1'
p788
g3
(g5
S'\x19\xc3\xfb\x00\x83\xb5j@'
tRp789
tp790
a(S'YP_003046497.1'
p791
g3
(g5
S'i\xd7\x13gL\xd0j@'
tRp792
tp793
a(S'YP_003044874.1'
p794
g3
(g5
S'G\xda\xef\xcf\tck@'
tRp795
tp796
a(S'YP_003046152.1'
p797
g3
(g5
S'qw\x15\xc0_wk@'
tRp798
tp799
a(S'YP_003043959.1'
p800
g3
(g5
S'\x99\xaa_\x03\xf0\xe2k@'
tRp801
tp802
a(S'YP_003044464.1'
p803
g3
(g5
S'\xda\xab\xb6\x98\xf8\xe6k@'
tRp804
tp805
a(S'YP_003044761.1'
p806
g3
(g5
S'\xd5a\x84\xc2\xaf\x03l@'
tRp807
tp808
a(S'YP_003045313.1'
p809
g3
(g5
S')\xdb\xac<s\x84l@'
tRp810
tp811
a(S'YP_003046860.1'
p812
g3
(g5
S'@\tFbo\xacl@'
tRp813
tp814
a(S'YP_003046692.1'
p815
g3
(g5
S'\xf8\xe7\x1as\xb6\xc2l@'
tRp816
tp817
a(S'YP_003043436.1'
p818
g3
(g5
S'\xeco\xbd\xb1\x9c\xdcl@'
tRp819
tp820
a(S'YP_003046277.1'
p821
g3
(g5
S'\xf4\x12\xff\x8d:$m@'
tRp822
tp823
a(S'YP_003047207.1'
p824
g3
(g5
S'^\x82_\x98\xd8am@'
tRp825
tp826
a(S'YP_003046089.1'
p827
g3
(g5
S't\x18(\xa6\xe3wm@'
tRp828
tp829
a(S'YP_003046975.1'
p830
g3
(g5
S'\xe4R\xce\xac|&n@'
tRp831
tp832
a(S'YP_003045909.1'
p833
g3
(g5
S'\x80\xee\xb7\xdb\xc83n@'
tRp834
tp835
a(S'YP_003046465.1'
p836
g3
(g5
S'%[\xb9\x9e\xf8Xn@'
tRp837
tp838
a(S'YP_003043657.1'
p839
g3
(g5
S'}[\xe0|N\xa7n@'
tRp840
tp841
a(S'YP_003046949.1'
p842
g3
(g5
S'&4\x1d5\xb0\xecn@'
tRp843
tp844
a(S'YP_003046081.1'
p845
g3
(g5
S'\xfa\xb8\x95\x89/\xffn@'
tRp846
tp847
a(S'YP_003045710.1'
p848
g3
(g5
S'\x7f\x0e\n\xb7\x0bao@'
tRp849
tp850
a(S'YP_003044275.1'
p851
g3
(g5
S'0\x9c\x0e\x1d\xe1eo@'
tRp852
tp853
a(S'YP_003046788.1'
p854
g3
(g5
S'\\\x11\x9e\xf7(\x9do@'
tRp855
tp856
a(S'YP_003046127.1'
p857
g3
(g5
S'\x95\x85\x96\x92R\xc3o@'
tRp858
tp859
a(S'YP_003045425.1'
p860
g3
(g5
S'k^\x803\xad\xd2o@'
tRp861
tp862
a(S'YP_003044850.1'
p863
g3
(g5
S'\xd1\xaf\xae\xd2\x0e\x00p@'
tRp864
tp865
a(S'YP_003045019.1'
p866
g3
(g5
S'\xef\xbc\xba\x05\xf6\x04p@'
tRp867
tp868
a(S'YP_003043852.1'
p869
g3
(g5
S'\x0f\xffo\x901\x07p@'
tRp870
tp871
a(S'YP_003046686.1'
p872
g3
(g5
S'\xe1\x9eg\xad{\x12p@'
tRp873
tp874
a(S'YP_003043410.1'
p875
g3
(g5
S'\xff\xd1\xe7\xa3\xe2 p@'
tRp876
tp877
a(S'YP_003045418.1'
p878
g3
(g5
S'z\xc5/~\r6p@'
tRp879
tp880
a(S'YP_003043671.1'
p881
g3
(g5
S'\x9f-.\xb6z>p@'
tRp882
tp883
a(S'YP_003044427.1'
p884
g3
(g5
S'-:\xe9\x7f\x12Gp@'
tRp885
tp886
a(S'YP_003046030.1'
p887
g3
(g5
S'7\xad\x81\x7f\x0cHp@'
tRp888
tp889
a(S'YP_003044007.1'
p890
g3
(g5
S'oV\x11\xf4vQp@'
tRp891
tp892
a(S'YP_003046915.1'
p893
g3
(g5
S'\xe9\x88;\xf4\xecSp@'
tRp894
tp895
a(S'YP_003047081.1'
p896
g3
(g5
S'\x85\xb6\x83\xfe"Up@'
tRp897
tp898
a(S'YP_003046108.1'
p899
g3
(g5
S'X\r\x13K\x02ap@'
tRp900
tp901
a(S'YP_003047208.1'
p902
g3
(g5
S'\xa4\xed\x80\x91\x90\x85p@'
tRp903
tp904
a(S'YP_003046501.1'
p905
g3
(g5
S'\x9e\xbb\x15\xf5`\x93p@'
tRp906
tp907
a(S'YP_003045108.1'
p908
g3
(g5
S'\x86=Q\x84\xbc\x95p@'
tRp909
tp910
a(S'YP_003047049.1'
p911
g3
(g5
S'\xfc\x97\x96\x19\xd2\x9fp@'
tRp912
tp913
a(S'YP_003044109.1'
p914
g3
(g5
S'4\x19<R\xa5\xaep@'
tRp915
tp916
a(S'YP_003045818.1'
p917
g3
(g5
S'\xbb\xe9\xfe\tm\xc0p@'
tRp918
tp919
a(S'YP_003046927.1'
p920
g3
(g5
S'U\x04c\xe2P\xd0p@'
tRp921
tp922
a(S'YP_003044437.1'
p923
g3
(g5
S'Y\xc8\xa8\x9a\xc3\xe0p@'
tRp924
tp925
a(S'YP_003045276.1'
p926
g3
(g5
S'\xdcG\x8f<\x82\x00q@'
tRp927
tp928
a(S'YP_003044313.1'
p929
g3
(g5
S'm\xe8\xee\x03\xe4\x06q@'
tRp930
tp931
a(S'YP_003044401.1'
p932
g3
(g5
S'\x02fa\xea\xcc\rq@'
tRp933
tp934
a(S'YP_003045294.1'
p935
g3
(g5
S'\x89\x82*\xdf\x92$q@'
tRp936
tp937
a(S'YP_003044777.1'
p938
g3
(g5
S'\xe5\xf0\xe7\xfe5`q@'
tRp939
tp940
a(S'YP_003046138.1'
p941
g3
(g5
S'gE\xef\xb3&\xa2q@'
tRp942
tp943
a(S'YP_003046669.1'
p944
g3
(g5
S'\xf2CG\x91\xa0\xafq@'
tRp945
tp946
a(S'YP_003043777.1'
p947
g3
(g5
S'\xef\x0f/\xa8\x17\xbaq@'
tRp948
tp949
a(S'YP_003046668.1'
p950
g3
(g5
S'\xa5\xff6a8\xd6q@'
tRp951
tp952
a(S'YP_003045096.1'
p953
g3
(g5
S'\x95\xa68l_\xeeq@'
tRp954
tp955
a(S'YP_003043937.1'
p956
g3
(g5
S'\x96\x83\x07*X\x14r@'
tRp957
tp958
a(S'YP_003044972.1'
p959
g3
(g5
S'O\x19npE=r@'
tRp960
tp961
a(S'YP_003043507.1'
p962
g3
(g5
S'E\x8d\xbd\xea\xf4Kr@'
tRp963
tp964
a(S'YP_003044112.1'
p965
g3
(g5
S'\x12\x15\x85y\xc6Mr@'
tRp966
tp967
a(S'YP_003045435.1'
p968
g3
(g5
S'=\x87\xbc\x18\xe9pr@'
tRp969
tp970
a(S'YP_003045740.1'
p971
g3
(g5
S't7]\x81\xbbsr@'
tRp972
tp973
a(S'YP_003043844.1'
p974
g3
(g5
S'\xbe\xcdl\x9e\xb7\xc3r@'
tRp975
tp976
a(S'YP_003045281.1'
p977
g3
(g5
S'h_\xe6\xe3\xc8\xear@'
tRp978
tp979
a(S'YP_003047179.1'
p980
g3
(g5
S'\x1c&\x16\xab \xf3r@'
tRp981
tp982
a(S'YP_003046459.1'
p983
g3
(g5
S'\xa0\xd2N\x7f\xd9\xf9r@'
tRp984
tp985
a(S'YP_003045246.1'
p986
g3
(g5
S'FUa\xff\xe8\x04s@'
tRp987
tp988
a(S'YP_003045164.1'
p989
g3
(g5
S'\xecl\xca\xa2K\x07s@'
tRp990
tp991
a(S'YP_003043570.1'
p992
g3
(g5
S'\xf5\x91?\x80\xa3\x07s@'
tRp993
tp994
a(S'YP_003046657.1'
p995
g3
(g5
S'~\n\xe2K\xdb\x08s@'
tRp996
tp997
a(S'YP_003044458.1'
p998
g3
(g5
S'\x16\xb6\xe9\xa5\xb8\x10s@'
tRp999
tp1000
a(S'YP_003043535.1'
p1001
g3
(g5
S'%3\xfeLI\x1ds@'
tRp1002
tp1003
a(S'YP_003043969.1'
p1004
g3
(g5
S'\x14W\xa1I@.s@'
tRp1005
tp1006
a(S'YP_003043890.1'
p1007
g3
(g5
S'\xf2\xccIoeHs@'
tRp1008
tp1009
a(S'YP_003045987.1'
p1010
g3
(g5
S'\xb0OO\x9cUUs@'
tRp1011
tp1012
a(S'YP_003045091.1'
p1013
g3
(g5
S'\xc5\x95\xc5S\xffUs@'
tRp1014
tp1015
a(S'YP_003043670.1'
p1016
g3
(g5
S'\xa3\x99\xefPlhs@'
tRp1017
tp1018
a(S'YP_003045976.1'
p1019
g3
(g5
S'\xf1\x8c\x80\xaf\x83is@'
tRp1020
tp1021
a(S'YP_003044328.1'
p1022
g3
(g5
S'\xff\xfbH%\x89ns@'
tRp1023
tp1024
a(S'YP_003047399.1'
p1025
g3
(g5
S'\xe7#\xa0Z\xe7vs@'
tRp1026
tp1027
a(S'YP_003045658.1'
p1028
g3
(g5
S'\xbe\x16\xfa\x17=\x8es@'
tRp1029
tp1030
a(S'YP_003046973.1'
p1031
g3
(g5
S'\xf2US1\x0c\xa8s@'
tRp1032
tp1033
a(S'YP_003046811.1'
p1034
g3
(g5
S'8b\xb3=\x8e\xaas@'
tRp1035
tp1036
a(S'YP_003044463.1'
p1037
g3
(g5
S'V\xe4-\xd7\xab\xabs@'
tRp1038
tp1039
a(S'YP_003044509.1'
p1040
g3
(g5
S'\xe5Az\xa2\xcb\xb5s@'
tRp1041
tp1042
a(S'YP_003045603.1'
p1043
g3
(g5
S'\x9a\x98>\x9a\xee\xbas@'
tRp1044
tp1045
a(S'YP_003043928.1'
p1046
g3
(g5
S'\x8d\x8e\x18}D\xbfs@'
tRp1047
tp1048
a(S'YP_003046280.1'
p1049
g3
(g5
S'\x15\xceTC\xee\xdcs@'
tRp1050
tp1051
a(S'YP_003045707.1'
p1052
g3
(g5
S'@\xdd\xd6T\xc9\xf4s@'
tRp1053
tp1054
a(S'YP_003044277.1'
p1055
g3
(g5
S'\x9df\x8c\x89Q\xfcs@'
tRp1056
tp1057
a(S'YP_003045637.1'
p1058
g3
(g5
S'\xcb\x90\xfc\xb46\x15t@'
tRp1059
tp1060
a(S'YP_003046926.1'
p1061
g3
(g5
S'\x87\xa6\xc5\x88n\x15t@'
tRp1062
tp1063
a(S'YP_003045003.1'
p1064
g3
(g5
S'\xc3`\xd7\xe9\xfa#t@'
tRp1065
tp1066
a(S'YP_003044025.1'
p1067
g3
(g5
S'\x9f\x9ca\xe3\xe40t@'
tRp1068
tp1069
a(S'YP_003047062.1'
p1070
g3
(g5
S'{]\xa0n\x8d;t@'
tRp1071
tp1072
a(S'YP_003046944.1'
p1073
g3
(g5
S'\x8eO\x96j\x9f_t@'
tRp1074
tp1075
a(S'YP_003045656.1'
p1076
g3
(g5
S'n\xa8z\xe9\xbeut@'
tRp1077
tp1078
a(S'YP_003047102.1'
p1079
g3
(g5
S'\xd6A\xb5\xd3\x85yt@'
tRp1080
tp1081
a(S'YP_003047080.1'
p1082
g3
(g5
S'\xf5\xb5TM\xfd\x84t@'
tRp1083
tp1084
a(S'YP_003045421.1'
p1085
g3
(g5
S'\x0eiig\xfb\x9bt@'
tRp1086
tp1087
a(S'YP_003045784.1'
p1088
g3
(g5
S"m\xa5'_l\x9dt@"
tRp1089
tp1090
a(S'YP_003043967.1'
p1091
g3
(g5
S'\xaf\x9e\x12\x15\xad\xe0t@'
tRp1092
tp1093
a(S'YP_003046294.1'
p1094
g3
(g5
S'\xdfOz\xa9\x94\x0cu@'
tRp1095
tp1096
a(S'YP_003045747.1'
p1097
g3
(g5
S'k~\x11)\xff\x0fu@'
tRp1098
tp1099
a(S'YP_003045502.1'
p1100
g3
(g5
S'2~\xb2\xde(\x10u@'
tRp1101
tp1102
a(S'YP_003045772.1'
p1103
g3
(g5
S'\xac\x10\x1c%\x9b$u@'
tRp1104
tp1105
a(S'YP_003045447.1'
p1106
g3
(g5
S'L\xa8\x8d\xa7+-u@'
tRp1107
tp1108
a(S'YP_003043800.1'
p1109
g3
(g5
S'E\xdb\x976P;u@'
tRp1110
tp1111
a(S'YP_003046388.1'
p1112
g3
(g5
S'\x80`\xefG\x91@u@'
tRp1113
tp1114
a(S'YP_003047028.1'
p1115
g3
(g5
S'\x03(f\xb8\xe0Ju@'
tRp1116
tp1117
a(S'YP_003043414.1'
p1118
g3
(g5
S'3z&\x803`u@'
tRp1119
tp1120
a(S'YP_003046626.1'
p1121
g3
(g5
S'\x1bs\xc6d%au@'
tRp1122
tp1123
a(S'YP_003043426.1'
p1124
g3
(g5
S'\xaf\xa8\x8a\x90\xfefu@'
tRp1125
tp1126
a(S'YP_003047426.1'
p1127
g3
(g5
S'~c\xf6\x8dtku@'
tRp1128
tp1129
a(S'YP_003043326.1'
p1130
g3
(g5
S'AB\xbd\xfd6wu@'
tRp1131
tp1132
a(S'YP_003044580.1'
p1133
g3
(g5
S'\x9b3\xd2OK\x83u@'
tRp1134
tp1135
a(S'YP_003045584.1'
p1136
g3
(g5
S'm\x1f\xca\\D\x96u@'
tRp1137
tp1138
a(S'YP_003044849.1'
p1139
g3
(g5
S'Sgm\x97\xa5\x9fu@'
tRp1140
tp1141
a(S'YP_003043968.1'
p1142
g3
(g5
S'_\x9b\x99\x00}\xedu@'
tRp1143
tp1144
a(S'YP_003044925.1'
p1145
g3
(g5
S'\xe1\x1e\xa7\xea\xe7\x16v@'
tRp1146
tp1147
a(S'YP_003046910.1'
p1148
g3
(g5
S'E;\xcf\xf6\xdb1v@'
tRp1149
tp1150
a(S'YP_003046907.1'
p1151
g3
(g5
S'F|\xaf\xa2\x9f_v@'
tRp1152
tp1153
a(S'YP_003046856.1'
p1154
g3
(g5
S'\xc8\x15\xb0\xb2Wiv@'
tRp1155
tp1156
a(S'YP_003046980.1'
p1157
g3
(g5
S'\x04bG\xcf\xac\x85v@'
tRp1158
tp1159
a(S'YP_003043379.1'
p1160
g3
(g5
S'\x96Y\x10\x1d\xc0\x9ev@'
tRp1161
tp1162
a(S'YP_003044851.1'
p1163
g3
(g5
S'c\xb1\x8f(*\xa7v@'
tRp1164
tp1165
a(S'YP_003045445.1'
p1166
g3
(g5
S'\x0b\xb2\xbd)P\xbcv@'
tRp1167
tp1168
a(S'YP_003043682.1'
p1169
g3
(g5
S'\x89\xd9\xfe\x88\xd2\xc1v@'
tRp1170
tp1171
a(S'YP_003045519.1'
p1172
g3
(g5
S'\x02S\x19-8\xd1v@'
tRp1173
tp1174
a(S'YP_003047417.1'
p1175
g3
(g5
S'\x1c\x16u\xef4\xeav@'
tRp1176
tp1177
a(S'YP_003046748.1'
p1178
g3
(g5
S'\x0c~\x89|;\xf6v@'
tRp1179
tp1180
a(S'YP_003047025.1'
p1181
g3
(g5
S'\xa0\x12P\x8d1\xfev@'
tRp1182
tp1183
a(S'YP_003046094.1'
p1184
g3
(g5
S'\xd0\x9f\xac\x00\xaa\x1cw@'
tRp1185
tp1186
a(S'YP_003046464.1'
p1187
g3
(g5
S'OUnYR$w@'
tRp1188
tp1189
a(S'YP_003043377.1'
p1190
g3
(g5
S'\x98\xa0A\xfb\x0bCw@'
tRp1191
tp1192
a(S'YP_003047164.1'
p1193
g3
(g5
S'\xca\xb2\x818\xfbEw@'
tRp1194
tp1195
a(S'YP_003044127.1'
p1196
g3
(g5
S'\x13\xf7\xb7\xf2\x92Kw@'
tRp1197
tp1198
a(S'YP_003044316.1'
p1199
g3
(g5
S'\x1a\xf5\xa7\xb5\xd0Tw@'
tRp1200
tp1201
a(S'YP_003044270.1'
p1202
g3
(g5
S'\xe1y;;\x13Uw@'
tRp1203
tp1204
a(S'YP_003044973.1'
p1205
g3
(g5
S'\x96\xeb\x8d(hew@'
tRp1206
tp1207
a(S'YP_003047411.1'
p1208
g3
(g5
S'Z pBBjw@'
tRp1209
tp1210
a(S'YP_003043916.1'
p1211
g3
(g5
S'_\xbcf\r\xc0~w@'
tRp1212
tp1213
a(S'YP_003044433.1'
p1214
g3
(g5
S'\x9c\xa2;\x0c\xbd\xb5w@'
tRp1215
tp1216
a(S'YP_003043262.1'
p1217
g3
(g5
S'\xde|\x99\xc2h\xbcw@'
tRp1218
tp1219
a(S'YP_003044511.1'
p1220
g3
(g5
S'\xa0\xf5\x94 \xc1\xcdw@'
tRp1221
tp1222
a(S'YP_003045028.1'
p1223
g3
(g5
S'\tr\x88\x8f|\xf6w@'
tRp1224
tp1225
a(S'YP_003046218.1'
p1226
g3
(g5
S'\xd6\xb8^\xaf\xdd\xfew@'
tRp1227
tp1228
a(S'YP_003044078.1'
p1229
g3
(g5
S'\x8a9G\xa9\xe9\x1bx@'
tRp1230
tp1231
a(S'YP_003044341.1'
p1232
g3
(g5
S'\xfa\xc9\xe3RE\x1ex@'
tRp1233
tp1234
a(S'YP_003045977.1'
p1235
g3
(g5
S'Y$\xc3\x96O)x@'
tRp1236
tp1237
a(S'YP_003047170.1'
p1238
g3
(g5
S'\xe1[c\xa4\xacBx@'
tRp1239
tp1240
a(S'YP_003046761.1'
p1241
g3
(g5
S'=\x93\xe4F\xb8^x@'
tRp1242
tp1243
a(S'YP_003046837.1'
p1244
g3
(g5
S'\xb2D\xcd\x7f\xdf\x98x@'
tRp1245
tp1246
a(S'YP_003044170.1'
p1247
g3
(g5
S'\x81\x96\xe1\xd3[\xa7x@'
tRp1248
tp1249
a(S'YP_003045946.1'
p1250
g3
(g5
S'v\xc6*z\xf2\xb3x@'
tRp1251
tp1252
a(S'YP_003046232.1'
p1253
g3
(g5
S'\xdee,A\x03\xfdx@'
tRp1254
tp1255
a(S'YP_003044146.1'
p1256
g3
(g5
S'\xf6^\x83\xfes\x1by@'
tRp1257
tp1258
a(S'YP_003046148.1'
p1259
g3
(g5
S'\xcc\xf37J],y@'
tRp1260
tp1261
a(S'YP_003046354.1'
p1262
g3
(g5
S'z\xfdE\x8a\xd7Dy@'
tRp1263
tp1264
a(S'YP_003046990.1'
p1265
g3
(g5
S'R\x81-jA\x89y@'
tRp1266
tp1267
a(S'YP_003046655.1'
p1268
g3
(g5
S'.\x08\x934$\x8cy@'
tRp1269
tp1270
a(S'YP_003045431.1'
p1271
g3
(g5
S'B\xbb{\xe2\xb0\xb1y@'
tRp1272
tp1273
a(S'YP_003045043.1'
p1274
g3
(g5
S'\xae\x0b\xbc\x98%\xc0y@'
tRp1275
tp1276
a(S'YP_003044399.1'
p1277
g3
(g5
S'I\xf6\xfb?X\xd0y@'
tRp1278
tp1279
a(S'YP_003044820.1'
p1280
g3
(g5
S'\xdc\xfaI\x80,\xfdy@'
tRp1281
tp1282
a(S'YP_003043434.1'
p1283
g3
(g5
S'\x896kq\xbf\x05z@'
tRp1284
tp1285
a(S'YP_003044892.1'
p1286
g3
(g5
S'\x80\xe4-6Z\x1dz@'
tRp1287
tp1288
a(S'YP_003044461.1'
p1289
g3
(g5
S'D\x1av\xc2\xf2!z@'
tRp1290
tp1291
a(S'YP_003047097.1'
p1292
g3
(g5
S'\xfa\x8a\x8e\xcf\x93#z@'
tRp1293
tp1294
a(S'YP_003044294.1'
p1295
g3
(g5
S'F2\x9a\xf5\xf8Oz@'
tRp1296
tp1297
a(S'YP_003044884.1'
p1298
g3
(g5
S'\xac \xf6\xf7\xac\x7fz@'
tRp1299
tp1300
a(S'YP_003043855.1'
p1301
g3
(g5
S'L\xf0\x0f\xab\x94\x93z@'
tRp1302
tp1303
a(S'YP_003046382.1'
p1304
g3
(g5
S'?\xd8.\x1f\x06\x95z@'
tRp1305
tp1306
a(S'YP_003043982.1'
p1307
g3
(g5
S'/\xda\x10\x92\xb0\x9cz@'
tRp1308
tp1309
a(S'YP_003045983.1'
p1310
g3
(g5
S'\x92?\xb7l\xb9\xabz@'
tRp1311
tp1312
a(S'YP_003044388.1'
p1313
g3
(g5
S'\xc1$+\xe1\x9b\xaez@'
tRp1314
tp1315
a(S'YP_003043320.1'
p1316
g3
(g5
S'^3W\xd5\xf5\xbaz@'
tRp1317
tp1318
a(S'YP_003046635.1'
p1319
g3
(g5
S'6&\x1bi(\xd5z@'
tRp1320
tp1321
a(S'YP_003045604.1'
p1322
g3
(g5
S'\xc0-0|\xcb\xe0z@'
tRp1323
tp1324
a(S'YP_003046265.1'
p1325
g3
(g5
S'\x93\xf8I_\x12\xefz@'
tRp1326
tp1327
a(S'YP_003044223.1'
p1328
g3
(g5
S's\xc4\xe4\xba\xe8\xf0z@'
tRp1329
tp1330
a(S'YP_003046582.1'
p1331
g3
(g5
S'\xbc\x10\xfb\xa2\xc6\xf9z@'
tRp1332
tp1333
a(S'YP_003045406.1'
p1334
g3
(g5
S'\xe4\xa40\x16\xcc\x03{@'
tRp1335
tp1336
a(S'YP_003047278.1'
p1337
g3
(g5
S'\xea\xec\xdf<\x8f\x13{@'
tRp1338
tp1339
a(S'YP_003046076.1'
p1340
g3
(g5
S'\xa1C\xaa@-\x17{@'
tRp1341
tp1342
a(S'YP_003043608.1'
p1343
g3
(g5
S'\xfe\x94\xd2*\xc6\x1f{@'
tRp1344
tp1345
a(S'YP_003045558.1'
p1346
g3
(g5
S'\xc2L\xb0\x12YR{@'
tRp1347
tp1348
a(S'YP_003045408.1'
p1349
g3
(g5
S'\x0eJ\x1cL\xd5e{@'
tRp1350
tp1351
a(S'YP_003045673.1'
p1352
g3
(g5
S'\x84\xaa\xd0\x9a\xb9k{@'
tRp1353
tp1354
a(S'YP_003046485.1'
p1355
g3
(g5
S'\xe9\xb6\x97\xb8@\x83{@'
tRp1356
tp1357
a(S'YP_003043631.1'
p1358
g3
(g5
S'.\xa7ka\xb3\x86{@'
tRp1359
tp1360
a(S'YP_003046233.1'
p1361
g3
(g5
S'C\x93\xab\x82-\xb3{@'
tRp1362
tp1363
a(S'YP_003047096.1'
p1364
g3
(g5
S'\xec\xa6\xf2\xe0\x82\xb3{@'
tRp1365
tp1366
a(S'YP_003047272.1'
p1367
g3
(g5
S'\x8d\xab\x0e\xe0\xdd\xb6{@'
tRp1368
tp1369
a(S'YP_003046448.1'
p1370
g3
(g5
S'E\xeb\x8eY[\xd3{@'
tRp1371
tp1372
a(S'YP_003045697.1'
p1373
g3
(g5
S'\x96\x1f\xda\xf3\xc2\xdb{@'
tRp1374
tp1375
a(S'YP_003043263.1'
p1376
g3
(g5
S'\xf7\xf48\xd2\x07\xed{@'
tRp1377
tp1378
a(S'YP_003045964.1'
p1379
g3
(g5
S'\x91A<\x0br\xf6{@'
tRp1380
tp1381
a(S'YP_003046291.1'
p1382
g3
(g5
S'o\xec\x87\xc8`\xfd{@'
tRp1383
tp1384
a(S'YP_003046839.1'
p1385
g3
(g5
S'\xb6\xa1X\xa5-\xff{@'
tRp1386
tp1387
a(S'YP_003044953.1'
p1388
g3
(g5
S'h\xfb\xdf_\x8c\x0f|@'
tRp1389
tp1390
a(S'YP_003043789.1'
p1391
g3
(g5
S'\x90\x06xV/\x1e|@'
tRp1392
tp1393
a(S'YP_003043337.1'
p1394
g3
(g5
S'f{;I\xbd#|@'
tRp1395
tp1396
a(S'YP_003044108.1'
p1397
g3
(g5
S'f- O\x8d)|@'
tRp1398
tp1399
a(S'YP_003047210.1'
p1400
g3
(g5
S'h[\x1b\x12-.|@'
tRp1401
tp1402
a(S'YP_003046866.1'
p1403
g3
(g5
S'\x0cP\xde\\=/|@'
tRp1404
tp1405
a(S'YP_003045921.1'
p1406
g3
(g5
S'{\x11\xd2&\xff0|@'
tRp1407
tp1408
a(S'YP_003043545.1'
p1409
g3
(g5
S'\x87>\xd0\x97\x88w|@'
tRp1410
tp1411
a(S'YP_003044579.1'
p1412
g3
(g5
S'\xdf\xfa\xc6\x1a\xdc\x91|@'
tRp1413
tp1414
a(S'YP_003043931.1'
p1415
g3
(g5
S'\xc4f\xdf\xab\xa3\xa3|@'
tRp1416
tp1417
a(S'YP_003043288.1'
p1418
g3
(g5
S'\xcf"\x1a\xbd\x95\xca|@'
tRp1419
tp1420
a(S'YP_003044312.1'
p1421
g3
(g5
S'\xca;\x82y(\xcc|@'
tRp1422
tp1423
a(S'YP_003046909.1'
p1424
g3
(g5
S'`@\xbaf\xd1\xd5|@'
tRp1425
tp1426
a(S'YP_003043283.1'
p1427
g3
(g5
S'W2\x8br\xec\xdd|@'
tRp1428
tp1429
a(S'YP_003043316.1'
p1430
g3
(g5
S'\xbb^9\t\xc6\xe0|@'
tRp1431
tp1432
a(S'YP_003044986.1'
p1433
g3
(g5
S'\x11\xbf\xb3\xfe\xdc\x00}@'
tRp1434
tp1435
a(S'YP_003044561.1'
p1436
g3
(g5
S'\x0f\xfa\x97\x87\xbd\x11}@'
tRp1437
tp1438
a(S'YP_003046775.1'
p1439
g3
(g5
S'\xc16\xdc\xe6\xdf\\}@'
tRp1440
tp1441
a(S'YP_003044132.1'
p1442
g3
(g5
S'\x9e\xf8+\x1d7^}@'
tRp1443
tp1444
a(S'YP_003046920.1'
p1445
g3
(g5
S'\xec\xa2^\x1d\xa4\x92}@'
tRp1446
tp1447
a(S'YP_003046840.1'
p1448
g3
(g5
S'\x85PJ\x8c\xba\xb0}@'
tRp1449
tp1450
a(S'YP_003046302.1'
p1451
g3
(g5
S'\x1e\x15\xce\xca~\xcd}@'
tRp1452
tp1453
a(S'YP_003043588.1'
p1454
g3
(g5
S'@\xbf\xdfh/\xdc}@'
tRp1455
tp1456
a(S'YP_003046524.1'
p1457
g3
(g5
S'D\x1c\x93\x8eE\xf8}@'
tRp1458
tp1459
a(S'YP_003043914.1'
p1460
g3
(g5
S'w^\xf4\x9d\x90\x11~@'
tRp1461
tp1462
a(S'YP_003046372.1'
p1463
g3
(g5
S'a\xc3x4\xd92~@'
tRp1464
tp1465
a(S'YP_003045290.1'
p1466
g3
(g5
S'Z\xa2\xc9F\xbfO~@'
tRp1467
tp1468
a(S'YP_003044389.1'
p1469
g3
(g5
S' f\x03\x80g[~@'
tRp1470
tp1471
a(S'YP_003043788.1'
p1472
g3
(g5
S'b\x9b\x98\xfd\x0fx~@'
tRp1473
tp1474
a(S'YP_003047410.1'
p1475
g3
(g5
S'\x99\xee}\xef\xac\xaa~@'
tRp1476
tp1477
a(S'YP_003046222.1'
p1478
g3
(g5
S'\xb3\x93\xaa_r\xcf~@'
tRp1479
tp1480
a(S'YP_003044933.1'
p1481
g3
(g5
S'\x81v*\x8ck\x1c\x7f@'
tRp1482
tp1483
a(S'YP_003047045.1'
p1484
g3
(g5
S'0\x7f\xcd\t8\x1f\x7f@'
tRp1485
tp1486
a(S'YP_003043285.1'
p1487
g3
(g5
S"W\xb5\x16\x01}'\x7f@"
tRp1488
tp1489
a(S'YP_003046982.1'
p1490
g3
(g5
S'"/\xa8\x9b\xf65\x7f@'
tRp1491
tp1492
a(S'YP_003047023.1'
p1493
g3
(g5
S'G6\xbb+\xadJ\x7f@'
tRp1494
tp1495
a(S'YP_003045545.1'
p1496
g3
(g5
S'C\x157X\xc8Y\x7f@'
tRp1497
tp1498
a(S'YP_003047026.1'
p1499
g3
(g5
S'\x13WCq\xa8_\x7f@'
tRp1500
tp1501
a(S'YP_003047079.1'
p1502
g3
(g5
S'\xe6\xc1Wd\x9bd\x7f@'
tRp1503
tp1504
a(S'YP_003044136.1'
p1505
g3
(g5
S'\xa9\x08\xea.\x8cz\x7f@'
tRp1506
tp1507
a(S'YP_003044752.1'
p1508
g3
(g5
S'\x10\x960+\x99\x87\x7f@'
tRp1509
tp1510
a(S'YP_003044648.1'
p1511
g3
(g5
S'\x9dBH\x8c\\\xae\x7f@'
tRp1512
tp1513
a(S'YP_003044493.1'
p1514
g3
(g5
S'\x84\xbd\x9e\xdb\xe6\xb3\x7f@'
tRp1515
tp1516
a(S'YP_003047180.1'
p1517
g3
(g5
S'\xf4nI\xba\xab\xc3\x7f@'
tRp1518
tp1519
a(S'YP_003047424.1'
p1520
g3
(g5
S'\x05\xd3\x86.A\xc8\x7f@'
tRp1521
tp1522
a(S'YP_003047087.1'
p1523
g3
(g5
S'7\x8f\x96\x0cO\xcd\x7f@'
tRp1524
tp1525
a(S'YP_003043639.1'
p1526
g3
(g5
S'\x98\x87\xafi;\xf0\x7f@'
tRp1527
tp1528
a(S'YP_003045265.1'
p1529
g3
(g5
S'\xb9\t\xf7\xf7`\x10\x80@'
tRp1530
tp1531
a(S'YP_003043259.1'
p1532
g3
(g5
S'\xe3E\xef\x08\x10 \x80@'
tRp1533
tp1534
a(S'YP_003046838.1'
p1535
g3
(g5
S'\x18>2<X$\x80@'
tRp1536
tp1537
a(S'YP_003044260.1'
p1538
g3
(g5
S'\xfa)\xf9\xf8f9\x80@'
tRp1539
tp1540
a(S'YP_003043756.1'
p1541
g3
(g5
S'\xc5\xc6LX3S\x80@'
tRp1542
tp1543
a(S'YP_003044822.1'
p1544
g3
(g5
S'\xa4\xb7\xad4\x9fU\x80@'
tRp1545
tp1546
a(S'YP_003043341.1'
p1547
g3
(g5
S'\xd1\xa1\x07\x86\xe5s\x80@'
tRp1548
tp1549
a(S'YP_003046583.1'
p1550
g3
(g5
S'\x1c\x17o\x8c\xf1\x81\x80@'
tRp1551
tp1552
a(S'YP_003044808.1'
p1553
g3
(g5
S'(g\xa0m\x84\x83\x80@'
tRp1554
tp1555
a(S'YP_003045854.1'
p1556
g3
(g5
S'YAit\x04\x89\x80@'
tRp1557
tp1558
a(S'YP_003045489.1'
p1559
g3
(g5
S'\xf9\xab\x1bx\xcf\x8c\x80@'
tRp1560
tp1561
a(S'YP_003046953.1'
p1562
g3
(g5
S'X\xc1\xb4\xc8\x86\x95\x80@'
tRp1563
tp1564
a(S'YP_003045913.1'
p1565
g3
(g5
S'\xc5\xdd\x8de\xf1\xa4\x80@'
tRp1566
tp1567
a(S'YP_003046486.1'
p1568
g3
(g5
S'\xb1\\\xcc^\xa2\xac\x80@'
tRp1569
tp1570
a(S'YP_003044836.1'
p1571
g3
(g5
S'\xfe\xba\x12\x86\xc8\xaf\x80@'
tRp1572
tp1573
a(S'YP_003045106.1'
p1574
g3
(g5
S'@\xce\xb35\xb7\xc1\x80@'
tRp1575
tp1576
a(S'YP_003046606.1'
p1577
g3
(g5
S'=4m\xe9\x15\xc3\x80@'
tRp1578
tp1579
a(S'YP_003045139.1'
p1580
g3
(g5
S'S\x8c\xa7H\x85\xca\x80@'
tRp1581
tp1582
a(S'YP_003045420.1'
p1583
g3
(g5
S'\xe9\x11y\xee\xba\xd5\x80@'
tRp1584
tp1585
a(S'YP_003043899.1'
p1586
g3
(g5
S'\xec\xd5\xc6\xb09\xd8\x80@'
tRp1587
tp1588
a(S'YP_003046760.1'
p1589
g3
(g5
S'"a?P\xe4\xd9\x80@'
tRp1590
tp1591
a(S'YP_003043854.1'
p1592
g3
(g5
S'\xe2\xce\xb3\x9c;\xe4\x80@'
tRp1593
tp1594
a(S'YP_003044382.1'
p1595
g3
(g5
S'\x80\xe5D\xc2\xae\xed\x80@'
tRp1596
tp1597
a(S'YP_003046396.1'
p1598
g3
(g5
S'\x186?\x8f\xd5\xef\x80@'
tRp1599
tp1600
a(S'YP_003046227.1'
p1601
g3
(g5
S'\xf2\xf1\x81\x86\xae\xf4\x80@'
tRp1602
tp1603
a(S'YP_003046095.1'
p1604
g3
(g5
S'\xf5\xe8\xf0\x8a%\x10\x81@'
tRp1605
tp1606
a(S'YP_003045829.1'
p1607
g3
(g5
S'\x86\x92\x06\xcb\x95\x11\x81@'
tRp1608
tp1609
a(S'YP_003046908.1'
p1610
g3
(g5
S'\x94\xdfe*\xdd=\x81@'
tRp1611
tp1612
a(S'YP_003045523.1'
p1613
g3
(g5
S'\xbca\xe0\xec\x1dL\x81@'
tRp1614
tp1615
a(S'YP_003046684.1'
p1616
g3
(g5
S'\xe2\xd8\xf0L7O\x81@'
tRp1617
tp1618
a(S'YP_003047093.1'
p1619
g3
(g5
S'\x8f\x88\xaea3P\x81@'
tRp1620
tp1621
a(S'YP_003045649.1'
p1622
g3
(g5
S'\xff c\xffzV\x81@'
tRp1623
tp1624
a(S'YP_003045828.1'
p1625
g3
(g5
S'\xfe\xaa\xf2Oh[\x81@'
tRp1626
tp1627
a(S'YP_003045178.1'
p1628
g3
(g5
S'\xa3\xa8}<Sc\x81@'
tRp1629
tp1630
a(S'YP_003045954.1'
p1631
g3
(g5
S'\x10 \x8c\x9d\re\x81@'
tRp1632
tp1633
a(S'YP_003044153.1'
p1634
g3
(g5
S'O\xf4\xdf\x1c\xf1|\x81@'
tRp1635
tp1636
a(S'YP_003046289.1'
p1637
g3
(g5
S'\xf1\xdbe\xb2\x14\x88\x81@'
tRp1638
tp1639
a(S'YP_003045255.1'
p1640
g3
(g5
S'|\xb1\xee\xea_\x8b\x81@'
tRp1641
tp1642
a(S'YP_003045546.1'
p1643
g3
(g5
S'c\xae\xbd\xe7\r\x8c\x81@'
tRp1644
tp1645
a(S'YP_003046013.1'
p1646
g3
(g5
S'1_\x8d>\x14\xa7\x81@'
tRp1647
tp1648
a(S'YP_003046784.1'
p1649
g3
(g5
S'B0\x06\xd0\x90\xd4\x81@'
tRp1650
tp1651
a(S'YP_003046851.1'
p1652
g3
(g5
S'\x8c&\x83l\xff\xdd\x81@'
tRp1653
tp1654
a(S'YP_003044979.1'
p1655
g3
(g5
S'/\x01\x19\xb0\xc1\xde\x81@'
tRp1656
tp1657
a(S'YP_003043705.1'
p1658
g3
(g5
S'\xa2\x95\x93\x0c\xf1\xe8\x81@'
tRp1659
tp1660
a(S'YP_003045732.1'
p1661
g3
(g5
S'\xb8z\x84\x9e,\xef\x81@'
tRp1662
tp1663
a(S'YP_003044224.1'
p1664
g3
(g5
S'\xf1\xca\xdbL\xa0\xf8\x81@'
tRp1665
tp1666
a(S'YP_003046066.1'
p1667
g3
(g5
S'\xb7\xa8\x07a\xfb\x05\x82@'
tRp1668
tp1669
a(S'YP_003045225.1'
p1670
g3
(g5
S'sVk%\xdf\x06\x82@'
tRp1671
tp1672
a(S'YP_003043511.1'
p1673
g3
(g5
S'3\xf8\x03\x17\x81\x11\x82@'
tRp1674
tp1675
a(S'YP_003044878.1'
p1676
g3
(g5
S'"3=4\x18\x12\x82@'
tRp1677
tp1678
a(S'YP_003043930.1'
p1679
g3
(g5
S'\x1coE\x9fn\x1a\x82@'
tRp1680
tp1681
a(S'YP_003045729.1'
p1682
g3
(g5
S'\x89\xda\x1dN $\x82@'
tRp1683
tp1684
a(S'YP_003047433.1'
p1685
g3
(g5
S'\xd3\x93\x0b\xd2B*\x82@'
tRp1686
tp1687
a(S'YP_003043994.1'
p1688
g3
(g5
S'\xed\xf5n\xf2Q2\x82@'
tRp1689
tp1690
a(S'YP_003043921.1'
p1691
g3
(g5
S'\xdcR\r\xd0\xc86\x82@'
tRp1692
tp1693
a(S'YP_003044998.1'
p1694
g3
(g5
S'6!\x1c\xff\xc2O\x82@'
tRp1695
tp1696
a(S'YP_003046557.1'
p1697
g3
(g5
S'JK\x0c\xf4RW\x82@'
tRp1698
tp1699
a(S'YP_003046241.1'
p1700
g3
(g5
S'\t\x9d\xd8\x93Lh\x82@'
tRp1701
tp1702
a(S'YP_003044176.1'
p1703
g3
(g5
S'\x8e\n@\xff\xe3x\x82@'
tRp1704
tp1705
a(S'YP_003044124.1'
p1706
g3
(g5
S"\x01\x82\xa9'\xfa|\x82@"
tRp1707
tp1708
a(S'YP_003046654.1'
p1709
g3
(g5
S'\x817\x86%\x17\x7f\x82@'
tRp1710
tp1711
a(S'YP_003046474.1'
p1712
g3
(g5
S'[\xfb\xef\xf8H\x88\x82@'
tRp1713
tp1714
a(S'YP_003044932.1'
p1715
g3
(g5
S'\x92\xfc\x93\n\xfc\xad\x82@'
tRp1716
tp1717
a(S'YP_003046085.1'
p1718
g3
(g5
S'cetc]\xb2\x82@'
tRp1719
tp1720
a(S'YP_003044278.1'
p1721
g3
(g5
S'\xd3\xe3\x06\xbdE\xbc\x82@'
tRp1722
tp1723
a(S'YP_003044434.1'
p1724
g3
(g5
S'w,$\xa1~\xcb\x82@'
tRp1725
tp1726
a(S'YP_003043333.1'
p1727
g3
(g5
S'*@\xa1\xe5\x1e\xd0\x82@'
tRp1728
tp1729
a(S'YP_003045665.1'
p1730
g3
(g5
S'QC\xafc\xb4\xdb\x82@'
tRp1731
tp1732
a(S'YP_003043538.1'
p1733
g3
(g5
S'\xdf\xcaG\n(\xe6\x82@'
tRp1734
tp1735
a(S'YP_003044367.1'
p1736
g3
(g5
S'\xba\xb4\xf7\xe9\x84\xf3\x82@'
tRp1737
tp1738
a(S'YP_003044810.1'
p1739
g3
(g5
S'l\xc0,\xee_\xf4\x82@'
tRp1740
tp1741
a(S'YP_003045668.1'
p1742
g3
(g5
S'@~\x7fZ\x82\x05\x83@'
tRp1743
tp1744
a(S'YP_003044145.1'
p1745
g3
(g5
S'\xe1\xdc\xfd\x8b_\x0c\x83@'
tRp1746
tp1747
a(S'YP_003046999.1'
p1748
g3
(g5
S'\x89\x1d\x17\xe2\xdd\x0f\x83@'
tRp1749
tp1750
a(S'YP_003046843.1'
p1751
g3
(g5
S'l\x8e\xd4\x96\xd3\x17\x83@'
tRp1752
tp1753
a(S'YP_003043281.1'
p1754
g3
(g5
S'6M\xfe0\x0b)\x83@'
tRp1755
tp1756
a(S'YP_003046279.1'
p1757
g3
(g5
S'#\xf1\xd1>x+\x83@'
tRp1758
tp1759
a(S'YP_003044077.1'
p1760
g3
(g5
S'\xfc\xea\x14^G3\x83@'
tRp1761
tp1762
a(S'YP_003045920.1'
p1763
g3
(g5
S'\xf5l\xea\xcf\xe3N\x83@'
tRp1764
tp1765
a(S'YP_003043595.1'
p1766
g3
(g5
S'\x90\xd4!\x8c\xab]\x83@'
tRp1767
tp1768
a(S'YP_003046031.1'
p1769
g3
(g5
S'\xe5aOx\xa8\x81\x83@'
tRp1770
tp1771
a(S'YP_003045460.1'
p1772
g3
(g5
S']\x19\x02\xf9\xa3\x82\x83@'
tRp1773
tp1774
a(S'YP_003045432.1'
p1775
g3
(g5
S'\xef6\xf3\x88+\x8f\x83@'
tRp1776
tp1777
a(S'YP_003045863.1'
p1778
g3
(g5
S'4\x12;p\xce\x97\x83@'
tRp1779
tp1780
a(S'YP_003045427.1'
p1781
g3
(g5
S'\x92\xef\xa3\xc7\xa0\xbd\x83@'
tRp1782
tp1783
a(S'YP_003043658.1'
p1784
g3
(g5
S'\xbbf(V\xf0\xc1\x83@'
tRp1785
tp1786
a(S'YP_003044394.1'
p1787
g3
(g5
S'\xf4=\n\x81\xbc\xc5\x83@'
tRp1788
tp1789
a(S'YP_003047047.1'
p1790
g3
(g5
S'\x0c@\xd1\xa4`\xc9\x83@'
tRp1791
tp1792
a(S'YP_003044792.1'
p1793
g3
(g5
S'!\x1d\xeaA\x88\xd1\x83@'
tRp1794
tp1795
a(S'YP_003047201.1'
p1796
g3
(g5
S'\x04\x11X\x1f\xb2\xd6\x83@'
tRp1797
tp1798
a(S'YP_003045459.1'
p1799
g3
(g5
S'&Vz\tK\xd9\x83@'
tRp1800
tp1801
a(S'YP_003043340.1'
p1802
g3
(g5
S'\xaaz\xd0#\xc8\xdb\x83@'
tRp1803
tp1804
a(S'YP_003045714.1'
p1805
g3
(g5
S'\xc9)v\xd5\xf4\xe3\x83@'
tRp1806
tp1807
a(S'YP_003047321.1'
p1808
g3
(g5
S'\x8dP\xbc\xeb|\xfc\x83@'
tRp1809
tp1810
a(S'YP_003043309.1'
p1811
g3
(g5
S'4<V\x00\x1b\x17\x84@'
tRp1812
tp1813
a(S'YP_003045256.1'
p1814
g3
(g5
S'\x12`1\xa1R\x19\x84@'
tRp1815
tp1816
a(S'YP_003044645.1'
p1817
g3
(g5
S'\x0c\x8a\x94q_$\x84@'
tRp1818
tp1819
a(S'YP_003046252.1'
p1820
g3
(g5
S'\xc1\xe1\xb1}\xdf(\x84@'
tRp1821
tp1822
a(S'YP_003047409.1'
p1823
g3
(g5
S'0\xdfc\xf293\x84@'
tRp1824
tp1825
a(S'YP_003046675.1'
p1826
g3
(g5
S'*\x0f\xc6\xcc\x185\x84@'
tRp1827
tp1828
a(S'YP_003043823.1'
p1829
g3
(g5
S'\xa6:\x00+\xba6\x84@'
tRp1830
tp1831
a(S'YP_003046923.1'
p1832
g3
(g5
S'\xbf\xcb\xf7\x97Lq\x84@'
tRp1833
tp1834
a(S'YP_003043398.1'
p1835
g3
(g5
S'f3\ttr}\x84@'
tRp1836
tp1837
a(S'YP_003047279.1'
p1838
g3
(g5
S'\xcb{\xd4:\xad\x7f\x84@'
tRp1839
tp1840
a(S'YP_003043428.1'
p1841
g3
(g5
S'y\xaa=@\xb8\x9d\x84@'
tRp1842
tp1843
a(S'YP_003043371.1'
p1844
g3
(g5
S'f\xcdQol\xb9\x84@'
tRp1845
tp1846
a(S'YP_003043853.1'
p1847
g3
(g5
S'(`\xb0;r\xca\x84@'
tRp1848
tp1849
a(S'YP_003043594.1'
p1850
g3
(g5
S'lG\xf7R\x12\xe7\x84@'
tRp1851
tp1852
a(S'YP_003046212.1'
p1853
g3
(g5
S'@\x0c\xe3,\xc1\xf5\x84@'
tRp1854
tp1855
a(S'YP_003045610.1'
p1856
g3
(g5
S'\xd4\xb7\x03V:\x16\x85@'
tRp1857
tp1858
a(S'YP_003044931.1'
p1859
g3
(g5
S'\x0b\xa5\xf6\x0f\xb5\x1e\x85@'
tRp1860
tp1861
a(S'YP_003046852.1'
p1862
g3
(g5
S'\xb45^\x82D#\x85@'
tRp1863
tp1864
a(S'YP_003045925.1'
p1865
g3
(g5
S'\x90uB\xb7\xb9#\x85@'
tRp1866
tp1867
a(S'YP_003046433.1'
p1868
g3
(g5
S'\x00\xda\xab`\xde:\x85@'
tRp1869
tp1870
a(S'YP_003045423.1'
p1871
g3
(g5
S'tNx\x17Ib\x85@'
tRp1872
tp1873
a(S'YP_003044113.1'
p1874
g3
(g5
S'\xed\xe9`\x81uj\x85@'
tRp1875
tp1876
a(S'YP_003043630.1'
p1877
g3
(g5
S'\xdeS\x9aDk}\x85@'
tRp1878
tp1879
a(S'YP_003046002.1'
p1880
g3
(g5
S'\xb2\x00\xab\x82\xbf\x82\x85@'
tRp1881
tp1882
a(S'YP_003045659.1'
p1883
g3
(g5
S'\xef\xba\xbd\xc9\xa4\x85\x85@'
tRp1884
tp1885
a(S'YP_003046109.1'
p1886
g3
(g5
S'l\xd6\xa5;\xe1\xac\x85@'
tRp1887
tp1888
a(S'YP_003045140.1'
p1889
g3
(g5
S'3\xd7\x00\xc0_\xc7\x85@'
tRp1890
tp1891
a(S'YP_003047359.1'
p1892
g3
(g5
S'\xa1\xdd\x0cnz\xe5\x85@'
tRp1893
tp1894
a(S'YP_003046984.1'
p1895
g3
(g5
S'\xa0b\x86\x15\x04\x07\x86@'
tRp1896
tp1897
a(S'YP_003046404.1'
p1898
g3
(g5
S'\x18\x99-\xb9\xe1#\x86@'
tRp1899
tp1900
a(S'YP_003043378.1'
p1901
g3
(g5
S'\xb3\x94\xb7\xba\xa73\x86@'
tRp1902
tp1903
a(S'YP_003045060.1'
p1904
g3
(g5
S'\x9d\xe4\xbd\xa3\xc8d\x86@'
tRp1905
tp1906
a(S'YP_003043582.1'
p1907
g3
(g5
S'(\xba\xd4">t\x86@'
tRp1908
tp1909
a(S'YP_003043569.1'
p1910
g3
(g5
S'3\t\x8ev\xc3\x80\x86@'
tRp1911
tp1912
a(S'YP_003043612.1'
p1913
g3
(g5
S'@7\xb7`T\x85\x86@'
tRp1914
tp1915
a(S'YP_003045368.1'
p1916
g3
(g5
S'\n\nk\xd2\x99\x92\x86@'
tRp1917
tp1918
a(S'YP_003046319.1'
p1919
g3
(g5
S'\xfbTU\x07\xdc\x9e\x86@'
tRp1920
tp1921
a(S'YP_003046065.1'
p1922
g3
(g5
S'N\xd7\xef_\xb9\xbc\x86@'
tRp1923
tp1924
a(S'YP_003044377.1'
p1925
g3
(g5
S'aE\xc7\x0b\x0c\xf0\x86@'
tRp1926
tp1927
a(S'YP_003043318.1'
p1928
g3
(g5
S'\xa6\x85OE\xf2\xf5\x86@'
tRp1929
tp1930
a(S'YP_003046810.1'
p1931
g3
(g5
S'\x8d\xbb\xff\x04\x7f\x13\x87@'
tRp1932
tp1933
a(S'YP_003047406.1'
p1934
g3
(g5
S'\x0c\xbd\x02^\x12\x18\x87@'
tRp1935
tp1936
a(S'YP_003044930.1'
p1937
g3
(g5
S'Z\x94R\xb2N\x19\x87@'
tRp1938
tp1939
a(S'YP_003043352.1'
p1940
g3
(g5
S"\x03\xbbs\xea\xa7'\x87@"
tRp1941
tp1942
a(S'YP_003045073.1'
p1943
g3
(g5
S'\xf6\xdb\xb5\xc2eN\x87@'
tRp1944
tp1945
a(S'YP_003045289.1'
p1946
g3
(g5
S'\xac\xc8f:\xf9X\x87@'
tRp1947
tp1948
a(S'YP_003044154.1'
p1949
g3
(g5
S'k\xaaL+.e\x87@'
tRp1950
tp1951
a(S'YP_003044700.1'
p1952
g3
(g5
S'\xf9\xe7oK=j\x87@'
tRp1953
tp1954
a(S'YP_003044618.1'
p1955
g3
(g5
S'\xc9\x11\xd0C\xd8o\x87@'
tRp1956
tp1957
a(S'YP_003045553.1'
p1958
g3
(g5
S'\xa9\xc7\xeb\xb2\xa4r\x87@'
tRp1959
tp1960
a(S'YP_003044459.1'
p1961
g3
(g5
S'\xdf(g\x8c5z\x87@'
tRp1962
tp1963
a(S'YP_003044462.1'
p1964
g3
(g5
S'\xeaQ\xaa\xa6L\x8d\x87@'
tRp1965
tp1966
a(S'YP_003046513.1'
p1967
g3
(g5
S'C\x83\xbc\xcc6\x9e\x87@'
tRp1968
tp1969
a(S'YP_003046634.1'
p1970
g3
(g5
S'g=\xb8\xa1\xb6\xb6\x87@'
tRp1971
tp1972
a(S'YP_003046208.1'
p1973
g3
(g5
S'\xf5X\xea\x03\xfb\xba\x87@'
tRp1974
tp1975
a(S'YP_003044467.1'
p1976
g3
(g5
S'\x98\xa5@\x19\xa3\xd7\x87@'
tRp1977
tp1978
a(S'YP_003047318.1'
p1979
g3
(g5
S'\xf3\x00\xe1G\x83\x10\x88@'
tRp1980
tp1981
a(S'YP_003045090.1'
p1982
g3
(g5
S'\xe8{T&\xb69\x88@'
tRp1983
tp1984
a(S'YP_003043932.1'
p1985
g3
(g5
S'E\xde\xa0\xe7|D\x88@'
tRp1986
tp1987
a(S'YP_003046317.1'
p1988
g3
(g5
S"\x1d\x8c\xac'\x87D\x88@"
tRp1989
tp1990
a(S'YP_003046330.1'
p1991
g3
(g5
S'\xe6M\x11f\x89Z\x88@'
tRp1992
tp1993
a(S'YP_003044896.1'
p1994
g3
(g5
S'CL#\x1f7^\x88@'
tRp1995
tp1996
a(S'YP_003045291.1'
p1997
g3
(g5
S'\x8d\xef\xbe\x85Jc\x88@'
tRp1998
tp1999
a(S'YP_003046646.1'
p2000
g3
(g5
S'N?\xf1u2p\x88@'
tRp2001
tp2002
a(S'YP_003045911.1'
p2003
g3
(g5
S'\xd43\xa0\x00`t\x88@'
tRp2004
tp2005
a(S'YP_003045304.1'
p2006
g3
(g5
S'\x8b\xdd\x899)\x83\x88@'
tRp2007
tp2008
a(S'YP_003044833.1'
p2009
g3
(g5
S'6\x94\x9b\x1d\xaf\x9f\x88@'
tRp2010
tp2011
a(S'YP_003045398.1'
p2012
g3
(g5
S'v\x9f]\xda\xf5\xdb\x88@'
tRp2013
tp2014
a(S'YP_003046925.1'
p2015
g3
(g5
S'\xe2\xb3\xafkk\xe0\x88@'
tRp2016
tp2017
a(S'YP_003045688.1'
p2018
g3
(g5
S'-\x86\x8b\xe0\x03\xe7\x88@'
tRp2019
tp2020
a(S'YP_003045678.1'
p2021
g3
(g5
S'\xf0\xac\xc0"\xc8\xf0\x88@'
tRp2022
tp2023
a(S'YP_003046496.1'
p2024
g3
(g5
S's\xf74\xf5C\xf8\x88@'
tRp2025
tp2026
a(S'YP_003045165.1'
p2027
g3
(g5
S'\r\x0b\xb8\xa5\xf9\xfb\x88@'
tRp2028
tp2029
a(S'YP_003043910.1'
p2030
g3
(g5
S'\xe3\xd57\xb6\xad\x01\x89@'
tRp2031
tp2032
a(S'YP_003047420.1'
p2033
g3
(g5
S'\xef\xbe\xe2\xbf{\x13\x89@'
tRp2034
tp2035
a(S'YP_003045180.1'
p2036
g3
(g5
S'\x1a\xa4\x8eq\t\x1e\x89@'
tRp2037
tp2038
a(S'YP_003046001.1'
p2039
g3
(g5
S'I\xfe#\x13\xb1+\x89@'
tRp2040
tp2041
a(S'YP_003046110.1'
p2042
g3
(g5
S'Yw\xeb\xef\x19>\x89@'
tRp2043
tp2044
a(S'YP_003044370.1'
p2045
g3
(g5
S'\x1e\x83\xb5\xda\xa3D\x89@'
tRp2046
tp2047
a(S'YP_003046441.1'
p2048
g3
(g5
S'g\x16\xb9^\xe7D\x89@'
tRp2049
tp2050
a(S'YP_003044005.1'
p2051
g3
(g5
S'?\x83mCOV\x89@'
tRp2052
tp2053
a(S'YP_003043562.1'
p2054
g3
(g5
S'\x0c\x8c\x83f\x9an\x89@'
tRp2055
tp2056
a(S'YP_003046202.1'
p2057
g3
(g5
S'\xe6\xc5\x9a{\x0e\x9a\x89@'
tRp2058
tp2059
a(S'YP_003047271.1'
p2060
g3
(g5
S'1\x97C\xf9\xcc\x9a\x89@'
tRp2061
tp2062
a(S'YP_003046854.1'
p2063
g3
(g5
S'\x06\xa6B\xd5Z\x9f\x89@'
tRp2064
tp2065
a(S'YP_003047085.1'
p2066
g3
(g5
S'\xd9H\xb2D\xeb\xb8\x89@'
tRp2067
tp2068
a(S'YP_003045654.1'
p2069
g3
(g5
S'\xd1/g \xc6\xc7\x89@'
tRp2070
tp2071
a(S'YP_003043704.1'
p2072
g3
(g5
S'\x80\x18\xd7\xa9<\xd4\x89@'
tRp2073
tp2074
a(S'YP_003044870.1'
p2075
g3
(g5
S'8;3(R\xd5\x89@'
tRp2076
tp2077
a(S'YP_003047060.1'
p2078
g3
(g5
S'\xde\xe4\xc0\x9b[\xe2\x89@'
tRp2079
tp2080
a(S'YP_003044846.1'
p2081
g3
(g5
S'1$\xae\x03\xfb\xfd\x89@'
tRp2082
tp2083
a(S'YP_003045224.1'
p2084
g3
(g5
S';\xf6G\xc8\xdb\n\x8a@'
tRp2085
tp2086
a(S'YP_003047024.1'
p2087
g3
(g5
S'gD\xdc\xfc\xbd\x16\x8a@'
tRp2088
tp2089
a(S'YP_003046828.1'
p2090
g3
(g5
S'3k\xf0\xea\x1b\x18\x8a@'
tRp2091
tp2092
a(S'YP_003044906.1'
p2093
g3
(g5
S'\t\xd1F\x8e\xa5#\x8a@'
tRp2094
tp2095
a(S'YP_003044093.1'
p2096
g3
(g5
S'\xd7\xdf\xf4B\xa9#\x8a@'
tRp2097
tp2098
a(S'YP_003045789.1'
p2099
g3
(g5
S'!\x8d\x85\xb4\xec)\x8a@'
tRp2100
tp2101
a(S'YP_003046991.1'
p2102
g3
(g5
S'-G\xec<\xbcq\x8a@'
tRp2103
tp2104
a(S'YP_003044916.1'
p2105
g3
(g5
S';\xef\n\xd8\xa7\x82\x8a@'
tRp2106
tp2107
a(S'YP_003045651.1'
p2108
g3
(g5
S'\xb3\xf2\x02#\xe7\x91\x8a@'
tRp2109
tp2110
a(S'YP_003044140.1'
p2111
g3
(g5
S'\xd4\x93N\xf4\xf3\xaa\x8a@'
tRp2112
tp2113
a(S'YP_003045113.1'
p2114
g3
(g5
S'\xf41\x0bD\x94\x1d\x8b@'
tRp2115
tp2116
a(S'YP_003046292.1'
p2117
g3
(g5
S'F\x88\tJ\xeb&\x8b@'
tRp2118
tp2119
a(S'YP_003044174.1'
p2120
g3
(g5
S'\xbb_\xff\xd5\x15+\x8b@'
tRp2121
tp2122
a(S'YP_003044323.1'
p2123
g3
(g5
S'\x02\x94\x7f\xed\xd5:\x8b@'
tRp2124
tp2125
a(S'YP_003045608.1'
p2126
g3
(g5
S'\xf4R*V\x0bJ\x8b@'
tRp2127
tp2128
a(S'YP_003046086.1'
p2129
g3
(g5
S'M\xc4\x0be\xb9L\x8b@'
tRp2130
tp2131
a(S'YP_003046495.1'
p2132
g3
(g5
S'\x1fK\x9c\xd8(M\x8b@'
tRp2133
tp2134
a(S'YP_003044783.1'
p2135
g3
(g5
S'\x10\xd7f\x85\xb0[\x8b@'
tRp2136
tp2137
a(S'YP_003043862.1'
p2138
g3
(g5
S'Ea\xf8\x8a\xbec\x8b@'
tRp2139
tp2140
a(S'YP_003046443.1'
p2141
g3
(g5
S'\x07z\xf2\x18\xa0h\x8b@'
tRp2142
tp2143
a(S'YP_003046862.1'
p2144
g3
(g5
S"{]c\xd1'n\x8b@"
tRp2145
tp2146
a(S'YP_003046254.1'
p2147
g3
(g5
S'\x03\xbc\x96\x13\x0cz\x8b@'
tRp2148
tp2149
a(S'YP_003043996.1'
p2150
g3
(g5
S'\xcc\xa5\xbd\xa6\xbb\x89\x8b@'
tRp2151
tp2152
a(S'YP_003045020.1'
p2153
g3
(g5
S'\xa49\x84?\x80\x9f\x8b@'
tRp2154
tp2155
a(S'YP_003043416.1'
p2156
g3
(g5
S'kkBu\xd0\xc9\x8b@'
tRp2157
tp2158
a(S'YP_003044984.1'
p2159
g3
(g5
S'\xce\xe5V\x9b\xf4\xce\x8b@'
tRp2160
tp2161
a(S'YP_003044829.1'
p2162
g3
(g5
S'm\x8d[I\xce\xd6\x8b@'
tRp2163
tp2164
a(S'YP_003045446.1'
p2165
g3
(g5
S'N\x8b\xf1\xed\xc0\xf8\x8b@'
tRp2166
tp2167
a(S'YP_003044812.1'
p2168
g3
(g5
S'E\x11\xd5\xc5g\x00\x8c@'
tRp2169
tp2170
a(S'YP_003045272.1'
p2171
g3
(g5
S'\x08P\xd6\x84w\x0e\x8c@'
tRp2172
tp2173
a(S'YP_003043829.1'
p2174
g3
(g5
S'\x16\xbf8m\xb4\x1c\x8c@'
tRp2175
tp2176
a(S'YP_003043833.1'
p2177
g3
(g5
S'\x87\x18Z\xd09M\x8c@'
tRp2178
tp2179
a(S'YP_003046282.1'
p2180
g3
(g5
S'+N\xcaX\x0cW\x8c@'
tRp2181
tp2182
a(S'YP_003044460.1'
p2183
g3
(g5
S':$\x1bLM[\x8c@'
tRp2184
tp2185
a(S'YP_003045007.1'
p2186
g3
(g5
S'1\xd5<\x8d\xe3\\\x8c@'
tRp2187
tp2188
a(S'YP_003046531.1'
p2189
g3
(g5
S'\xc0\x02\x81]v^\x8c@'
tRp2190
tp2191
a(S'YP_003044856.1'
p2192
g3
(g5
S'ZB\xbd\x07\x1e_\x8c@'
tRp2193
tp2194
a(S'YP_003046952.1'
p2195
g3
(g5
S'\t\x8dAZ3s\x8c@'
tRp2196
tp2197
a(S'YP_003046891.1'
p2198
g3
(g5
S'l\xf8tlcw\x8c@'
tRp2199
tp2200
a(S'YP_003046384.1'
p2201
g3
(g5
S'\xb2\x02\x03\xf9\xf0{\x8c@'
tRp2202
tp2203
a(S'YP_003043580.1'
p2204
g3
(g5
S'\x99\x06\xf4\x1f\xd1\x80\x8c@'
tRp2205
tp2206
a(S'YP_003046813.1'
p2207
g3
(g5
S"\x02\xf1R\x00'\x8e\x8c@"
tRp2208
tp2209
a(S'YP_003046756.1'
p2210
g3
(g5
S'.~\x00#$\x8f\x8c@'
tRp2211
tp2212
a(S'YP_003045605.1'
p2213
g3
(g5
S'cY\x86\xb2X\x9c\x8c@'
tRp2214
tp2215
a(S'YP_003043473.1'
p2216
g3
(g5
S'\x88J\xac9S\xa8\x8c@'
tRp2217
tp2218
a(S'YP_003043796.1'
p2219
g3
(g5
S'.\xe4\xf1\xf3\xaf\xc6\x8c@'
tRp2220
tp2221
a(S'YP_003045652.1'
p2222
g3
(g5
S'\xa5o\xe5\xafb\xca\x8c@'
tRp2223
tp2224
a(S'YP_003047200.1'
p2225
g3
(g5
S'D\xc6\x95K:\xcb\x8c@'
tRp2226
tp2227
a(S'YP_003044024.1'
p2228
g3
(g5
S'\xc9\xa9\xb1\x8f\xb5\xf1\x8c@'
tRp2229
tp2230
a(S'YP_003044020.1'
p2231
g3
(g5
S'\xf0\xa6t7R\xf4\x8c@'
tRp2232
tp2233
a(S'YP_003046998.1'
p2234
g3
(g5
S'\x86\x88l\xff(\xff\x8c@'
tRp2235
tp2236
a(S'YP_003045928.1'
p2237
g3
(g5
S'\xc0\x82\x7f\xd8$\x14\x8d@'
tRp2238
tp2239
a(S'YP_003046226.1'
p2240
g3
(g5
S'\x88\x8c\x02\x081(\x8d@'
tRp2241
tp2242
a(S'YP_003046971.1'
p2243
g3
(g5
S'|\xd7L"D1\x8d@'
tRp2244
tp2245
a(S'YP_003046591.1'
p2246
g3
(g5
S'\xeeM=\xa2\rR\x8d@'
tRp2247
tp2248
a(S'YP_003044997.1'
p2249
g3
(g5
S'5H\x1e[\xa0R\x8d@'
tRp2250
tp2251
a(S'YP_003043863.1'
p2252
g3
(g5
S'Ln\xf7\xb7k_\x8d@'
tRp2253
tp2254
a(S'YP_003047249.1'
p2255
g3
(g5
S'v\xe7\xbf\t"`\x8d@'
tRp2256
tp2257
a(S'YP_003045966.1'
p2258
g3
(g5
S'\xd4\x0c\x84,\x0eh\x8d@'
tRp2259
tp2260
a(S'YP_003043927.1'
p2261
g3
(g5
S'\xc7\x82\xb0\xb4z\x80\x8d@'
tRp2262
tp2263
a(S'YP_003045120.1'
p2264
g3
(g5
S'#\xa9p\xe8\xf1\x8f\x8d@'
tRp2265
tp2266
a(S'YP_003043596.1'
p2267
g3
(g5
S'\xb5Pm\xe2x\x94\x8d@'
tRp2268
tp2269
a(S'YP_003044338.1'
p2270
g3
(g5
S'\xc6>jM7\x9c\x8d@'
tRp2271
tp2272
a(S'YP_003045141.1'
p2273
g3
(g5
S'\xec\xa75\xb5\xdf\xa1\x8d@'
tRp2274
tp2275
a(S'YP_003043324.1'
p2276
g3
(g5
S"'\xc4\xc0\xday\xa7\x8d@"
tRp2277
tp2278
a(S'YP_003046680.1'
p2279
g3
(g5
S'ld\xa5\x7f\x0b\xaa\x8d@'
tRp2280
tp2281
a(S'YP_003045309.1'
p2282
g3
(g5
S'\xb3[\xcc\xbdB\xac\x8d@'
tRp2283
tp2284
a(S'YP_003044269.1'
p2285
g3
(g5
S'&\xf0e\x18\xdf\xac\x8d@'
tRp2286
tp2287
a(S'YP_003045044.1'
p2288
g3
(g5
S'\x8e\xe8\x99\xf5\xe7\xc1\x8d@'
tRp2289
tp2290
a(S'YP_003044806.1'
p2291
g3
(g5
S'\xa5\xaa\xa8\x0b\xf6\xc5\x8d@'
tRp2292
tp2293
a(S'YP_003046881.1'
p2294
g3
(g5
S'\xb6@hk\\\xc6\x8d@'
tRp2295
tp2296
a(S'YP_003047270.1'
p2297
g3
(g5
S'\x10`\x80\xe3`\xd7\x8d@'
tRp2298
tp2299
a(S'YP_003044782.1'
p2300
g3
(g5
S'\xb6\x13B\xad\xc0\xe5\x8d@'
tRp2301
tp2302
a(S'YP_003043330.1'
p2303
g3
(g5
S"'\xe3\xb8\xbbf\xed\x8d@"
tRp2304
tp2305
a(S'YP_003046487.1'
p2306
g3
(g5
S'\x17\x8f\xfd\xd7\xb7\x17\x8e@'
tRp2307
tp2308
a(S'YP_003043649.1'
p2309
g3
(g5
S'\\\xa0d\xfa\x949\x8e@'
tRp2310
tp2311
a(S'YP_003045032.1'
p2312
g3
(g5
S'\xdd\\Ef\xcdD\x8e@'
tRp2313
tp2314
a(S'YP_003047376.1'
p2315
g3
(g5
S'\xf4\xeb\x05\xc3\x8bI\x8e@'
tRp2316
tp2317
a(S'YP_003044985.1'
p2318
g3
(g5
S'{\xcf9%\\k\x8e@'
tRp2319
tp2320
a(S'YP_003045354.1'
p2321
g3
(g5
S'`.\x1b\xbd\xe8n\x8e@'
tRp2322
tp2323
a(S'YP_003046064.1'
p2324
g3
(g5
S'\xe2\xb94Pes\x8e@'
tRp2325
tp2326
a(S'YP_003045874.1'
p2327
g3
(g5
S'\xb3\xeaZ\x19M\x81\x8e@'
tRp2328
tp2329
a(S'YP_003046637.1'
p2330
g3
(g5
S'\xcfM\r\xbc\xef\xa9\x8e@'
tRp2331
tp2332
a(S'YP_003045650.1'
p2333
g3
(g5
S'\x12j\xd3\x1b\xa6\xab\x8e@'
tRp2334
tp2335
a(S'YP_003047020.1'
p2336
g3
(g5
S'.+\xc1\x8dy\xac\x8e@'
tRp2337
tp2338
a(S'YP_003045382.1'
p2339
g3
(g5
S'\xb3\xb2G\x9d\x01\xad\x8e@'
tRp2340
tp2341
a(S'YP_003044771.1'
p2342
g3
(g5
S'\x8erJ\xa8\x92\xae\x8e@'
tRp2343
tp2344
a(S'YP_003045166.1'
p2345
g3
(g5
S'\x85U*\x9f\x8e\xb0\x8e@'
tRp2346
tp2347
a(S'YP_003046452.1'
p2348
g3
(g5
S'\xa8-\xaf\x91\xae\x04\x8f@'
tRp2349
tp2350
a(S'YP_003044454.1'
p2351
g3
(g5
S"\xf9\xc8k'u\x05\x8f@"
tRp2352
tp2353
a(S'YP_003047078.1'
p2354
g3
(g5
S'}|&\x98\x06(\x8f@'
tRp2355
tp2356
a(S'YP_003043584.1'
p2357
g3
(g5
S'j\x01\x14\x1e\xe25\x8f@'
tRp2358
tp2359
a(S'YP_003044281.1'
p2360
g3
(g5
S'o\xd1\x97\xd5\xb9;\x8f@'
tRp2361
tp2362
a(S'YP_003043920.1'
p2363
g3
(g5
S'\x1e\xb1\x06u\x18Y\x8f@'
tRp2364
tp2365
a(S'YP_003044296.1'
p2366
g3
(g5
S'_\x8aE\x16\\}\x8f@'
tRp2367
tp2368
a(S'YP_003045350.1'
p2369
g3
(g5
S'$\xbfo\xceo\x85\x8f@'
tRp2370
tp2371
a(S'YP_003045236.1'
p2372
g3
(g5
S'\xd4\xda\x17\x01Q\x8e\x8f@'
tRp2373
tp2374
a(S'YP_003043321.1'
p2375
g3
(g5
S'\xc6\xa2\xaa\xf4\xf4\x91\x8f@'
tRp2376
tp2377
a(S'YP_003044149.1'
p2378
g3
(g5
S'\x90%\xf6\xba\xb1\x95\x8f@'
tRp2379
tp2380
a(S'YP_003046276.1'
p2381
g3
(g5
S'\xcc8\xcb\\\xe5\x96\x8f@'
tRp2382
tp2383
a(S'YP_003044880.1'
p2384
g3
(g5
S'\xc0\xd9\x85![\x9f\x8f@'
tRp2385
tp2386
a(S'YP_003044088.1'
p2387
g3
(g5
S'\x00~\x17\xcf\xeb\xac\x8f@'
tRp2388
tp2389
a(S'YP_003044314.1'
p2390
g3
(g5
S'\xac\r\x10\xa7~\xd0\x8f@'
tRp2391
tp2392
a(S'YP_003043847.1'
p2393
g3
(g5
S'\xa3\xff\x0b\xd1\xcb\xec\x8f@'
tRp2394
tp2395
a(S'YP_003044293.1'
p2396
g3
(g5
S'2\x08\x9eL\xd0\xef\x8f@'
tRp2397
tp2398
a(S'YP_003045016.1'
p2399
g3
(g5
S'\x91F\xfb\xde\x08\xfb\x8f@'
tRp2400
tp2401
a(S'YP_003043235.1'
p2402
g3
(g5
S'\x17\xa2\x07\xc3\t\xfb\x8f@'
tRp2403
tp2404
a(S'YP_003045655.1'
p2405
g3
(g5
S'\xa9p\xbfZz\x00\x90@'
tRp2406
tp2407
a(S'YP_003046900.1'
p2408
g3
(g5
S'\xef\xa2\xd2\\Q\x06\x90@'
tRp2409
tp2410
a(S'YP_003045647.1'
p2411
g3
(g5
S'\x03\x8b\xa3>1\n\x90@'
tRp2412
tp2413
a(S'YP_003044562.1'
p2414
g3
(g5
S'\xc4\xb0\x1e\xc3\xfb\x16\x90@'
tRp2415
tp2416
a(S'YP_003044250.1'
p2417
g3
(g5
S'|l\x12\xcaQ\x1b\x90@'
tRp2418
tp2419
a(S'YP_003043315.1'
p2420
g3
(g5
S'\xdf\x97F\xd76\x1c\x90@'
tRp2421
tp2422
a(S'YP_003044365.1'
p2423
g3
(g5
S'\xcd\xc26\xa0\x1c!\x90@'
tRp2424
tp2425
a(S'YP_003045437.1'
p2426
g3
(g5
S'\xcf\x86\xe5}\xed%\x90@'
tRp2427
tp2428
a(S'YP_003045400.1'
p2429
g3
(g5
S'\xa3\xbc\x1bJ\xbd0\x90@'
tRp2430
tp2431
a(S'YP_003045022.1'
p2432
g3
(g5
S'Sdr\xd8\x10@\x90@'
tRp2433
tp2434
a(S'YP_003044894.1'
p2435
g3
(g5
S'd\xeeL\xfb\x1eA\x90@'
tRp2436
tp2437
a(S'YP_003046670.1'
p2438
g3
(g5
S'H*5A\x97D\x90@'
tRp2439
tp2440
a(S'YP_003043654.1'
p2441
g3
(g5
S'\x9e\xd5\xdb\xd3A^\x90@'
tRp2442
tp2443
a(S'YP_003043391.1'
p2444
g3
(g5
S'\xfb\x7f6X$o\x90@'
tRp2445
tp2446
a(S'YP_003043985.1'
p2447
g3
(g5
S'\xea\xbb\x08\x08\x19{\x90@'
tRp2448
tp2449
a(S'YP_003046421.1'
p2450
g3
(g5
S'MG\x9d|\xe3\x88\x90@'
tRp2451
tp2452
a(S'YP_003044872.1'
p2453
g3
(g5
S'\x8f\xcf\xa4\xef2\x89\x90@'
tRp2454
tp2455
a(S'YP_003047273.1'
p2456
g3
(g5
S't\x9b\x89\x9bM\x9c\x90@'
tRp2457
tp2458
a(S'YP_003046098.1'
p2459
g3
(g5
S'\x8fS\x95\xcb\xf3\xa2\x90@'
tRp2460
tp2461
a(S'YP_003044249.1'
p2462
g3
(g5
S'\xf2H\x82W\xe4\xa4\x90@'
tRp2463
tp2464
a(S'YP_003045353.1'
p2465
g3
(g5
S'rX\x10\n\n\xab\x90@'
tRp2466
tp2467
a(S'YP_003044343.1'
p2468
g3
(g5
S'|\x16\x19\xc6\x06\xb3\x90@'
tRp2469
tp2470
a(S'YP_003045969.1'
p2471
g3
(g5
S'\x04\xd1\xbfM\xb7\xb8\x90@'
tRp2472
tp2473
a(S'YP_003047289.1'
p2474
g3
(g5
S'h\xccd\x82\xd4\xc5\x90@'
tRp2475
tp2476
a(S'YP_003044412.1'
p2477
g3
(g5
S'\xed\x8f~\x9a\xa3\xc6\x90@'
tRp2478
tp2479
a(S'YP_003044959.1'
p2480
g3
(g5
S'4\xef\x9d\xcc{\xc8\x90@'
tRp2481
tp2482
a(S'YP_003045034.1'
p2483
g3
(g5
S'9\xd9\x9d\x15\x1f\xda\x90@'
tRp2484
tp2485
a(S'YP_003045615.1'
p2486
g3
(g5
S'WP&\x88\xa3\xdc\x90@'
tRp2487
tp2488
a(S'YP_003043902.1'
p2489
g3
(g5
S'\xc7\x1d\x9c!\x8d\xdf\x90@'
tRp2490
tp2491
a(S'YP_003044225.1'
p2492
g3
(g5
S'\xa8\xa3\x92\x9c\t\xe4\x90@'
tRp2493
tp2494
a(S'YP_003045677.1'
p2495
g3
(g5
S'J\x88a\x17\x82\xf3\x90@'
tRp2496
tp2497
a(S'YP_003046005.1'
p2498
g3
(g5
S'>\x8c C&\xf8\x90@'
tRp2499
tp2500
a(S'YP_003043467.1'
p2501
g3
(g5
S'\x19\xf5\x85\x88i\x03\x91@'
tRp2502
tp2503
a(S'YP_003043546.1'
p2504
g3
(g5
S'\x82\xc7\xb5yq\x0e\x91@'
tRp2505
tp2506
a(S'YP_003043265.1'
p2507
g3
(g5
S'\x1e\x80\xb3k\x9f\x14\x91@'
tRp2508
tp2509
a(S'YP_003044371.1'
p2510
g3
(g5
S'f \xacSz%\x91@'
tRp2511
tp2512
a(S'YP_003045843.1'
p2513
g3
(g5
S'\rk\xc6\xc6\xad-\x91@'
tRp2514
tp2515
a(S'YP_003045404.1'
p2516
g3
(g5
S'\xea\xf6\x99\xaaj2\x91@'
tRp2517
tp2518
a(S'YP_003045436.1'
p2519
g3
(g5
S'\xa9D\x8d\xf6\x9d:\x91@'
tRp2520
tp2521
a(S'YP_003044366.1'
p2522
g3
(g5
S'\xfa\xc0b\xf8\xd0N\x91@'
tRp2523
tp2524
a(S'YP_003044521.1'
p2525
g3
(g5
S'\x13\x89_T\x14V\x91@'
tRp2526
tp2527
a(S'YP_003047419.1'
p2528
g3
(g5
S'\xb5\x1e\x0b\x98Ff\x91@'
tRp2529
tp2530
a(S'YP_003044185.1'
p2531
g3
(g5
S'\x85\xf1\xb0\x0f\xd8h\x91@'
tRp2532
tp2533
a(S'YP_003044345.1'
p2534
g3
(g5
S'\xc9\xab%/\x8ci\x91@'
tRp2535
tp2536
a(S'YP_003045785.1'
p2537
g3
(g5
S'u(i\x0e\xacr\x91@'
tRp2538
tp2539
a(S'YP_003046604.1'
p2540
g3
(g5
S'z9\xc6%\xff\x7f\x91@'
tRp2541
tp2542
a(S'YP_003043702.1'
p2543
g3
(g5
S'As\xf1P\xf6\x87\x91@'
tRp2544
tp2545
a(S'YP_003044492.1'
p2546
g3
(g5
S'\x02bscL\x9c\x91@'
tRp2547
tp2548
a(S'YP_003044169.1'
p2549
g3
(g5
S'\xce\xca5\x86\xa2\xb1\x91@'
tRp2550
tp2551
a(S'YP_003045513.1'
p2552
g3
(g5
S'"aB>\xb1\xbd\x91@'
tRp2553
tp2554
a(S'YP_003044781.1'
p2555
g3
(g5
S'\x8a~\xd4\xde\x8d\xea\x91@'
tRp2556
tp2557
a(S'YP_003047001.1'
p2558
g3
(g5
S'\xe2\xd8\xefd\xb3\xea\x91@'
tRp2559
tp2560
a(S'YP_003043244.1'
p2561
g3
(g5
S'\xf8-\xe9\x0f-\xeb\x91@'
tRp2562
tp2563
a(S'YP_003045635.1'
p2564
g3
(g5
S'\xea?\xd8\xf9!\xef\x91@'
tRp2565
tp2566
a(S'YP_003045554.1'
p2567
g3
(g5
S'\xcf\x9a\xe2\xa2_\xfd\x91@'
tRp2568
tp2569
a(S'YP_003044472.1'
p2570
g3
(g5
S'\xb9\xf2+r\x06\xfe\x91@'
tRp2571
tp2572
a(S'YP_003043286.1'
p2573
g3
(g5
S'\xf6\xdd\xc85\xd1\x15\x92@'
tRp2574
tp2575
a(S'YP_003046255.1'
p2576
g3
(g5
S'\xa1\x9e\x16\xf4\xa3\x16\x92@'
tRp2577
tp2578
a(S'YP_003045955.1'
p2579
g3
(g5
S'\x07mn\xec\x03\x18\x92@'
tRp2580
tp2581
a(S'YP_003045396.1'
p2582
g3
(g5
S'n\xfa\xeap\x1b\x19\x92@'
tRp2583
tp2584
a(S'YP_003045597.1'
p2585
g3
(g5
S'H\x91\xf6\r\x9d\x19\x92@'
tRp2586
tp2587
a(S'YP_003043856.1'
p2588
g3
(g5
S'\xf5\xad\x11\xb3q#\x92@'
tRp2589
tp2590
a(S'YP_003044861.1'
p2591
g3
(g5
S'O 7\xe4\xfb$\x92@'
tRp2592
tp2593
a(S'YP_003047427.1'
p2594
g3
(g5
S' \xddM\x95\x8a0\x92@'
tRp2595
tp2596
a(S'YP_003044248.1'
p2597
g3
(g5
S']\x00B*UX\x92@'
tRp2598
tp2599
a(S'YP_003044167.1'
p2600
g3
(g5
S'\x93\x1e)7\x07`\x92@'
tRp2601
tp2602
a(S'YP_003045918.1'
p2603
g3
(g5
S'\x0c\x91m\x7f\xc5g\x92@'
tRp2604
tp2605
a(S'YP_003045306.1'
p2606
g3
(g5
S'\x89\xe5\xc3\x05oo\x92@'
tRp2607
tp2608
a(S'YP_003046425.1'
p2609
g3
(g5
S'\x10vyG^\x80\x92@'
tRp2610
tp2611
a(S'YP_003047103.1'
p2612
g3
(g5
S'\xb7e\xaf\x1bV\xa4\x92@'
tRp2613
tp2614
a(S'YP_003043590.1'
p2615
g3
(g5
S'w\x8d\x99\x11`\xbd\x92@'
tRp2616
tp2617
a(S'YP_003046356.1'
p2618
g3
(g5
S'\xf8\xd3\x03\xeb\x9d\xbd\x92@'
tRp2619
tp2620
a(S'YP_003043466.1'
p2621
g3
(g5
S':~\xb2\xbb\xb0\xdd\x92@'
tRp2622
tp2623
a(S'YP_003044023.1'
p2624
g3
(g5
S"\x01\xf6'q(\xe5\x92@"
tRp2625
tp2626
a(S'YP_003046758.1'
p2627
g3
(g5
S'\xb9\x19I\xfb\x08\xf6\x92@'
tRp2628
tp2629
a(S'YP_003045664.1'
p2630
g3
(g5
S'\x91\xd4\xf1\x01\x99\xf7\x92@'
tRp2631
tp2632
a(S'YP_003046322.1'
p2633
g3
(g5
S'\xdb\xdf\x7f^\x13\x00\x93@'
tRp2634
tp2635
a(S'YP_003046323.1'
p2636
g3
(g5
S'\xb6\xb3"T*\x00\x93@'
tRp2637
tp2638
a(S'YP_003046573.1'
p2639
g3
(g5
S'H\xc9\xa4z\xc2\x0b\x93@'
tRp2640
tp2641
a(S'YP_003046273.1'
p2642
g3
(g5
S'\xbcrh\x98F\x12\x93@'
tRp2643
tp2644
a(S'YP_003043943.1'
p2645
g3
(g5
S'\x83j\x87\x98J\x12\x93@'
tRp2646
tp2647
a(S'YP_003046832.1'
p2648
g3
(g5
S'\x89)F6\xd5\x1c\x93@'
tRp2649
tp2650
a(S'YP_003044297.1'
p2651
g3
(g5
S'\xa3\xd2\x8e\x83\xbc(\x93@'
tRp2652
tp2653
a(S'YP_003047282.1'
p2654
g3
(g5
S'\x94M\xe79E-\x93@'
tRp2655
tp2656
a(S'YP_003046997.1'
p2657
g3
(g5
S'5\x06f\x14\xaf/\x93@'
tRp2658
tp2659
a(S'YP_003043361.1'
p2660
g3
(g5
S'\x9a\xfe\x1d\xaf\xf31\x93@'
tRp2661
tp2662
a(S'YP_003043587.1'
p2663
g3
(g5
S'\xc6\xf0\xc6\x97\x90J\x93@'
tRp2664
tp2665
a(S'YP_003045923.1'
p2666
g3
(g5
S'\xef`\x18H.[\x93@'
tRp2667
tp2668
a(S'YP_003044469.1'
p2669
g3
(g5
S'\xa0Z\xf2\xa60g\x93@'
tRp2670
tp2671
a(S'YP_003044089.1'
p2672
g3
(g5
S'\xe5f\xbb\x98\x06\x86\x93@'
tRp2673
tp2674
a(S'YP_003043818.1'
p2675
g3
(g5
S'tO\xabz\x03\x87\x93@'
tRp2676
tp2677
a(S'YP_003046437.1'
p2678
g3
(g5
S'\xa6H\xa2\x82\xe5\x9d\x93@'
tRp2679
tp2680
a(S'YP_003047019.1'
p2681
g3
(g5
S'8\xe0\xbf\xae`\xba\x93@'
tRp2682
tp2683
a(S'YP_003043864.1'
p2684
g3
(g5
S'\xbe\x81\x83\xe6n\xc2\x93@'
tRp2685
tp2686
a(S'YP_003045595.1'
p2687
g3
(g5
S'\xa6\xb3\x7fZ\xf3\xdc\x93@'
tRp2688
tp2689
a(S'YP_003046912.1'
p2690
g3
(g5
S'\x97\xdd!\xb9\xe6\xe7\x93@'
tRp2691
tp2692
a(S'YP_003046572.1'
p2693
g3
(g5
S'0\xe7NG?\xfe\x93@'
tRp2694
tp2695
a(S'YP_003045965.1'
p2696
g3
(g5
S'K\xad\xd4!v\x10\x94@'
tRp2697
tp2698
a(S'YP_003045403.1'
p2699
g3
(g5
S"\x8aT'\x85)&\x94@"
tRp2700
tp2701
a(S'YP_003045956.1'
p2702
g3
(g5
S'\xe8\xd8]5\xcc@\x94@'
tRp2703
tp2704
a(S'YP_003043832.1'
p2705
g3
(g5
S'\xb4\xfc\xb1\xd4\x13S\x94@'
tRp2706
tp2707
a(S'YP_003044755.1'
p2708
g3
(g5
S'\xa3\x9d\x88s\x80n\x94@'
tRp2709
tp2710
a(S'YP_003046731.1'
p2711
g3
(g5
S'\xc0\x99B@\xe6o\x94@'
tRp2712
tp2713
a(S'YP_003044012.1'
p2714
g3
(g5
S'\xb6\xe8\xa4\x84\xfcw\x94@'
tRp2715
tp2716
a(S'YP_003045118.1'
p2717
g3
(g5
S'\x16s\x8f\xe0\xfe\x84\x94@'
tRp2718
tp2719
a(S'YP_003046219.1'
p2720
g3
(g5
S'U\x99m\xab\xeb\x8a\x94@'
tRp2721
tp2722
a(S'YP_003043822.1'
p2723
g3
(g5
S'\xa1\x9c5\xff\xb2\x8e\x94@'
tRp2724
tp2725
a(S'YP_003045410.1'
p2726
g3
(g5
S'\xb1-\x15\rO\x98\x94@'
tRp2727
tp2728
a(S'YP_003047212.1'
p2729
g3
(g5
S'\xb7\\\x80\xe2S\x9f\x94@'
tRp2730
tp2731
a(S'YP_003044273.1'
p2732
g3
(g5
S'EN\x0f\xfc]\xab\x94@'
tRp2733
tp2734
a(S'YP_003045121.1'
p2735
g3
(g5
S'\xdc\x8e\xf3\xfeT\xaf\x94@'
tRp2736
tp2737
a(S'YP_003046790.1'
p2738
g3
(g5
S'!nTe!\xc9\x94@'
tRp2739
tp2740
a(S'YP_003046122.1'
p2741
g3
(g5
S'-\xe4\x13\xa61\xd5\x94@'
tRp2742
tp2743
a(S'YP_003043583.1'
p2744
g3
(g5
S'\xee\xd9\x9b\xccF\xee\x94@'
tRp2745
tp2746
a(S'YP_003044557.1'
p2747
g3
(g5
S'\x86\x98\x87\xf7a\xf3\x94@'
tRp2748
tp2749
a(S'YP_003044292.1'
p2750
g3
(g5
S'\xe7\x08J\xa8\x9d\x01\x95@'
tRp2751
tp2752
a(S'YP_003044890.1'
p2753
g3
(g5
S'}\xa25e\xa3\x0b\x95@'
tRp2754
tp2755
a(S'YP_003045116.1'
p2756
g3
(g5
S'a&,\xc7\xf6\x1e\x95@'
tRp2757
tp2758
a(S'YP_003044307.1'
p2759
g3
(g5
S'\xfd\x13\x9f\xc5\xae2\x95@'
tRp2760
tp2761
a(S'YP_003046592.1'
p2762
g3
(g5
S'\x92\xf2\xae:;c\x95@'
tRp2763
tp2764
a(S'YP_003047063.1'
p2765
g3
(g5
S'\x8b\xb0\x9awUv\x95@'
tRp2766
tp2767
a(S'YP_003046393.1'
p2768
g3
(g5
S'_\x11\xb9\xbb\xb2v\x95@'
tRp2769
tp2770
a(S'YP_003046638.1'
p2771
g3
(g5
S'\xcb\xed\\C\xc7z\x95@'
tRp2772
tp2773
a(S'YP_003043600.1'
p2774
g3
(g5
S'\xd9?[3\xa2\x8d\x95@'
tRp2775
tp2776
a(S'YP_003046529.1'
p2777
g3
(g5
S'\xb65\xbc\xab\xcc\xca\x95@'
tRp2778
tp2779
a(S'YP_003046424.1'
p2780
g3
(g5
S'\xf5$\x87\xaa\xf1\xd9\x95@'
tRp2781
tp2782
a(S'YP_003044701.1'
p2783
g3
(g5
S'T\x11\x985\x12\xdb\x95@'
tRp2784
tp2785
a(S'YP_003045417.1'
p2786
g3
(g5
S'\x85w\xbf\x1c|\xdc\x95@'
tRp2787
tp2788
a(S'YP_003044887.1'
p2789
g3
(g5
S'\x91\xe8\xf2/\xad\xf0\x95@'
tRp2790
tp2791
a(S'YP_003043362.1'
p2792
g3
(g5
S'b\x9f\xbd\xe3V\xf1\x95@'
tRp2793
tp2794
a(S'YP_003043328.1'
p2795
g3
(g5
S'\x9d\xcb\x7f0\xec\x02\x96@'
tRp2796
tp2797
a(S'YP_003044780.1'
p2798
g3
(g5
S'\x12\x03.ff\x10\x96@'
tRp2799
tp2800
a(S'YP_003045596.1'
p2801
g3
(g5
S'\xf4\xb0\xe1z\x8b\x14\x96@'
tRp2802
tp2803
a(S'YP_003045738.1'
p2804
g3
(g5
S'BD\xd8\x97\xd9\x1d\x96@'
tRp2805
tp2806
a(S'YP_003045796.1'
p2807
g3
(g5
S'\xedIN\x9eS$\x96@'
tRp2808
tp2809
a(S'YP_003045115.1'
p2810
g3
(g5
S'GRp\xe7:+\x96@'
tRp2811
tp2812
a(S'YP_003043353.1'
p2813
g3
(g5
S'\x98\x8f\x8a\xa7\x8a6\x96@'
tRp2814
tp2815
a(S'YP_003045577.1'
p2816
g3
(g5
S'\x8dp\x9d\xc7\x84A\x96@'
tRp2817
tp2818
a(S'YP_003043406.1'
p2819
g3
(g5
S'0\xa4/\x0e<D\x96@'
tRp2820
tp2821
a(S'YP_003046721.1'
p2822
g3
(g5
S'.\xe3\xcc\xf2\xa0E\x96@'
tRp2823
tp2824
a(S'YP_003046645.1'
p2825
g3
(g5
S'\x13\x88\xedbYG\x96@'
tRp2826
tp2827
a(S'YP_003045237.1'
p2828
g3
(g5
S'\xe4~\xdc\x00\xc7O\x96@'
tRp2829
tp2830
a(S'YP_003047256.1'
p2831
g3
(g5
S'o\xab(\x1d\xc2[\x96@'
tRp2832
tp2833
a(S'YP_003043646.1'
p2834
g3
(g5
S'~\x08\xc2]4l\x96@'
tRp2835
tp2836
a(S'YP_003043619.1'
p2837
g3
(g5
S'\xb8eC\xceXu\x96@'
tRp2838
tp2839
a(S'YP_003045910.1'
p2840
g3
(g5
S'47\xd8\xf0\xe8\x82\x96@'
tRp2841
tp2842
a(S'YP_003045613.1'
p2843
g3
(g5
S'\n\xd4g\xf5\x91\x86\x96@'
tRp2844
tp2845
a(S'YP_003044772.1'
p2846
g3
(g5
S'=o\xa3\xef\x83\x89\x96@'
tRp2847
tp2848
a(S'YP_003043560.1'
p2849
g3
(g5
S'g\xeeC\x13\x02\x8e\x96@'
tRp2850
tp2851
a(S'YP_003047436.1'
p2852
g3
(g5
S'ta\x9c\xf2\x12\xa4\x96@'
tRp2853
tp2854
a(S'YP_003046214.1'
p2855
g3
(g5
S'\xe1^\xa5\x94\x96\xac\x96@'
tRp2856
tp2857
a(S'YP_003044449.1'
p2858
g3
(g5
S'e\xaf\x935\xe3\xbd\x96@'
tRp2859
tp2860
a(S'YP_003043308.1'
p2861
g3
(g5
S'\xaa@\xfb0\xee\xcb\x96@'
tRp2862
tp2863
a(S'YP_003047260.1'
p2864
g3
(g5
S'z)Uv_\xe1\x96@'
tRp2865
tp2866
a(S'YP_003043905.1'
p2867
g3
(g5
S'S\x0cH\x8e\x89\xee\x96@'
tRp2868
tp2869
a(S'YP_003045582.1'
p2870
g3
(g5
S'\x80\xa3\xfd( \xf2\x96@'
tRp2871
tp2872
a(S'YP_003045416.1'
p2873
g3
(g5
S'h\x1f.\x17\xe2=\x97@'
tRp2874
tp2875
a(S'YP_003044346.1'
p2876
g3
(g5
S'\x04\xd1\xfb\n6D\x97@'
tRp2877
tp2878
a(S'YP_003047280.1'
p2879
g3
(g5
S'\xa1\x06,rsM\x97@'
tRp2880
tp2881
a(S'YP_003043518.1'
p2882
g3
(g5
S"\xaf\x9a'D\xc9p\x97@"
tRp2883
tp2884
a(S'YP_003044474.1'
p2885
g3
(g5
S'W\x01\xccm)r\x97@'
tRp2886
tp2887
a(S'YP_003043850.1'
p2888
g3
(g5
S'H(J\xd8\x89y\x97@'
tRp2889
tp2890
a(S'YP_003045694.1'
p2891
g3
(g5
S'z\xc5\xbd\x9a\xcc\x87\x97@'
tRp2892
tp2893
a(S'YP_003043997.1'
p2894
g3
(g5
S'X\xbfKB:\x92\x97@'
tRp2895
tp2896
a(S'YP_003043408.1'
p2897
g3
(g5
S'P\xd4\xf1\x1b\xcf\x9f\x97@'
tRp2898
tp2899
a(S'YP_003045512.1'
p2900
g3
(g5
S'\x8e+\xd2E\x97\xa7\x97@'
tRp2901
tp2902
a(S'YP_003047293.1'
p2903
g3
(g5
S'Y\xa3j\xf6b\xb5\x97@'
tRp2904
tp2905
a(S'YP_003043669.1'
p2906
g3
(g5
S'=\x92\xb7-\xd2\xb6\x97@'
tRp2907
tp2908
a(S'YP_003044298.1'
p2909
g3
(g5
S'\xf8\xa3\xeb+\xe0\xb6\x97@'
tRp2910
tp2911
a(S'YP_003046239.1'
p2912
g3
(g5
S'\x9du\xed\xd7O\xbd\x97@'
tRp2913
tp2914
a(S'YP_003046399.1'
p2915
g3
(g5
S'`\xa1|o\xed\xc7\x97@'
tRp2916
tp2917
a(S'YP_003044845.1'
p2918
g3
(g5
S'\xb9\x95\x85_\\\xd1\x97@'
tRp2919
tp2920
a(S'YP_003045497.1'
p2921
g3
(g5
S'\xeb\xa3c"\xea\xe9\x97@'
tRp2922
tp2923
a(S'YP_003044139.1'
p2924
g3
(g5
S'BJD\x0e\xfc\xe9\x97@'
tRp2925
tp2926
a(S'YP_003043904.1'
p2927
g3
(g5
S'\xc1\x84=\xa6;\xf6\x97@'
tRp2928
tp2929
a(S'YP_003046825.1'
p2930
g3
(g5
S'`\xf36\xd0\xbf\x01\x98@'
tRp2931
tp2932
a(S'YP_003043698.1'
p2933
g3
(g5
S'\x0c\xean\x01\x98#\x98@'
tRp2934
tp2935
a(S'YP_003046231.1'
p2936
g3
(g5
S'IT\xa87n)\x98@'
tRp2937
tp2938
a(S'YP_003045980.1'
p2939
g3
(g5
S'\xec\xb2qI\xc3}\x98@'
tRp2940
tp2941
a(S'YP_003045671.1'
p2942
g3
(g5
S'\x00\xd0n\xe9\xc2\x9f\x98@'
tRp2943
tp2944
a(S'YP_003046422.1'
p2945
g3
(g5
S'\xee\x8c\x8a\n1\xa7\x98@'
tRp2946
tp2947
a(S'YP_003045516.1'
p2948
g3
(g5
S'\xe9\xe2\t\xf7r\xcf\x98@'
tRp2949
tp2950
a(S'YP_003045679.1'
p2951
g3
(g5
S'\x18\x14y\xae\xe4\x07\x99@'
tRp2952
tp2953
a(S'YP_003043960.1'
p2954
g3
(g5
S'\x13\x98\xdf\x1c\xe2\x0e\x99@'
tRp2955
tp2956
a(S'YP_003044315.1'
p2957
g3
(g5
S'7\xf1+\x13\xd3\x13\x99@'
tRp2958
tp2959
a(S'YP_003045915.1'
p2960
g3
(g5
S'N\x98\x06\xd7\xa3\x18\x99@'
tRp2961
tp2962
a(S'YP_003047098.1'
p2963
g3
(g5
S'\xfd(\xa6\xddh9\x99@'
tRp2964
tp2965
a(S'YP_003044451.1'
p2966
g3
(g5
S'y\xdd{\xd4DZ\x99@'
tRp2967
tp2968
a(S'YP_003045117.1'
p2969
g3
(g5
S'\xe4\t_\xf2\xe9\x96\x99@'
tRp2970
tp2971
a(S'YP_003044881.1'
p2972
g3
(g5
S'\x08\xb4\x8f\xdf\xde\x9a\x99@'
tRp2973
tp2974
a(S'YP_003043743.1'
p2975
g3
(g5
S'CL\xf3\x87\x11\xb8\x99@'
tRp2976
tp2977
a(S'YP_003043615.1'
p2978
g3
(g5
S'\xe8\xfa\xa9\xad\xf7\xcd\x99@'
tRp2979
tp2980
a(S'YP_003046490.1'
p2981
g3
(g5
S'w\xfb\xb8\x86+\xd1\x99@'
tRp2982
tp2983
a(S'YP_003045414.1'
p2984
g3
(g5
S'\x9b\x8a;\xbf1\xd3\x99@'
tRp2985
tp2986
a(S'YP_003046989.1'
p2987
g3
(g5
S'\xa0B\x0e,\x15\xf1\x99@'
tRp2988
tp2989
a(S'YP_003044882.1'
p2990
g3
(g5
S'\x82\x04\xe4@\xb6\xfc\x99@'
tRp2991
tp2992
a(S'YP_003046221.1'
p2993
g3
(g5
S'\x9d\x17(\x81\xc1\x0c\x9a@'
tRp2994
tp2995
a(S'YP_003044087.1'
p2996
g3
(g5
S'z\xbb\xa8:\xfc\x0f\x9a@'
tRp2997
tp2998
a(S'YP_003044086.1'
p2999
g3
(g5
S'1\x81w\xcd\xbf\x15\x9a@'
tRp3000
tp3001
a(S'YP_003046746.1'
p3002
g3
(g5
S'\xd9\x01\x95$\x01"\x9a@'
tRp3003
tp3004
a(S'YP_003045433.1'
p3005
g3
(g5
S'U\xc0\xe3@\x11&\x9a@'
tRp3006
tp3007
a(S'YP_003043846.1'
p3008
g3
(g5
S'\xc2`!\xf0\xa2-\x9a@'
tRp3009
tp3010
a(S'YP_003046585.1'
p3011
g3
(g5
S'x`G1\x0fY\x9a@'
tRp3012
tp3013
a(S'YP_003046584.1'
p3014
g3
(g5
S'f!?D(\\\x9a@'
tRp3015
tp3016
a(S'YP_003043343.1'
p3017
g3
(g5
S'\x8c\x87Y\x8dCi\x9a@'
tRp3018
tp3019
a(S'YP_003045790.1'
p3020
g3
(g5
S'D$\xfd<y\xb5\x9a@'
tRp3021
tp3022
a(S'YP_003045562.1'
p3023
g3
(g5
S'X\xf3\xaa\xbd\xcb\xbd\x9a@'
tRp3024
tp3025
a(S'YP_003043640.1'
p3026
g3
(g5
S'\xc4N\xe4\xa6.\xf0\x9a@'
tRp3027
tp3028
a(S'YP_003043650.1'
p3029
g3
(g5
S'\xae\x1b\xb2\xd8\x04\xf6\x9a@'
tRp3030
tp3031
a(S'YP_003044807.1'
p3032
g3
(g5
S'\xf4\xe6\xad\xf9K\xf6\x9a@'
tRp3033
tp3034
a(S'YP_003045401.1'
p3035
g3
(g5
S'\x00\x07\xf4Q\xd1\xfd\x9a@'
tRp3036
tp3037
a(S'YP_003043412.1'
p3038
g3
(g5
S'D\x8f\xed\xd2\xa7\x1f\x9b@'
tRp3039
tp3040
a(S'YP_003046225.1'
p3041
g3
(g5
S'\xab\xa0\xd6\xf5\x0e+\x9b@'
tRp3042
tp3043
a(S'YP_003046315.1'
p3044
g3
(g5
S'\xb4\x17\xc2\xaf\xce,\x9b@'
tRp3045
tp3046
a(S'YP_003044083.1'
p3047
g3
(g5
S'j\xe1\x95\x17V8\x9b@'
tRp3048
tp3049
a(S'YP_003044393.1'
p3050
g3
(g5
S'\xfa\x94\xd1\xb2=V\x9b@'
tRp3051
tp3052
a(S'YP_003046918.1'
p3053
g3
(g5
S'y\x07\x11\xe9]p\x9b@'
tRp3054
tp3055
a(S'YP_003043395.1'
p3056
g3
(g5
S'A\xa4p_\x16\x98\x9b@'
tRp3057
tp3058
a(S'YP_003043260.1'
p3059
g3
(g5
S'H\x11\x93\xf7\x1f\x9a\x9b@'
tRp3060
tp3061
a(S'YP_003047069.1'
p3062
g3
(g5
S'\xa8\x87\xc2r\xe9\xaa\x9b@'
tRp3063
tp3064
a(S'YP_003044598.1'
p3065
g3
(g5
S'"\x8219\x03\xb5\x9b@'
tRp3066
tp3067
a(S'YP_003043267.1'
p3068
g3
(g5
S'\xb21e\x05\x1c\xc2\x9b@'
tRp3069
tp3070
a(S'YP_003046648.1'
p3071
g3
(g5
S'qkz\x18e\xc2\x9b@'
tRp3072
tp3073
a(S'YP_003045351.1'
p3074
g3
(g5
S'\x93N\xfc\xc0K\xc4\x9b@'
tRp3075
tp3076
a(S'YP_003045736.1'
p3077
g3
(g5
S'C\xa7\xe3\x84\x14\xfe\x9b@'
tRp3078
tp3079
a(S'YP_003043459.1'
p3080
g3
(g5
S'\x11.\xdb\xedP\x0b\x9c@'
tRp3081
tp3082
a(S'YP_003046230.1'
p3083
g3
(g5
S'\x16\\X2\x10\x16\x9c@'
tRp3084
tp3085
a(S'YP_003047322.1'
p3086
g3
(g5
S'.\x0b\x08\x86T\x1e\x9c@'
tRp3087
tp3088
a(S'YP_003046237.1'
p3089
g3
(g5
S'\xc6\xe3`\x8a\xba+\x9c@'
tRp3090
tp3091
a(S'YP_003046295.1'
p3092
g3
(g5
S'\xcd\x95\xa4D</\x9c@'
tRp3093
tp3094
a(S'YP_003045442.1'
p3095
g3
(g5
S'\xff\x1f\x8e\xb1iI\x9c@'
tRp3096
tp3097
a(S'YP_003045589.1'
p3098
g3
(g5
S'\xdf\x810\x0e\xa5N\x9c@'
tRp3099
tp3100
a(S'YP_003046974.1'
p3101
g3
(g5
S'\xed\xfe\xd7(|\\\x9c@'
tRp3102
tp3103
a(S'YP_003044305.1'
p3104
g3
(g5
S'?{o\xab\x18i\x9c@'
tRp3105
tp3106
a(S'YP_003045018.1'
p3107
g3
(g5
S'\xb4\xb0U\xe9\x17"\x9d@'
tRp3108
tp3109
a(S'YP_003044276.1'
p3110
g3
(g5
S'G\x82\xd1+;&\x9d@'
tRp3111
tp3112
a(S'YP_003045429.1'
p3113
g3
(g5
S'\x18(\xb8p\x0c2\x9d@'
tRp3114
tp3115
a(S'YP_003044425.1'
p3116
g3
(g5
S'\x8e\xee[\x00\x03=\x9d@'
tRp3117
tp3118
a(S'YP_003046453.1'
p3119
g3
(g5
S'\xa8-\xb5]AO\x9d@'
tRp3120
tp3121
a(S'YP_003043918.1'
p3122
g3
(g5
S'v\\\xf7\xeb\xe2`\x9d@'
tRp3123
tp3124
a(S'YP_003044405.1'
p3125
g3
(g5
S'\xdf\xa8dW\x8dh\x9d@'
tRp3126
tp3127
a(S'YP_003043903.1'
p3128
g3
(g5
S'B<\xd0\x8bY\x8b\x9d@'
tRp3129
tp3130
a(S'YP_003043901.1'
p3131
g3
(g5
S'\x91.\xc5\x10}\x9b\x9d@'
tRp3132
tp3133
a(S'YP_003045607.1'
p3134
g3
(g5
S'\x10_7\x0f\xe1\x18\x9e@'
tRp3135
tp3136
a(S'YP_003045814.1'
p3137
g3
(g5
S'\x19\xca\x885\xfcJ\x9e@'
tRp3138
tp3139
a(S'YP_003044450.1'
p3140
g3
(g5
S'\x10\xdb~\x91\x19W\x9e@'
tRp3141
tp3142
a(S'YP_003046967.1'
p3143
g3
(g5
S'\xc2\xceU\x1aZn\x9e@'
tRp3144
tp3145
a(S'YP_003044151.1'
p3146
g3
(g5
S'\xcc\xeb\x98\xc7*r\x9e@'
tRp3147
tp3148
a(S'YP_003044125.1'
p3149
g3
(g5
S'\xf8\x0c\xb4*%\x92\x9e@'
tRp3150
tp3151
a(S'YP_003045508.1'
p3152
g3
(g5
S'\xb3B\x1c\x13\xb2\xe7\x9e@'
tRp3153
tp3154
a(S'YP_003043651.1'
p3155
g3
(g5
S'\xb0]\x8a+\x9e\xea\x9e@'
tRp3156
tp3157
a(S'YP_003045123.1'
p3158
g3
(g5
S'[\xba!\xb9\xa8\x1b\x9f@'
tRp3159
tp3160
a(S'YP_003047281.1'
p3161
g3
(g5
S';\xe6Ju\xb84\x9f@'
tRp3162
tp3163
a(S'YP_003043424.1'
p3164
g3
(g5
S'\xc9r\xcc\xef\x98W\x9f@'
tRp3165
tp3166
a(S'YP_003045119.1'
p3167
g3
(g5
S'\xd1\xc5g8n{\x9f@'
tRp3168
tp3169
a(S'YP_003046259.1'
p3170
g3
(g5
S'J\xf6\x11.\xae\x85\x9f@'
tRp3171
tp3172
a(S'YP_003044284.1'
p3173
g3
(g5
S'Y\xfb\xf0\x94\xa5\x93\x9f@'
tRp3174
tp3175
a(S'YP_003046833.1'
p3176
g3
(g5
S'\xc8\xb8\xda\xff\xe0\xb9\x9f@'
tRp3177
tp3178
a(S'YP_003045580.1'
p3179
g3
(g5
S'\xde\xdc\xb3@\x88\xc4\x9f@'
tRp3180
tp3181
a(S'YP_003044322.1'
p3182
g3
(g5
S'\r\xd9X\xaa9\xfc\x9f@'
tRp3183
tp3184
a(S'YP_003046216.1'
p3185
g3
(g5
S'\xe7\xb7\xfd\xa7\xdc\x07\xa0@'
tRp3186
tp3187
a(S'YP_003043648.1'
p3188
g3
(g5
S'\x11c\xa7\xc8\x8e\x1c\xa0@'
tRp3189
tp3190
a(S'YP_003044115.1'
p3191
g3
(g5
S'?\xad\xbf$\x10 \xa0@'
tRp3192
tp3193
a(S'YP_003045797.1'
p3194
g3
(g5
S'\x96\xe6\xf7T(!\xa0@'
tRp3195
tp3196
a(S'YP_003043399.1'
p3197
g3
(g5
S'\xb7\x9f\xc7\x92P*\xa0@'
tRp3198
tp3199
a(S'YP_003044317.1'
p3200
g3
(g5
S'n.x":8\xa0@'
tRp3201
tp3202
a(S'YP_003045426.1'
p3203
g3
(g5
S'\x8bh\x00#\tG\xa0@'
tRp3204
tp3205
a(S'YP_003043926.1'
p3206
g3
(g5
S'\xf2\xd9k\xc6\xf6]\xa0@'
tRp3207
tp3208
a(S'YP_003047036.1'
p3209
g3
(g5
S')\x02\x01\x9c\x94g\xa0@'
tRp3210
tp3211
a(S'YP_003043231.1'
p3212
g3
(g5
S'\x94\xd7\\\xea[q\xa0@'
tRp3213
tp3214
a(S'YP_003044421.1'
p3215
g3
(g5
S'\xe35\x05B\x83z\xa0@'
tRp3216
tp3217
a(S'YP_003044907.1'
p3218
g3
(g5
S'\xba\x03(\xdc\xa6\x8b\xa0@'
tRp3219
tp3220
a(S'YP_003046793.1'
p3221
g3
(g5
S'\x0f\x94\x88\xfcK\xac\xa0@'
tRp3222
tp3223
a(S'YP_003046420.1'
p3224
g3
(g5
S'\xb3\xee_\xa2V\xb1\xa0@'
tRp3225
tp3226
a(S'YP_003043348.1'
p3227
g3
(g5
S'\x15i\xa7\x8c\xa8\xde\xa0@'
tRp3228
tp3229
a(S'YP_003046892.1'
p3230
g3
(g5
S'@Hm\xe5I\xf6\xa0@'
tRp3231
tp3232
a(S'YP_003045411.1'
p3233
g3
(g5
S'\x07\xc0q!\xa5\x17\xa1@'
tRp3234
tp3235
a(S'YP_003044999.1'
p3236
g3
(g5
S'\x88\xd1j(n\x1a\xa1@'
tRp3237
tp3238
a(S'YP_003047058.1'
p3239
g3
(g5
S'\x19\x9b\x96\x1dG1\xa1@'
tRp3240
tp3241
a(S'YP_003044285.1'
p3242
g3
(g5
S'155\xab\xe2;\xa1@'
tRp3243
tp3244
a(S'YP_003046337.1'
p3245
g3
(g5
S'm\x04D\x9a\x1a>\xa1@'
tRp3246
tp3247
a(S'YP_003045691.1'
p3248
g3
(g5
S'\x9dJ-qlA\xa1@'
tRp3249
tp3250
a(S'YP_003045929.1'
p3251
g3
(g5
S'\x8c]I\xab\xe0D\xa1@'
tRp3252
tp3253
a(S'YP_003043963.1'
p3254
g3
(g5
S'\xa3q\xb3M\x0cG\xa1@'
tRp3255
tp3256
a(S'YP_003043860.1'
p3257
g3
(g5
S']z\x80\xc9\x82j\xa1@'
tRp3258
tp3259
a(S'YP_003046274.1'
p3260
g3
(g5
S'\x91\xb4\x1d\x9bor\xa1@'
tRp3261
tp3262
a(S'YP_003046383.1'
p3263
g3
(g5
S'\x9aPol\xfes\xa1@'
tRp3264
tp3265
a(S'YP_003043232.1'
p3266
g3
(g5
S'\\k\xa9\xd4\x9ct\xa1@'
tRp3267
tp3268
a(S'YP_003043888.1'
p3269
g3
(g5
S'\xcc\x9f\xf6\xd0j\x9c\xa1@'
tRp3270
tp3271
a(S'YP_003043382.1'
p3272
g3
(g5
S')\xac\xe2\xe1Y\xcb\xa1@'
tRp3273
tp3274
a(S'YP_003044106.1'
p3275
g3
(g5
S'KE$\x1b1\xe4\xa1@'
tRp3276
tp3277
a(S'YP_003046812.1'
p3278
g3
(g5
S'Yi\xfd0R\xeb\xa1@'
tRp3279
tp3280
a(S'YP_003046351.1'
p3281
g3
(g5
S'\x0e\xcdS\xa3\x9a\x00\xa2@'
tRp3282
tp3283
a(S'YP_003047068.1'
p3284
g3
(g5
S'\x1f4t\x86\xfa\x13\xa2@'
tRp3285
tp3286
a(S'YP_003044430.1'
p3287
g3
(g5
S'\xe1\x83\xff\xb4V&\xa2@'
tRp3288
tp3289
a(S'YP_003045611.1'
p3290
g3
(g5
S'eu\x84#\x95;\xa2@'
tRp3291
tp3292
a(S'YP_003043427.1'
p3293
g3
(g5
S'\xb1\x1ch\xb3)<\xa2@'
tRp3294
tp3295
a(S'YP_003045791.1'
p3296
g3
(g5
S'\xfdy\x1c\x81\x99F\xa2@'
tRp3297
tp3298
a(S'YP_003046299.1'
p3299
g3
(g5
S'\xd1\x03)r\x01z\xa2@'
tRp3300
tp3301
a(S'YP_003043446.1'
p3302
g3
(g5
S'S\xa4\xc5\xa4\xc2\x9b\xa2@'
tRp3303
tp3304
a(S'YP_003045125.1'
p3305
g3
(g5
S'\x8cG\xd3\x96\x82\xa2\xa2@'
tRp3306
tp3307
a(S'YP_003045017.1'
p3308
g3
(g5
S'\xa8\xcc\xa6\xe7\xc8\xa4\xa2@'
tRp3309
tp3310
a(S'YP_003043346.1'
p3311
g3
(g5
S'\x8bF5$\xfe\xaa\xa2@'
tRp3312
tp3313
a(S'YP_003043422.1'
p3314
g3
(g5
S'2\xceq\xf2\x14\xb1\xa2@'
tRp3315
tp3316
a(S'YP_003045798.1'
p3317
g3
(g5
S'D\xf4:\x17\x84\xd9\xa2@'
tRp3318
tp3319
a(S'YP_003043821.1'
p3320
g3
(g5
S'7\x9d\xae\xb9\x1d\xf9\xa2@'
tRp3321
tp3322
a(S'YP_003045561.1'
p3323
g3
(g5
S'\xad\x1a6\x9bZ\x01\xa3@'
tRp3324
tp3325
a(S'YP_003047056.1'
p3326
g3
(g5
S'%+\xbfy\x97\x16\xa3@'
tRp3327
tp3328
a(S'YP_003046262.1'
p3329
g3
(g5
S'\x96\x15\xfa\x19\xf6\x16\xa3@'
tRp3330
tp3331
a(S'YP_003044130.1'
p3332
g3
(g5
S'\xd8\xaa\x11\xa4a+\xa3@'
tRp3333
tp3334
a(S'YP_003046092.1'
p3335
g3
(g5
S'T"\x04\x1c\x83>\xa3@'
tRp3336
tp3337
a(S'YP_003045560.1'
p3338
g3
(g5
S'\xa4\xda\xaa\x84UE\xa3@'
tRp3339
tp3340
a(S'YP_003046732.1'
p3341
g3
(g5
S'\xb9\xd1&\xd3\x04H\xa3@'
tRp3342
tp3343
a(S'YP_003046789.1'
p3344
g3
(g5
S'\x1a\x97\x9c^(K\xa3@'
tRp3345
tp3346
a(S'YP_003045122.1'
p3347
g3
(g5
S'\xd3\x80T3GR\xa3@'
tRp3348
tp3349
a(S'YP_003045933.1'
p3350
g3
(g5
S'X\xca\xb1dmW\xa3@'
tRp3351
tp3352
a(S'YP_003043999.1'
p3353
g3
(g5
S'\x00\xb3*T\xd6f\xa3@'
tRp3354
tp3355
a(S'YP_003044302.1'
p3356
g3
(g5
S'\xc7\\\xdf\xf5_s\xa3@'
tRp3357
tp3358
a(S'YP_003047214.1'
p3359
g3
(g5
S'\xba\x18\x94\xc1qw\xa3@'
tRp3360
tp3361
a(S'YP_003045503.1'
p3362
g3
(g5
S'\xa0\x94\xd4`\x87\x8d\xa3@'
tRp3363
tp3364
a(S'YP_003044946.1'
p3365
g3
(g5
S'\xd3W\x00)\xf6\x9b\xa3@'
tRp3366
tp3367
a(S'YP_003043898.1'
p3368
g3
(g5
S'I#\x83\x90p\xa0\xa3@'
tRp3369
tp3370
a(S'YP_003046345.1'
p3371
g3
(g5
S'\xd7\xd9\xd5\xc4Q\xbe\xa3@'
tRp3372
tp3373
a(S'YP_003046220.1'
p3374
g3
(g5
S'\xa1\xa4Jt2\xd0\xa3@'
tRp3375
tp3376
a(S'YP_003043906.1'
p3377
g3
(g5
S'._og)\xdc\xa3@'
tRp3378
tp3379
a(S'YP_003046649.1'
p3380
g3
(g5
S'}\xe4\xbd\xfe\xe9\xe5\xa3@'
tRp3381
tp3382
a(S'YP_003044289.1'
p3383
g3
(g5
S'!\x90\x11i*\xf9\xa3@'
tRp3384
tp3385
a(S'YP_003047055.1'
p3386
g3
(g5
S'I\x825\xb4k\x01\xa4@'
tRp3387
tp3388
a(S'YP_003046223.1'
p3389
g3
(g5
S'\x04\xac\xde]\xc6\t\xa4@'
tRp3390
tp3391
a(S'YP_003047014.1'
p3392
g3
(g5
S'\x11\xc4\x1fk\xbe{\xa4@'
tRp3393
tp3394
a(S'YP_003046263.1'
p3395
g3
(g5
S'\xc8\xad!\x1d\x83\x89\xa4@'
tRp3396
tp3397
a(S'YP_003047211.1'
p3398
g3
(g5
S'vj\xc5M\x9a\x90\xa4@'
tRp3399
tp3400
a(S'YP_003043237.1'
p3401
g3
(g5
S'Q)1\x01\x0b\x96\xa4@'
tRp3402
tp3403
a(S'YP_003043842.1'
p3404
g3
(g5
S'\xeb/\xeb\xce\x01\x97\xa4@'
tRp3405
tp3406
a(S'YP_003047031.1'
p3407
g3
(g5
S'\xb2;hSO\xb7\xa4@'
tRp3408
tp3409
a(S'YP_003043407.1'
p3410
g3
(g5
S'\x9at\xcd\xbb\x87\xe1\xa4@'
tRp3411
tp3412
a(S'YP_003044476.1'
p3413
g3
(g5
S'J\xc4\xff\xe2\xf6\xf3\xa4@'
tRp3414
tp3415
a(S'YP_003047295.1'
p3416
g3
(g5
S'\x95\xb7\x9f\xfd)\x10\xa5@'
tRp3417
tp3418
a(S'YP_003043389.1'
p3419
g3
(g5
S'\xd7?\xc8S\x9b\x1a\xa5@'
tRp3420
tp3421
a(S'YP_003044428.1'
p3422
g3
(g5
S"\xbb8'S\x81\x1d\xa5@"
tRp3423
tp3424
a(S'YP_003046824.1'
p3425
g3
(g5
S'\xdfhH\n\xc3-\xa5@'
tRp3426
tp3427
a(S'YP_003045559.1'
p3428
g3
(g5
S'\xc85\xc1#Gj\xa5@'
tRp3429
tp3430
a(S'YP_003047000.1'
p3431
g3
(g5
S'\xacDm6\nq\xa5@'
tRp3432
tp3433
a(S'YP_003043266.1'
p3434
g3
(g5
S'0dt\x03\xf6\xb6\xa5@'
tRp3435
tp3436
a(S'YP_003046275.1'
p3437
g3
(g5
S'\x11\x8a8\x0b\xc5\xbe\xa5@'
tRp3438
tp3439
a(S'YP_003046342.1'
p3440
g3
(g5
S'`2\x84\x07\xaa\xce\xa5@'
tRp3441
tp3442
a(S'YP_003046797.1'
p3443
g3
(g5
S'\x7f\xd6e\xf2\x84\xf9\xa5@'
tRp3444
tp3445
a(S'YP_003047017.1'
p3446
g3
(g5
S'mO\xf2\xaf\x98\x02\xa6@'
tRp3447
tp3448
a(S'YP_003044447.1'
p3449
g3
(g5
S'\xf9r9\x19\xee\x02\xa6@'
tRp3450
tp3451
a(S'YP_003045639.1'
p3452
g3
(g5
S'\xbb\x18C\x16o\x04\xa6@'
tRp3453
tp3454
a(S'YP_003044111.1'
p3455
g3
(g5
S'(\xce\xf8\x9fU4\xa6@'
tRp3456
tp3457
a(S'YP_003045684.1'
p3458
g3
(g5
S'\xf0t\x1c\xf85D\xa6@'
tRp3459
tp3460
a(S'YP_003043919.1'
p3461
g3
(g5
S'f\x0f\x96f\x08L\xa6@'
tRp3462
tp3463
a(S'YP_003044150.1'
p3464
g3
(g5
S'\x1c\x19p\xf2\xe3Z\xa6@'
tRp3465
tp3466
a(S'YP_003047018.1'
p3467
g3
(g5
S'\x9f\xb5\xfe\x02\x86d\xa6@'
tRp3468
tp3469
a(S'YP_003046348.1'
p3470
g3
(g5
S'\xfe\xe6"~\xac\x8d\xa6@'
tRp3471
tp3472
a(S'YP_003046803.1'
p3473
g3
(g5
S':\xb908\x00\x97\xa6@'
tRp3474
tp3475
a(S'YP_003047265.1'
p3476
g3
(g5
S'\xe3E~\xaa\x14\xa2\xa6@'
tRp3477
tp3478
a(S'YP_003043325.1'
p3479
g3
(g5
S'\xd5\xdcA0S\xb7\xa6@'
tRp3480
tp3481
a(S'YP_003044448.1'
p3482
g3
(g5
S'\xd0\x7f\xee\xe2\xad\xba\xa6@'
tRp3483
tp3484
a(S'YP_003046795.1'
p3485
g3
(g5
S'\xd8\x8a\x99\xd1\xa7\xc9\xa6@'
tRp3486
tp3487
a(S'YP_003044074.1'
p3488
g3
(g5
S'y\x823[D\t\xa7@'
tRp3489
tp3490
a(S'YP_003047037.1'
p3491
g3
(g5
S'\xe0\x07\xb1\xef)\x16\xa7@'
tRp3492
tp3493
a(S'YP_003046765.1'
p3494
g3
(g5
S'\xa7l\xa3GU\x16\xa7@'
tRp3495
tp3496
a(S'YP_003043701.1'
p3497
g3
(g5
S'\xea\xfd\x168\xeb.\xa7@'
tRp3498
tp3499
a(S'YP_003046395.1'
p3500
g3
(g5
S'\xba\x9aP?@/\xa7@'
tRp3501
tp3502
a(S'YP_003047015.1'
p3503
g3
(g5
S'\x90\x8b\xe8 \xed?\xa7@'
tRp3504
tp3505
a(S'YP_003045413.1'
p3506
g3
(g5
S'O2u\xb9\xfb\x8a\xa7@'
tRp3507
tp3508
a(S'YP_003045402.1'
p3509
g3
(g5
S'\x00\x95\xf9j\x00\xb4\xa7@'
tRp3510
tp3511
a(S'YP_003043827.1'
p3512
g3
(g5
S'\x98\x17L\xf7 \xe5\xa7@'
tRp3513
tp3514
a(S'YP_003044134.1'
p3515
g3
(g5
S'\xb2\xd1\x88\xcc\xa1\xe5\xa7@'
tRp3516
tp3517
a(S'YP_003043986.1'
p3518
g3
(g5
S'\xf6B 5^\xe6\xa7@'
tRp3519
tp3520
a(S'YP_003043618.1'
p3521
g3
(g5
S'\x07p\xa6\xb4o`\xa8@'
tRp3522
tp3523
a(S'YP_003044129.1'
p3524
g3
(g5
S'\nb\x9d.\\v\xa8@'
tRp3525
tp3526
a(S'YP_003043614.1'
p3527
g3
(g5
S'\n?^\xcf4\x85\xa8@'
tRp3528
tp3529
a(S'YP_003046809.1'
p3530
g3
(g5
S'\x19\xc4\xfd\xb4\xb1\xa3\xa8@'
tRp3531
tp3532
a(S'YP_003046333.1'
p3533
g3
(g5
S'\x1a\x01\x97\xf2\x83\xc0\xa8@'
tRp3534
tp3535
a(S'YP_003047209.1'
p3536
g3
(g5
S'\xf3\xf4{\xa0\xb9\xd3\xa8@'
tRp3537
tp3538
a(S'YP_003044826.1'
p3539
g3
(g5
S'F\xf2\x85+\xc4\xd5\xa8@'
tRp3540
tp3541
a(S'YP_003045440.1'
p3542
g3
(g5
S'\xc6\xfen\x12\xc4\xf4\xa8@'
tRp3543
tp3544
a(S'YP_003046827.1'
p3545
g3
(g5
S'\xa0\xdb\x0f\xcaK\xfe\xa8@'
tRp3546
tp3547
a(S'YP_003046647.1'
p3548
g3
(g5
S'\xb2_\xc8$B\x03\xa9@'
tRp3549
tp3550
a(S'YP_003043342.1'
p3551
g3
(g5
S'\x17\x93\xad\xcbT\x0e\xa9@'
tRp3552
tp3553
a(S'YP_003043393.1'
p3554
g3
(g5
S'V!x&\xc3\x82\xa9@'
tRp3555
tp3556
a(S'YP_003045590.1'
p3557
g3
(g5
S'\xc3\x8c\x9b[W\xb7\xa9@'
tRp3558
tp3559
a(S'YP_003046835.1'
p3560
g3
(g5
S'6\x85\xd1+\xae\x0e\xaa@'
tRp3561
tp3562
a(S'YP_003045563.1'
p3563
g3
(g5
S'\xb8\xe5\x813v\x18\xaa@'
tRp3564
tp3565
a(S'YP_003043305.1'
p3566
g3
(g5
S'\x13\x86z\xb9;G\xaa@'
tRp3567
tp3568
a(S'YP_003046794.1'
p3569
g3
(g5
S'\x06L\xe8\xa8\xbb`\xaa@'
tRp3570
tp3571
a(S'YP_003044886.1'
p3572
g3
(g5
S'<\xa6[w\xb0\xcb\xaa@'
tRp3573
tp3574
a(S'YP_003046818.1'
p3575
g3
(g5
S'\xed\xa6\xe5\x95UE\xab@'
tRp3576
tp3577
a(S'YP_003045581.1'
p3578
g3
(g5
S'IB\xcc\xb2\xcal\xab@'
tRp3579
tp3580
a(S'YP_003046385.1'
p3581
g3
(g5
S'-~\x1d\xdb\xa1\xec\xab@'
tRp3582
tp3583
a(S'YP_003045507.1'
p3584
g3
(g5
S'\xc22I\xfc\xca\xfa\xab@'
tRp3585
tp3586
a(S'YP_003043613.1'
p3587
g3
(g5
S'y\xa9\x07\xd0[\x01\xac@'
tRp3588
tp3589
a(S'YP_003046338.1'
p3590
g3
(g5
S'G\xb5\xddd;d\xac@'
tRp3591
tp3592
a(S'YP_003046355.1'
p3593
g3
(g5
S'\x15\xac\xa9\x8a)t\xac@'
tRp3594
tp3595
a(S'YP_003045456.1'
p3596
g3
(g5
S'oO\xf1\xd8\x0f\xa7\xac@'
tRp3597
tp3598
a(S'YP_003044290.1'
p3599
g3
(g5
S'<\xc4\x15|I\xd0\xac@'
tRp3600
tp3601
a(S'YP_003046347.1'
p3602
g3
(g5
S'\xc99>\xfe\xf3\xd2\xac@'
tRp3603
tp3604
a(S'YP_003043859.1'
p3605
g3
(g5
S'\xe4\x9dv@\x86\xe2\xac@'
tRp3606
tp3607
a(S'YP_003046343.1'
p3608
g3
(g5
S'\x04\xd13\x977\x07\xad@'
tRp3609
tp3610
a(S'YP_003043425.1'
p3611
g3
(g5
S'2t\x88\xbeU\x1d\xad@'
tRp3612
tp3613
a(S'YP_003046357.1'
p3614
g3
(g5
S'\xec\xc9\xd8n\x047\xad@'
tRp3615
tp3616
a(S'YP_003045953.1'
p3617
g3
(g5
S'\x02\xb6\xe3\x19\x01\x95\xad@'
tRp3618
tp3619
a(S'YP_003046791.1'
p3620
g3
(g5
S'\xcd\x0eQ\x12\xe5\xfb\xad@'
tRp3621
tp3622
a(S'YP_003046492.1'
p3623
g3
(g5
S'?_\x8e\xba%\xa9\xae@'
tRp3624
tp3625
a(S'YP_003047032.1'
p3626
g3
(g5
S'\xa4\xddt\xb9k~\xaf@'
tRp3627
tp3628
a(S'YP_003045600.1'
p3629
g3
(g5
S'[\xd5u\xc5\xd3\x8f\xaf@'
tRp3630
tp3631
a(S'YP_003047184.1'
p3632
g3
(g5
S'\xdb4\xc5Bf\x9c\xaf@'
tRp3633
tp3634
a(S'YP_003046353.1'
p3635
g3
(g5
S'\x80wA?-\t\xb0@'
tRp3636
tp3637
a(S'YP_003044306.1'
p3638
g3
(g5
S'9\xc7i\xaa\x8c3\xb0@'
tRp3639
tp3640
a(S'YP_003046526.1'
p3641
g3
(g5
S',\xf1|5ZM\xb0@'
tRp3642
tp3643
a(S'YP_003044811.1'
p3644
g3
(g5
S'6\xd8\x94:7l\xb0@'
tRp3645
tp3646
a(S'YP_003046796.1'
p3647
g3
(g5
S'\x07\xa02\xceC\x85\xb0@'
tRp3648
tp3649
a(S'YP_003046341.1'
p3650
g3
(g5
S'\x1a3\x1c\xf1\xd0\xa4\xb0@'
tRp3651
tp3652
a(S'YP_003044308.1'
p3653
g3
(g5
S'\xc5b\xb2RI\xb4\xb0@'
tRp3654
tp3655
a(S'YP_003046349.1'
p3656
g3
(g5
S'R\xa3\xa6/7\xb9\xb0@'
tRp3657
tp3658
a(S'YP_003044927.1'
p3659
g3
(g5
S'2\x8fp6\xd7\xbb\xb0@'
tRp3660
tp3661
a(S'YP_003043233.1'
p3662
g3
(g5
S'\x0e\xe6\xf7\x80L\xcc\xb0@'
tRp3663
tp3664
a(S'YP_003046576.1'
p3665
g3
(g5
S'\x0cf5&J\xd5\xb0@'
tRp3666
tp3667
a(S'YP_003047033.1'
p3668
g3
(g5
S'\xa3n\x10\xf0\x86\xd7\xb0@'
tRp3669
tp3670
a(S'YP_003047016.1'
p3671
g3
(g5
S'\x10\xc1\xe75w,\xb1@'
tRp3672
tp3673
a(S'YP_003046346.1'
p3674
g3
(g5
S'\xa9!R}\xf07\xb1@'
tRp3675
tp3676
a(S'YP_003046278.1'
p3677
g3
(g5
S'"x\xd9\r,;\xb1@'
tRp3678
tp3679
a(S'YP_003043302.1'
p3680
g3
(g5
S'`(\xa4\xfd\xf2T\xb1@'
tRp3681
tp3682
a(S'YP_003043303.1'
p3683
g3
(g5
S'\xd6ER\xee\xa7a\xb1@'
tRp3684
tp3685
a(S'YP_003044179.1'
p3686
g3
(g5
S'M<D\xad^f\xb1@'
tRp3687
tp3688
a(S'YP_003044426.1'
p3689
g3
(g5
S'T\x04\x8f\x9d\x1e\x8e\xb1@'
tRp3690
tp3691
a(S'YP_003046792.1'
p3692
g3
(g5
S'\xa4n\xd7({\xb2\xb1@'
tRp3693
tp3694
a(S'YP_003046281.1'
p3695
g3
(g5
S'\x8f\x95\x80+\xe3\xbe\xb1@'
tRp3696
tp3697
a(S'YP_003046685.1'
p3698
g3
(g5
S'\xaa\xa3\x0b\xc3\x14\xd7\xb1@'
tRp3699
tp3700
a(S'YP_003045308.1'
p3701
g3
(g5
S'\xd6\xac\xcd\xbc8\x19\xb2@'
tRp3702
tp3703
a(S'YP_003046004.1'
p3704
g3
(g5
S'\xeb@9G\xd9:\xb2@'
tRp3705
tp3706
a(S'YP_003047034.1'
p3707
g3
(g5
S'\xbck\xa2\xf5yI\xb2@'
tRp3708
tp3709
a(S'YP_003044133.1'
p3710
g3
(g5
S'\x93L\x8f8\xd3a\xb2@'
tRp3711
tp3712
a(S'YP_003046304.1'
p3713
g3
(g5
S'\x8c$\xb6\xdd\x80\x8c\xb2@'
tRp3714
tp3715
a(S'YP_003043925.1'
p3716
g3
(g5
S'!9\xe5\x1b\x0b\xaf\xb2@'
tRp3717
tp3718
a(S'YP_003043243.1'
p3719
g3
(g5
S'e3\xe3Zk\xd3\xb2@'
tRp3720
tp3721
a(S'YP_003043699.1'
p3722
g3
(g5
S'\xde\xb4\xdf\x9b_\x07\xb3@'
tRp3723
tp3724
a(S'YP_003044110.1'
p3725
g3
(g5
S'vH\xb3#\xcd\x02\xb4@'
tRp3726
tp3727
a(S'YP_003043304.1'
p3728
g3
(g5
S'r\x18\xaf\xb4uo\xb4@'
tRp3729
tp3730
a(S'YP_003045687.1'
p3731
g3
(g5
S'&\xc6u\xff\x17v\xb4@'
tRp3732
tp3733
a(S'YP_003043373.1'
p3734
g3
(g5
S'K\xd4a^\xa4\x81\xb4@'
tRp3735
tp3736
a(S'YP_003046468.1'
p3737
g3
(g5
S'G\xc5[5\x18\x8f\xb4@'
tRp3738
tp3739
a(S'YP_003045960.1'
p3740
g3
(g5
S'F\x01SqI\xb7\xb4@'
tRp3741
tp3742
a(S'YP_003047050.1'
p3743
g3
(g5
S'\x11\xd2\xacN\xe3\xf6\xb4@'
tRp3744
tp3745
a(S'YP_003046120.1'
p3746
g3
(g5
S'\x96\xb58\xf6\xd0E\xb5@'
tRp3747
tp3748
a(S'YP_003043359.1'
p3749
g3
(g5
S'\xab\xb0\xf97r\x93\xb5@'
tRp3750
tp3751
a(S'YP_003045633.1'
p3752
g3
(g5
S'\xab\xc1\xdf\x93H\x99\xb5@'
tRp3753
tp3754
a(S'YP_003046929.1'
p3755
g3
(g5
S'\xb5)g\xdf\x8d2\xb6@'
tRp3756
tp3757
a(S'YP_003044512.1'
p3758
g3
(g5
S'W \xee\x16|\xb0\xb6@'
tRp3759
tp3760
a(S'YP_003046377.1'
p3761
g3
(g5
S';\x18j\xca\x08\xc1\xb6@'
tRp3762
tp3763
a(S'YP_003043397.1'
p3764
g3
(g5
S'\xb1?t\x01\x16]\xb7@'
tRp3765
tp3766
a(S'YP_003045104.1'
p3767
g3
(g5
S'<\xf7\xe3q\xeb\x83\xb7@'
tRp3768
tp3769
a(S'YP_003046331.1'
p3770
g3
(g5
S'\xc2\x9cm\xf0\xab\xc4\xb8@'
tRp3771
tp3772
a(S'YP_003046350.1'
p3773
g3
(g5
S'\xea\xf6\x16\xd0\t+\xb9@'
tRp3774
tp3775
a(S'YP_003044152.1'
p3776
g3
(g5
S'\xb8wWP\x9fk\xb9@'
tRp3777
tp3778
a(S'YP_003045944.1'
p3779
g3
(g5
S'\xf0\x89U\xf3\xd4\xdb\xb9@'
tRp3780
tp3781
a(S'YP_003047237.1'
p3782
g3
(g5
S'\x82\xa4\xebZ*@\xba@'
tRp3783
tp3784
a(S'YP_003045275.1'
p3785
g3
(g5
S'\xdf\xe1\xc2\x16\xcdD\xba@'
tRp3786
tp3787
a(S'YP_003046344.1'
p3788
g3
(g5
S'\x12\x8b\x18\x16:h\xba@'
tRp3789
tp3790
a(S'YP_003043257.1'
p3791
g3
(g5
S'\xd6\xfa\x113\xd5E\xbb@'
tRp3792
tp3793
a(S'YP_003043795.1'
p3794
g3
(g5
S'\x96\xb5\xb7W\x16\xcc\xbc@'
tRp3795
tp3796
a(S'YP_003044309.1'
p3797
g3
(g5
S'\x904\xaa\x11O\xbd\xbd@'
tRp3798
tp3799
a(S'YP_003045932.1'
p3800
g3
(g5
S'\xe6:\xfe\xd3\xbfG\xbe@'
tRp3801
tp3802
a(S'YP_003046334.1'
p3803
g3
(g5
S'\x98H\xbb\xb7^W\xbe@'
tRp3804
tp3805
a(S'YP_003045945.1'
p3806
g3
(g5
S'\xd0D1\xe9%\x9b\xbe@'
tRp3807
tp3808
a(S'YP_003046882.1'
p3809
g3
(g5
S'\xd09m\xe2J\x08\xbf@'
tRp3810
tp3811
a(S'YP_003043581.1'
p3812
g3
(g5
S']\xc4\xd6|\x93K\xbf@'
tRp3813
tp3814
a(S'YP_003046376.1'
p3815
g3
(g5
S'\x985U\xd1\tP\xbf@'
tRp3816
tp3817
a(S'YP_003046217.1'
p3818
g3
(g5
S'\xb7\xcfz\x81)\x8f\xbf@'
tRp3819
tp3820
a(S'YP_003043396.1'
p3821
g3
(g5
S"\x86'\x9cw\xec\x91\xbf@"
tRp3822
tp3823
a(S'YP_003046823.1'
p3824
g3
(g5
S'R\xa9U\xf7\xab\x95\xbf@'
tRp3825
tp3826
a(S'YP_003047240.1'
p3827
g3
(g5
S'\xff\x9fU\xea9\x19\xc0@'
tRp3828
tp3829
a(S'YP_003045505.1'
p3830
g3
(g5
S'\xba\xdf\xcb\x1d\x9b\xc8\xc0@'
tRp3831
tp3832
a(S'YP_003045109.1'
p3833
g3
(g5
S'\xb9\xf4\xd0\x18{\xcb\xc1@'
tRp3834
tp3835
a(S'YP_003046332.1'
p3836
g3
(g5
S'\xb0\x8a\x85\xceJb\xc3@'
tRp3837
tp3838
a(S'YP_003045813.1'
p3839
g3
(g5
S'`A\xe0\xc9<\x00\xc4@'
tRp3840
tp3841
a(S'YP_003044303.1'
p3842
g3
(g5
S'j;Q\t\xec#\xc4@'
tRp3843
tp3844
a(S'YP_003046352.1'
p3845
g3
(g5
S'\xb6\xa7y\x8c\x01g\xc4@'
tRp3846
tp3847
a(S'YP_003044990.1'
p3848
g3
(g5
S'\x01\xe3\x13|\x85\xf4\xca@'
tRp3849
tp3850
a(S'YP_003047035.1'
p3851
g3
(g5
S'h\x12\xe9u\xf9g\xcb@'
tRp3852
tp3853
a(S'YP_003046994.1'
p3854
g3
(g5
S'\\\x91ju\x06\xba\xcd@'
tRp3855
tp3856
a(S'YP_003044945.1'
p3857
g3
(g5
S'\x00\x94\xeeU~*\xd0@'
tRp3858
tp3859
a(S'YP_003046339.1'
p3860
g3
(g5
S'\xd9\xc0\xa8=\xb2\xd7\xd0@'
tRp3861
tp3862
a(S'YP_003045506.1'
p3863
g3
(g5
S'NzJ\xa8@\xc8\xd2@'
tRp3864
tp3865
a(S'YP_003046375.1'
p3866
g3
(g5
S'\x87\x80\t\xc4\x81\xcf\xd6@'
tRp3867
tp3868
a(S'YP_003047029.1'
p3869
g3
(g5
S'F\xa0\xcdaL[\xd8@'
tRp3870
tp3871
a.