(lp1
(S'YP_003046514.1'
p2
cnumpy.core.multiarray
scalar
p3
(cnumpy
dtype
p4
(S'f8'
I0
I1
tRp5
(I3
S'<'
NNNI-1
I-1
I0
tbS'\tbU\x90\x08i\x0c@'
tRp6
tp7
a(S'YP_003044235.1'
p8
g3
(g5
S'\xef\n\xc86\xd6a\x15@'
tRp9
tp10
a(S'YP_003047377.1'
p11
g3
(g5
S'\xc0\xb6\xb1T\x01u\x15@'
tRp12
tp13
a(S'YP_003045326.1'
p14
g3
(g5
S']\xe0\x8e\xa7\xda\x02\x18@'
tRp15
tp16
a(S'YP_003043984.1'
p17
g3
(g5
S'\xdf\x14\xa1\x1d\x96\xbb\x18@'
tRp18
tp19
a(S'YP_003045899.1'
p20
g3
(g5
S'9\xed\xbc\xc2\x0b~\x1a@'
tRp21
tp22
a(S'YP_003045855.1'
p23
g3
(g5
S'\xf1\xad\x9b\xa0\x87\xd9\x1e@'
tRp24
tp25
a(S'YP_003043825.1'
p26
g3
(g5
S'$\xd2\xd6]\xccW\x1f@'
tRp27
tp28
a(S'YP_003045167.1'
p29
g3
(g5
S'a\xc4VI\xe0y @'
tRp30
tp31
a(S'YP_003044014.1'
p32
g3
(g5
S'\xc4c\xa0\xb1.\xd4 @'
tRp33
tp34
a(S'YP_003043394.1'
p35
g3
(g5
S'<\xa7\xb4\x10>e!@'
tRp36
tp37
a(S'YP_003047288.1'
p38
g3
(g5
S'\xd1Z\x1a\xab\x8ef!@'
tRp39
tp40
a(S'YP_003044634.1'
p41
g3
(g5
S'@nbe\xe4\x11"@'
tRp42
tp43
a(S'YP_003043979.1'
p44
g3
(g5
S'\xb2\xfeWT\xf5\xaf"@'
tRp45
tp46
a(S'YP_003044640.1'
p47
g3
(g5
S'\xa6\xe0\xd1\x00\xfd\xbd"@'
tRp48
tp49
a(S'YP_003045887.1'
p50
g3
(g5
S'\x9b"\x89\x8bK\xff"@'
tRp51
tp52
a(S'YP_003047061.1'
p53
g3
(g5
S'\x8akJ5\xaal#@'
tRp54
tp55
a(S'YP_003045330.1'
p56
g3
(g5
S'\xc1\xbfJ\xde\x19\x91#@'
tRp57
tp58
a(S'YP_003044194.1'
p59
g3
(g5
S'\xbc\xf2~\xb9\xd3\x16$@'
tRp60
tp61
a(S'YP_003045755.1'
p62
g3
(g5
S'&6g\xad\xbb\xf0$@'
tRp63
tp64
a(S'YP_003046902.1'
p65
g3
(g5
S'\xa6\xe3\xd8P \xf6$@'
tRp66
tp67
a(S'YP_003047113.1'
p68
g3
(g5
S'\xc3\x85\xf0\xce\xd7\x10%@'
tRp69
tp70
a(S'YP_003045299.1'
p71
g3
(g5
S'C\xcb\x8f\x1b\x9f\x18%@'
tRp72
tp73
a(S'YP_003047009.1'
p74
g3
(g5
S'\x0c\x97\xac\xd3]\x96&@'
tRp75
tp76
a(S'YP_003045471.1'
p77
g3
(g5
S'\xcfb\x9c\x8f\r\x9b&@'
tRp78
tp79
a(S'YP_003043314.1'
p80
g3
(g5
S"\x00\xce\x8c\xac\xdf\x94'@"
tRp81
tp82
a(S'YP_003045693.1'
p83
g3
(g5
S"c\x13\x8d\x95\xe0\xda'@"
tRp84
tp85
a(S'YP_003045239.1'
p86
g3
(g5
S"}\x8e\x92\t#\xf5'@"
tRp87
tp88
a(S'YP_003046726.1'
p89
g3
(g5
S'9\x8f#N\x19\x0f(@'
tRp90
tp91
a(S'YP_003046643.1'
p92
g3
(g5
S'6\x05\x1d\xff\xec\x18(@'
tRp93
tp94
a(S'YP_003043754.1'
p95
g3
(g5
S'.\xe0\x19\xa6H\x8c(@'
tRp96
tp97
a(S'YP_003046667.1'
p98
g3
(g5
S'\xd9\xee:\x90\xe9\xbd(@'
tRp99
tp100
a(S'YP_003044417.1'
p101
g3
(g5
S'8\xbc\xeft!P)@'
tRp102
tp103
a(S'YP_003044537.1'
p104
g3
(g5
S'>.x\x7f\xb8\x89)@'
tRp105
tp106
a(S'YP_003045075.1'
p107
g3
(g5
S'\xc3jq\xb81\xa0*@'
tRp108
tp109
a(S'YP_003047010.1'
p110
g3
(g5
S'\x12v\xd0\xa7\xa59,@'
tRp111
tp112
a(S'YP_003046781.1'
p113
g3
(g5
S'\xbc\xa3\xeaP\x19k,@'
tRp114
tp115
a(S'YP_003044137.1'
p116
g3
(g5
S's\xe8\xe2|\xe0g-@'
tRp117
tp118
a(S'YP_003047006.1'
p119
g3
(g5
S'\xa6e\xe2\x85\x9c\xe1-@'
tRp120
tp121
a(S'YP_003045981.1'
p122
g3
(g5
S'\x12\x98\x0bZ\xe2\x04/@'
tRp123
tp124
a(S'YP_003045856.1'
p125
g3
(g5
S';\x18\xedi\xe7H0@'
tRp126
tp127
a(S'YP_003043736.1'
p128
g3
(g5
S'\xa8\xe2\x90\xcc\xbb]0@'
tRp129
tp130
a(S'YP_003046759.1'
p131
g3
(g5
S'\xbd0\x93FQs0@'
tRp132
tp133
a(S'YP_003045631.1'
p134
g3
(g5
S'\x14\x8d\xa5\xb5\xae\xaa0@'
tRp135
tp136
a(S'YP_003043708.1'
p137
g3
(g5
S'x\xc5qu@\x181@'
tRp138
tp139
a(S'YP_003047381.1'
p140
g3
(g5
S'\xa4}6\xa8xM1@'
tRp141
tp142
a(S'YP_003043692.1'
p143
g3
(g5
S'\xce\xbe\xf9\xb1^\xb01@'
tRp144
tp145
a(S'YP_003047354.1'
p146
g3
(g5
S'}\x1d\x07\xe0^\xe51@'
tRp147
tp148
a(S'YP_003043503.1'
p149
g3
(g5
S'1\xc6|\xbe\xea\x182@'
tRp150
tp151
a(S'YP_003044960.1'
p152
g3
(g5
S'<\xe6\xb9+\xaf\xbd2@'
tRp153
tp154
a(S'YP_003044607.1'
p155
g3
(g5
S'\x7f\x800\x98\xe1\xed2@'
tRp156
tp157
a(S'YP_003045344.1'
p158
g3
(g5
S'*Tps!\x933@'
tRp159
tp160
a(S'YP_003047413.1'
p161
g3
(g5
S'\xdfp\xe4\xf4\xe6\x174@'
tRp162
tp163
a(S'YP_003043494.1'
p164
g3
(g5
S'\x17\xd1A\x9fZx4@'
tRp165
tp166
a(S'YP_003046666.1'
p167
g3
(g5
S'I8\x19\x809\x9c4@'
tRp168
tp169
a(S'YP_003046394.1'
p170
g3
(g5
S'\xadr\x0c\xbc)\x055@'
tRp171
tp172
a(S'YP_003045740.1'
p173
g3
(g5
S'Tgh\x80\xa6.5@'
tRp174
tp175
a(S'YP_003044092.1'
p176
g3
(g5
S'\xa1\xdb\xd1\x98\xa745@'
tRp177
tp178
a(S'YP_003045527.1'
p179
g3
(g5
S'\xd5 .\xc5\x88u5@'
tRp180
tp181
a(S'YP_003047373.1'
p182
g3
(g5
S'*\x86\xf3\xa1\xfd\xbb5@'
tRp183
tp184
a(S'YP_003043249.1'
p185
g3
(g5
S'\\\xcf\xac#\xe3\xcf5@'
tRp186
tp187
a(S'YP_003046159.1'
p188
g3
(g5
S'\xdf\xf5X\xd5\x9d:6@'
tRp189
tp190
a(S'YP_003046847.1'
p191
g3
(g5
S'\xfd\xbe\x93\xcee\x9c7@'
tRp192
tp193
a(S'YP_003044391.1'
p194
g3
(g5
S'P@\xc2>\xf3\xad7@'
tRp195
tp196
a(S'YP_003045311.1'
p197
g3
(g5
S'\x85xv\x9f\xaeV8@'
tRp198
tp199
a(S'YP_003045872.1'
p200
g3
(g5
S'\x88*t[4\xd88@'
tRp201
tp202
a(S'YP_003044070.1'
p203
g3
(g5
S'+x\xba\xbd\xbcC9@'
tRp204
tp205
a(S'YP_003045290.1'
p206
g3
(g5
S'\xdfi%\xd4s\xc79@'
tRp207
tp208
a(S'YP_003044602.1'
p209
g3
(g5
S'K\xb1\x10\x0c|,:@'
tRp210
tp211
a(S'YP_003044753.1'
p212
g3
(g5
S'\x11\x1d\x1db\xd0C:@'
tRp213
tp214
a(S'YP_003046603.1'
p215
g3
(g5
S'\xf3o\x89_\xb9R:@'
tRp216
tp217
a(S'YP_003044498.1'
p218
g3
(g5
S'\xa6\x84\x0e\r^X:@'
tRp219
tp220
a(S'YP_003045013.1'
p221
g3
(g5
S'\xc2\x19S\xd3\xf1q:@'
tRp222
tp223
a(S'YP_003046329.1'
p224
g3
(g5
S'\xb1\xd9\r\xd4[\x99:@'
tRp225
tp226
a(S'YP_003044291.1'
p227
g3
(g5
S'\xc0\x82\xea\x06\xbd\xcd:@'
tRp228
tp229
a(S'YP_003044563.1'
p230
g3
(g5
S'F\xc0%\x07\xfcS;@'
tRp231
tp232
a(S'YP_003043673.1'
p233
g3
(g5
S'\xded\xca\x1f\x9d\xbd<@'
tRp234
tp235
a(S'YP_003044216.1'
p236
g3
(g5
S'&A\x07\x1a?\xd5<@'
tRp237
tp238
a(S'YP_003046215.1'
p239
g3
(g5
S'B\x13\x1c\x10\xcd\x1c=@'
tRp240
tp241
a(S'YP_003043759.1'
p242
g3
(g5
S'\xe0 \x9c8\x02X=@'
tRp243
tp244
a(S'YP_003047120.1'
p245
g3
(g5
S'\xfd\xfb\x15\xd5\xa4\x7f=@'
tRp246
tp247
a(S'YP_003046549.1'
p248
g3
(g5
S'Y\x0e\x1a4}}>@'
tRp249
tp250
a(S'YP_003043506.1'
p251
g3
(g5
S'-\xec\x17\xe9\r\xed>@'
tRp252
tp253
a(S'YP_003044294.1'
p254
g3
(g5
S'J\xf5\x8d[\xc7\xa6?@'
tRp255
tp256
a(S'YP_003043418.1'
p257
g3
(g5
S'\x8f\x89!<\x980@@'
tRp258
tp259
a(S'YP_003043561.1'
p260
g3
(g5
S'\xb2\x17c\xb6\x19z@@'
tRp261
tp262
a(S'YP_003044910.1'
p263
g3
(g5
S'C\x9e\xd5H\xdb A@'
tRp264
tp265
a(S'YP_003043830.1'
p266
g3
(g5
S'\x93[1j\xf4DA@'
tRp267
tp268
a(S'YP_003046077.1'
p269
g3
(g5
S'\xa8\x91#\xe1\x94\x8dA@'
tRp270
tp271
a(S'YP_003046493.1'
p272
g3
(g5
S'\rW\xc9H\xfa\xdcA@'
tRp273
tp274
a(S'YP_003046125.1'
p275
g3
(g5
S'\xa1\xc6\xc6\x13)\xe8A@'
tRp276
tp277
a(S'YP_003047422.1'
p278
g3
(g5
S'\x8a\x1b\xd4phGB@'
tRp279
tp280
a(S'YP_003046729.1'
p281
g3
(g5
S'\xfdrw\x82\xe5[B@'
tRp282
tp283
a(S'YP_003044304.1'
p284
g3
(g5
S'\xe6_I\xbe\xd6oB@'
tRp285
tp286
a(S'YP_003044261.1'
p287
g3
(g5
S"\xe0\xfd'\xd7\xc0\xa2B@"
tRp288
tp289
a(S'YP_003045338.1'
p290
g3
(g5
S'\xf7\x1e\x97}\xb2\xc0B@'
tRp291
tp292
a(S'YP_003045438.1'
p293
g3
(g5
S'\x13\x1b!\x132\x1cC@'
tRp294
tp295
a(S'YP_003047049.1'
p296
g3
(g5
S'b\xad\x04\xe3\xc0(C@'
tRp297
tp298
a(S'YP_003043921.1'
p299
g3
(g5
S'@f\x9b\x82\xd81C@'
tRp300
tp301
a(S'YP_003043845.1'
p302
g3
(g5
S'\xead\x83\xc1\xda\xabC@'
tRp303
tp304
a(S'YP_003043385.1'
p305
g3
(g5
S'\x8f\x94Tm\x02\xe0C@'
tRp306
tp307
a(S'YP_003046830.1'
p308
g3
(g5
S'\xc7\x88\xa4\xa6\xd7\xe2C@'
tRp309
tp310
a(S'YP_003047244.1'
p311
g3
(g5
S'2~\x1fz\xb0\xe3C@'
tRp312
tp313
a(S'YP_003045247.1'
p314
g3
(g5
S'%m_cY\nD@'
tRp315
tp316
a(S'YP_003043591.1'
p317
g3
(g5
S' \xcb\x15\xa3\xa7[D@'
tRp318
tp319
a(S'YP_003044578.1'
p320
g3
(g5
S'=\x94~\x9dY\xa4D@'
tRp321
tp322
a(S'YP_003047251.1'
p323
g3
(g5
S'j\xf5\x8e\xf0x\xaeD@'
tRp324
tp325
a(S'YP_003044482.1'
p326
g3
(g5
S'\xffp\x1f6\xb4BE@'
tRp327
tp328
a(S'YP_003046499.1'
p329
g3
(g5
S'\x17\xc3\x1e\xa8h\x14F@'
tRp330
tp331
a(S'YP_003045425.1'
p332
g3
(g5
S'PB\xe2\xe4h\x88F@'
tRp333
tp334
a(S'YP_003044468.1'
p335
g3
(g5
S'W\x91\x1c\xd0\xeb\x8bF@'
tRp336
tp337
a(S'YP_003046983.1'
p338
g3
(g5
S'\x91)\x84&8gG@'
tRp339
tp340
a(S'YP_003045163.1'
p341
g3
(g5
S'l\x19G\x90\xd4tG@'
tRp342
tp343
a(S'YP_003044112.1'
p344
g3
(g5
S'\xb5\x87\x9c\xd45\x88G@'
tRp345
tp346
a(S'YP_003044400.1'
p347
g3
(g5
S'm-\xb1K\xf3%H@'
tRp348
tp349
a(S'YP_003044899.1'
p350
g3
(g5
S'\xc1\x01\xb5=7UI@'
tRp351
tp352
a(S'YP_003045049.1'
p353
g3
(g5
S'\xc1\xf2\xe2\x1aU\x7fI@'
tRp354
tp355
a(S'YP_003043951.1'
p356
g3
(g5
S'RJ\xca\x8d\xe9\x08J@'
tRp357
tp358
a(S'YP_003046416.1'
p359
g3
(g5
S'\x9a\x02:`o{J@'
tRp360
tp361
a(S'YP_003044335.1'
p362
g3
(g5
S'\xdf\xee\xab\xbdt\xb5J@'
tRp363
tp364
a(S'YP_003044269.1'
p365
g3
(g5
S'T\xc7\xde\x15\x9a\xd2J@'
tRp366
tp367
a(S'YP_003046374.1'
p368
g3
(g5
S'\xee\x824\xf0\x02\xd3J@'
tRp369
tp370
a(S'YP_003046627.1'
p371
g3
(g5
S'\xd079\x9dY\xbaK@'
tRp372
tp373
a(S'YP_003046853.1'
p374
g3
(g5
S'\xb8\x17\x1f\x96\xe3\x0cL@'
tRp375
tp376
a(S'YP_003046651.1'
p377
g3
(g5
S'\x03\x05\x83\xd9\xbddL@'
tRp378
tp379
a(S'YP_003043436.1'
p380
g3
(g5
S'V\xf4\x89\x96C\x9dL@'
tRp381
tp382
a(S'YP_003044138.1'
p383
g3
(g5
S'\xbe\x17\xf3q\xf8\xa1L@'
tRp384
tp385
a(S'YP_003046658.1'
p386
g3
(g5
S'\xa1\x8f\x92\xd2\xa6\xcdL@'
tRp387
tp388
a(S'YP_003045672.1'
p389
g3
(g5
S'\x06\xf0~\xb3\x9cYM@'
tRp390
tp391
a(S'YP_003046466.1'
p392
g3
(g5
S'tT\n\x06\x8e\x80M@'
tRp393
tp394
a(S'YP_003043552.1'
p395
g3
(g5
S'\xeb:`Jn\xb2M@'
tRp396
tp397
a(S'YP_003044779.1'
p398
g3
(g5
S'#H5\x86~\xb2M@'
tRp399
tp400
a(S'YP_003045092.1'
p401
g3
(g5
S'\x9d3\x00\xef\xbd\x1aN@'
tRp402
tp403
a(S'YP_003045685.1'
p404
g3
(g5
S'@u\x1d\x0c\xf4;N@'
tRp405
tp406
a(S'YP_003044102.1'
p407
g3
(g5
S'JO\xe2\xe6\xceaN@'
tRp408
tp409
a(S'YP_003044936.1'
p410
g3
(g5
S'6\x82\x88\xd7\xeasN@'
tRp411
tp412
a(S'YP_003044144.1'
p413
g3
(g5
S'k@n\x15\x87\xbbN@'
tRp414
tp415
a(S'YP_003046860.1'
p416
g3
(g5
S'v-\x00-R\xe0N@'
tRp417
tp418
a(S'YP_003043644.1'
p419
g3
(g5
S'\xe1\xf1\x14\x06@\xf1N@'
tRp420
tp421
a(S'YP_003044415.1'
p422
g3
(g5
S'\xdd\x1e\xc6\xda\x0e-O@'
tRp423
tp424
a(S'YP_003045865.1'
p425
g3
(g5
S'u\xbc\x1a\xa1\xcfFO@'
tRp426
tp427
a(S'YP_003045435.1'
p428
g3
(g5
S'fY\xb4\xdc\x9bOO@'
tRp429
tp430
a(S'YP_003046802.1'
p431
g3
(g5
S'vc$\xd4ZpO@'
tRp432
tp433
a(S'YP_003045046.1'
p434
g3
(g5
S'Fp^\x8b\xed+P@'
tRp435
tp436
a(S'YP_003046294.1'
p437
g3
(g5
S'\xddX1\xb0E\xa1P@'
tRp438
tp439
a(S'YP_003046459.1'
p440
g3
(g5
S't\xd4\xba\x91\xa9\xc2P@'
tRp441
tp442
a(S'YP_003047027.1'
p443
g3
(g5
S'\x16\xbb\xa7\xb6\xb3\x08Q@'
tRp444
tp445
a(S'YP_003046195.1'
p446
g3
(g5
S'\x01\xbe\nx\xf6\x0bQ@'
tRp447
tp448
a(S'YP_003045663.1'
p449
g3
(g5
S'\xf9\x0by\xbd,\x15Q@'
tRp450
tp451
a(S'YP_003044300.1'
p452
g3
(g5
S'K\x07\xc0\xa0\x08\\Q@'
tRp453
tp454
a(S'YP_003045159.1'
p455
g3
(g5
S':\x0f\xfc\xcc\x82\xa6Q@'
tRp456
tp457
a(S'YP_003043447.1'
p458
g3
(g5
S'(\x86!\xb2\xb9\xb7Q@'
tRp459
tp460
a(S'YP_003045534.1'
p461
g3
(g5
S'\xd2RP\x1e`\xbdQ@'
tRp462
tp463
a(S'YP_003043429.1'
p464
g3
(g5
S'\r\xbd\x85\x14\xf4\x01R@'
tRp465
tp466
a(S'YP_003043526.1'
p467
g3
(g5
S'\xc2\x93gu\xe5\rR@'
tRp468
tp469
a(S'YP_003044107.1'
p470
g3
(g5
S'\x9b\xa0\x7f3(DR@'
tRp471
tp472
a(S'YP_003043977.1'
p473
g3
(g5
S'\xc0\xd8\x90\x19\xfd`R@'
tRp474
tp475
a(S'YP_003044171.1'
p476
g3
(g5
S'W\r\xb8\x82!\xb6R@'
tRp477
tp478
a(S'YP_003047223.1'
p479
g3
(g5
S'\x07\x8e\x12\x0el\xd1R@'
tRp480
tp481
a(S'YP_003045296.1'
p482
g3
(g5
S'\x9f\xf82D\xad/S@'
tRp483
tp484
a(S'YP_003046145.1'
p485
g3
(g5
S'\x99\x8d\x19\xf6MCS@'
tRp486
tp487
a(S'YP_003046863.1'
p488
g3
(g5
S'\x1b\xebt\xb3\xbbxS@'
tRp489
tp490
a(S'YP_003044191.1'
p491
g3
(g5
S'\xf0\xd6m5b\x8aS@'
tRp492
tp493
a(S'YP_003045591.1'
p494
g3
(g5
S' \xa6r\xbd\xed\xbeS@'
tRp495
tp496
a(S'YP_003046926.1'
p497
g3
(g5
S'|\x10\x84\xda\x95\xcbS@'
tRp498
tp499
a(S'YP_003044889.1'
p500
g3
(g5
S'v]\xbb\x03\xc03T@'
tRp501
tp502
a(S'YP_003045279.1'
p503
g3
(g5
S'\xd6G\xad\xa37cT@'
tRp504
tp505
a(S'YP_003044787.1'
p506
g3
(g5
S'1K\x80`kdT@'
tRp507
tp508
a(S'YP_003044379.1'
p509
g3
(g5
S'\n\xf6A[\xc41U@'
tRp510
tp511
a(S'YP_003045051.1'
p512
g3
(g5
S'\xbcs\xff\xb7\xb6\\U@'
tRp513
tp514
a(S'YP_003045847.1'
p515
g3
(g5
S'\xf4\xd1\xeaS\x19iU@'
tRp516
tp517
a(S'YP_003043647.1'
p518
g3
(g5
S'K\xd9\x8d\x1d\x12\x88U@'
tRp519
tp520
a(S'YP_003046625.1'
p521
g3
(g5
S'\xbb\xe5\xc8\x1b\x83\xb2U@'
tRp522
tp523
a(S'YP_003046669.1'
p524
g3
(g5
S'\\\xa6\xb3G\x14\x00V@'
tRp525
tp526
a(S'YP_003046952.1'
p527
g3
(g5
S'\x83\xbet\t\xc5\x15V@'
tRp528
tp529
a(S'YP_003045003.1'
p530
g3
(g5
S'\xfa!e\xd0o1V@'
tRp531
tp532
a(S'YP_003047275.1'
p533
g3
(g5
S'\xa4\x915\x9d9>V@'
tRp534
tp535
a(S'YP_003045028.1'
p536
g3
(g5
S'\xe2\x86m4XtV@'
tRp537
tp538
a(S'YP_003045791.1'
p539
g3
(g5
S'\xad\xdc_\xcb\xd3GW@'
tRp540
tp541
a(S'YP_003046524.1'
p542
g3
(g5
S'\xdfKL[[\x9dW@'
tRp543
tp544
a(S'YP_003046396.1'
p545
g3
(g5
S'"\xfbFP\x1c\xbdW@'
tRp546
tp547
a(S'YP_003043849.1'
p548
g3
(g5
S'\xc7\x18\xe7y9\xcbW@'
tRp549
tp550
a(S'YP_003044546.1'
p551
g3
(g5
S'#tz\xe1\xde{X@'
tRp552
tp553
a(S'YP_003044173.1'
p554
g3
(g5
S'\xc6\xedtp\x12\x8cX@'
tRp555
tp556
a(S'YP_003046831.1'
p557
g3
(g5
S'\xd8\xc5\xad=\x8d\xdcX@'
tRp558
tp559
a(S'YP_003047374.1'
p560
g3
(g5
S'\xa1rY\x8e\x9a\xe5X@'
tRp561
tp562
a(S'YP_003047025.1'
p563
g3
(g5
S'\xde\x052\xaaR,Y@'
tRp564
tp565
a(S'YP_003044687.1'
p566
g3
(g5
S'\x18\xe1\xff\x8ef\xa3Y@'
tRp567
tp568
a(S'YP_003047170.1'
p569
g3
(g5
S'\x86N\xd2\xfe\x0e\xe5Y@'
tRp570
tp571
a(S'YP_003044478.1'
p572
g3
(g5
S'\xc0\x00\x87\x0b\xb0\x07Z@'
tRp573
tp574
a(S'YP_003044835.1'
p575
g3
(g5
S'\x11V\x81^Z\xb2Z@'
tRp576
tp577
a(S'YP_003047287.1'
p578
g3
(g5
S'v\x85{\xf0\x94\xe8Z@'
tRp579
tp580
a(S'YP_003046841.1'
p581
g3
(g5
S'b~h\xc6R\xf7Z@'
tRp582
tp583
a(S'YP_003044791.1'
p584
g3
(g5
S'\x050~,\xe4\x08[@'
tRp585
tp586
a(S'YP_003045550.1'
p587
g3
(g5
S"\xd7V\xd6>\xf7'\\@"
tRp588
tp589
a(S'YP_003045091.1'
p590
g3
(g5
S'\xa3\xaa!`28\\@'
tRp591
tp592
a(S'YP_003045790.1'
p593
g3
(g5
S'\xefCg\xa8\xa4`\\@'
tRp594
tp595
a(S'YP_003045578.1'
p596
g3
(g5
S'B?\xa0\x1a{e\\@'
tRp597
tp598
a(S'YP_003047355.1'
p599
g3
(g5
S'{\x18>u\xf3g\\@'
tRp600
tp601
a(S'YP_003046121.1'
p602
g3
(g5
S'\xe7>\xf9UK\x88\\@'
tRp603
tp604
a(S'YP_003043641.1'
p605
g3
(g5
S'|\x8c\xd0*\xf1\x8e\\@'
tRp606
tp607
a(S'YP_003046772.1'
p608
g3
(g5
S'\xc7\x1d\xf2\xe0:\xe2\\@'
tRp609
tp610
a(S'YP_003044510.1'
p611
g3
(g5
S'\xf2l\x91\xc9Q\xf1\\@'
tRp612
tp613
a(S'YP_003047153.1'
p614
g3
(g5
S'\x1b3o\x08%D]@'
tRp615
tp616
a(S'YP_003044470.1'
p617
g3
(g5
S'\xc2j\xc1\x1bD\xba]@'
tRp618
tp619
a(S'YP_003044981.1'
p620
g3
(g5
S'\x86\xfc\x89u\xbd>^@'
tRp621
tp622
a(S'YP_003044597.1'
p623
g3
(g5
S'\x80\x9b\xc3#wt^@'
tRp624
tp625
a(S'YP_003044123.1'
p626
g3
(g5
S'5\xd6\x12<\x17\x9c^@'
tRp627
tp628
a(S'YP_003046686.1'
p629
g3
(g5
S'\xe6!\xb0\xf9A\xbb^@'
tRp630
tp631
a(S'YP_003044127.1'
p632
g3
(g5
S'\xd3Uo\xed\xab\xce^@'
tRp633
tp634
a(S'YP_003046701.1'
p635
g3
(g5
S'S\x9f\xd3\x9e\xd0\xf7^@'
tRp636
tp637
a(S'YP_003045014.1'
p638
g3
(g5
S'^\x97\x9d\x1cV\x03_@'
tRp639
tp640
a(S'YP_003043959.1'
p641
g3
(g5
S'D\xb0\xa3\xc5\xad\xa0_@'
tRp642
tp643
a(S'YP_003046138.1'
p644
g3
(g5
S'6e\x1d\xfbA\xe0_@'
tRp645
tp646
a(S'YP_003043527.1'
p647
g3
(g5
S'\x1eI\xe9\xcd\xab\x05`@'
tRp648
tp649
a(S'YP_003045148.1'
p650
g3
(g5
S'\xf8\xf7\xdc\x91\xb0w`@'
tRp651
tp652
a(S'YP_003045108.1'
p653
g3
(g5
S'+\xd2\xc0y\xc3\xa5`@'
tRp654
tp655
a(S'YP_003045096.1'
p656
g3
(g5
S'W!M\x87\xb2\xdb`@'
tRp657
tp658
a(S'YP_003045602.1'
p659
g3
(g5
S';\xd7\xf7|\x91\xe9`@'
tRp660
tp661
a(S'YP_003046519.1'
p662
g3
(g5
S'\xdb\xbe\xf1\x1ff5a@'
tRp663
tp664
a(S'YP_003044099.1'
p665
g3
(g5
S'\x08\x10\xdf\xcb\x87@a@'
tRp666
tp667
a(S'YP_003043537.1'
p668
g3
(g5
S'\x10v\x1c\x06Gha@'
tRp669
tp670
a(S'YP_003044589.1'
p671
g3
(g5
S'8\xcb*-\x84\x99a@'
tRp672
tp673
a(S'YP_003047408.1'
p674
g3
(g5
S'[\xcfI\x96\xc8\xbda@'
tRp675
tp676
a(S'YP_003045986.1'
p677
g3
(g5
S'\x82\xc2\x9e\xa8\xd1\xbfa@'
tRp678
tp679
a(S'YP_003043820.1'
p680
g3
(g5
S'\xc2\xdc;\x00\xe8\xcea@'
tRp681
tp682
a(S'YP_003047255.1'
p683
g3
(g5
S'\xe3,\xf6n\x10!b@'
tRp684
tp685
a(S'YP_003044522.1'
p686
g3
(g5
S'\xbd\x86J9\xd4"b@'
tRp687
tp688
a(S'YP_003044002.1'
p689
g3
(g5
S'w\xffH\n\nCb@'
tRp690
tp691
a(S'YP_003044615.1'
p692
g3
(g5
S'\x04k\xcf\t\xc3\x85b@'
tRp693
tp694
a(S'YP_003046075.1'
p695
g3
(g5
S'W\xbe\xc3\x0f\xf2\xa2b@'
tRp696
tp697
a(S'YP_003046909.1'
p698
g3
(g5
S'z\xd4\xc3U\xb0\xa8b@'
tRp699
tp700
a(S'YP_003045583.1'
p701
g3
(g5
S'q\xfd\x96\xbb\xa9\xafb@'
tRp702
tp703
a(S'YP_003047404.1'
p704
g3
(g5
S'\xaa\xec\xb9@!\xbab@'
tRp705
tp706
a(S'YP_003045197.1'
p707
g3
(g5
S'\xf0\xc2\x0cRb\xdcb@'
tRp708
tp709
a(S'YP_003047259.1'
p710
g3
(g5
S'[\x0b\xf4\x9ds\xe9b@'
tRp711
tp712
a(S'YP_003047297.1'
p713
g3
(g5
S'\xfc:\x15\x15\xa7\x17c@'
tRp714
tp715
a(S'YP_003046657.1'
p716
g3
(g5
S'y \xeb\xcb\xa5Lc@'
tRp717
tp718
a(S'YP_003045584.1'
p719
g3
(g5
S'\x82\xa8\x0f\xc9\xa0Vc@'
tRp720
tp721
a(S'YP_003046089.1'
p722
g3
(g5
S'\x0eF\x90\x96\x7fYc@'
tRp723
tp724
a(S'YP_003044458.1'
p725
g3
(g5
S'An\xad\xfb=yc@'
tRp726
tp727
a(S'YP_003046436.1'
p728
g3
(g5
S'\x9c\xe1\x01$"\x8dc@'
tRp729
tp730
a(S'YP_003043982.1'
p731
g3
(g5
S'\xcd\xaa?S<\x8dc@'
tRp732
tp733
a(S'YP_003045278.1'
p734
g3
(g5
S'*\xbe\x96\xc48\xa6c@'
tRp735
tp736
a(S'YP_003045019.1'
p737
g3
(g5
S'\x9e\xe0\xd6\xa9\xc9\xafc@'
tRp738
tp739
a(S'YP_003046668.1'
p740
g3
(g5
S'\x14\xb9\x14\xd3n\xb4c@'
tRp741
tp742
a(S'YP_003044998.1'
p743
g3
(g5
S'#KS\xe3X\xc3c@'
tRp744
tp745
a(S'YP_003044146.1'
p746
g3
(g5
S'b\x91\xa8\x8d\xb9\xe8c@'
tRp747
tp748
a(S'YP_003046558.1'
p749
g3
(g5
S's\x898\xcd5*d@'
tRp750
tp751
a(S'YP_003047081.1'
p752
g3
(g5
S'\xa6\x84\x1a\xfa\x83@d@'
tRp753
tp754
a(S'YP_003046761.1'
p755
g3
(g5
S'ih\xba\x0f\x06Nd@'
tRp756
tp757
a(S'YP_003045060.1'
p758
g3
(g5
S'\xfd\x81\xd1}J\xabd@'
tRp759
tp760
a(S'YP_003044971.1'
p761
g3
(g5
S'y\xa3\xcd\x9c\xf5\xb2d@'
tRp762
tp763
a(S'YP_003043852.1'
p764
g3
(g5
S'\xf5t\x13.\x9b\xdfd@'
tRp765
tp766
a(S'YP_003045458.1'
p767
g3
(g5
S'fH\xed\x0f\xc9\xe9d@'
tRp768
tp769
a(S'YP_003046108.1'
p770
g3
(g5
S"\xcec\x03'\xf2\x0fe@"
tRp771
tp772
a(S'YP_003044328.1'
p773
g3
(g5
S'v\x85\xb3C\xd0\x1de@'
tRp774
tp775
a(S'YP_003046587.1'
p776
g3
(g5
S'\xdf\xb2\xed\x10J4e@'
tRp777
tp778
a(S'YP_003046218.1'
p779
g3
(g5
S'r\x1d\x89\xd6\x02xe@'
tRp780
tp781
a(S'YP_003045849.1'
p782
g3
(g5
S'{XF?b\x97e@'
tRp783
tp784
a(S'YP_003044313.1'
p785
g3
(g5
S'\x96\xcf\x9f\xf8\xe9\x97e@'
tRp786
tp787
a(S'YP_003044143.1'
p788
g3
(g5
S'\x8f\xe1\x8c\x11\x89\xc2e@'
tRp789
tp790
a(S'YP_003043758.1'
p791
g3
(g5
S'\xbaS>T\xc9\xcae@'
tRp792
tp793
a(S'YP_003046523.1'
p794
g3
(g5
S'q\xa14n\xab\xe2e@'
tRp795
tp796
a(S'YP_003046561.1'
p797
g3
(g5
S'\xf5\x8e\xd1}\x93\xfbe@'
tRp798
tp799
a(S'YP_003044717.1'
p800
g3
(g5
S'\xe1\xd4\xac\xear9f@'
tRp801
tp802
a(S'YP_003046494.1'
p803
g3
(g5
S'\xd7Z\xd8y;Pf@'
tRp804
tp805
a(S'YP_003044932.1'
p806
g3
(g5
S'\xcc\xf1p\xf8\x9dYf@'
tRp807
tp808
a(S'YP_003044275.1'
p809
g3
(g5
S'\xa4\xa3\xcf\x93\x19`f@'
tRp810
tp811
a(S'YP_003045766.1'
p812
g3
(g5
S'\x9c\xfd"\x88#bf@'
tRp813
tp814
a(S'YP_003046472.1'
p815
g3
(g5
S'\xcc|\xad\xe71\xdef@'
tRp816
tp817
a(S'YP_003043597.1'
p818
g3
(g5
S'\xba\xb3\x95\xfb\x83\x01g@'
tRp819
tp820
a(S'YP_003046927.1'
p821
g3
(g5
S'\xff\xbat\xc9}!g@'
tRp822
tp823
a(S'YP_003046976.1'
p824
g3
(g5
S'LM\xb5h~=g@'
tRp825
tp826
a(S'YP_003045509.1'
p827
g3
(g5
S'\xa0\xd2\x9czcQg@'
tRp828
tp829
a(S'YP_003044035.1'
p830
g3
(g5
S'm\x99)A;]g@'
tRp831
tp832
a(S'YP_003044007.1'
p833
g3
(g5
S'%ZG\xad\xd4\x87g@'
tRp834
tp835
a(S'YP_003043788.1'
p836
g3
(g5
S'd\xbfi\x02\xc1\x9fg@'
tRp837
tp838
a(S'YP_003046973.1'
p839
g3
(g5
S'\x13d\x81<\x86\xc8g@'
tRp840
tp841
a(S'YP_003046881.1'
p842
g3
(g5
S'\xa5\xbfE\xde\x12\xcdg@'
tRp843
tp844
a(S'YP_003047407.1'
p845
g3
(g5
S'\xfd3\xb4\x934\xdeg@'
tRp846
tp847
a(S'YP_003045818.1'
p848
g3
(g5
S'\x8d\x01\xb5\x8b\xd8\xeag@'
tRp849
tp850
a(S'YP_003045089.1'
p851
g3
(g5
S'C\xf0\x14\xa8\xe0\x04h@'
tRp852
tp853
a(S'YP_003047197.1'
p854
g3
(g5
S':zj\x17\xa4\x08h@'
tRp855
tp856
a(S'YP_003043671.1'
p857
g3
(g5
S'\xe0\xea\x9c5\xe2\x0ch@'
tRp858
tp859
a(S'YP_003047409.1'
p860
g3
(g5
S'\xd8`\xc8\xa8q\x18h@'
tRp861
tp862
a(S'YP_003046775.1'
p863
g3
(g5
S'\xe8\xc4\xe1\xdb{#h@'
tRp864
tp865
a(S'YP_003046382.1'
p866
g3
(g5
S'\xc2\xf3\x833\x116h@'
tRp867
tp868
a(S'YP_003046864.1'
p869
g3
(g5
S'\xe7\xe1\xf3\x12\x10lh@'
tRp870
tp871
a(S'YP_003043781.1'
p872
g3
(g5
S'\x19\xb5\xa2\x94\xb6\x8bh@'
tRp873
tp874
a(S'YP_003047398.1'
p875
g3
(g5
S'w\xa0\x16S\xba\xa8h@'
tRp876
tp877
a(S'YP_003046859.1'
p878
g3
(g5
S'\xdc[\xfb\x93\x92\xe3h@'
tRp879
tp880
a(S'YP_003044844.1'
p881
g3
(g5
S'jyG=\x9d\xe3h@'
tRp882
tp883
a(S'YP_003045445.1'
p884
g3
(g5
S">!\x97\xff'\xf4h@"
tRp885
tp886
a(S'YP_003045313.1'
p887
g3
(g5
S'\xa6\x0c60\xdc&i@'
tRp888
tp889
a(S'YP_003046747.1'
p890
g3
(g5
S'\xc9\xe7\x98a\xc1\xe3i@'
tRp891
tp892
a(S'YP_003044382.1'
p893
g3
(g5
S'\x1a\xe1\x0b\xa3\xbb\xefi@'
tRp894
tp895
a(S'YP_003045789.1'
p896
g3
(g5
S'\xb6\x82\xb39,\xf8i@'
tRp897
tp898
a(S'YP_003046277.1'
p899
g3
(g5
S'x\x9fY\x9f\xbd\x03j@'
tRp900
tp901
a(S'YP_003045358.1'
p902
g3
(g5
S'\xaa\x8b\xd5g?`j@'
tRp903
tp904
a(S'YP_003044177.1'
p905
g3
(g5
S'\xcb\x0c\xaaVw\xa1j@'
tRp906
tp907
a(S'YP_003045772.1'
p908
g3
(g5
S'\x17\xe9S\xb1j\xa4j@'
tRp909
tp910
a(S'YP_003045946.1'
p911
g3
(g5
S'\xcd\xc8b\xd7(\xcaj@'
tRp912
tp913
a(S'YP_003044517.1'
p914
g3
(g5
S'\r\x19I\x18\xa7\xe3j@'
tRp915
tp916
a(S'YP_003044401.1'
p917
g3
(g5
S'\xcd\x1eKc\t\x9ck@'
tRp918
tp919
a(S'YP_003046534.1'
p920
g3
(g5
S'\xad<~\x86L\x9dk@'
tRp921
tp922
a(S'YP_003044912.1'
p923
g3
(g5
S'\x89\x82\xd0\xf6\x80\xb6k@'
tRp924
tp925
a(S'YP_003044854.1'
p926
g3
(g5
S"\x9b\n'\xf8\xb6\xb8k@"
tRp927
tp928
a(S'YP_003043579.1'
p929
g3
(g5
S'\xec6W3\xcb\xe9k@'
tRp930
tp931
a(S'YP_003044270.1'
p932
g3
(g5
S' \xa2\x92uV2l@'
tRp933
tp934
a(S'YP_003045864.1'
p935
g3
(g5
S'\xeaD\xaa\xe0\xccKl@'
tRp936
tp937
a(S'YP_003044433.1'
p938
g3
(g5
S'\xf7\xf2Rd\x94ol@'
tRp939
tp940
a(S'YP_003046626.1'
p941
g3
(g5
S'\xdd \xb2[\xba\x80l@'
tRp942
tp943
a(S'YP_003045428.1'
p944
g3
(g5
S'\x07\x83S\x9cw\x8bl@'
tRp945
tp946
a(S'YP_003046463.1'
p947
g3
(g5
S"['\xcd\xefS\x92l@"
tRp948
tp949
a(S'YP_003046655.1'
p950
g3
(g5
S'j\xe6\x0c\x8cp\x99l@'
tRp951
tp952
a(S'YP_003044414.1'
p953
g3
(g5
S'/\xdb\x04\xd1\x8e\xeel@'
tRp954
tp955
a(S'YP_003043682.1'
p956
g3
(g5
S'\x826P\xb5\xa5\xf5l@'
tRp957
tp958
a(S'YP_003046992.1'
p959
g3
(g5
S'2\xf3\x86le\xf9l@'
tRp960
tp961
a(S'YP_003047028.1'
p962
g3
(g5
S'\xdeo$p\xe7)m@'
tRp963
tp964
a(S'YP_003047426.1'
p965
g3
(g5
S'\x15\xd3\xddH\xa1Qm@'
tRp966
tp967
a(S'YP_003043652.1'
p968
g3
(g5
S'\xa4l}\xe0^dm@'
tRp969
tp970
a(S'YP_003045920.1'
p971
g3
(g5
S'wG\x1f@\xd8\xe2m@'
tRp972
tp973
a(S'YP_003043789.1'
p974
g3
(g5
S'cp\x18\xd7\xd1\xefm@'
tRp975
tp976
a(S'YP_003046556.1'
p977
g3
(g5
S'\x1f\xa6I?\x87\x03n@'
tRp978
tp979
a(S'YP_003047278.1'
p980
g3
(g5
S'\x15\xdf\x13\xd4=\nn@'
tRp981
tp982
a(S'YP_003043263.1'
p983
g3
(g5
S'R\xe8\xf4\xeb\xfaQn@'
tRp984
tp985
a(S'YP_003045225.1'
p986
g3
(g5
S'\xe1.fz\xda\x9bn@'
tRp987
tp988
a(S'YP_003043969.1'
p989
g3
(g5
S'"\xb7\xd6\x0bm\xb3n@'
tRp990
tp991
a(S'YP_003046233.1'
p992
g3
(g5
S'\x06\xe0\xc4Q\x80\xb7n@'
tRp993
tp994
a(S'YP_003046760.1'
p995
g3
(g5
S'\xa89?f\xa9\x10o@'
tRp996
tp997
a(S'YP_003047062.1'
p998
g3
(g5
S'\xd7\x1a1\xeb\xfdMo@'
tRp999
tp1000
a(S'YP_003047353.1'
p1001
g3
(g5
S'I\x04\xc1\xe4Uzo@'
tRp1002
tp1003
a(S'YP_003045069.1'
p1004
g3
(g5
S')e\x10\xcfy|o@'
tRp1005
tp1006
a(S'YP_003046785.1'
p1007
g3
(g5
S'\xe7B\x85\x16F\xa6o@'
tRp1008
tp1009
a(S'YP_003043664.1'
p1010
g3
(g5
S'\xb2\xbc\xe7\xe8:\xa7o@'
tRp1011
tp1012
a(S'YP_003046840.1'
p1013
g3
(g5
S'!M%m\xac\xd7o@'
tRp1014
tp1015
a(S'YP_003045983.1'
p1016
g3
(g5
S'2b\x8d\xacg\xe6o@'
tRp1017
tp1018
a(S'YP_003046874.1'
p1019
g3
(g5
S'\x18\xad\xbd-r\xeeo@'
tRp1020
tp1021
a(S'YP_003047298.1'
p1022
g3
(g5
S'\xce +\x01\xd7\x18p@'
tRp1023
tp1024
a(S'YP_003046692.1'
p1025
g3
(g5
S'\x85\xe5\x8f\x1d\xa4.p@'
tRp1026
tp1027
a(S'YP_003045826.1'
p1028
g3
(g5
S'P9\xf8\xa8\x91@p@'
tRp1029
tp1030
a(S'YP_003043931.1'
p1031
g3
(g5
S'\x9b\x95\xb3\x17\xc2Ap@'
tRp1032
tp1033
a(S'YP_003044515.1'
p1034
g3
(g5
S'\xb6\x9d2)aTp@'
tRp1035
tp1036
a(S'YP_003043844.1'
p1037
g3
(g5
S'\xc9\x11kRHgp@'
tRp1038
tp1039
a(S'YP_003044221.1'
p1040
g3
(g5
S'Z]\x14*\xb1kp@'
tRp1041
tp1042
a(S'YP_003045226.1'
p1043
g3
(g5
S'\xad\xe3\xfe\xd3\x02\x91p@'
tRp1044
tp1045
a(S'YP_003045673.1'
p1046
g3
(g5
S'\x96\x04\xfaG\xda\x95p@'
tRp1047
tp1048
a(S'YP_003047077.1'
p1049
g3
(g5
S'"\xef\xfe2\x0f\x97p@'
tRp1050
tp1051
a(S'YP_003046392.1'
p1052
g3
(g5
S'_\x01\xed(\xfb\xc5p@'
tRp1053
tp1054
a(S'YP_003047418.1'
p1055
g3
(g5
S'bP\x8e\xefG\xf5p@'
tRp1056
tp1057
a(S'YP_003045502.1'
p1058
g3
(g5
S'd3~k\xea\xfep@'
tRp1059
tp1060
a(S'YP_003046497.1'
p1061
g3
(g5
S'\xa9Q\xb2\xe4\x05\x07q@'
tRp1062
tp1063
a(S'YP_003046582.1'
p1064
g3
(g5
S'\x04\x01\xe7@\x99\x15q@'
tRp1065
tp1066
a(S'YP_003043980.1'
p1067
g3
(g5
S'"\x978\xd40\x1bq@'
tRp1068
tp1069
a(S'YP_003047410.1'
p1070
g3
(g5
S'-\x0e\x07\xdd\xad"q@'
tRp1071
tp1072
a(S'YP_003043374.1'
p1073
g3
(g5
S'\xf7\xd0\xaf\xbe=xq@'
tRp1074
tp1075
a(S'YP_003044342.1'
p1076
g3
(g5
S'*z\xed\xe9\x04yq@'
tRp1077
tp1078
a(S'YP_003043337.1'
p1079
g3
(g5
S'G\xbdlR\xbf\x7fq@'
tRp1080
tp1081
a(S'YP_003044312.1'
p1082
g3
(g5
S'{^\xac\xc5\x0b\x89q@'
tRp1083
tp1084
a(S'YP_003045029.1'
p1085
g3
(g5
S'\x1d\xdc\x95U\x0f\x92q@'
tRp1086
tp1087
a(S'YP_003043377.1'
p1088
g3
(g5
S'v\xdcf5L\x9cq@'
tRp1089
tp1090
a(S'YP_003044297.1'
p1091
g3
(g5
S'e\x98j\xe3\x85\xc8q@'
tRp1092
tp1093
a(S'YP_003044136.1'
p1094
g3
(g5
S'\xe1\xd4\xcf_l\xd1q@'
tRp1095
tp1096
a(S'YP_003047196.1'
p1097
g3
(g5
S'\xc2\x9eQ\x91t\xd2q@'
tRp1098
tp1099
a(S'YP_003045909.1'
p1100
g3
(g5
S'\x01a\x01\xc1\xc0\xd3q@'
tRp1101
tp1102
a(S'YP_003046265.1'
p1103
g3
(g5
S'C\x16*\xb0\xd0\xdeq@'
tRp1104
tp1105
a(S'YP_003043916.1'
p1106
g3
(g5
S'E\xb4\x04\xd9.\xf9q@'
tRp1107
tp1108
a(S'YP_003045405.1'
p1109
g3
(g5
S'\xc4\xf1\xe49\x95\x1dr@'
tRp1110
tp1111
a(S'YP_003046763.1'
p1112
g3
(g5
S'\x11\x1eg\xd8\x95"r@'
tRp1113
tp1114
a(S'YP_003046811.1'
p1115
g3
(g5
S'p\xa2\xd4\x9fWSr@'
tRp1116
tp1117
a(S'YP_003045406.1'
p1118
g3
(g5
S'W&\\4,qr@'
tRp1119
tp1120
a(S'YP_003043371.1'
p1121
g3
(g5
S'\xddp\r\x05\xfb{r@'
tRp1122
tp1123
a(S'YP_003044579.1'
p1124
g3
(g5
S'\xb8\xd3e\x8a\xe8\x85r@'
tRp1125
tp1126
a(S'YP_003043704.1'
p1127
g3
(g5
S'\x8eWD\x17\xce\x8cr@'
tRp1128
tp1129
a(S'YP_003043320.1'
p1130
g3
(g5
S'l\x92c\x8ek\x96r@'
tRp1131
tp1132
a(S'YP_003046748.1'
p1133
g3
(g5
S'\x1aN\xd7F\xd5\xb2r@'
tRp1134
tp1135
a(S'YP_003043535.1'
p1136
g3
(g5
S'\x83L\xa5>\xd8\xcer@'
tRp1137
tp1138
a(S'YP_003045457.1'
p1139
g3
(g5
S'\xeb"\xf9\xbeG\rs@'
tRp1140
tp1141
a(S'YP_003046388.1'
p1142
g3
(g5
S'"\x81\xe4\xf2Q$s@'
tRp1143
tp1144
a(S'YP_003044806.1'
p1145
g3
(g5
S'{h\xc6\r\xfd<s@'
tRp1146
tp1147
a(S'YP_003047210.1'
p1148
g3
(g5
S'\xc1=3\x1e\xf1Qs@'
tRp1149
tp1150
a(S'YP_003044995.1'
p1151
g3
(g5
S'co\x92\xde\x12Vs@'
tRp1152
tp1153
a(S'YP_003043570.1'
p1154
g3
(g5
S'\xf7\xd3z\xac\x94Ws@'
tRp1155
tp1156
a(S'YP_003045180.1'
p1157
g3
(g5
S'\xe6\xebW\xc7\xb1]s@'
tRp1158
tp1159
a(S'YP_003045604.1'
p1160
g3
(g5
S'\xca\xd1\xb60\x07\x94s@'
tRp1161
tp1162
a(S'YP_003045256.1'
p1163
g3
(g5
S'\x90\x8e\xda b\xa9s@'
tRp1164
tp1165
a(S'YP_003045784.1'
p1166
g3
(g5
S'\r\xfa\x1c\xb0{\xc3s@'
tRp1167
tp1168
a(S'YP_003047093.1'
p1169
g3
(g5
S'\xf2\xf76(\x89#t@'
tRp1170
tp1171
a(S'YP_003045236.1'
p1172
g3
(g5
S'\xf9\x1c\x92)\xdb&t@'
tRp1173
tp1174
a(S'YP_003045447.1'
p1175
g3
(g5
S'D\x05\xb9\x7ft-t@'
tRp1176
tp1177
a(S'YP_003046214.1'
p1178
g3
(g5
S'\xe5W\xe5$\xc7/t@'
tRp1179
tp1180
a(S'YP_003047102.1'
p1181
g3
(g5
S'\x93\xf6\xdak\xcd4t@'
tRp1182
tp1183
a(S'YP_003045164.1'
p1184
g3
(g5
S'\x10[\xf4\x80\xe98t@'
tRp1185
tp1186
a(S'YP_003045140.1'
p1187
g3
(g5
S'%\xedd\xf1q:t@'
tRp1188
tp1189
a(S'YP_003045782.1'
p1190
g3
(g5
S'\xb6\xa9\xad\x92?Qt@'
tRp1191
tp1192
a(S'YP_003046212.1'
p1193
g3
(g5
S';\xef[6&Ut@'
tRp1194
tp1195
a(S'YP_003045781.1'
p1196
g3
(g5
S'\x9c\xf5\xbb\x13\xa2Vt@'
tRp1197
tp1198
a(S'YP_003046069.1'
p1199
g3
(g5
S'\xcfR>\x89cut@'
tRp1200
tp1201
a(S'YP_003045977.1'
p1202
g3
(g5
S'7+\xfc^\xdf\x8bt@'
tRp1203
tp1204
a(S'YP_003046076.1'
p1205
g3
(g5
S'\x8a\x13\xde/$\xb9t@'
tRp1206
tp1207
a(S'YP_003046236.1'
p1208
g3
(g5
S'\xeb\x06\x13\xfe(\xc7t@'
tRp1209
tp1210
a(S'YP_003043588.1'
p1211
g3
(g5
S'\xe4\\\xf2\x83\x12\xddt@'
tRp1212
tp1213
a(S'YP_003045517.1'
p1214
g3
(g5
S'M\xa7e=W\xebt@'
tRp1215
tp1216
a(S'YP_003043445.1'
p1217
g3
(g5
S'M\xfb\x95\xa9\x91\xebt@'
tRp1218
tp1219
a(S'YP_003044108.1'
p1220
g3
(g5
S'\xcf\x9a\xedb\xff.u@'
tRp1221
tp1222
a(S'YP_003045139.1'
p1223
g3
(g5
S'.j\x0e\xd4\xeaDu@'
tRp1224
tp1225
a(S'YP_003046908.1'
p1226
g3
(g5
S'W\x7f]\xe3\x9d\x87u@'
tRp1227
tp1228
a(S'YP_003043289.1'
p1229
g3
(g5
S'Hz\x0f3\x16\x99u@'
tRp1230
tp1231
a(S'YP_003044521.1'
p1232
g3
(g5
S'\xadE\x1dk\xb1\x99u@'
tRp1233
tp1234
a(S'YP_003043450.1'
p1235
g3
(g5
S'l\x9f\x88\xb5\x87\x9bu@'
tRp1236
tp1237
a(S'YP_003043891.1'
p1238
g3
(g5
S'0\xe7\x88\xd9\xe5\xafu@'
tRp1239
tp1240
a(S'YP_003045343.1'
p1241
g3
(g5
S'\x9c\xc0\xf80\x84\xb1u@'
tRp1242
tp1243
a(S'YP_003045021.1'
p1244
g3
(g5
S'\xba|\x85~\x87\xb7u@'
tRp1245
tp1246
a(S'YP_003047164.1'
p1247
g3
(g5
S'\xa3\xdcLB\xf4\xe3u@'
tRp1248
tp1249
a(S'YP_003046690.1'
p1250
g3
(g5
S'\xd4\xbd\x0c\xb3\xff\xfau@'
tRp1251
tp1252
a(S'YP_003046354.1'
p1253
g3
(g5
S'\xe1\xfbN=%\x05v@'
tRp1254
tp1255
a(S'YP_003044377.1'
p1256
g3
(g5
S'&U<\xe3\xc3\x07v@'
tRp1257
tp1258
a(S'YP_003046148.1'
p1259
g3
(g5
S'\xfb\xdc\xee\x98\x15\nv@'
tRp1260
tp1261
a(S'YP_003043259.1'
p1262
g3
(g5
S'\n\x81\xd2;\xf1\x10v@'
tRp1263
tp1264
a(S'YP_003046232.1'
p1265
g3
(g5
S'\x0e2\xf3\x9c\xf8\x1dv@'
tRp1266
tp1267
a(S'YP_003043630.1'
p1268
g3
(g5
S'\x18y\x10a\x17?v@'
tRp1269
tp1270
a(S'YP_003044979.1'
p1271
g3
(g5
S'\x83\xa3\x8e\xdd\xc2Tv@'
tRp1272
tp1273
a(S'YP_003046252.1'
p1274
g3
(g5
S'\x14\xa9\xc0\xffG{v@'
tRp1275
tp1276
a(S'YP_003044509.1'
p1277
g3
(g5
S'y\xa1O\x91I\x85v@'
tRp1278
tp1279
a(S'YP_003047096.1'
p1280
g3
(g5
S'\x1f\xa5#\xb0\xc1\xc7v@'
tRp1281
tp1282
a(S'YP_003046109.1'
p1283
g3
(g5
S'\x11M\xb8\xa0M\xdcv@'
tRp1284
tp1285
a(S'YP_003047045.1'
p1286
g3
(g5
S'\xf95_1\xc5\xe1v@'
tRp1287
tp1288
a(S'YP_003047026.1'
p1289
g3
(g5
S'\xbf\xc54_A\xeav@'
tRp1290
tp1291
a(S'YP_003044511.1'
p1292
g3
(g5
S'j@j\xad8\xffv@'
tRp1293
tp1294
a(S'YP_003043637.1'
p1295
g3
(g5
S'\x89\x9ay\xb6\xf9&w@'
tRp1296
tp1297
a(S'YP_003044365.1'
p1298
g3
(g5
S'\x11\xa2\x10B\x02(w@'
tRp1299
tp1300
a(S'YP_003044933.1'
p1301
g3
(g5
S'_Q\x88\xe9\xdaGw@'
tRp1302
tp1303
a(S'YP_003046990.1'
p1304
g3
(g5
S'\x7fl\x18 +Ow@'
tRp1305
tp1306
a(S'YP_003044893.1'
p1307
g3
(g5
S'o\x14\xe9J\xb7^w@'
tRp1308
tp1309
a(S'YP_003043837.1'
p1310
g3
(g5
S'Z\xdd\xf7\xb0S\x87w@'
tRp1311
tp1312
a(S'YP_003043285.1'
p1313
g3
(g5
S'u\xa8\x8c\xe4\x8c\x8bw@'
tRp1314
tp1315
a(S'YP_003044925.1'
p1316
g3
(g5
S' \\=1\xe9\xcdw@'
tRp1317
tp1318
a(S'YP_003044437.1'
p1319
g3
(g5
S'B\xd9u\xdf\x10\xe6w@'
tRp1320
tp1321
a(S'YP_003043428.1'
p1322
g3
(g5
S'\xedC\xd9>l\xf0w@'
tRp1323
tp1324
a(S'YP_003045073.1'
p1325
g3
(g5
S'\xcb3\xacd}\xf3w@'
tRp1326
tp1327
a(S'YP_003046999.1'
p1328
g3
(g5
S'\x00\xe8\x1a|5\xf5w@'
tRp1329
tp1330
a(S'YP_003044078.1'
p1331
g3
(g5
S'\x0c\x02\x08\xbe\xdb\x07x@'
tRp1332
tp1333
a(S'YP_003045310.1'
p1334
g3
(g5
S'tkx\x14\xf8\x14x@'
tRp1335
tp1336
a(S'YP_003045668.1'
p1337
g3
(g5
S'\xb1\xf1VA\x02%x@'
tRp1338
tp1339
a(S'YP_003043351.1'
p1340
g3
(g5
S'\xa6\xdb\xc1\xacu*x@'
tRp1341
tp1342
a(S'YP_003043800.1'
p1343
g3
(g5
S'\x15\r\x86\xa8\x88,x@'
tRp1344
tp1345
a(S'YP_003046095.1'
p1346
g3
(g5
S'4k\xa7\n\xb6.x@'
tRp1347
tp1348
a(S'YP_003044434.1'
p1349
g3
(g5
S'\x8d\x0c\x07\\\xa8=x@'
tRp1350
tp1351
a(S'YP_003045547.1'
p1352
g3
(g5
S'\xb1\xb3*7\x1aex@'
tRp1353
tp1354
a(S'YP_003046721.1'
p1355
g3
(g5
S'\x1c\xf8J\xca\xe1\x8ax@'
tRp1356
tp1357
a(S'YP_003046404.1'
p1358
g3
(g5
S'\xefE=!-\x9fx@'
tRp1359
tp1360
a(S'YP_003045271.1'
p1361
g3
(g5
S'~S\xcd7\x0e\xb9x@'
tRp1362
tp1363
a(S'YP_003044020.1'
p1364
g3
(g5
S'\x9d\x8d\xb6\xc2\xc2\xcex@'
tRp1365
tp1366
a(S'YP_003047424.1'
p1367
g3
(g5
S'\x15-&\xa4$\xdex@'
tRp1368
tp1369
a(S'YP_003044170.1'
p1370
g3
(g5
S'\xed\x89m\x94\xdd\xf7x@'
tRp1371
tp1372
a(S'YP_003045432.1'
p1373
g3
(g5
S'\xbe/~\xe0$\x06y@'
tRp1374
tp1375
a(S'YP_003045656.1'
p1376
g3
(g5
S'Y\tC\x1d\xfa\ny@'
tRp1377
tp1378
a(S'YP_003045729.1'
p1379
g3
(g5
S'\xaavq|\r\x17y@'
tRp1380
tp1381
a(S'YP_003045658.1'
p1382
g3
(g5
S"'\xf2\x10I\xf4\x1by@"
tRp1383
tp1384
a(S'YP_003046066.1'
p1385
g3
(g5
S'F\xcf\xc9\x96\x1d,y@'
tRp1386
tp1387
a(S'YP_003044513.1'
p1388
g3
(g5
S'\xd5\xc6\xcbd\x80My@'
tRp1389
tp1390
a(S'YP_003046289.1'
p1391
g3
(g5
S" \xd5!'\x8dYy@"
tRp1392
tp1393
a(S'YP_003045016.1'
p1394
g3
(g5
S'(A\xfe\x98\x04jy@'
tRp1395
tp1396
a(S'YP_003044808.1'
p1397
g3
(g5
S'\x99\x1f\xfc}\xecqy@'
tRp1398
tp1399
a(S'YP_003045294.1'
p1400
g3
(g5
S'\xa4^\x8f\x91\xdf\x96y@'
tRp1401
tp1402
a(S'YP_003044277.1'
p1403
g3
(g5
S'\xe3b_\xaa\xba\xa4y@'
tRp1404
tp1405
a(S'YP_003045519.1'
p1406
g3
(g5
S'v\t\xb4Aq\xc1y@'
tRp1407
tp1408
a(S'YP_003046969.1'
p1409
g3
(g5
S'\t3\xda\x9c\x19\xcby@'
tRp1410
tp1411
a(S'YP_003043608.1'
p1412
g3
(g5
S'\x0bv\t8\x1d\xfcy@'
tRp1413
tp1414
a(S'YP_003043756.1'
p1415
g3
(g5
S'\xd1\xf3\x1b:\x0f\xfdy@'
tRp1416
tp1417
a(S'YP_003044292.1'
p1418
g3
(g5
S'[\xe7hc\x00\x08z@'
tRp1419
tp1420
a(S'YP_003046944.1'
p1421
g3
(g5
S'O\x7f$\xfc\xb8\x19z@'
tRp1422
tp1423
a(S'YP_003044820.1'
p1424
g3
(g5
S'{G_\x82zkz@'
tRp1425
tp1426
a(S'YP_003043960.1'
p1427
g3
(g5
S'\xac\xf7\x0bTB\x82z@'
tRp1428
tp1429
a(S'YP_003044822.1'
p1430
g3
(g5
S' n>\x05G\xb2z@'
tRp1431
tp1432
a(S'YP_003043594.1'
p1433
g3
(g5
S'\xfce\x1f\xc2\xd7\xf1z@'
tRp1434
tp1435
a(S'YP_003046788.1'
p1436
g3
(g5
S'\xbdW\xaf"O {@'
tRp1437
tp1438
a(S'YP_003045166.1'
p1439
g3
(g5
S'\xc1\x17\xf3\xe2\xf4#{@'
tRp1440
tp1441
a(S'YP_003043970.1'
p1442
g3
(g5
S'\x10\xbff\x14Z&{@'
tRp1443
tp1444
a(S'YP_003046391.1'
p1445
g3
(g5
S'%\x04}7\x9c){@'
tRp1446
tp1447
a(S'YP_003045976.1'
p1448
g3
(g5
S'\xf9\x9fI\xab\x17R{@'
tRp1449
tp1450
a(S'YP_003046156.1'
p1451
g3
(g5
S'\x02\xb8\xc3D,\x80{@'
tRp1452
tp1453
a(S'YP_003046900.1'
p1454
g3
(g5
S'_.o\x05\x83\x80{@'
tRp1455
tp1456
a(S'YP_003043657.1'
p1457
g3
(g5
S'\x16j\x93\x10K\x81{@'
tRp1458
tp1459
a(S'YP_003044896.1'
p1460
g3
(g5
S'\x9cc*\x1b\xe2\x87{@'
tRp1461
tp1462
a(S'YP_003045910.1'
p1463
g3
(g5
S'\xf4dh,\x9c\x9d{@'
tRp1464
tp1465
a(S'YP_003046839.1'
p1466
g3
(g5
S'\xa5~\xdc\x08\xe6\xa7{@'
tRp1467
tp1468
a(S'YP_003044810.1'
p1469
g3
(g5
S'\x95\xd9|\x84\xd4\xab{@'
tRp1470
tp1471
a(S'YP_003046495.1'
p1472
g3
(g5
S'%"\xd7\x9e\xf4\xd2{@'
tRp1473
tp1474
a(S'YP_003046448.1'
p1475
g3
(g5
S"8'\xf1\xd5\xc8\xed{@"
tRp1476
tp1477
a(S'YP_003045828.1'
p1478
g3
(g5
S'\xdc\xf3\xd8\xdc\x82\x08|@'
tRp1479
tp1480
a(S'YP_003047379.1'
p1481
g3
(g5
S'\xd4\x91\x93Y\x1c\x0c|@'
tRp1482
tp1483
a(S'YP_003046837.1'
p1484
g3
(g5
S'\x19,U\xbd\x95N|@'
tRp1485
tp1486
a(S'YP_003046982.1'
p1487
g3
(g5
S'K\xe8\x0b\xf8`s|@'
tRp1488
tp1489
a(S'YP_003046654.1'
p1490
g3
(g5
S'&\xf8Bp\xaf~|@'
tRp1491
tp1492
a(S'YP_003044986.1'
p1493
g3
(g5
S'\xc7\xee\xa3\x19{\xa2|@'
tRp1494
tp1495
a(S'YP_003043582.1'
p1496
g3
(g5
S'\x9b6o\xea{\xc5|@'
tRp1497
tp1498
a(S'YP_003045786.1'
p1499
g3
(g5
S'Y\x0eM\x07H\xc9|@'
tRp1500
tp1501
a(S'YP_003045608.1'
p1502
g3
(g5
S'\x8f\x01Cd0\xd3|@'
tRp1503
tp1504
a(S'YP_003043910.1'
p1505
g3
(g5
S'\xa6\r~\xc7\x8c\t}@'
tRp1506
tp1507
a(S'YP_003043460.1'
p1508
g3
(g5
S'\xbe\xc2\xe3\xa2+\n}@'
tRp1509
tp1510
a(S'YP_003044836.1'
p1511
g3
(g5
S"&I\xc0\xaf\xd1'}@"
tRp1512
tp1513
a(S'YP_003046085.1'
p1514
g3
(g5
S'28\xea\xaa\x83(}@'
tRp1515
tp1516
a(S'YP_003043899.1'
p1517
g3
(g5
S'\xef\xd6\xb4s\x0c9}@'
tRp1518
tp1519
a(S'YP_003047087.1'
p1520
g3
(g5
S'\x10du\xf3<H}@'
tRp1521
tp1522
a(S'YP_003046838.1'
p1523
g3
(g5
S'D\xdb\xbf/O\x82}@'
tRp1524
tp1525
a(S'YP_003046291.1'
p1526
g3
(g5
S'\xe0\x88\xd8\xe1\xe5\xa1}@'
tRp1527
tp1528
a(S'YP_003047019.1'
p1529
g3
(g5
S'3\xc3\xa7+\xa6\xb0}@'
tRp1530
tp1531
a(S'YP_003043283.1'
p1532
g3
(g5
S'\xfb \xff\xc6\xe6\xbc}@'
tRp1533
tp1534
a(S'YP_003043426.1'
p1535
g3
(g5
S'{\xa0\xa2\xc2P\xd3}@'
tRp1536
tp1537
a(S'YP_003043379.1'
p1538
g3
(g5
S'\xa2\x1d\x85\xb2\x9a\xe9}@'
tRp1539
tp1540
a(S'YP_003043316.1'
p1541
g3
(g5
S'v\x84|\xf6\x90\xef}@'
tRp1542
tp1543
a(S'YP_003044132.1'
p1544
g3
(g5
S'I\x19J\x11\x02\x03~@'
tRp1545
tp1546
a(S'YP_003043854.1'
p1547
g3
(g5
S'\xf3\xba]5\x83\x82~@'
tRp1548
tp1549
a(S'YP_003046923.1'
p1550
g3
(g5
S'Z]*N\x7f\x87~@'
tRp1551
tp1552
a(S'YP_003045921.1'
p1553
g3
(g5
S'#\xec\xdcp\xb9\xa3~@'
tRp1554
tp1555
a(S'YP_003043495.1'
p1556
g3
(g5
S'aN\x10W:\xb4~@'
tRp1557
tp1558
a(S'YP_003046851.1'
p1559
g3
(g5
S'L.\x96h\xaa\xc9~@'
tRp1560
tp1561
a(S'YP_003044005.1'
p1562
g3
(g5
S'\x83\xd0\xf5\x05Y\xd1~@'
tRp1563
tp1564
a(S'YP_003047023.1'
p1565
g3
(g5
S'\xc8\xc4\x88\x1e\x94\x07\x7f@'
tRp1566
tp1567
a(S'YP_003045706.1'
p1568
g3
(g5
S'g\\~A\xe8;\x7f@'
tRp1569
tp1570
a(S'YP_003044399.1'
p1571
g3
(g5
S'\xcb6\x81\xad\x05>\x7f@'
tRp1572
tp1573
a(S'YP_003043654.1'
p1574
g3
(g5
S'\xe9\xc1^)qE\x7f@'
tRp1575
tp1576
a(S'YP_003044493.1'
p1577
g3
(g5
S'\xe5\x89\xbab\x9eW\x7f@'
tRp1578
tp1579
a(S'YP_003045423.1'
p1580
g3
(g5
S'ZC\xda?ge\x7f@'
tRp1581
tp1582
a(S'YP_003044378.1'
p1583
g3
(g5
S'J\xc4B\x05\xffe\x7f@'
tRp1584
tp1585
a(S'YP_003046461.1'
p1586
g3
(g5
S'\xb31G"\xado\x7f@'
tRp1587
tp1588
a(S'YP_003046098.1'
p1589
g3
(g5
S'\xf0\xf7\x0c\xe6~\xcf\x7f@'
tRp1590
tp1591
a(S'YP_003047376.1'
p1592
g3
(g5
S'\n\xc3\x15(\xdc\xd3\x7f@'
tRp1593
tp1594
a(S'YP_003046302.1'
p1595
g3
(g5
S'>%i\xc8\xc7\xe4\x7f@'
tRp1596
tp1597
a(S'YP_003043968.1'
p1598
g3
(g5
S'\x8e\xa4\x1b4\x9f\xe7\x7f@'
tRp1599
tp1600
a(S'YP_003043341.1'
p1601
g3
(g5
S'\xb1\x14TU\xdf\xe8\x7f@'
tRp1602
tp1603
a(S'YP_003047286.1'
p1604
g3
(g5
S'\x82\t\x07\xad\xe2\x06\x80@'
tRp1605
tp1606
a(S'YP_003043928.1'
p1607
g3
(g5
S'\xe8\xbd1\x9f\xcb\x07\x80@'
tRp1608
tp1609
a(S'YP_003044323.1'
p1610
g3
(g5
S"\xe8A\xdc\xd3'\x0f\x80@"
tRp1611
tp1612
a(S'YP_003043989.1'
p1613
g3
(g5
S'\xac\x7fbH3%\x80@'
tRp1614
tp1615
a(S'YP_003043863.1'
p1616
g3
(g5
S'e9\xb9q\xb8*\x80@'
tRp1617
tp1618
a(S'YP_003047187.1'
p1619
g3
(g5
S'\xc0\xae\x90\xdf\xfd3\x80@'
tRp1620
tp1621
a(S'YP_003047279.1'
p1622
g3
(g5
S'\x998\x14\xba\x02A\x80@'
tRp1623
tp1624
a(S'YP_003043829.1'
p1625
g3
(g5
S'=\x18XR\xb2b\x80@'
tRp1626
tp1627
a(S'YP_003044093.1'
p1628
g3
(g5
S'Br\xca4\xa9l\x80@'
tRp1629
tp1630
a(S'YP_003043932.1'
p1631
g3
(g5
S'%\x0e\x13\x90\x16x\x80@'
tRp1632
tp1633
a(S'YP_003045304.1'
p1634
g3
(g5
S'\xef\xd1X\xf9\xcc\x9c\x80@'
tRp1635
tp1636
a(S'YP_003044851.1'
p1637
g3
(g5
S'BD\xe7\xefd\xb0\x80@'
tRp1638
tp1639
a(S'YP_003043333.1'
p1640
g3
(g5
S'!\x9e\xcc\x01\xd3\xbf\x80@'
tRp1641
tp1642
a(S'YP_003045710.1'
p1643
g3
(g5
S'#\xd4\xc0]y\xd5\x80@'
tRp1644
tp1645
a(S'YP_003047429.1'
p1646
g3
(g5
S'\xe2\xcf\x03_$\xe9\x80@'
tRp1647
tp1648
a(S'YP_003046175.1'
p1649
g3
(g5
S'\xa2@B\\\x97\xf7\x80@'
tRp1650
tp1651
a(S'YP_003046911.1'
p1652
g3
(g5
S'7\t\\\xb9y\x1d\x81@'
tRp1653
tp1654
a(S'YP_003045841.1'
p1655
g3
(g5
S'\xd3cJ\x99_,\x81@'
tRp1656
tp1657
a(S'YP_003043705.1'
p1658
g3
(g5
S'\xc8yv}\x11.\x81@'
tRp1659
tp1660
a(S'YP_003046345.1'
p1661
g3
(g5
S'\xfe\x8c\xde\xde\x8e@\x81@'
tRp1662
tp1663
a(S'YP_003047201.1'
p1664
g3
(g5
S'\xb4D\x1a5\xfeP\x81@'
tRp1665
tp1666
a(S'YP_003043639.1'
p1667
g3
(g5
S'\xa3g\xd0\xd3*V\x81@'
tRp1668
tp1669
a(S'YP_003046464.1'
p1670
g3
(g5
S'N\x80\x82l\xfe_\x81@'
tRp1671
tp1672
a(S'YP_003045255.1'
p1673
g3
(g5
S'd\x00\xaa\xfa6a\x81@'
tRp1674
tp1675
a(S'YP_003046393.1'
p1676
g3
(g5
S'0\x1dS|\xd0q\x81@'
tRp1677
tp1678
a(S'YP_003044462.1'
p1679
g3
(g5
S'"\xf8ypw\x80\x81@'
tRp1680
tp1681
a(S'YP_003045421.1'
p1682
g3
(g5
S'\xd5._\xbc:\x8a\x81@'
tRp1683
tp1684
a(S'YP_003047406.1'
p1685
g3
(g5
S"}\xd2'\xc4\xe3\xa8\x81@"
tRp1686
tp1687
a(S'YP_003047080.1'
p1688
g3
(g5
S'\x96\xfd5\xabK\xb7\x81@'
tRp1689
tp1690
a(S'YP_003046227.1'
p1691
g3
(g5
S'+\xde\xaa\x84M\xc5\x81@'
tRp1692
tp1693
a(S'YP_003046443.1'
p1694
g3
(g5
S'\x1d5gKz\xc8\x81@'
tRp1695
tp1696
a(S'YP_003046013.1'
p1697
g3
(g5
S'\xb9Qe\x1b\x1f\xd4\x81@'
tRp1698
tp1699
a(S'YP_003043315.1'
p1700
g3
(g5
S'r\x84\xbd\xf4\xce\xd7\x81@'
tRp1701
tp1702
a(S'YP_003044439.1'
p1703
g3
(g5
S'L\xb2\xc1^\xf2\xdc\x81@'
tRp1704
tp1705
a(S'YP_003045442.1'
p1706
g3
(g5
S'\xc8\x9b%F\xed\xe5\x81@'
tRp1707
tp1708
a(S'YP_003043262.1'
p1709
g3
(g5
S'\xfc\xa8\xd2\x8dU\xe9\x81@'
tRp1710
tp1711
a(S'YP_003045489.1'
p1712
g3
(g5
S'\x847d\xfd\xc7\xf0\x81@'
tRp1713
tp1714
a(S'YP_003044645.1'
p1715
g3
(g5
S'\x89\xb3<X\x83\x14\x82@'
tRp1716
tp1717
a(S'YP_003046496.1'
p1718
g3
(g5
S'\x0f\xf7\x87S\x87%\x82@'
tRp1719
tp1720
a(S'YP_003043580.1'
p1721
g3
(g5
S'%\xb5\xafD\xa4-\x82@'
tRp1722
tp1723
a(S'YP_003046141.1'
p1724
g3
(g5
S'A\n\xd5\xf0r0\x82@'
tRp1725
tp1726
a(S'YP_003044072.1'
p1727
g3
(g5
S'\x95\xd9\xbd\x1aT:\x82@'
tRp1728
tp1729
a(S'YP_003045554.1'
p1730
g3
(g5
S'\x9amI\xd5\t<\x82@'
tRp1731
tp1732
a(S'YP_003046675.1'
p1733
g3
(g5
S'O\xd1\xad8\xf3<\x82@'
tRp1734
tp1735
a(S'YP_003045309.1'
p1736
g3
(g5
S'\xbbc\x8b[8@\x82@'
tRp1737
tp1738
a(S'YP_003044367.1'
p1739
g3
(g5
S'\x12?X\xbf\x87B\x82@'
tRp1740
tp1741
a(S'YP_003046030.1'
p1742
g3
(g5
S'\xb48\xf8\xb43I\x82@'
tRp1743
tp1744
a(S'YP_003043818.1'
p1745
g3
(g5
S'\x83\x9c%\xa4\x1eX\x82@'
tRp1746
tp1747
a(S'YP_003046222.1'
p1748
g3
(g5
S'\x95,\x1b\xac+Z\x82@'
tRp1749
tp1750
a(S'YP_003046925.1'
p1751
g3
(g5
S'\x16\xb6\x1f\rMZ\x82@'
tRp1752
tp1753
a(S'YP_003046474.1'
p1754
g3
(g5
S'\xda\x0b\x06\x81Q]\x82@'
tRp1755
tp1756
a(S'YP_003043967.1'
p1757
g3
(g5
S'\x02\x9d\x80\x96\xc4e\x82@'
tRp1758
tp1759
a(S'YP_003043562.1'
p1760
g3
(g5
S'\r}\xa1\xc5eg\x82@'
tRp1761
tp1762
a(S'YP_003046843.1'
p1763
g3
(g5
S'\x08\xfd\x07f\xd9m\x82@'
tRp1764
tp1765
a(S'YP_003044140.1'
p1766
g3
(g5
S'\xe9z\xc2E\xb0v\x82@'
tRp1767
tp1768
a(S'YP_003044997.1'
p1769
g3
(g5
S'\xa3V\x9d=\x1a|\x82@'
tRp1770
tp1771
a(S'YP_003045306.1'
p1772
g3
(g5
S'\x90t\xe2\xa9\x7f\x84\x82@'
tRp1773
tp1774
a(S'YP_003043958.1'
p1775
g3
(g5
S'\xc1rY\xacw\x87\x82@'
tRp1776
tp1777
a(S'YP_003043370.1'
p1778
g3
(g5
S'^g\xec\x99;\x90\x82@'
tRp1779
tp1780
a(S'YP_003044151.1'
p1781
g3
(g5
S'\xcb9\x14\xeaP\xaf\x82@'
tRp1782
tp1783
a(S'YP_003047432.1'
p1784
g3
(g5
S'G\xee\x13\xa7\xff\xb4\x82@'
tRp1785
tp1786
a(S'YP_003045651.1'
p1787
g3
(g5
S'\xda}ww\xf0\xb5\x82@'
tRp1788
tp1789
a(S'YP_003047085.1'
p1790
g3
(g5
S'\xc1K}-W\xb9\x82@'
tRp1791
tp1792
a(S'YP_003044973.1'
p1793
g3
(g5
S'H\xf2\x1c?\xdb\xbc\x82@'
tRp1794
tp1795
a(S'YP_003046433.1'
p1796
g3
(g5
S'\x190\xadf\x1c\xc8\x82@'
tRp1797
tp1798
a(S'YP_003043587.1'
p1799
g3
(g5
S'\xaa\x88[g\xb3\xd9\x82@'
tRp1800
tp1801
a(S'YP_003045178.1'
p1802
g3
(g5
S'o?#\x96\xe8\xfd\x82@'
tRp1803
tp1804
a(S'YP_003043347.1'
p1805
g3
(g5
S'Uo\xd7\xbbZ\x0c\x83@'
tRp1806
tp1807
a(S'YP_003043398.1'
p1808
g3
(g5
S'\xe2\x97\xe7\xc6\x1c\x19\x83@'
tRp1809
tp1810
a(S'YP_003046465.1'
p1811
g3
(g5
S'\xfb\xf2\xd8t\xddI\x83@'
tRp1812
tp1813
a(S'YP_003045044.1'
p1814
g3
(g5
S'\xd2\xdeRo\nS\x83@'
tRp1815
tp1816
a(S'YP_003045597.1'
p1817
g3
(g5
S'>\x1c\xf2nU`\x83@'
tRp1818
tp1819
a(S'YP_003045408.1'
p1820
g3
(g5
S'\x97\xd8`\x9fjm\x83@'
tRp1821
tp1822
a(S'YP_003046573.1'
p1823
g3
(g5
S'\xbe\x92\x9d\xfd\x00\x87\x83@'
tRp1824
tp1825
a(S'YP_003044296.1'
p1826
g3
(g5
S'\xb4u12\xe8\x8b\x83@'
tRp1827
tp1828
a(S'YP_003044278.1'
p1829
g3
(g5
S':\x8c\x0c\x1dw\x8c\x83@'
tRp1830
tp1831
a(S'YP_003045659.1'
p1832
g3
(g5
S'\xc3\xfd`\xd9\xbb\xaf\x83@'
tRp1833
tp1834
a(S'YP_003045420.1'
p1835
g3
(g5
S'Z\x05\xa9\xa4S\xc6\x83@'
tRp1836
tp1837
a(S'YP_003046784.1'
p1838
g3
(g5
S'H|\x05\x89g\xd4\x83@'
tRp1839
tp1840
a(S'YP_003044124.1'
p1841
g3
(g5
S'\x9e5H\xa3\xc3\xd4\x83@'
tRp1842
tp1843
a(S'YP_003044829.1'
p1844
g3
(g5
S'*\xac<\x02\xbf\xd5\x83@'
tRp1845
tp1846
a(S'YP_003047359.1'
p1847
g3
(g5
S'\xc9\xf7\xd0f\xc9\xe7\x83@'
tRp1848
tp1849
a(S'YP_003046081.1'
p1850
g3
(g5
S'x\xec\x84\xcf\x0c\xed\x83@'
tRp1851
tp1852
a(S'YP_003043507.1'
p1853
g3
(g5
S'\xcb\xa1*\x95.\xf9\x83@'
tRp1854
tp1855
a(S'YP_003044094.1'
p1856
g3
(g5
S'\xc6\x85\xb5\xf0\xec\xfb\x83@'
tRp1857
tp1858
a(S'YP_003045732.1'
p1859
g3
(g5
S'VF\x8b#I\xfd\x83@'
tRp1860
tp1861
a(S'YP_003047266.1'
p1862
g3
(g5
S'[\xa0wj\xe3\x03\x84@'
tRp1863
tp1864
a(S'YP_003043288.1'
p1865
g3
(g5
S'\x12S\xc8G\xb3\x07\x84@'
tRp1866
tp1867
a(S'YP_003046572.1'
p1868
g3
(g5
S'\xff)b\xa4z\x14\x84@'
tRp1869
tp1870
a(S'YP_003045925.1'
p1871
g3
(g5
S'Fe\x1f\xb6\xafc\x84@'
tRp1872
tp1873
a(S'YP_003044812.1'
p1874
g3
(g5
S'\xdbVn\x87@\x84\x84@'
tRp1875
tp1876
a(S'YP_003047272.1'
p1877
g3
(g5
S'\xde\xdc\xd9!\x94\x86\x84@'
tRp1878
tp1879
a(S'YP_003045655.1'
p1880
g3
(g5
S'`\xe7\t\xf9\xfa\x87\x84@'
tRp1881
tp1882
a(S'YP_003045546.1'
p1883
g3
(g5
S'D\x8d\xa2B\xd4\x98\x84@'
tRp1884
tp1885
a(S'YP_003044464.1'
p1886
g3
(g5
S"\x03'\xae=\xf8\xa2\x84@"
tRp1887
tp1888
a(S'YP_003046991.1'
p1889
g3
(g5
S'\x9a\xcfH\xe4\x7f\xda\x84@'
tRp1890
tp1891
a(S'YP_003047271.1'
p1892
g3
(g5
S'\x03P\xfc\xd7\x96\xde\x84@'
tRp1893
tp1894
a(S'YP_003046635.1'
p1895
g3
(g5
S'\x13\x8e\x88\x1b\x83\x0f\x85@'
tRp1896
tp1897
a(S'YP_003044176.1'
p1898
g3
(g5
S'\x00\xe0\x04\xd7\xc4"\x85@'
tRp1899
tp1900
a(S'YP_003045987.1'
p1901
g3
(g5
S'*\xffX\x8d\xc5&\x85@'
tRp1902
tp1903
a(S'YP_003044459.1'
p1904
g3
(g5
S'\xebcL\xc5\r(\x85@'
tRp1905
tp1906
a(S'YP_003044856.1'
p1907
g3
(g5
S'\x94>\x15\x0e\x96)\x85@'
tRp1908
tp1909
a(S'YP_003046241.1'
p1910
g3
(g5
S'R\x83L[\xfe9\x85@'
tRp1911
tp1912
a(S'YP_003043569.1'
p1913
g3
(g5
S'\xc7/\xa4F\t;\x85@'
tRp1914
tp1915
a(S'YP_003044878.1'
p1916
g3
(g5
S'\xa6S\x92Y>;\x85@'
tRp1917
tp1918
a(S'YP_003046001.1'
p1919
g3
(g5
S'\xb7\x16A\x1d\xfaV\x85@'
tRp1920
tp1921
a(S'YP_003047047.1'
p1922
g3
(g5
S'\x03_\xf5J\x9bl\x85@'
tRp1923
tp1924
a(S'YP_003046998.1'
p1925
g3
(g5
S'\xc0,\xfe\x03\x03\x83\x85@'
tRp1926
tp1927
a(S'YP_003045954.1'
p1928
g3
(g5
S'\xa27\x81\xd4\x8a\x9b\x85@'
tRp1929
tp1930
a(S'YP_003045141.1'
p1931
g3
(g5
S'{\xb8\xcc\x96\x00\xb5\x85@'
tRp1932
tp1933
a(S'YP_003044679.1'
p1934
g3
(g5
S'\xda\x1bxJQ\xc3\x85@'
tRp1935
tp1936
a(S'YP_003044916.1'
p1937
g3
(g5
S'r/\xfa\xbc\x1f\xcb\x85@'
tRp1938
tp1939
a(S'YP_003045863.1'
p1940
g3
(g5
S'IJ\xebsE\xe1\x85@'
tRp1941
tp1942
a(S'YP_003045523.1'
p1943
g3
(g5
S'\x1c_K\xf9\xff(\x86@'
tRp1944
tp1945
a(S'YP_003044174.1'
p1946
g3
(g5
S'\x96\xd3Y\xf6\xff9\x86@'
tRp1947
tp1948
a(S'YP_003043281.1'
p1949
g3
(g5
S'\xf2\x8c\xe1\x9e`@\x86@'
tRp1950
tp1951
a(S'YP_003043855.1'
p1952
g3
(g5
S'\xa8\x87\xc8\x1a\xc2K\x86@'
tRp1953
tp1954
a(S'YP_003045113.1'
p1955
g3
(g5
S'\xfc\x9c\xab\xf2\x80M\x86@'
tRp1956
tp1957
a(S'YP_003046920.1'
p1958
g3
(g5
S'\xa2Z\xc1pv_\x86@'
tRp1959
tp1960
a(S'YP_003045368.1'
p1961
g3
(g5
S'G^gS~e\x86@'
tRp1962
tp1963
a(S'YP_003045613.1'
p1964
g3
(g5
S"\xe8\x9d\x01\\'k\x86@"
tRp1965
tp1966
a(S'YP_003047200.1'
p1967
g3
(g5
S'd\xd6\xa6*3\x80\x86@'
tRp1968
tp1969
a(S'YP_003045650.1'
p1970
g3
(g5
S'\xaa\x8c\x00\xb8\xbf\x80\x86@'
tRp1971
tp1972
a(S'YP_003045688.1'
p1973
g3
(g5
S'_\xc1K\xe1|\x87\x86@'
tRp1974
tp1975
a(S'YP_003043796.1'
p1976
g3
(g5
S'\xec\xdcQ\xac\xeb\xbf\x86@'
tRp1977
tp1978
a(S'YP_003043546.1'
p1979
g3
(g5
S'ma\xd3\xf2\xb2\xda\x86@'
tRp1980
tp1981
a(S'YP_003043595.1'
p1982
g3
(g5
S'\x10\xb2\t\xff6\xe5\x86@'
tRp1983
tp1984
a(S'YP_003045398.1'
p1985
g3
(g5
S'\xf0D\x9b\xd4,\xec\x86@'
tRp1986
tp1987
a(S'YP_003045911.1'
p1988
g3
(g5
S'\xc2C+\xea\xe9\xf0\x86@'
tRp1989
tp1990
a(S'YP_003043352.1'
p1991
g3
(g5
S'\x1b\xd8\xc6\xdfT\xf4\x86@'
tRp1992
tp1993
a(S'YP_003044388.1'
p1994
g3
(g5
S'!P\xb8\xef)\xf8\x86@'
tRp1995
tp1996
a(S'YP_003046852.1'
p1997
g3
(g5
S'6\xc0\xa1w\xf7\xfa\x86@'
tRp1998
tp1999
a(S'YP_003044700.1'
p2000
g3
(g5
S'j\xe7XwO\x1c\x87@'
tRp2001
tp2002
a(S'YP_003046002.1'
p2003
g3
(g5
S'\xec\x9ff\x0b\x01H\x87@'
tRp2004
tp2005
a(S'YP_003046487.1'
p2006
g3
(g5
S'\x0f\xf8\xf1Q>L\x87@'
tRp2007
tp2008
a(S'YP_003045437.1'
p2009
g3
(g5
S'\x86\xf4\xd8C\xfaN\x87@'
tRp2010
tp2011
a(S'YP_003045679.1'
p2012
g3
(g5
S'\xffx\x9fpI[\x87@'
tRp2013
tp2014
a(S'YP_003043309.1'
p2015
g3
(g5
S'\rE$#1u\x87@'
tRp2016
tp2017
a(S'YP_003044472.1'
p2018
g3
(g5
S'\xfe\x99S-\x0cv\x87@'
tRp2019
tp2020
a(S'YP_003047419.1'
p2021
g3
(g5
S'\xc6Zgq_~\x87@'
tRp2022
tp2023
a(S'YP_003044782.1'
p2024
g3
(g5
S'\x96\x88\x07\x96\x8a\xa7\x87@'
tRp2025
tp2026
a(S'YP_003044861.1'
p2027
g3
(g5
S'\xcf\xeb)\x1b\xdf\xb1\x87@'
tRp2028
tp2029
a(S'YP_003043862.1'
p2030
g3
(g5
S'F\x87\x86V\x96\xc7\x87@'
tRp2031
tp2032
a(S'YP_003045652.1'
p2033
g3
(g5
S'\xbc\xe8\xbb4\r\xce\x87@'
tRp2034
tp2035
a(S'YP_003045654.1'
p2036
g3
(g5
S'\x1f\xecd\xc5{\xd2\x87@'
tRp2037
tp2038
a(S'YP_003045610.1'
p2039
g3
(g5
S'\r\xf1s@5\xe4\x87@'
tRp2040
tp2041
a(S'YP_003044167.1'
p2042
g3
(g5
S'\x81\x9d\xf1\x9b\x92\xed\x87@'
tRp2043
tp2044
a(S'YP_003044154.1'
p2045
g3
(g5
S'\xd8\x1e\xde\xa3\xb1\xf8\x87@'
tRp2046
tp2047
a(S'YP_003045545.1'
p2048
g3
(g5
S'\xe5\x91\xc8\xbe\x90\x08\x88@'
tRp2049
tp2050
a(S'YP_003045829.1'
p2051
g3
(g5
S'^\xca\xf9\xe4\x9a\x13\x88@'
tRp2052
tp2053
a(S'YP_003045379.1'
p2054
g3
(g5
S'%)/Q\x13\x16\x88@'
tRp2055
tp2056
a(S'YP_003043823.1'
p2057
g3
(g5
S'\xec\xb4\xde\x8c\xb4(\x88@'
tRp2058
tp2059
a(S'YP_003043927.1'
p2060
g3
(g5
S'ar\xf8\xafB/\x88@'
tRp2061
tp2062
a(S'YP_003043324.1'
p2063
g3
(g5
S'\xff\xda\ni\xc68\x88@'
tRp2064
tp2065
a(S'YP_003046292.1'
p2066
g3
(g5
S'MY\xe2{\xc8:\x88@'
tRp2067
tp2068
a(S'YP_003046127.1'
p2069
g3
(g5
S'#\xc2\x0e7\xe0?\x88@'
tRp2070
tp2071
a(S'YP_003045615.1'
p2072
g3
(g5
S"'\tV\x94\xaeL\x88@"
tRp2073
tp2074
a(S'YP_003045955.1'
p2075
g3
(g5
S'\xbd\xc7\x974B^\x88@'
tRp2076
tp2077
a(S'YP_003045913.1'
p2078
g3
(g5
S'\xa3\xe1V\x0ckh\x88@'
tRp2079
tp2080
a(S'YP_003043321.1'
p2081
g3
(g5
S'\x0b\x04#P\x14j\x88@'
tRp2082
tp2083
a(S'YP_003046557.1'
p2084
g3
(g5
S'A\xd3\x9b\xe1wk\x88@'
tRp2085
tp2086
a(S'YP_003044741.1'
p2087
g3
(g5
S'A[T\xc7\xfdk\x88@'
tRp2088
tp2089
a(S'YP_003043318.1'
p2090
g3
(g5
S'\xf3\r\xcc\xbd\xc2\x8c\x88@'
tRp2091
tp2092
a(S'YP_003043596.1'
p2093
g3
(g5
S'P%\x8b\xb6D\xc4\x88@'
tRp2094
tp2095
a(S'YP_003046486.1'
p2096
g3
(g5
S'\x83\x81C\x88\xb8\xd9\x88@'
tRp2097
tp2098
a(S'YP_003044492.1'
p2099
g3
(g5
S'\xa5\xf1\xea\x08R\xf2\x88@'
tRp2100
tp2101
a(S'YP_003046531.1'
p2102
g3
(g5
S'\xf5\xf3\xa2C\xd6\xf9\x88@'
tRp2103
tp2104
a(S'YP_003044948.1'
p2105
g3
(g5
S'\xae\xf0W| \x01\x89@'
tRp2106
tp2107
a(S'YP_003044833.1'
p2108
g3
(g5
S'K4\x1e\xce\xe3\x17\x89@'
tRp2109
tp2110
a(S'YP_003043930.1'
p2111
g3
(g5
S'\xa2\x12\x8f\x04\xed\x1f\x89@'
tRp2112
tp2113
a(S'YP_003047179.1'
p2114
g3
(g5
S'1\xd0L\x80%!\x89@'
tRp2115
tp2116
a(S'YP_003047273.1'
p2117
g3
(g5
S'm\x84oH8G\x89@'
tRp2118
tp2119
a(S'YP_003046854.1'
p2120
g3
(g5
S'\x00\xda\x8b\x7f\x88V\x89@'
tRp2121
tp2122
a(S'YP_003045605.1'
p2123
g3
(g5
S'}\x1fooN]\x89@'
tRp2124
tp2125
a(S'YP_003044580.1'
p2126
g3
(g5
S'\xc6\x0e\xb5\xf8\xc0u\x89@'
tRp2127
tp2128
a(S'YP_003046378.1'
p2129
g3
(g5
S'\xf4*\xc3\xd9,w\x89@'
tRp2130
tp2131
a(S'YP_003044915.1'
p2132
g3
(g5
S'C\xbcy\x00`\x8e\x89@'
tRp2133
tp2134
a(S'YP_003046862.1'
p2135
g3
(g5
S'\x0e\xf3\xf0hw\x96\x89@'
tRp2136
tp2137
a(S'YP_003045404.1'
p2138
g3
(g5
S'.]Z\xcbb\x9d\x89@'
tRp2139
tp2140
a(S'YP_003045106.1'
p2141
g3
(g5
S'\xf0r\xc9\x85\x02\xa3\x89@'
tRp2142
tp2143
a(S'YP_003046110.1'
p2144
g3
(g5
S'u\xddD\xf2\x16\xa6\x89@'
tRp2145
tp2146
a(S'YP_003046279.1'
p2147
g3
(g5
S"\xf7\x9c\xb4\xe2'\xad\x89@"
tRp2148
tp2149
a(S'YP_003045350.1'
p2150
g3
(g5
S'\xfd{\xd1\xf8\xf2\xb0\x89@'
tRp2151
tp2152
a(S'YP_003044894.1'
p2153
g3
(g5
S'\x13\xb0]\xef\x7f\xb3\x89@'
tRp2154
tp2155
a(S'YP_003047433.1'
p2156
g3
(g5
S'm\xa8=\xef@\xb8\x89@'
tRp2157
tp2158
a(S'YP_003047175.1'
p2159
g3
(g5
S'u\xbf[\xd1\xcc\xc1\x89@'
tRp2160
tp2161
a(S'YP_003047282.1'
p2162
g3
(g5
S'_\x87\xfe\x9d\x84\xc4\x89@'
tRp2163
tp2164
a(S'YP_003047079.1'
p2165
g3
(g5
S'z\x88\x8aS\x8b\xc4\x89@'
tRp2166
tp2167
a(S'YP_003045824.1'
p2168
g3
(g5
S'a~\xabJM\xcd\x89@'
tRp2169
tp2170
a(S'YP_003047289.1'
p2171
g3
(g5
S'\x1c:\xfe\x84\xb3\xd1\x89@'
tRp2172
tp2173
a(S'YP_003044884.1'
p2174
g3
(g5
S'\xc3\xf5&B\xe9\xd1\x89@'
tRp2175
tp2176
a(S'YP_003047417.1'
p2177
g3
(g5
S'\xb4j\x81\x1a\xbc\xda\x89@'
tRp2178
tp2179
a(S'YP_003046421.1'
p2180
g3
(g5
S'.un\xee\xd4\xdb\x89@'
tRp2181
tp2182
a(S'YP_003046832.1'
p2183
g3
(g5
S'h\x0f~K\xd6\xe7\x89@'
tRp2184
tp2185
a(S'YP_003044561.1'
p2186
g3
(g5
S'\xed\x15 Q:\xf9\x89@'
tRp2187
tp2188
a(S'YP_003045446.1'
p2189
g3
(g5
S'\x9aa\xc5<\xbb\x1f\x8a@'
tRp2190
tp2191
a(S'YP_003045874.1'
p2192
g3
(g5
S'\xcbi\xaa`\xc3#\x8a@'
tRp2193
tp2194
a(S'YP_003045870.1'
p2195
g3
(g5
S'\xd4\xc6\x9d\x057R\x8a@'
tRp2196
tp2197
a(S'YP_003046254.1'
p2198
g3
(g5
S'\xdbcz\xbf\xab\x8b\x8a@'
tRp2199
tp2200
a(S'YP_003043615.1'
p2201
g3
(g5
S'\xd5\x8a\xce\x03\x8b\xca\x8a@'
tRp2202
tp2203
a(S'YP_003045678.1'
p2204
g3
(g5
S'\xc6\xe0N\xb8\xda\xd3\x8a@'
tRp2205
tp2206
a(S'YP_003045121.1'
p2207
g3
(g5
S'\x18W\xf4E\xb9\xe7\x8a@'
tRp2208
tp2209
a(S'YP_003044461.1'
p2210
g3
(g5
S'\xd20K\x14L\xf4\x8a@'
tRp2211
tp2212
a(S'YP_003043235.1'
p2213
g3
(g5
S'\x91\xb8R~{\xfa\x8a@'
tRp2214
tp2215
a(S'YP_003045353.1'
p2216
g3
(g5
S'\xa4:\xd5p\xe0\x00\x8b@'
tRp2217
tp2218
a(S'YP_003043853.1'
p2219
g3
(g5
S'\x1b\xc8\x93}\xf0\x1b\x8b@'
tRp2220
tp2221
a(S'YP_003043265.1'
p2222
g3
(g5
S'Q\xfb1\xcc\xcf\x1d\x8b@'
tRp2223
tp2224
a(S'YP_003046810.1'
p2225
g3
(g5
S'y<\x16:ce\x8b@'
tRp2226
tp2227
a(S'YP_003044370.1'
p2228
g3
(g5
S'\x80\x9bQj|m\x8b@'
tRp2229
tp2230
a(S'YP_003044752.1'
p2231
g3
(g5
S'N/\\#\xa0o\x8b@'
tRp2232
tp2233
a(S'YP_003047249.1'
p2234
g3
(g5
S'\x12f\x85!ks\x8b@'
tRp2235
tp2236
a(S'YP_003044930.1'
p2237
g3
(g5
S'9\x1c\xac\xb0\x91\xa0\x8b@'
tRp2238
tp2239
a(S'YP_003046240.1'
p2240
g3
(g5
S'\xb1:\x07\xe1\xcb\xbf\x8b@'
tRp2241
tp2242
a(S'YP_003044460.1'
p2243
g3
(g5
S'\x90b\t\x9d{\xfb\x8b@'
tRp2244
tp2245
a(S'YP_003043822.1'
p2246
g3
(g5
S'HC\xde\xbeR\xfe\x8b@'
tRp2247
tp2248
a(S'YP_003046756.1'
p2249
g3
(g5
S'Fk\x8d\\\xb5I\x8c@'
tRp2250
tp2251
a(S'YP_003045714.1'
p2252
g3
(g5
S'%{\x00\xca#J\x8c@'
tRp2253
tp2254
a(S'YP_003045969.1'
p2255
g3
(g5
S'T?$\xd4,h\x8c@'
tRp2256
tp2257
a(S'YP_003045635.1'
p2258
g3
(g5
S'\xdcG\xeb\xdf\x9f\x8c\x8c@'
tRp2259
tp2260
a(S'YP_003044872.1'
p2261
g3
(g5
S'\xd2\x88\xc6\xc2\xa2\xa4\x8c@'
tRp2262
tp2263
a(S'YP_003044345.1'
p2264
g3
(g5
S'\xe2\xb4\x13\x1e`\xb4\x8c@'
tRp2265
tp2266
a(S'YP_003046337.1'
p2267
g3
(g5
S'\xc4\xb7\x82\xfdg\xc2\x8c@'
tRp2268
tp2269
a(S'YP_003045382.1'
p2270
g3
(g5
S'\xb9\xfe\xecR\x07\xcf\x8c@'
tRp2271
tp2272
a(S'YP_003044149.1'
p2273
g3
(g5
S'\x07\xb7V\xb7\xec\xf5\x8c@'
tRp2274
tp2275
a(S'YP_003044314.1'
p2276
g3
(g5
S'\xc2\x8b\x1d\x84\x11\x0c\x8d@'
tRp2277
tp2278
a(S'YP_003046124.1'
p2279
g3
(g5
S' \xd7C\xc3\xf5\x1a\x8d@'
tRp2280
tp2281
a(S'YP_003043467.1'
p2282
g3
(g5
S'$\x85\x1d\x0f\xd00\x8d@'
tRp2283
tp2284
a(S'YP_003046758.1'
p2285
g3
(g5
S'v\xff\xf3vTH\x8d@'
tRp2286
tp2287
a(S'YP_003046452.1'
p2288
g3
(g5
S'\xbd\r\xab_\x88J\x8d@'
tRp2289
tp2290
a(S'YP_003045512.1'
p2291
g3
(g5
S'\x93\xbd\xb1\xab1S\x8d@'
tRp2292
tp2293
a(S'YP_003045354.1'
p2294
g3
(g5
S'\xa7\xc5\xf5J\x02o\x8d@'
tRp2295
tp2296
a(S'YP_003046323.1'
p2297
g3
(g5
S'\x9b\xc4\x13\x8ako\x8d@'
tRp2298
tp2299
a(S'YP_003046591.1'
p2300
g3
(g5
S'\x00\xbc\x93\xf8\x07\x89\x8d@'
tRp2301
tp2302
a(S'YP_003045020.1'
p2303
g3
(g5
S'm\x95Gy\x1d\x92\x8d@'
tRp2304
tp2305
a(S'YP_003045090.1'
p2306
g3
(g5
S'\xfbg*Zz\x9f\x8d@'
tRp2307
tp2308
a(S'YP_003045707.1'
p2309
g3
(g5
S'\xf3\xa1\xfe\x97\xf5\xac\x8d@'
tRp2310
tp2311
a(S'YP_003043361.1'
p2312
g3
(g5
S'\xbd\xe7\x8a\x05;\xbb\x8d@'
tRp2313
tp2314
a(S'YP_003046680.1'
p2315
g3
(g5
S':\xcag\x0e\x8e\xbb\x8d@'
tRp2316
tp2317
a(S'YP_003044169.1'
p2318
g3
(g5
S'\xfe]\x14\xf0\xa2\xbf\x8d@'
tRp2319
tp2320
a(S'YP_003046226.1'
p2321
g3
(g5
S'\xeaU{\xb5"\xcc\x8d@'
tRp2322
tp2323
a(S'YP_003045941.1'
p2324
g3
(g5
S'>\xbdn|}\xd4\x8d@'
tRp2325
tp2326
a(S'YP_003045928.1'
p2327
g3
(g5
S'\x92\x14\x90\xa5\xbb\xd6\x8d@'
tRp2328
tp2329
a(S'YP_003047024.1'
p2330
g3
(g5
S'C\xde)}\xed\xd8\x8d@'
tRp2331
tp2332
a(S'YP_003046219.1'
p2333
g3
(g5
S'\xcd\x1d\xf4\xa5\xf8\xe6\x8d@'
tRp2334
tp2335
a(S'YP_003043799.1'
p2336
g3
(g5
S'\xfb\xb8\xc2\xfeBN\x8e@'
tRp2337
tp2338
a(S'YP_003043943.1'
p2339
g3
(g5
S'\x08\xcd\xb2\x08\x11\xa4\x8e@'
tRp2340
tp2341
a(S'YP_003045087.1'
p2342
g3
(g5
S'\xe3c\xa8|\xf1\xc9\x8e@'
tRp2343
tp2344
a(S'YP_003046425.1'
p2345
g3
(g5
S'\xa0\xbam\xb1\xd0\xe3\x8e@'
tRp2346
tp2347
a(S'YP_003044449.1'
p2348
g3
(g5
S'\x90-\x0b\n\xaf+\x8f@'
tRp2349
tp2350
a(S'YP_003043518.1'
p2351
g3
(g5
S'\xa1\x0b@5\xd87\x8f@'
tRp2352
tp2353
a(S'YP_003045032.1'
p2354
g3
(g5
S"3M\xabB'F\x8f@"
tRp2355
tp2356
a(S'YP_003044783.1'
p2357
g3
(g5
S'\x1e?\xa6\xb9\x9aM\x8f@'
tRp2358
tp2359
a(S'YP_003045400.1'
p2360
g3
(g5
S'\x8d\xbf[\xb1\x11b\x8f@'
tRp2361
tp2362
a(S'YP_003046424.1'
p2363
g3
(g5
S'\xa3`\x8a\x8c1}\x8f@'
tRp2364
tp2365
a(S'YP_003047063.1'
p2366
g3
(g5
S'\xa2Y\xd6X\xe6~\x8f@'
tRp2367
tp2368
a(S'YP_003047248.1'
p2369
g3
(g5
S'\xc6\xc9\xd1h\xfe\x84\x8f@'
tRp2370
tp2371
a(S'YP_003045796.1'
p2372
g3
(g5
S':=\xa8\xbdB\x93\x8f@'
tRp2373
tp2374
a(S'YP_003046828.1'
p2375
g3
(g5
S'Wk|#F\xa6\x8f@'
tRp2376
tp2377
a(S'YP_003044023.1'
p2378
g3
(g5
S'0\xf7\x8f\xdeB\xa9\x8f@'
tRp2379
tp2380
a(S'YP_003045265.1'
p2381
g3
(g5
S'T\x9d\xa1<\x94\xa9\x8f@'
tRp2382
tp2383
a(S'YP_003044293.1'
p2384
g3
(g5
S'\x171\x0f\xcb\n\xc8\x8f@'
tRp2385
tp2386
a(S'YP_003046317.1'
p2387
g3
(g5
S'}A*\x80\x9b\xcd\x8f@'
tRp2388
tp2389
a(S'YP_003045966.1'
p2390
g3
(g5
S'(\x90\x04\xb0`\xdb\x8f@'
tRp2391
tp2392
a(S'YP_003044366.1'
p2393
g3
(g5
S'\x0e`\x8a\x93V\x0e\x90@'
tRp2394
tp2395
a(S'YP_003045456.1'
p2396
g3
(g5
S'O\xbe\xbf\xc8\x80\x12\x90@'
tRp2397
tp2398
a(S'YP_003044389.1'
p2399
g3
(g5
S'kB\x80\xa4\x1f\x16\x90@'
tRp2400
tp2401
a(S'YP_003043847.1'
p2402
g3
(g5
S';\x8e\xaal\xfd=\x90@'
tRp2403
tp2404
a(S'YP_003046604.1'
p2405
g3
(g5
S'\xb2\x95\xe1\xcf7A\x90@'
tRp2406
tp2407
a(S'YP_003044113.1'
p2408
g3
(g5
S'\xa7g\x07X\xb1H\x90@'
tRp2409
tp2410
a(S'YP_003046670.1'
p2411
g3
(g5
S'\xedy5\xf2)J\x90@'
tRp2412
tp2413
a(S'YP_003046679.1'
p2414
g3
(g5
S'\xd3\xcf\xa8\xe2\xb5N\x90@'
tRp2415
tp2416
a(S'YP_003046311.1'
p2417
g3
(g5
S'e(V3]O\x90@'
tRp2418
tp2419
a(S'YP_003045603.1'
p2420
g3
(g5
S'\x0b\xa27`\xb2z\x90@'
tRp2421
tp2422
a(S'YP_003045022.1'
p2423
g3
(g5
S'\x17\x84\xc4Op}\x90@'
tRp2424
tp2425
a(S'YP_003046645.1'
p2426
g3
(g5
S'\x89\x0ee3\xb3\x86\x90@'
tRp2427
tp2428
a(S'YP_003044931.1'
p2429
g3
(g5
S'0\x11\x03\xbb\x8e\x8f\x90@'
tRp2430
tp2431
a(S'YP_003046202.1'
p2432
g3
(g5
S'<\x0c\xea\x8b\x06\xa0\x90@'
tRp2433
tp2434
a(S'YP_003046673.1'
p2435
g3
(g5
S'q\xce\x01\x9fP\xa5\x90@'
tRp2436
tp2437
a(S'YP_003044077.1'
p2438
g3
(g5
S'\xc7\xe6-\xe9\xe5\xa5\x90@'
tRp2439
tp2440
a(S'YP_003046971.1'
p2441
g3
(g5
S'\xbc\xdd\xe0\xba\xf6\xac\x90@'
tRp2442
tp2443
a(S'YP_003046437.1'
p2444
g3
(g5
S'\xf0C\x96!x\xb1\x90@'
tRp2445
tp2446
a(S'YP_003046322.1'
p2447
g3
(g5
S'\x8a@\x8dK\x89\xb7\x90@'
tRp2448
tp2449
a(S'YP_003045915.1'
p2450
g3
(g5
S'{\xd63\x11<\xc6\x90@'
tRp2451
tp2452
a(S'YP_003045595.1'
p2453
g3
(g5
S'g\xb1\xd1\xb9\xbd\xdf\x90@'
tRp2454
tp2455
a(S'YP_003045923.1'
p2456
g3
(g5
S'E\x94\x1c\xdf\xd4\xe0\x90@'
tRp2457
tp2458
a(S'YP_003044781.1'
p2459
g3
(g5
S'\x82k\x0cS(\xf6\x90@'
tRp2460
tp2461
a(S'YP_003047281.1'
p2462
g3
(g5
S'+\x0f+@\xc3\xfd\x90@'
tRp2463
tp2464
a(S'YP_003044393.1'
p2465
g3
(g5
S'pP\xdbg$\x15\x91@'
tRp2466
tp2467
a(S'YP_003045665.1'
p2468
g3
(g5
S'\x82s6\xb9\xa5/\x91@'
tRp2469
tp2470
a(S'YP_003045814.1'
p2471
g3
(g5
S'\xd5\xc3oO\xa4A\x91@'
tRp2472
tp2473
a(S'YP_003043832.1'
p2474
g3
(g5
S'*w\xdd\n\x82M\x91@'
tRp2475
tp2476
a(S'YP_003046231.1'
p2477
g3
(g5
S'\x9a\xc6\x03}\xafX\x91@'
tRp2478
tp2479
a(S'YP_003044281.1'
p2480
g3
(g5
S'\xf6B\xc2`|o\x91@'
tRp2481
tp2482
a(S'YP_003044250.1'
p2483
g3
(g5
S'\x8d?\x87\x96\xc9s\x91@'
tRp2484
tp2485
a(S'YP_003045677.1'
p2486
g3
(g5
S'\x1b\xd8}\x0f\xed\x82\x91@'
tRp2487
tp2488
a(S'YP_003043658.1'
p2489
g3
(g5
S'O\xf6\rv1\x84\x91@'
tRp2490
tp2491
a(S'YP_003046746.1'
p2492
g3
(g5
S'\xbb\x1e\x98\x87"\x86\x91@'
tRp2493
tp2494
a(S'YP_003044024.1'
p2495
g3
(g5
S'\x92\x1f\x17K`\x8c\x91@'
tRp2496
tp2497
a(S'YP_003046891.1'
p2498
g3
(g5
S'\xder\xef\xf6S\x91\x91@'
tRp2499
tp2500
a(S'YP_003043590.1'
p2501
g3
(g5
S'^\xad\x05\x95\t\x94\x91@'
tRp2502
tp2503
a(S'YP_003046356.1'
p2504
g3
(g5
S'\xe7\x83q\xc0\xef\x96\x91@'
tRp2505
tp2506
a(S'YP_003045403.1'
p2507
g3
(g5
S'cP/p\xf0\x98\x91@'
tRp2508
tp2509
a(S'YP_003045416.1'
p2510
g3
(g5
S'1\xe9\x06/\xb4\xa0\x91@'
tRp2511
tp2512
a(S'YP_003043856.1'
p2513
g3
(g5
S'\x99\xdb\r\x87\xb5\xa1\x91@'
tRp2514
tp2515
a(S'YP_003045034.1'
p2516
g3
(g5
S'C\xfb\xf9\x8d;\xb2\x91@'
tRp2517
tp2518
a(S'YP_003045664.1'
p2519
g3
(g5
S'nb\xb4K/\xcb\x91@'
tRp2520
tp2521
a(S'YP_003047059.1'
p2522
g3
(g5
S'\x9a\xb6\x1d\x93j\xe6\x91@'
tRp2523
tp2524
a(S'YP_003046646.1'
p2525
g3
(g5
S'jEn\xac\xbe\xe9\x91@'
tRp2526
tp2527
a(S'YP_003043362.1'
p2528
g3
(g5
S'qT\xf9kH\xec\x91@'
tRp2529
tp2530
a(S'YP_003043353.1'
p2531
g3
(g5
S'\\\xf3G\xc5r\xfa\x91@'
tRp2532
tp2533
a(S'YP_003046529.1'
p2534
g3
(g5
S'I@?\xc1O\xfb\x91@'
tRp2535
tp2536
a(S'YP_003046237.1'
p2537
g3
(g5
S'\x99d)\xb8\xe6\x07\x92@'
tRp2538
tp2539
a(S'YP_003046583.1'
p2540
g3
(g5
S'\x9d\x19N\\H/\x92@'
tRp2541
tp2542
a(S'YP_003043864.1'
p2543
g3
(g5
S'\xf7\xa2w\xfc\xd6/\x92@'
tRp2544
tp2545
a(S'YP_003046333.1'
p2546
g3
(g5
S']\x80:\xb2\x00@\x92@'
tRp2547
tp2548
a(S'YP_003043286.1'
p2549
g3
(g5
S'5b\xb4\x80`T\x92@'
tRp2550
tp2551
a(S'YP_003043583.1'
p2552
g3
(g5
S'9\xc8\xf0\x865d\x92@'
tRp2553
tp2554
a(S'YP_003043349.1'
p2555
g3
(g5
S'\xd0x\xf3[\xcd}\x92@'
tRp2556
tp2557
a(S'YP_003045427.1'
p2558
g3
(g5
S'\x9f\x95\x1e\xc1\x86\x80\x92@'
tRp2559
tp2560
a(S'YP_003043985.1'
p2561
g3
(g5
S'r\xc6@N\xac\x84\x92@'
tRp2562
tp2563
a(S'YP_003045118.1'
p2564
g3
(g5
S' :\x02w\x89\x86\x92@'
tRp2565
tp2566
a(S'YP_003046239.1'
p2567
g3
(g5
S"\x87\x13'\xbe{\x94\x92@"
tRp2568
tp2569
a(S'YP_003044290.1'
p2570
g3
(g5
S'\xa6MJ\xb7)\x97\x92@'
tRp2571
tp2572
a(S'YP_003045459.1'
p2573
g3
(g5
S'M\x0e\xbe\xcd\x0e\x9b\x92@'
tRp2574
tp2575
a(S'YP_003043846.1'
p2576
g3
(g5
S'\xc7\xdd\xec\x1a\\\xad\x92@'
tRp2577
tp2578
a(S'YP_003047112.1'
p2579
g3
(g5
S'\xa7\xbb\x9b\x91\x84\xaf\x92@'
tRp2580
tp2581
a(S'YP_003046803.1'
p2582
g3
(g5
S'\xd7x\xec\x99\x16\xca\x92@'
tRp2583
tp2584
a(S'YP_003044469.1'
p2585
g3
(g5
S'\x0ci\xb1e\xb2\xcb\x92@'
tRp2586
tp2587
a(S'YP_003043466.1'
p2588
g3
(g5
S'P$\x07\x97\x87\xd3\x92@'
tRp2589
tp2590
a(S'YP_003043702.1'
p2591
g3
(g5
S'L\x87\x9e\xf6\xc4\xdb\x92@'
tRp2592
tp2593
a(S'YP_003045843.1'
p2594
g3
(g5
S'\xab\xaf\xa9\xf9\xd1\xdb\x92@'
tRp2595
tp2596
a(S'YP_003046825.1'
p2597
g3
(g5
S'\x9cx\xebe\x1e\xde\x92@'
tRp2598
tp2599
a(S'YP_003047212.1'
p2600
g3
(g5
S'\xc4\x1d\xa9;b\x01\x93@'
tRp2601
tp2602
a(S'YP_003045436.1'
p2603
g3
(g5
S'V&}\x1b"\x05\x93@'
tRp2604
tp2605
a(S'YP_003044845.1'
p2606
g3
(g5
S'>\xcc\x8d\xc5\xf7\x0e\x93@'
tRp2607
tp2608
a(S'YP_003044273.1'
p2609
g3
(g5
S'\x14J~BB\x0f\x93@'
tRp2610
tp2611
a(S'YP_003047321.1'
p2612
g3
(g5
S'7\xff\xc4\xd3\x86\x1d\x93@'
tRp2613
tp2614
a(S'YP_003045007.1'
p2615
g3
(g5
S'\xc4\x8e+\xc2\x14(\x93@'
tRp2616
tp2617
a(S'YP_003044771.1'
p2618
g3
(g5
S'\xb6\xc1w\x96\xae9\x93@'
tRp2619
tp2620
a(S'YP_003043406.1'
p2621
g3
(g5
S'.\xbe\xcd\xb3\xf7:\x93@'
tRp2622
tp2623
a(S'YP_003045965.1'
p2624
g3
(g5
S'\x0c\xfbz\xe2CG\x93@'
tRp2625
tp2626
a(S'YP_003043395.1'
p2627
g3
(g5
S'\x9d\x85\xea\x14_N\x93@'
tRp2628
tp2629
a(S'YP_003046441.1'
p2630
g3
(g5
S'i\xfd\x82\x9e@V\x93@'
tRp2631
tp2632
a(S'YP_003045410.1'
p2633
g3
(g5
S'\xc1"\x1e\xcbm]\x93@'
tRp2634
tp2635
a(S'YP_003047427.1'
p2636
g3
(g5
S'\xc2\x0c\xc81\x9cb\x93@'
tRp2637
tp2638
a(S'YP_003044260.1'
p2639
g3
(g5
S'\xcb\x80>)tm\x93@'
tRp2640
tp2641
a(S'YP_003045956.1'
p2642
g3
(g5
S'\x1ad\x0fS\xba\xa3\x93@'
tRp2643
tp2644
a(S'YP_003047001.1'
p2645
g3
(g5
S'\xcaN\xc68\xed\xa6\x93@'
tRp2646
tp2647
a(S'YP_003043996.1'
p2648
g3
(g5
S'\x1c\xa5\xfa\xd4\x00\xad\x93@'
tRp2649
tp2650
a(S'YP_003047058.1'
p2651
g3
(g5
S't\x0fq\xa0_\xbd\x93@'
tRp2652
tp2653
a(S'YP_003043560.1'
p2654
g3
(g5
S'\\\xfa\xa3\x8d6\xdf\x93@'
tRp2655
tp2656
a(S'YP_003044474.1'
p2657
g3
(g5
S';\xd2\x0f\xcd\xaa\xe6\x93@'
tRp2658
tp2659
a(S'YP_003046790.1'
p2660
g3
(g5
S'R\x96\x8a\x03\x9b\xed\x93@'
tRp2661
tp2662
a(S'YP_003047101.1'
p2663
g3
(g5
S'{\x0e!\xe1y\xf4\x93@'
tRp2664
tp2665
a(S'YP_003045460.1'
p2666
g3
(g5
S'm\xbe\xf2\xcds\xfd\x93@'
tRp2667
tp2668
a(S'YP_003045497.1'
p2669
g3
(g5
S'\xcay=OY\n\x94@'
tRp2670
tp2671
a(S'YP_003044870.1'
p2672
g3
(g5
S'\x07\xee@\x1b7,\x94@'
tRp2673
tp2674
a(S'YP_003043920.1'
p2675
g3
(g5
S'\xfbEnA\x03_\x94@'
tRp2676
tp2677
a(S'YP_003045120.1'
p2678
g3
(g5
S'\x1e\xfc\xdc]\x95j\x94@'
tRp2679
tp2680
a(S'YP_003043416.1'
p2681
g3
(g5
S'2i\xc3Rkw\x94@'
tRp2682
tp2683
a(S'YP_003044346.1'
p2684
g3
(g5
S'\x92\x94<\x97\xcdy\x94@'
tRp2685
tp2686
a(S'YP_003043378.1'
p2687
g3
(g5
S'\x1e\x88\x93B\xa5\x92\x94@'
tRp2688
tp2689
a(S'YP_003044248.1'
p2690
g3
(g5
S'W<M\xfeW\xa7\x94@'
tRp2691
tp2692
a(S'YP_003047098.1'
p2693
g3
(g5
S'\xb6\xc6\xcb\x94\xa3\xb5\x94@'
tRp2694
tp2695
a(S'YP_003046813.1'
p2696
g3
(g5
S'8W\xad\xf0\xc3\xce\x94@'
tRp2697
tp2698
a(S'YP_003046918.1'
p2699
g3
(g5
S'\xdbO\x0f\xd8v\xd8\x94@'
tRp2700
tp2701
a(S'YP_003044984.1'
p2702
g3
(g5
S'\xa9\x9a\xc0\x05\x96\xe3\x94@'
tRp2703
tp2704
a(S'YP_003043619.1'
p2705
g3
(g5
S']\xd4\x9dH$\xee\x94@'
tRp2706
tp2707
a(S'YP_003044139.1'
p2708
g3
(g5
S'\x97\xd5\xdd\xaaZ\xf4\x94@'
tRp2709
tp2710
a(S'YP_003044985.1'
p2711
g3
(g5
S'\x91\xd9_\r\xeb0\x95@'
tRp2712
tp2713
a(S'YP_003047293.1'
p2714
g3
(g5
S'\xa5\x1e\xd4X\t>\x95@'
tRp2715
tp2716
a(S'YP_003043244.1'
p2717
g3
(g5
S'\x141\x10N;I\x95@'
tRp2718
tp2719
a(S'YP_003044887.1'
p2720
g3
(g5
S'\xcf\xa1p\x93\x00M\x95@'
tRp2721
tp2722
a(S'YP_003044562.1'
p2723
g3
(g5
S'\xb9\x84P\x112R\x95@'
tRp2724
tp2725
a(S'YP_003047318.1'
p2726
g3
(g5
S'F\x83$k\xfeT\x95@'
tRp2727
tp2728
a(S'YP_003045918.1'
p2729
g3
(g5
S't}\x87\xd1^\\\x95@'
tRp2730
tp2731
a(S'YP_003047270.1'
p2732
g3
(g5
S'\xdd\xed\x13\xa8z\\\x95@'
tRp2733
tp2734
a(S'YP_003043631.1'
p2735
g3
(g5
S'F\xbe\xcf\x10\xea\\\x95@'
tRp2736
tp2737
a(S'YP_003046974.1'
p2738
g3
(g5
S'e\xcd\xfer\xbb`\x95@'
tRp2739
tp2740
a(S'YP_003043850.1'
p2741
g3
(g5
S'\x00_w\xeb\x19g\x95@'
tRp2742
tp2743
a(S'YP_003045429.1'
p2744
g3
(g5
S' \x04Rn\xc4o\x95@'
tRp2745
tp2746
a(S'YP_003043408.1'
p2747
g3
(g5
S'\xf1$!\xc0\x1e\x83\x95@'
tRp2748
tp2749
a(S'YP_003046980.1'
p2750
g3
(g5
S'\xac\xfaD\x92e\x90\x95@'
tRp2751
tp2752
a(S'YP_003044853.1'
p2753
g3
(g5
S'\ng[\xc5{\x9e\x95@'
tRp2754
tp2755
a(S'YP_003043669.1'
p2756
g3
(g5
S'{2\x91Ei\xb1\x95@'
tRp2757
tp2758
a(S'YP_003046122.1'
p2759
g3
(g5
S'\xa7\xa6H#d\xbd\x95@'
tRp2760
tp2761
a(S'YP_003046912.1'
p2762
g3
(g5
S'\xb6k\x925\xf5\xcc\x95@'
tRp2763
tp2764
a(S'YP_003046315.1'
p2765
g3
(g5
S'\x05\x85v\xac\x8e\xd9\x95@'
tRp2766
tp2767
a(S'YP_003045589.1'
p2768
g3
(g5
S'\x1b\x1e\x85\x07\x91\xdb\x95@'
tRp2769
tp2770
a(S'YP_003044089.1'
p2771
g3
(g5
S';\x15\xdf\xab)\xe8\x95@'
tRp2772
tp2773
a(S'YP_003043963.1'
p2774
g3
(g5
S'1\x9c+\xaa\xaf\xe9\x95@'
tRp2775
tp2776
a(S'YP_003043782.1'
p2777
g3
(g5
S"\x0f7F'\xc8\xf0\x95@"
tRp2778
tp2779
a(S'YP_003047420.1'
p2780
g3
(g5
S'\xf8X\xea\xc4e\xf7\x95@'
tRp2781
tp2782
a(S'YP_003046584.1'
p2783
g3
(g5
S"2\xebh'\xda\xfb\x95@"
tRp2784
tp2785
a(S'YP_003043775.1'
p2786
g3
(g5
S':CL\x9bI"\x96@'
tRp2787
tp2788
a(S'YP_003044185.1'
p2789
g3
(g5
S'TQ\x822\x19#\x96@'
tRp2790
tp2791
a(S'YP_003045237.1'
p2792
g3
(g5
S'\xb2`\x1as3%\x96@'
tRp2793
tp2794
a(S'YP_003043328.1'
p2795
g3
(g5
S'#\x14\x9f\xc0\xdd&\x96@'
tRp2796
tp2797
a(S'YP_003047411.1'
p2798
g3
(g5
S'\xf0L.5wE\x96@'
tRp2799
tp2800
a(S'YP_003044882.1'
p2801
g3
(g5
S' \xe3\xab\xb8\xefb\x96@'
tRp2802
tp2803
a(S'YP_003044307.1'
p2804
g3
(g5
S'20S\x0f\xff\xc1\x96@'
tRp2805
tp2806
a(S'YP_003044298.1'
p2807
g3
(g5
S'\xb8!\x1egZ\xca\x96@'
tRp2808
tp2809
a(S'YP_003046319.1'
p2810
g3
(g5
S'\xb0nj\x12\xe4\xe6\x96@'
tRp2811
tp2812
a(S'YP_003043459.1'
p2813
g3
(g5
S'\xa7\xa3I-L\xf4\x96@'
tRp2814
tp2815
a(S'YP_003044701.1'
p2816
g3
(g5
S'oe#\xab\x1b\x0f\x97@'
tRp2817
tp2818
a(S'YP_003046592.1'
p2819
g3
(g5
S'{\x95\x0f\x15Y\x15\x97@'
tRp2820
tp2821
a(S'YP_003047260.1'
p2822
g3
(g5
S'7\xe9R\x95\xf4\x1e\x97@'
tRp2823
tp2824
a(S'YP_003043308.1'
p2825
g3
(g5
S'f\xb86\xdb\xcf \x97@'
tRp2826
tp2827
a(S'YP_003045401.1'
p2828
g3
(g5
S'G\xf1f\xe8e=\x97@'
tRp2829
tp2830
a(S'YP_003043646.1'
p2831
g3
(g5
S'\r\x1a\x1e\x05\xf1>\x97@'
tRp2832
tp2833
a(S'YP_003046274.1'
p2834
g3
(g5
S'\x91\x1a\xc8>\xe4_\x97@'
tRp2835
tp2836
a(S'YP_003043698.1'
p2837
g3
(g5
S']\xa9\x10~\x84b\x97@'
tRp2838
tp2839
a(S'YP_003044412.1'
p2840
g3
(g5
S'\xabC>\xd5$x\x97@'
tRp2841
tp2842
a(S'YP_003045582.1'
p2843
g3
(g5
S'\xe0\xd2\x9d\xc1<\xa3\x97@'
tRp2844
tp2845
a(S'YP_003043905.1'
p2846
g3
(g5
S'u\x0b\x0b\x053\xb3\x97@'
tRp2847
tp2848
a(S'YP_003044450.1'
p2849
g3
(g5
S'-\xe8\xb3J\xc4\xc4\x97@'
tRp2850
tp2851
a(S'YP_003046276.1'
p2852
g3
(g5
S'\x80\x1fs\xc2\xff\xd3\x97@'
tRp2853
tp2854
a(S'YP_003046638.1'
p2855
g3
(g5
S'\xcf\x19\x9f\t\n\x16\x98@'
tRp2856
tp2857
a(S'YP_003044881.1'
p2858
g3
(g5
S'O\\\xb1p\x16\x1c\x98@'
tRp2859
tp2860
a(S'YP_003043260.1'
p2861
g3
(g5
S'_P\x90\xf7\xf1$\x98@'
tRp2862
tp2863
a(S'YP_003046208.1'
p2864
g3
(g5
S'F\xef\xc0\x92\xaf,\x98@'
tRp2865
tp2866
a(S'YP_003046086.1'
p2867
g3
(g5
S'\xb5\x99\xa9hT=\x98@'
tRp2868
tp2869
a(S'YP_003044454.1'
p2870
g3
(g5
S'\x19\xe2\x9c\xb3\\P\x98@'
tRp2871
tp2872
a(S'YP_003045596.1'
p2873
g3
(g5
S'\x13C\xc9\xa9\x18_\x98@'
tRp2874
tp2875
a(S'YP_003045736.1'
p2876
g3
(g5
S'\xdb?\xf4\xd4\x8a\x81\x98@'
tRp2877
tp2878
a(S'YP_003045647.1'
p2879
g3
(g5
S'?\x0e\xaaP\xdf\x83\x98@'
tRp2880
tp2881
a(S'YP_003043783.1'
p2882
g3
(g5
S'{\xd7\xae\xd6h\x8a\x98@'
tRp2883
tp2884
a(S'YP_003045798.1'
p2885
g3
(g5
S'"\xda\xee\x1eH\xe5\x98@'
tRp2886
tp2887
a(S'YP_003044451.1'
p2888
g3
(g5
S'\xe1\x13\x04\xfce\xe9\x98@'
tRp2889
tp2890
a(S'YP_003043343.1'
p2891
g3
(g5
S'+\xda\xc2y\xbb\x07\x99@'
tRp2892
tp2893
a(S'YP_003043611.1'
p2894
g3
(g5
S'\xc9\xc2\xc3\xefb\r\x99@'
tRp2895
tp2896
a(S'YP_003044371.1'
p2897
g3
(g5
S'c\xf7Z\\\xe1\r\x99@'
tRp2898
tp2899
a(S'YP_003046984.1'
p2900
g3
(g5
S'A\xebE\xd7I!\x99@'
tRp2901
tp2902
a(S'YP_003047280.1'
p2903
g3
(g5
S'X\x01E\x88\x9a!\x99@'
tRp2904
tp2905
a(S'YP_003044892.1'
p2906
g3
(g5
S'\x01\xb3\xfaA\xab.\x99@'
tRp2907
tp2908
a(S'YP_003045117.1'
p2909
g3
(g5
S'\x03i\n,\x1bV\x99@'
tRp2910
tp2911
a(S'YP_003046997.1'
p2912
g3
(g5
S'\xe1&ZR\xfbe\x99@'
tRp2913
tp2914
a(S'YP_003047069.1'
p2915
g3
(g5
S'q\x11\xeb\n\xba\x82\x99@'
tRp2916
tp2917
a(S'YP_003045785.1'
p2918
g3
(g5
S'/}~\xe0\xbf\xa9\x99@'
tRp2919
tp2920
a(S'YP_003046262.1'
p2921
g3
(g5
S'R\x04\x8f\x84\\\xbf\x99@'
tRp2922
tp2923
a(S'YP_003044338.1'
p2924
g3
(g5
S'\xf4iW$\x18\xd8\x99@'
tRp2925
tp2926
a(S'YP_003045433.1'
p2927
g3
(g5
S'L\x81j\x17\x98\xe8\x99@'
tRp2928
tp2929
a(S'YP_003043325.1'
p2930
g3
(g5
S'!y$\t\xb5\xf8\x99@'
tRp2931
tp2932
a(S'YP_003044223.1'
p2933
g3
(g5
S'N7\x8b\xb3\x15\r\x9a@'
tRp2934
tp2935
a(S'YP_003045797.1'
p2936
g3
(g5
S'.?\x0c\xd6\xb2\x1f\x9a@'
tRp2937
tp2938
a(S'YP_003043902.1'
p2939
g3
(g5
S'\xa2\xa2=!\xff1\x9a@'
tRp2940
tp2941
a(S'YP_003045115.1'
p2942
g3
(g5
S'\xe6NBL\xe8Y\x9a@'
tRp2943
tp2944
a(S'YP_003043267.1'
p2945
g3
(g5
S'\x92\x1ccy\x0ef\x9a@'
tRp2946
tp2947
a(S'YP_003045577.1'
p2948
g3
(g5
S'S\xe4X\xaf\x11\x9e\x9a@'
tRp2949
tp2950
a(S'YP_003044305.1'
p2951
g3
(g5
S'\xc6\xc5("\xb2\xaa\x9a@'
tRp2952
tp2953
a(S'YP_003044115.1'
p2954
g3
(g5
S'[\x9e\xc55\x9d\xae\x9a@'
tRp2955
tp2956
a(S'YP_003043330.1'
p2957
g3
(g5
S'!y&\xe3U\xdc\x9a@'
tRp2958
tp2959
a(S'YP_003045607.1'
p2960
g3
(g5
S'O\x11i\xe1\xbd$\x9b@'
tRp2961
tp2962
a(S'YP_003045116.1'
p2963
g3
(g5
S'\x04T6\xfcG@\x9b@'
tRp2964
tp2965
a(S'YP_003046263.1'
p2966
g3
(g5
S'\xcc\xfd\xb4\xe2\xc2S\x9b@'
tRp2967
tp2968
a(S'YP_003046989.1'
p2969
g3
(g5
S'A.\x10\x88\xe8r\x9b@'
tRp2970
tp2971
a(S'YP_003045671.1'
p2972
g3
(g5
S"DZ\xc8'\xa1y\x9b@"
tRp2973
tp2974
a(S'YP_003046372.1'
p2975
g3
(g5
S'MH\xd5#\x9a\x8a\x9b@'
tRp2976
tp2977
a(S'YP_003043391.1'
p2978
g3
(g5
S'\x91\xee\x80\xe3i\xdd\x9b@'
tRp2979
tp2980
a(S'YP_003047068.1'
p2981
g3
(g5
S'\x18U\xcf\xa5\x96\xde\x9b@'
tRp2982
tp2983
a(S'YP_003043348.1'
p2984
g3
(g5
S'\xa9\xb5\x9ee\x8d\xef\x9b@'
tRp2985
tp2986
a(S'YP_003044648.1'
p2987
g3
(g5
S"\xab\xe5\xae\x8d\x1e'\x9c@"
tRp2988
tp2989
a(S'YP_003046295.1'
p2990
g3
(g5
S'A\x07=P\xf97\x9c@'
tRp2991
tp2992
a(S'YP_003046384.1'
p2993
g3
(g5
S'\xfa`\xdcJ\x9c:\x9c@'
tRp2994
tp2995
a(S'YP_003043821.1'
p2996
g3
(g5
S'\xf4\xc3\x90\xe6\x13;\x9c@'
tRp2997
tp2998
a(S'YP_003043640.1'
p2999
g3
(g5
S'\xefc\xe6\x0fy>\x9c@'
tRp3000
tp3001
a(S'YP_003046485.1'
p3002
g3
(g5
S'f\x95$)\x9fE\x9c@'
tRp3003
tp3004
a(S'YP_003044999.1'
p3005
g3
(g5
S':\xbe?r\xbdW\x9c@'
tRp3006
tp3007
a(S'YP_003044276.1'
p3008
g3
(g5
S')\xa9h^|\x89\x9c@'
tRp3009
tp3010
a(S'YP_003045561.1'
p3011
g3
(g5
S'y\xddf\xad\r\x8c\x9c@'
tRp3012
tp3013
a(S'YP_003044421.1'
p3014
g3
(g5
S"\\'\x1b\x90F\x9f\x9c@"
tRp3015
tp3016
a(S'YP_003045580.1'
p3017
g3
(g5
S',\xedB\xf5\x96\xc1\x9c@'
tRp3018
tp3019
a(S'YP_003045738.1'
p3020
g3
(g5
S'H\x0b\x1c&\xf4\xca\x9c@'
tRp3021
tp3022
a(S'YP_003043346.1'
p3023
g3
(g5
S'\xe3\xfbx\xe5\xeb\xd2\x9c@'
tRp3024
tp3025
a(S'YP_003045980.1'
p3026
g3
(g5
S'hh\xfe\x1a\xda\xde\x9c@'
tRp3027
tp3028
a(S'YP_003046910.1'
p3029
g3
(g5
S't\x96r\xa3\x90A\x9d@'
tRp3030
tp3031
a(S'YP_003045122.1'
p3032
g3
(g5
S'\xedDVe\xb3V\x9d@'
tRp3033
tp3034
a(S'YP_003043650.1'
p3035
g3
(g5
S'|\xee`\xdc\xa8h\x9d@'
tRp3036
tp3037
a(S'YP_003044322.1'
p3038
g3
(g5
S'\x84S\x93\x84\xbe\x88\x9d@'
tRp3039
tp3040
a(S'YP_003043827.1'
p3041
g3
(g5
S'\xbcW\x860\xfd\xba\x9d@'
tRp3042
tp3043
a(S'YP_003045929.1'
p3044
g3
(g5
S'\xdd\x87I\xa7\xa3\x0e\x9e@'
tRp3045
tp3046
a(S'YP_003045694.1'
p3047
g3
(g5
S'\xb0\xb8\xbd]\x84\x1f\x9e@'
tRp3048
tp3049
a(S'YP_003043231.1'
p3050
g3
(g5
S'g\xabf\x8f\x13v\x9e@'
tRp3051
tp3052
a(S'YP_003044284.1'
p3053
g3
(g5
S'?JaU7v\x9e@'
tRp3054
tp3055
a(S'YP_003046399.1'
p3056
g3
(g5
S'-6E\x87+x\x9e@'
tRp3057
tp3058
a(S'YP_003045516.1'
p3059
g3
(g5
S'9\x135E\x95\x92\x9e@'
tRp3060
tp3061
a(S'YP_003046422.1'
p3062
g3
(g5
S']\xc6\xd9\xb2\xe6\x9e\x9e@'
tRp3063
tp3064
a(S'YP_003046220.1'
p3065
g3
(g5
S'\x079\xdf\xf9\xde\xa0\x9e@'
tRp3066
tp3067
a(S'YP_003044302.1'
p3068
g3
(g5
S'\xe3\xfb\xbf\xdfU\xe4\x9e@'
tRp3069
tp3070
a(S'YP_003045351.1'
p3071
g3
(g5
S'\xeev\xf12\x94\xed\x9e@'
tRp3072
tp3073
a(S'YP_003046216.1'
p3074
g3
(g5
S'\x06S\xd7\xb1\xe2\xf4\x9e@'
tRp3075
tp3076
a(S'YP_003046299.1'
p3077
g3
(g5
S"u!O\x85'\x08\x9f@"
tRp3078
tp3079
a(S'YP_003043888.1'
p3080
g3
(g5
S'\xe3\xb3\xbd4v\x1c\x9f@'
tRp3081
tp3082
a(S'YP_003044890.1'
p3083
g3
(g5
S'\x04\x8fC\xb3\x06\x1d\x9f@'
tRp3084
tp3085
a(S'YP_003044428.1'
p3086
g3
(g5
S'3\x825\xc0hU\x9f@'
tRp3087
tp3088
a(S'YP_003045414.1'
p3089
g3
(g5
S'=\xfb\xeakE]\x9f@'
tRp3090
tp3091
a(S'YP_003046385.1'
p3092
g3
(g5
S'f\xdaGi\x0b\x81\x9f@'
tRp3093
tp3094
a(S'YP_003043600.1'
p3095
g3
(g5
S'\x0eZ=h\xd5\x86\x9f@'
tRp3096
tp3097
a(S'YP_003044111.1'
p3098
g3
(g5
S'\x01h\xa7\xe3\x9f\x89\x9f@'
tRp3099
tp3100
a(S'YP_003043382.1'
p3101
g3
(g5
S'\xe5\xd4\xe6\xab\x1f\x92\x9f@'
tRp3102
tp3103
a(S'YP_003045417.1'
p3104
g3
(g5
S'\x0cX\xd4\x9d\x97\xdc\x9f@'
tRp3105
tp3106
a(S'YP_003046420.1'
p3107
g3
(g5
S'\xfb\xd0\xb5\\\xe4\xe6\x9f@'
tRp3108
tp3109
a(S'YP_003045125.1'
p3110
g3
(g5
S'?^/N\x9d\x04\xa0@'
tRp3111
tp3112
a(S'YP_003044405.1'
p3113
g3
(g5
S'\x1e\xd6\xd8\x15\xc6\t\xa0@'
tRp3114
tp3115
a(S'YP_003047211.1'
p3116
g3
(g5
S'\xfe\xcbr.\xc2\x0c\xa0@'
tRp3117
tp3118
a(S'YP_003043412.1'
p3119
g3
(g5
S']i,\xc4\xf6\x11\xa0@'
tRp3120
tp3121
a(S'YP_003045123.1'
p3122
g3
(g5
S'\x91\xa3\x14Dc\x1a\xa0@'
tRp3123
tp3124
a(S'YP_003046340.1'
p3125
g3
(g5
S'\x14w\x1c^9$\xa0@'
tRp3126
tp3127
a(S'YP_003046342.1'
p3128
g3
(g5
S'D\x14:\xa5\xbe*\xa0@'
tRp3129
tp3130
a(S'YP_003046453.1'
p3131
g3
(g5
S'\r?\xde\xcf\xaf+\xa0@'
tRp3132
tp3133
a(S'YP_003046634.1'
p3134
g3
(g5
S'\xaa\xa4Y\x1dq/\xa0@'
tRp3135
tp3136
a(S'YP_003044289.1'
p3137
g3
(g5
S'\xb2\x95\xe1\xd6\xae:\xa0@'
tRp3138
tp3139
a(S'YP_003046221.1'
p3140
g3
(g5
S'\x00\x92\x88\xfbBQ\xa0@'
tRp3141
tp3142
a(S'YP_003047436.1'
p3143
g3
(g5
S'\xc6\x98\x98\xff\xe7V\xa0@'
tRp3144
tp3145
a(S'YP_003044315.1'
p3146
g3
(g5
S'\x8e\xd7\xfe\xd0\xcai\xa0@'
tRp3147
tp3148
a(S'YP_003046824.1'
p3149
g3
(g5
S'\x0bR\x0b\x1c\x00j\xa0@'
tRp3150
tp3151
a(S'YP_003046732.1'
p3152
g3
(g5
S'\x8fY\xa4C\xb1\x85\xa0@'
tRp3153
tp3154
a(S'YP_003044807.1'
p3155
g3
(g5
S'\x93\x05.\xbdM\x87\xa0@'
tRp3156
tp3157
a(S'YP_003046223.1'
p3158
g3
(g5
S'\xdc\xe5\x1fg\x86\x8c\xa0@'
tRp3159
tp3160
a(S'YP_003043651.1'
p3161
g3
(g5
S'7\xa5\xd1\xbb7\x8d\xa0@'
tRp3162
tp3163
a(S'YP_003045611.1'
p3164
g3
(g5
S'>\t\xb7\xa8\xe1\x92\xa0@'
tRp3165
tp3166
a(S'YP_003046031.1'
p3167
g3
(g5
S'\xc8A\xa0\xb0\xc2\xad\xa0@'
tRp3168
tp3169
a(S'YP_003045559.1'
p3170
g3
(g5
S'?\x1cW\x82\xdb\xae\xa0@'
tRp3171
tp3172
a(S'YP_003044074.1'
p3173
g3
(g5
S'\t\x82ZV\t\xce\xa0@'
tRp3174
tp3175
a(S'YP_003045017.1'
p3176
g3
(g5
S"\xed\x82\x17^'\xd5\xa0@"
tRp3177
tp3178
a(S'YP_003046789.1'
p3179
g3
(g5
S'\x110\xf2A\xa1\xe2\xa0@'
tRp3180
tp3181
a(S'YP_003047036.1'
p3182
g3
(g5
S'O*\xef-.\xe8\xa0@'
tRp3183
tp3184
a(S'YP_003047214.1'
p3185
g3
(g5
S',\xb6E\x1fw\xf8\xa0@'
tRp3186
tp3187
a(S'YP_003043903.1'
p3188
g3
(g5
S'\x8e\xccf=\xed\x04\xa1@'
tRp3189
tp3190
a(S'YP_003044425.1'
p3191
g3
(g5
S'=\xdf\x10\xf3\xff4\xa1@'
tRp3192
tp3193
a(S'YP_003045018.1'
p3194
g3
(g5
S'{\nB\x97\xad;\xa1@'
tRp3195
tp3196
a(S'YP_003044907.1'
p3197
g3
(g5
S'\xc0\x89:i\xcf<\xa1@'
tRp3198
tp3199
a(S'YP_003044088.1'
p3200
g3
(g5
S'\xb7\x1d!d\x89?\xa1@'
tRp3201
tp3202
a(S'YP_003043904.1'
p3203
g3
(g5
S'\x1f\x8b\x84\xc6\x9aH\xa1@'
tRp3204
tp3205
a(S'YP_003044086.1'
p3206
g3
(g5
S'Q<d\x90\xffI\xa1@'
tRp3207
tp3208
a(S'YP_003046275.1'
p3209
g3
(g5
S'\x0b\xb3\x9d\x1f|K\xa1@'
tRp3210
tp3211
a(S'YP_003044130.1'
p3212
g3
(g5
S'\x87\xc8[]\x96R\xa1@'
tRp3213
tp3214
a(S'YP_003044780.1'
p3215
g3
(g5
S'uBr\xffR\xb6\xa1@'
tRp3216
tp3217
a(S'YP_003047295.1'
p3218
g3
(g5
S'\xcf\xb87Z"\xc6\xa1@'
tRp3219
tp3220
a(S'YP_003046585.1'
p3221
g3
(g5
S'\xd7\x04h\x13\x9f\xea\xa1@'
tRp3222
tp3223
a(S'YP_003046892.1'
p3224
g3
(g5
S'k%K\xcc\x06\x1c\xa2@'
tRp3225
tp3226
a(S'YP_003046672.1'
p3227
g3
(g5
S'\xd9\x9c\xe4\xa0 \x1f\xa2@'
tRp3228
tp3229
a(S'YP_003043612.1'
p3230
g3
(g5
S'd\xe8\xc0\x11\x18(\xa2@'
tRp3231
tp3232
a(S'YP_003043422.1'
p3233
g3
(g5
S'\xba\x91\xf4\xad\xab5\xa2@'
tRp3234
tp3235
a(S'YP_003044946.1'
p3236
g3
(g5
S"Rj\x9b'@7\xa2@"
tRp3237
tp3238
a(S'YP_003043305.1'
p3239
g3
(g5
S'\xc2\xf07D\xd5A\xa2@'
tRp3240
tp3241
a(S'YP_003044125.1'
p3242
g3
(g5
S'G9E\xf5\x10\\\xa2@'
tRp3243
tp3244
a(S'YP_003045503.1'
p3245
g3
(g5
S'\x12\xc1 \xb3Qj\xa2@'
tRp3246
tp3247
a(S'YP_003043427.1'
p3248
g3
(g5
S'AM\x1d\x1d\xb8t\xa2@'
tRp3249
tp3250
a(S'YP_003047056.1'
p3251
g3
(g5
S'\xf4\xdc\xee\x8b\xb1z\xa2@'
tRp3252
tp3253
a(S'YP_003047055.1'
p3254
g3
(g5
S'o\x07_\xf1-\x80\xa2@'
tRp3255
tp3256
a(S'YP_003044083.1'
p3257
g3
(g5
S'\xc2\xb1\x0eU\xae\x98\xa2@'
tRp3258
tp3259
a(S'YP_003045691.1'
p3260
g3
(g5
S'\xdd\x00M\xacH\xd5\xa2@'
tRp3261
tp3262
a(S'YP_003045411.1'
p3263
g3
(g5
S'\xae\x03\x01\xec\xce\xd9\xa2@'
tRp3264
tp3265
a(S'YP_003045119.1'
p3266
g3
(g5
S'\xaa4\x1a\xc4\xfa\xe1\xa2@'
tRp3267
tp3268
a(S'YP_003043399.1'
p3269
g3
(g5
S'Q\x92$\r\x1e\x03\xa3@'
tRp3270
tp3271
a(S'YP_003045562.1'
p3272
g3
(g5
S'-E\t\xb8\xcc\x06\xa3@'
tRp3273
tp3274
a(S'YP_003046259.1'
p3275
g3
(g5
S'5\xef\xc2\x05\x9e\x1a\xa3@'
tRp3276
tp3277
a(S'YP_003043918.1'
p3278
g3
(g5
S'\xdd\x10\xd6\xe2+:\xa3@'
tRp3279
tp3280
a(S'YP_003043833.1'
p3281
g3
(g5
S'\xfd9x\x0f^B\xa3@'
tRp3282
tp3283
a(S'YP_003047014.1'
p3284
g3
(g5
S'>\x0b\xed\x93\xa9D\xa3@'
tRp3285
tp3286
a(S'YP_003046676.1'
p3287
g3
(g5
S'@\xe7\xe9\xdbOd\xa3@'
tRp3288
tp3289
a(S'YP_003046833.1'
p3290
g3
(g5
S'\x14e\x8en{l\xa3@'
tRp3291
tp3292
a(S'YP_003047103.1'
p3293
g3
(g5
S'a$\x05\x1b%\x8c\xa3@'
tRp3294
tp3295
a(S'YP_003043926.1'
p3296
g3
(g5
S'\r]\xa5e\xf8\xa2\xa3@'
tRp3297
tp3298
a(S'YP_003047016.1'
p3299
g3
(g5
S'\xaa\xb6\xe4\xc5O\xde\xa3@'
tRp3300
tp3301
a(S'YP_003044430.1'
p3302
g3
(g5
S'\xbb6D\x0c\xdc\xde\xa3@'
tRp3303
tp3304
a(S'YP_003046649.1'
p3305
g3
(g5
S'\xc6@\x0f\xef\xc3\xed\xa3@'
tRp3306
tp3307
a(S'YP_003044755.1'
p3308
g3
(g5
S'\xcd\x8b\xfb\xcf\x1b\xfe\xa3@'
tRp3309
tp3310
a(S'YP_003047031.1'
p3311
g3
(g5
S'\xcay\xf8\xd5\xd9\x05\xa4@'
tRp3312
tp3313
a(S'YP_003043407.1'
p3314
g3
(g5
S'\x0f\xb0\x87\xec\xc7\x1a\xa4@'
tRp3315
tp3316
a(S'YP_003046795.1'
p3317
g3
(g5
S'\xbd\xef\xb2\x81lB\xa4@'
tRp3318
tp3319
a(S'YP_003043901.1'
p3320
g3
(g5
S':\xee\xe04\x86I\xa4@'
tRp3321
tp3322
a(S'YP_003047060.1'
p3323
g3
(g5
S'\x8c\x83\xaa&\x91c\xa4@'
tRp3324
tp3325
a(S'YP_003044224.1'
p3326
g3
(g5
S'"\xe5\'\xe7\xcb|\xa4@'
tRp3327
tp3328
a(S'YP_003044476.1'
p3329
g3
(g5
S'&\xba\x99+\x82\xb6\xa4@'
tRp3330
tp3331
a(S'YP_003044880.1'
p3332
g3
(g5
S'\xb7\xb2\xd0\xaa\x98\xc4\xa4@'
tRp3333
tp3334
a(S'YP_003046793.1'
p3335
g3
(g5
S'*\r\xbf\xb0\xca\xd0\xa4@'
tRp3336
tp3337
a(S'YP_003043232.1'
p3338
g3
(g5
S'\xbe\xc4\x12\xd4\x1a\xe4\xa4@'
tRp3339
tp3340
a(S'YP_003046490.1'
p3341
g3
(g5
S"\xff'\xf5\xf4\xe9\xf1\xa4@"
tRp3342
tp3343
a(S'YP_003043860.1'
p3344
g3
(g5
S'\xb9Me\x8c\x94\xfb\xa4@'
tRp3345
tp3346
a(S'YP_003047015.1'
p3347
g3
(g5
S'\xfe4\x94\xae8\x00\xa5@'
tRp3348
tp3349
a(S'YP_003047018.1'
p3350
g3
(g5
S'\x8d\x1d5m\xac\x01\xa5@'
tRp3351
tp3352
a(S'YP_003047017.1'
p3353
g3
(g5
S'\xae\x89p\xaa\xbe\x0b\xa5@'
tRp3354
tp3355
a(S'YP_003046092.1'
p3356
g3
(g5
S'ybr\xf6\xe3\x0b\xa5@'
tRp3357
tp3358
a(S'YP_003043648.1'
p3359
g3
(g5
S'S\xe4\x98\xd1\x11`\xa5@'
tRp3360
tp3361
a(S'YP_003044557.1'
p3362
g3
(g5
S'\xc9\xc8\xe3TO{\xa5@'
tRp3363
tp3364
a(S'YP_003046383.1'
p3365
g3
(g5
S'MN\xc1\x00\xd6\x88\xa5@'
tRp3366
tp3367
a(S'YP_003046349.1'
p3368
g3
(g5
S'C]}\xcay\x90\xa5@'
tRp3369
tp3370
a(S'YP_003046648.1'
p3371
g3
(g5
S'\xf4\x83@\x1c\x8d\x96\xa5@'
tRp3372
tp3373
a(S'YP_003043359.1'
p3374
g3
(g5
S'\x97P\xe4sE\x99\xa5@'
tRp3375
tp3376
a(S'YP_003044225.1'
p3377
g3
(g5
S'j)f\xa4w\xd1\xa5@'
tRp3378
tp3379
a(S'YP_003043266.1'
p3380
g3
(g5
S'w\x13D\xce\xc1\xfe\xa5@'
tRp3381
tp3382
a(S'YP_003046298.1'
p3383
g3
(g5
S'\xbd\x89Q\x7f?\x07\xa6@'
tRp3384
tp3385
a(S'YP_003047000.1'
p3386
g3
(g5
S'\x126N<\x95\x18\xa6@'
tRp3387
tp3388
a(S'YP_003046765.1'
p3389
g3
(g5
S'I\xbe_\x9f\xfcE\xa6@'
tRp3390
tp3391
a(S'YP_003046967.1'
p3392
g3
(g5
S'w/<?\xdaL\xa6@'
tRp3393
tp3394
a(S'YP_003044150.1'
p3395
g3
(g5
S'F;h\x8a?\x85\xa6@'
tRp3396
tp3397
a(S'YP_003043237.1'
p3398
g3
(g5
S'@\xa9\xa5\xf41\x88\xa6@'
tRp3399
tp3400
a(S'YP_003044285.1'
p3401
g3
(g5
S'\xf5\x84\xb9"\xc8\x91\xa6@'
tRp3402
tp3403
a(S'YP_003045639.1'
p3404
g3
(g5
S'`\x81\x00\x1e\x88\x98\xa6@'
tRp3405
tp3406
a(S'YP_003043342.1'
p3407
g3
(g5
S'\x86P\x96\xc5\xf2\xd4\xa6@'
tRp3408
tp3409
a(S'YP_003046835.1'
p3410
g3
(g5
S'|\xf0~ \x0f\xe1\xa6@'
tRp3411
tp3412
a(S'YP_003045933.1'
p3413
g3
(g5
S'\xb0\xce\x90\xc1\x89\xe5\xa6@'
tRp3414
tp3415
a(S'YP_003045272.1'
p3416
g3
(g5
S'\x80.<\x9c0Q\xa7@'
tRp3417
tp3418
a(S'YP_003045508.1'
p3419
g3
(g5
S'\xa6\x03c\xc9\x96Z\xa7@'
tRp3420
tp3421
a(S'YP_003044772.1'
p3422
g3
(g5
S'\xdc\xe5\x8f\x0e\xce[\xa7@'
tRp3423
tp3424
a(S'YP_003043999.1'
p3425
g3
(g5
S'\x9c\x99\xd6\x13\x0ef\xa7@'
tRp3426
tp3427
a(S'YP_003047209.1'
p3428
g3
(g5
S'\xce1\xbf\xbd\xdf\xa4\xa7@'
tRp3429
tp3430
a(S'YP_003046395.1'
p3431
g3
(g5
S':\x8f3X\xfb\xc5\xa7@'
tRp3432
tp3433
a(S'YP_003045413.1'
p3434
g3
(g5
S'\x88-\x11\x19\xe9\xc8\xa7@'
tRp3435
tp3436
a(S'YP_003046637.1'
p3437
g3
(g5
S'S\xb8\x01\xc5\xe5\x16\xa8@'
tRp3438
tp3439
a(S'YP_003046348.1'
p3440
g3
(g5
S'\xe6\x83\x82\xa2\xc8*\xa8@'
tRp3441
tp3442
a(S'YP_003043743.1'
p3443
g3
(g5
S'r\xeb\x8c\x86\xac7\xa8@'
tRp3444
tp3445
a(S'YP_003046827.1'
p3446
g3
(g5
S'\x93\xbc\xa8}\x85x\xa8@'
tRp3447
tp3448
a(S'YP_003045308.1'
p3449
g3
(g5
S'=\x82p\x04\xc0\x80\xa8@'
tRp3450
tp3451
a(S'YP_003047037.1'
p3452
g3
(g5
S'{\x1e\x00\x17.\x8d\xa8@'
tRp3453
tp3454
a(S'YP_003047078.1'
p3455
g3
(g5
S'\xd9\xf2\x0f<p\xac\xa8@'
tRp3456
tp3457
a(S'YP_003046004.1'
p3458
g3
(g5
S'\x81\xd7K\xec\x8d\xe8\xa8@'
tRp3459
tp3460
a(S'YP_003045560.1'
p3461
g3
(g5
S'\xcd\xfe\x8f\x84.\x02\xa9@'
tRp3462
tp3463
a(S'YP_003044448.1'
p3464
g3
(g5
S'_|\xd2o\xb9\x06\xa9@'
tRp3465
tp3466
a(S'YP_003044106.1'
p3467
g3
(g5
S'\xddo\xf1\xb4&(\xa9@'
tRp3468
tp3469
a(S'YP_003046794.1'
p3470
g3
(g5
S'\xd8B\xfb\n\xa2N\xa9@'
tRp3471
tp3472
a(S'YP_003046341.1'
p3473
g3
(g5
S'"\xa7`H\x12a\xa9@'
tRp3474
tp3475
a(S'YP_003046353.1'
p3476
g3
(g5
S'\xa9\r\xa3\xe8Nb\xa9@'
tRp3477
tp3478
a(S'YP_003044317.1'
p3479
g3
(g5
S'lyD\xa2\x8a\x8a\xa9@'
tRp3480
tp3481
a(S'YP_003047265.1'
p3482
g3
(g5
S'\x9a\xe8*\x99\xa1\x8d\xa9@'
tRp3483
tp3484
a(S'YP_003045581.1'
p3485
g3
(g5
S'ss\xb6\x7f\x95\x8f\xa9@'
tRp3486
tp3487
a(S'YP_003044129.1'
p3488
g3
(g5
S'\xae\xbf\x9c/Z\xa2\xa9@'
tRp3489
tp3490
a(S'YP_003046647.1'
p3491
g3
(g5
S'\x8a\xf5\\\xc8\x03\xb9\xa9@'
tRp3492
tp3493
a(S'YP_003045426.1'
p3494
g3
(g5
S'\x99f!\x92\xdd\xe0\xa9@'
tRp3495
tp3496
a(S'YP_003045402.1'
p3497
g3
(g5
S'\x04\xa61{c\xec\xa9@'
tRp3498
tp3499
a(S'YP_003043986.1'
p3500
g3
(g5
S'\xd1\xea\x8f\xb11\x1a\xaa@'
tRp3501
tp3502
a(S'YP_003043898.1'
p3503
g3
(g5
S'U`*\x87\xae\x86\xaa@'
tRp3504
tp3505
a(S'YP_003043393.1'
p3506
g3
(g5
S"\x97':NG\xc0\xaa@"
tRp3507
tp3508
a(S'YP_003046797.1'
p3509
g3
(g5
S'\xdd\xa7\xd9\x13Z \xab@'
tRp3510
tp3511
a(S'YP_003044447.1'
p3512
g3
(g5
S"9\r\x12a.'\xab@"
tRp3513
tp3514
a(S'YP_003043446.1'
p3515
g3
(g5
S'\xa2\r\xfa\x8ff*\xab@'
tRp3516
tp3517
a(S'YP_003046357.1'
p3518
g3
(g5
S'\x0e\x9dxD\xd4[\xab@'
tRp3519
tp3520
a(S'YP_003045440.1'
p3521
g3
(g5
S'\x9e\xfa}P\xb0\x9b\xab@'
tRp3522
tp3523
a(S'YP_003043303.1'
p3524
g3
(g5
S'\x0e\xbd_\xc3\xd2\xc2\xab@'
tRp3525
tp3526
a(S'YP_003045953.1'
p3527
g3
(g5
S'.\x86<\xd1\xc0\xd0\xab@'
tRp3528
tp3529
a(S'YP_003043906.1'
p3530
g3
(g5
S'\xf1\xa1\x1d\x8bW\xd5\xab@'
tRp3531
tp3532
a(S'YP_003046278.1'
p3533
g3
(g5
S'\xa2)\xa1\xb0s\xdd\xab@'
tRp3534
tp3535
a(S'YP_003045590.1'
p3536
g3
(g5
S'\x8eI\x06\xc0#I\xac@'
tRp3537
tp3538
a(S'YP_003043424.1'
p3539
g3
(g5
S'\x0e\x8e\x96Azf\xac@'
tRp3540
tp3541
a(S'YP_003047184.1'
p3542
g3
(g5
S'k\x91x\xc7\tg\xac@'
tRp3543
tp3544
a(S'YP_003047256.1'
p3545
g3
(g5
S'\xc6w\x99\x85\xd1l\xac@'
tRp3546
tp3547
a(S'YP_003044133.1'
p3548
g3
(g5
S'\xebi\xae\x08~\x84\xac@'
tRp3549
tp3550
a(S'YP_003046929.1'
p3551
g3
(g5
S'\x1a\x80T\x87{\xaf\xac@'
tRp3552
tp3553
a(S'YP_003046355.1'
p3554
g3
(g5
S'\x99f`\x87F\xd6\xac@'
tRp3555
tp3556
a(S'YP_003045507.1'
p3557
g3
(g5
S'\r*y}\xeb\xfd\xac@'
tRp3558
tp3559
a(S'YP_003043389.1'
p3560
g3
(g5
S'.\x96\x15\xaa\xd1t\xad@'
tRp3561
tp3562
a(S'YP_003046347.1'
p3563
g3
(g5
S'y\x14\x8b6\xe2\xc5\xad@'
tRp3564
tp3565
a(S'YP_003043511.1'
p3566
g3
(g5
S'f\x9c#~\xd1\xea\xad@'
tRp3567
tp3568
a(S'YP_003043859.1'
p3569
g3
(g5
S"'\x7fLr[#\xaf@"
tRp3570
tp3571
a(S'YP_003043302.1'
p3572
g3
(g5
S'|\x80\xfa\x18#\x90\xaf@'
tRp3573
tp3574
a(S'YP_003044134.1'
p3575
g3
(g5
S'U9\xd9\xc7\xec\xdb\xaf@'
tRp3576
tp3577
a(S'YP_003045563.1'
p3578
g3
(g5
S'\x85\xc8f\xfa\xfb\x08\xb0@'
tRp3579
tp3580
a(S'YP_003046818.1'
p3581
g3
(g5
S'\xe8\x92;h\xbb.\xb0@'
tRp3582
tp3583
a(S'YP_003046576.1'
p3584
g3
(g5
S"\xa3'S\x85\x9b;\xb0@"
tRp3585
tp3586
a(S'YP_003044886.1'
p3587
g3
(g5
S'\x00\xb9h\x0f\xd5\x7f\xb0@'
tRp3588
tp3589
a(S'YP_003043919.1'
p3590
g3
(g5
S'\x019\x06|\xbe\x97\xb0@'
tRp3591
tp3592
a(S'YP_003043304.1'
p3593
g3
(g5
S'I\x80\xd6i\x17\xdc\xb0@'
tRp3594
tp3595
a(S'YP_003046685.1'
p3596
g3
(g5
S'g2\xadY\xa4\xe7\xb0@'
tRp3597
tp3598
a(S'YP_003045687.1'
p3599
g3
(g5
S'.K\x07\xe4s\x16\xb1@'
tRp3600
tp3601
a(S'YP_003044927.1'
p3602
g3
(g5
S'\x86K\xe2\xb3UO\xb1@'
tRp3603
tp3604
a(S'YP_003043925.1'
p3605
g3
(g5
S'\xe7\xe9\xc14\xe9`\xb1@'
tRp3606
tp3607
a(S'YP_003046334.1'
p3608
g3
(g5
S'\x0f\t\xa8\xbd\xcel\xb1@'
tRp3609
tp3610
a(S'YP_003043613.1'
p3611
g3
(g5
S'R\xa3\x97\xa1\x08\x8b\xb1@'
tRp3612
tp3613
a(S'YP_003043233.1'
p3614
g3
(g5
S'KKu\xed\x8b\x9a\xb1@'
tRp3615
tp3616
a(S'YP_003047033.1'
p3617
g3
(g5
S'\x06\x85f\xef8\x9d\xb1@'
tRp3618
tp3619
a(S'YP_003047032.1'
p3620
g3
(g5
S'\x97\x18\xad?n\xb9\xb1@'
tRp3621
tp3622
a(S'YP_003044306.1'
p3623
g3
(g5
S'e\x05{\xb0m\xd2\xb1@'
tRp3624
tp3625
a(S'YP_003044110.1'
p3626
g3
(g5
S'4\xfd\xb3\xdb\xfc\xd2\xb1@'
tRp3627
tp3628
a(S'YP_003046351.1'
p3629
g3
(g5
S'1f\xf6d\xe1\xf0\xb1@'
tRp3630
tp3631
a(S'YP_003043699.1'
p3632
g3
(g5
S'.\xad\x17=*\x15\xb2@'
tRp3633
tp3634
a(S'YP_003043701.1'
p3635
g3
(g5
S'\x1fw\xa6\xdb*\x98\xb2@'
tRp3636
tp3637
a(S'YP_003043997.1'
p3638
g3
(g5
S'\x81<\x8b\xb8B\x9e\xb2@'
tRp3639
tp3640
a(S'YP_003043614.1'
p3641
g3
(g5
S'!%k\xc5\xfe\xa7\xb2@'
tRp3642
tp3643
a(S'YP_003044598.1'
p3644
g3
(g5
S'F\x823v0\xb2\xb2@'
tRp3645
tp3646
a(S'YP_003046331.1'
p3647
g3
(g5
S'\x8e\xc8<\x8d\x06\xf3\xb2@'
tRp3648
tp3649
a(S'YP_003046346.1'
p3650
g3
(g5
S'L\xeb5\x9a\xf5\x8a\xb3@'
tRp3651
tp3652
a(S'YP_003046792.1'
p3653
g3
(g5
S'ur\x84\xee\x14\x8e\xb3@'
tRp3654
tp3655
a(S'YP_003047034.1'
p3656
g3
(g5
S'~\xa6\xa8\x90?\x93\xb3@'
tRp3657
tp3658
a(S'YP_003043842.1'
p3659
g3
(g5
S'\xe7z\xe5\xa1\x08\x9b\xb3@'
tRp3660
tp3661
a(S'YP_003046468.1'
p3662
g3
(g5
S'C\x8c\xe5\xfe{\xa7\xb3@'
tRp3663
tp3664
a(S'YP_003043425.1'
p3665
g3
(g5
S'C\xf3e\xfcZ\xd4\xb3@'
tRp3666
tp3667
a(S'YP_003046809.1'
p3668
g3
(g5
S'\x18Y\xaf\x08\x9b\xfc\xb3@'
tRp3669
tp3670
a(S'YP_003046791.1'
p3671
g3
(g5
S'\xe9\xefi\x83\\\n\xb4@'
tRp3672
tp3673
a(S'YP_003045275.1'
p3674
g3
(g5
S'\n*\xcb\r\xc3|\xb4@'
tRp3675
tp3676
a(S'YP_003045960.1'
p3677
g3
(g5
S'\xe4\x10\\\r\xb2\xa1\xb4@'
tRp3678
tp3679
a(S'YP_003043397.1'
p3680
g3
(g5
S'\xc4\xdew\x156\xc2\xb4@'
tRp3681
tp3682
a(S'YP_003043618.1'
p3683
g3
(g5
S'\xd7\xcc\x99@\x08\xc6\xb4@'
tRp3684
tp3685
a(S'YP_003043396.1'
p3686
g3
(g5
S'\xcb\xecv\x95\xd0m\xb5@'
tRp3687
tp3688
a(S'YP_003046526.1'
p3689
g3
(g5
S'\x94\xd8fKz$\xb6@'
tRp3690
tp3691
a(S'YP_003045600.1'
p3692
g3
(g5
S'\xe4<<\xd989\xb6@'
tRp3693
tp3694
a(S'YP_003043795.1'
p3695
g3
(g5
S'\x13\xe8\xbbUKL\xb6@'
tRp3696
tp3697
a(S'YP_003046344.1'
p3698
g3
(g5
S'\x0b\x9c\x8b[\xe7r\xb6@'
tRp3699
tp3700
a(S'YP_003047240.1'
p3701
g3
(g5
S'|J\xbd\xc1\x94\x10\xb7@'
tRp3702
tp3703
a(S'YP_003045944.1'
p3704
g3
(g5
S'\xd81\xe9\xb8\x8e\xf0\xb7@'
tRp3705
tp3706
a(S'YP_003046796.1'
p3707
g3
(g5
S'\x109\x81\x8a\x85\r\xb8@'
tRp3708
tp3709
a(S'YP_003046304.1'
p3710
g3
(g5
S'q,\xeao\x9eB\xb8@'
tRp3711
tp3712
a(S'YP_003045633.1'
p3713
g3
(g5
S'\xd5\xf5eG)g\xb8@'
tRp3714
tp3715
a(S'YP_003046350.1'
p3716
g3
(g5
S'|\x99li\xaa\x0c\xb9@'
tRp3717
tp3718
a(S'YP_003044152.1'
p3719
g3
(g5
S'\x12\xeb\x94iv\xa7\xb9@'
tRp3720
tp3721
a(S'YP_003045932.1'
p3722
g3
(g5
S')\x9c\xb8\xd1\x86\xa8\xb9@'
tRp3723
tp3724
a(S'YP_003043581.1'
p3725
g3
(g5
S'\xa5<\xfe\xae{\xe7\xb9@'
tRp3726
tp3727
a(S'YP_003046281.1'
p3728
g3
(g5
S'\x1b\xd4~\\?@\xba@'
tRp3729
tp3730
a(S'YP_003046823.1'
p3731
g3
(g5
S'\xa7\x98\xc3\xa5\xcb\xd0\xba@'
tRp3732
tp3733
a(S'YP_003043243.1'
p3734
g3
(g5
S'K\xc0+T\xf8\xef\xba@'
tRp3735
tp3736
a(S'YP_003046352.1'
p3737
g3
(g5
S'\x93U\x96#U\x0c\xbb@'
tRp3738
tp3739
a(S'YP_003043257.1'
p3740
g3
(g5
S'N\x92\x07\xba\x07\x1f\xbb@'
tRp3741
tp3742
a(S'YP_003044512.1'
p3743
g3
(g5
S'#UI\x13O\xbc\xbb@'
tRp3744
tp3745
a(S'YP_003045945.1'
p3746
g3
(g5
S'v/\x15\xddK\xc4\xbb@'
tRp3747
tp3748
a(S'YP_003044811.1'
p3749
g3
(g5
S'k\x02\x16\x88\xfb\xf3\xbb@'
tRp3750
tp3751
a(S'YP_003046812.1'
p3752
g3
(g5
S'@\x00\xb2krb\xbc@'
tRp3753
tp3754
a(S'YP_003044179.1'
p3755
g3
(g5
S'\x99\xf1_\xfb\r?\xbd@'
tRp3756
tp3757
a(S'YP_003045104.1'
p3758
g3
(g5
S'\xfa,\xe0\x9b\xf3\xca\xbd@'
tRp3759
tp3760
a(S'YP_003046492.1'
p3761
g3
(g5
S"\x11'Z\xf9\x81\x15\xbe@"
tRp3762
tp3763
a(S'YP_003044426.1'
p3764
g3
(g5
S'\xf3D\xc5\xef\x1a2\xbe@'
tRp3765
tp3766
a(S'YP_003047050.1'
p3767
g3
(g5
S'F\x91\xf7\x9d\x12N\xbe@'
tRp3768
tp3769
a(S'YP_003046977.1'
p3770
g3
(g5
S':.W\x1d\xe9\xf5\xbe@'
tRp3771
tp3772
a(S'YP_003046376.1'
p3773
g3
(g5
S'_\xd0\xb7.\xca\xf8\xbf@'
tRp3774
tp3775
a(S'YP_003044990.1'
p3776
g3
(g5
S'\x1e\x01\x8d\x1e\x82\x00\xc0@'
tRp3777
tp3778
a(S'YP_003044309.1'
p3779
g3
(g5
S'[57f\xe6.\xc0@'
tRp3780
tp3781
a(S'YP_003047237.1'
p3782
g3
(g5
S'\xbf\x1br\xf5 >\xc0@'
tRp3783
tp3784
a(S'YP_003046217.1'
p3785
g3
(g5
S'\x96\x9e^\xa1\x8cc\xc0@'
tRp3786
tp3787
a(S'YP_003046882.1'
p3788
g3
(g5
S'\xf1\xf9$\x9b\xb1#\xc1@'
tRp3789
tp3790
a(S'YP_003043609.1'
p3791
g3
(g5
S'\x90\t\xd6\xa2Bc\xc1@'
tRp3792
tp3793
a(S'YP_003046332.1'
p3794
g3
(g5
S'\xd4;2\x91\xdc,\xc2@'
tRp3795
tp3796
a(S'YP_003044303.1'
p3797
g3
(g5
S'\xbc\xfc\xba\xcc\x13J\xc2@'
tRp3798
tp3799
a(S'YP_003045813.1'
p3800
g3
(g5
S'\x04xw\xd4\x0b\x80\xc2@'
tRp3801
tp3802
a(S'YP_003045506.1'
p3803
g3
(g5
S'"\'\xbbO\xd36\xc3@'
tRp3804
tp3805
a(S'YP_003043373.1'
p3806
g3
(g5
S'\x15Hl\xa2\x8f\xa8\xc3@'
tRp3807
tp3808
a(S'YP_003045505.1'
p3809
g3
(g5
S'\x88_\x0bB\xdbH\xc6@'
tRp3810
tp3811
a(S'YP_003046339.1'
p3812
g3
(g5
S'y\xc3\xd1\xb8\xf48\xc9@'
tRp3813
tp3814
a(S'YP_003046994.1'
p3815
g3
(g5
S'\xc5`\x97#Z\x05\xce@'
tRp3816
tp3817
a(S'YP_003047035.1'
p3818
g3
(g5
S'\xf2\x95Nq\xee\xcd\xce@'
tRp3819
tp3820
a(S'YP_003044945.1'
p3821
g3
(g5
S'\x02h\xa3\x1a#\xd7\xcf@'
tRp3822
tp3823
a(S'YP_003044438.1'
p3824
g3
(g5
S'#\x08\x07\x99\x1d\xab\xd1@'
tRp3825
tp3826
a(S'YP_003046375.1'
p3827
g3
(g5
S'c\xd5\xed\xf9N&\xd8@'
tRp3828
tp3829
a(S'YP_003047029.1'
p3830
g3
(g5
S'o\xbb\x8b\x9b\xc0B\xda@'
tRp3831
tp3832
a.